ARM GAS  /tmp/cciHZsyq.s 			page 1


   1              		.syntax unified
   2              		.cpu cortex-m3
   3              		.fpu softvfp
   4              		.eabi_attribute 20, 1
   5              		.eabi_attribute 21, 1
   6              		.eabi_attribute 23, 3
   7              		.eabi_attribute 24, 1
   8              		.eabi_attribute 25, 1
   9              		.eabi_attribute 26, 1
  10              		.eabi_attribute 30, 2
  11              		.eabi_attribute 34, 1
  12              		.eabi_attribute 18, 4
  13              		.thumb
  14              		.file	"chcond.c"
  15              		.text
  16              	.Ltext0:
  17              		.cfi_sections	.debug_frame
  18              		.section	.text.chCondInit,"ax",%progbits
  19              		.align	2
  20              		.p2align 4,,15
  21              		.global	chCondInit
  22              		.thumb
  23              		.thumb_func
  24              		.type	chCondInit, %function
  25              	chCondInit:
  26              	.LFB0:
  27              		.file 1 "../os/kernel/src/chcond.c"
  28              		.loc 1 59 0
  29              		.cfi_startproc
  30              		@ args = 0, pretend = 0, frame = 0
  31              		@ frame_needed = 0, uses_anonymous_args = 0
  32              		@ link register save eliminated.
  33              	.LVL0:
  34              		.loc 1 63 0
  35 0000 4060     		str	r0, [r0, #4]
  36 0002 0060     		str	r0, [r0]
  37 0004 7047     		bx	lr
  38              		.cfi_endproc
  39              	.LFE0:
  40              		.size	chCondInit, .-chCondInit
  41 0006 00BFAFF3 		.section	.text.chCondSignal,"ax",%progbits
  41      0080AFF3 
  41      0080
  42              		.align	2
  43              		.p2align 4,,15
  44              		.global	chCondSignal
  45              		.thumb
  46              		.thumb_func
  47              		.type	chCondSignal, %function
  48              	chCondSignal:
  49              	.LFB1:
  50              		.loc 1 73 0
  51              		.cfi_startproc
  52              		@ args = 0, pretend = 0, frame = 0
  53              		@ frame_needed = 0, uses_anonymous_args = 0
  54              	.LVL1:
  55 0000 08B5     		push	{r3, lr}
ARM GAS  /tmp/cciHZsyq.s 			page 2


  56              		.cfi_def_cfa_offset 8
  57              		.cfi_offset 3, -8
  58              		.cfi_offset 14, -4
  59              		.loc 1 77 0
  60              	@ 77 "../os/kernel/src/chcond.c" 1
  61 0002 FFF7FEFF 		bl      _port_lock
  62              	@ 0 "" 2
  63              		.loc 1 78 0
  64              		.thumb
  65 0006 0368     		ldr	r3, [r0]
  66 0008 8342     		cmp	r3, r0
  67 000a 04D0     		beq	.L3
  68              		.loc 1 79 0
  69 000c FFF7FEFF 		bl	fifo_remove
  70              	.LVL2:
  71 0010 0021     		movs	r1, #0
  72 0012 FFF7FEFF 		bl	chSchWakeupS
  73              	.LVL3:
  74              	.L3:
  75              		.loc 1 80 0
  76              	@ 80 "../os/kernel/src/chcond.c" 1
  77 0016 FFF7FEFF 		bl      _port_unlock
  78              	@ 0 "" 2
  79              		.thumb
  80 001a 08BD     		pop	{r3, pc}
  81              		.cfi_endproc
  82              	.LFE1:
  83              		.size	chCondSignal, .-chCondSignal
  84 001c AFF30080 		.section	.text.chCondSignalI,"ax",%progbits
  85              		.align	2
  86              		.p2align 4,,15
  87              		.global	chCondSignalI
  88              		.thumb
  89              		.thumb_func
  90              		.type	chCondSignalI, %function
  91              	chCondSignalI:
  92              	.LFB2:
  93              		.loc 1 94 0
  94              		.cfi_startproc
  95              		@ args = 0, pretend = 0, frame = 0
  96              		@ frame_needed = 0, uses_anonymous_args = 0
  97              	.LVL4:
  98 0000 08B5     		push	{r3, lr}
  99              		.cfi_def_cfa_offset 8
 100              		.cfi_offset 3, -8
 101              		.cfi_offset 14, -4
 102              		.loc 1 99 0
 103 0002 0368     		ldr	r3, [r0]
 104 0004 8342     		cmp	r3, r0
 105 0006 05D0     		beq	.L5
 106              		.loc 1 100 0
 107 0008 FFF7FEFF 		bl	fifo_remove
 108              	.LVL5:
 109 000c FFF7FEFF 		bl	chSchReadyI
 110              	.LVL6:
 111 0010 0023     		movs	r3, #0
 112 0012 4361     		str	r3, [r0, #20]
ARM GAS  /tmp/cciHZsyq.s 			page 3


 113              	.L5:
 114 0014 08BD     		pop	{r3, pc}
 115              		.cfi_endproc
 116              	.LFE2:
 117              		.size	chCondSignalI, .-chCondSignalI
 118 0016 00BFAFF3 		.section	.text.chCondBroadcastI,"ax",%progbits
 118      0080AFF3 
 118      0080
 119              		.align	2
 120              		.p2align 4,,15
 121              		.global	chCondBroadcastI
 122              		.thumb
 123              		.thumb_func
 124              		.type	chCondBroadcastI, %function
 125              	chCondBroadcastI:
 126              	.LFB4:
 127              		.loc 1 129 0
 128              		.cfi_startproc
 129              		@ args = 0, pretend = 0, frame = 0
 130              		@ frame_needed = 0, uses_anonymous_args = 0
 131              	.LVL7:
 132 0000 38B5     		push	{r3, r4, r5, lr}
 133              		.cfi_def_cfa_offset 16
 134              		.cfi_offset 3, -16
 135              		.cfi_offset 4, -12
 136              		.cfi_offset 5, -8
 137              		.cfi_offset 14, -4
 138              		.loc 1 137 0
 139 0002 0368     		ldr	r3, [r0]
 140              		.loc 1 129 0
 141 0004 0446     		mov	r4, r0
 142              		.loc 1 137 0
 143 0006 8342     		cmp	r3, r0
 144 0008 0AD0     		beq	.L7
 145              		.loc 1 138 0
 146 000a 6FF00105 		mvn	r5, #1
 147              	.LVL8:
 148              	.L10:
 149 000e 2046     		mov	r0, r4
 150 0010 FFF7FEFF 		bl	fifo_remove
 151              	.LVL9:
 152 0014 FFF7FEFF 		bl	chSchReadyI
 153              	.LVL10:
 154 0018 4561     		str	r5, [r0, #20]
 155              		.loc 1 137 0
 156 001a 2368     		ldr	r3, [r4]
 157 001c A342     		cmp	r3, r4
 158 001e F6D1     		bne	.L10
 159              	.L7:
 160 0020 38BD     		pop	{r3, r4, r5, pc}
 161              		.cfi_endproc
 162              	.LFE4:
 163              		.size	chCondBroadcastI, .-chCondBroadcastI
 164 0022 00BFAFF3 		.section	.text.chCondBroadcast,"ax",%progbits
 164      0080AFF3 
 164      0080AFF3 
 164      0080
ARM GAS  /tmp/cciHZsyq.s 			page 4


 165              		.align	2
 166              		.p2align 4,,15
 167              		.global	chCondBroadcast
 168              		.thumb
 169              		.thumb_func
 170              		.type	chCondBroadcast, %function
 171              	chCondBroadcast:
 172              	.LFB3:
 173              		.loc 1 110 0
 174              		.cfi_startproc
 175              		@ args = 0, pretend = 0, frame = 0
 176              		@ frame_needed = 0, uses_anonymous_args = 0
 177              	.LVL11:
 178 0000 08B5     		push	{r3, lr}
 179              		.cfi_def_cfa_offset 8
 180              		.cfi_offset 3, -8
 181              		.cfi_offset 14, -4
 182              		.loc 1 112 0
 183              	@ 112 "../os/kernel/src/chcond.c" 1
 184 0002 FFF7FEFF 		bl      _port_lock
 185              	@ 0 "" 2
 186              		.loc 1 113 0
 187              		.thumb
 188 0006 FFF7FEFF 		bl	chCondBroadcastI
 189              	.LVL12:
 190              		.loc 1 114 0
 191 000a FFF7FEFF 		bl	chSchRescheduleS
 192              	.LVL13:
 193              		.loc 1 115 0
 194              	@ 115 "../os/kernel/src/chcond.c" 1
 195 000e FFF7FEFF 		bl      _port_unlock
 196              	@ 0 "" 2
 197              		.thumb
 198 0012 08BD     		pop	{r3, pc}
 199              		.cfi_endproc
 200              	.LFE3:
 201              		.size	chCondBroadcast, .-chCondBroadcast
 202 0014 AFF30080 		.section	.text.chCondWaitS,"ax",%progbits
 202      AFF30080 
 202      AFF30080 
 203              		.align	2
 204              		.p2align 4,,15
 205              		.global	chCondWaitS
 206              		.thumb
 207              		.thumb_func
 208              		.type	chCondWaitS, %function
 209              	chCondWaitS:
 210              	.LFB6:
 211              		.loc 1 184 0
 212              		.cfi_startproc
 213              		@ args = 0, pretend = 0, frame = 0
 214              		@ frame_needed = 0, uses_anonymous_args = 0
 215              	.LVL14:
 216 0000 70B5     		push	{r4, r5, r6, lr}
 217              		.cfi_def_cfa_offset 16
 218              		.cfi_offset 4, -16
 219              		.cfi_offset 5, -12
ARM GAS  /tmp/cciHZsyq.s 			page 5


 220              		.cfi_offset 6, -8
 221              		.cfi_offset 14, -4
 222              		.loc 1 185 0
 223 0002 40F20003 		movw	r3, #:lower16:rlist
 224 0006 C0F20003 		movt	r3, #:upper16:rlist
 225 000a 1C69     		ldr	r4, [r3, #16]
 226              	.LVL15:
 227              		.loc 1 184 0
 228 000c 0546     		mov	r5, r0
 229              		.loc 1 195 0
 230 000e FFF7FEFF 		bl	chMtxUnlockS
 231              	.LVL16:
 232              		.loc 1 197 0
 233 0012 2946     		mov	r1, r5
 234              		.loc 1 195 0
 235 0014 0646     		mov	r6, r0
 236              	.LVL17:
 237              		.loc 1 196 0
 238 0016 6561     		str	r5, [r4, #20]
 239              		.loc 1 197 0
 240 0018 2046     		mov	r0, r4
 241              	.LVL18:
 242 001a FFF7FEFF 		bl	prio_insert
 243              	.LVL19:
 244              		.loc 1 198 0
 245 001e 0520     		movs	r0, #5
 246 0020 FFF7FEFF 		bl	chSchGoSleepS
 247              	.LVL20:
 248              		.loc 1 199 0
 249 0024 6469     		ldr	r4, [r4, #20]
 250              	.LVL21:
 251              		.loc 1 200 0
 252 0026 3046     		mov	r0, r6
 253 0028 FFF7FEFF 		bl	chMtxLockS
 254              	.LVL22:
 255              		.loc 1 202 0
 256 002c 2046     		mov	r0, r4
 257 002e 70BD     		pop	{r4, r5, r6, pc}
 258              		.cfi_endproc
 259              	.LFE6:
 260              		.size	chCondWaitS, .-chCondWaitS
 261              		.section	.text.chCondWait,"ax",%progbits
 262              		.align	2
 263              		.p2align 4,,15
 264              		.global	chCondWait
 265              		.thumb
 266              		.thumb_func
 267              		.type	chCondWait, %function
 268              	chCondWait:
 269              	.LFB5:
 270              		.loc 1 158 0
 271              		.cfi_startproc
 272              		@ args = 0, pretend = 0, frame = 0
 273              		@ frame_needed = 0, uses_anonymous_args = 0
 274              	.LVL23:
 275 0000 08B5     		push	{r3, lr}
 276              		.cfi_def_cfa_offset 8
ARM GAS  /tmp/cciHZsyq.s 			page 6


 277              		.cfi_offset 3, -8
 278              		.cfi_offset 14, -4
 279              		.loc 1 161 0
 280              	@ 161 "../os/kernel/src/chcond.c" 1
 281 0002 FFF7FEFF 		bl      _port_lock
 282              	@ 0 "" 2
 283              		.loc 1 162 0
 284              		.thumb
 285 0006 FFF7FEFF 		bl	chCondWaitS
 286              	.LVL24:
 287              		.loc 1 163 0
 288              	@ 163 "../os/kernel/src/chcond.c" 1
 289 000a FFF7FEFF 		bl      _port_unlock
 290              	@ 0 "" 2
 291              		.loc 1 165 0
 292              		.thumb
 293 000e 08BD     		pop	{r3, pc}
 294              		.cfi_endproc
 295              	.LFE5:
 296              		.size	chCondWait, .-chCondWait
 297              		.section	.text.chCondWaitTimeoutS,"ax",%progbits
 298              		.align	2
 299              		.p2align 4,,15
 300              		.global	chCondWaitTimeoutS
 301              		.thumb
 302              		.thumb_func
 303              		.type	chCondWaitTimeoutS, %function
 304              	chCondWaitTimeoutS:
 305              	.LFB8:
 306              		.loc 1 270 0
 307              		.cfi_startproc
 308              		@ args = 0, pretend = 0, frame = 0
 309              		@ frame_needed = 0, uses_anonymous_args = 0
 310              	.LVL25:
 311 0000 70B5     		push	{r4, r5, r6, lr}
 312              		.cfi_def_cfa_offset 16
 313              		.cfi_offset 4, -16
 314              		.cfi_offset 5, -12
 315              		.cfi_offset 6, -8
 316              		.cfi_offset 14, -4
 317              		.loc 1 270 0
 318 0002 0446     		mov	r4, r0
 319 0004 0D46     		mov	r5, r1
 320              		.loc 1 280 0
 321 0006 FFF7FEFF 		bl	chMtxUnlockS
 322              	.LVL26:
 323              		.loc 1 281 0
 324 000a 40F20003 		movw	r3, #:lower16:rlist
 325 000e C0F20003 		movt	r3, #:upper16:rlist
 326              		.loc 1 280 0
 327 0012 0646     		mov	r6, r0
 328              	.LVL27:
 329              		.loc 1 281 0
 330 0014 1869     		ldr	r0, [r3, #16]
 331              	.LVL28:
 332              		.loc 1 282 0
 333 0016 2146     		mov	r1, r4
ARM GAS  /tmp/cciHZsyq.s 			page 7


 334              		.loc 1 281 0
 335 0018 4461     		str	r4, [r0, #20]
 336              		.loc 1 282 0
 337 001a FFF7FEFF 		bl	prio_insert
 338              	.LVL29:
 339              		.loc 1 283 0
 340 001e 2946     		mov	r1, r5
 341 0020 0520     		movs	r0, #5
 342 0022 FFF7FEFF 		bl	chSchGoSleepTimeoutS
 343              	.LVL30:
 344              		.loc 1 284 0
 345 0026 431C     		adds	r3, r0, #1
 346              		.loc 1 283 0
 347 0028 0446     		mov	r4, r0
 348              	.LVL31:
 349              		.loc 1 284 0
 350 002a 02D0     		beq	.L15
 351              		.loc 1 285 0
 352 002c 3046     		mov	r0, r6
 353              	.LVL32:
 354 002e FFF7FEFF 		bl	chMtxLockS
 355              	.LVL33:
 356              	.L15:
 357              		.loc 1 287 0
 358 0032 2046     		mov	r0, r4
 359 0034 70BD     		pop	{r4, r5, r6, pc}
 360              		.cfi_endproc
 361              	.LFE8:
 362              		.size	chCondWaitTimeoutS, .-chCondWaitTimeoutS
 363 0036 00BFAFF3 		.section	.text.chCondWaitTimeout,"ax",%progbits
 363      0080AFF3 
 363      0080
 364              		.align	2
 365              		.p2align 4,,15
 366              		.global	chCondWaitTimeout
 367              		.thumb
 368              		.thumb_func
 369              		.type	chCondWaitTimeout, %function
 370              	chCondWaitTimeout:
 371              	.LFB7:
 372              		.loc 1 233 0
 373              		.cfi_startproc
 374              		@ args = 0, pretend = 0, frame = 0
 375              		@ frame_needed = 0, uses_anonymous_args = 0
 376              	.LVL34:
 377 0000 08B5     		push	{r3, lr}
 378              		.cfi_def_cfa_offset 8
 379              		.cfi_offset 3, -8
 380              		.cfi_offset 14, -4
 381              		.loc 1 236 0
 382              	@ 236 "../os/kernel/src/chcond.c" 1
 383 0002 FFF7FEFF 		bl      _port_lock
 384              	@ 0 "" 2
 385              		.loc 1 237 0
 386              		.thumb
 387 0006 FFF7FEFF 		bl	chCondWaitTimeoutS
 388              	.LVL35:
ARM GAS  /tmp/cciHZsyq.s 			page 8


 389              		.loc 1 238 0
 390              	@ 238 "../os/kernel/src/chcond.c" 1
 391 000a FFF7FEFF 		bl      _port_unlock
 392              	@ 0 "" 2
 393              		.loc 1 240 0
 394              		.thumb
 395 000e 08BD     		pop	{r3, pc}
 396              		.cfi_endproc
 397              	.LFE7:
 398              		.size	chCondWaitTimeout, .-chCondWaitTimeout
 399              		.text
 400              	.Letext0:
 401              		.file 2 "/usr/include/newlib/machine/_default_types.h"
 402              		.file 3 "/usr/include/newlib/stdint.h"
 403              		.file 4 "../os/ports/GCC/ARMCMx/chtypes.h"
 404              		.file 5 "../os/kernel/include/chlists.h"
 405              		.file 6 "../os/kernel/include/chthreads.h"
 406              		.file 7 "../os/ports/GCC/ARMCMx/chcore_v7m.h"
 407              		.file 8 "../os/kernel/include/chschd.h"
 408              		.file 9 "../os/kernel/include/chmtx.h"
 409              		.file 10 "../os/kernel/include/chcond.h"
 410              		.section	.debug_info,"",%progbits
 411              	.Ldebug_info0:
 412 0000 65070000 		.4byte	0x765
 413 0004 0400     		.2byte	0x4
 414 0006 00000000 		.4byte	.Ldebug_abbrev0
 415 000a 04       		.byte	0x4
 416 000b 01       		.uleb128 0x1
 417 000c 22000000 		.4byte	.LASF75
 418 0010 01       		.byte	0x1
 419 0011 0C010000 		.4byte	.LASF76
 420 0015 3B030000 		.4byte	.LASF77
 421 0019 00000000 		.4byte	.Ldebug_ranges0+0
 422 001d 00000000 		.4byte	0
 423 0021 00000000 		.4byte	.Ldebug_line0
 424 0025 02       		.uleb128 0x2
 425 0026 04       		.byte	0x4
 426 0027 05       		.byte	0x5
 427 0028 696E7400 		.ascii	"int\000"
 428 002c 03       		.uleb128 0x3
 429 002d 04       		.byte	0x4
 430 002e 07       		.byte	0x7
 431 002f B6010000 		.4byte	.LASF0
 432 0033 03       		.uleb128 0x3
 433 0034 01       		.byte	0x1
 434 0035 06       		.byte	0x6
 435 0036 34010000 		.4byte	.LASF1
 436 003a 04       		.uleb128 0x4
 437 003b 18000000 		.4byte	.LASF5
 438 003f 02       		.byte	0x2
 439 0040 1C       		.byte	0x1c
 440 0041 45000000 		.4byte	0x45
 441 0045 03       		.uleb128 0x3
 442 0046 01       		.byte	0x1
 443 0047 08       		.byte	0x8
 444 0048 A5020000 		.4byte	.LASF2
 445 004c 03       		.uleb128 0x3
ARM GAS  /tmp/cciHZsyq.s 			page 9


 446 004d 02       		.byte	0x2
 447 004e 05       		.byte	0x5
 448 004f BD020000 		.4byte	.LASF3
 449 0053 03       		.uleb128 0x3
 450 0054 02       		.byte	0x2
 451 0055 07       		.byte	0x7
 452 0056 D5010000 		.4byte	.LASF4
 453 005a 04       		.uleb128 0x4
 454 005b B5030000 		.4byte	.LASF6
 455 005f 02       		.byte	0x2
 456 0060 37       		.byte	0x37
 457 0061 65000000 		.4byte	0x65
 458 0065 03       		.uleb128 0x3
 459 0066 04       		.byte	0x4
 460 0067 05       		.byte	0x5
 461 0068 5A010000 		.4byte	.LASF7
 462 006c 04       		.uleb128 0x4
 463 006d 88010000 		.4byte	.LASF8
 464 0071 02       		.byte	0x2
 465 0072 38       		.byte	0x38
 466 0073 77000000 		.4byte	0x77
 467 0077 03       		.uleb128 0x3
 468 0078 04       		.byte	0x4
 469 0079 07       		.byte	0x7
 470 007a C3010000 		.4byte	.LASF9
 471 007e 03       		.uleb128 0x3
 472 007f 08       		.byte	0x8
 473 0080 05       		.byte	0x5
 474 0081 26010000 		.4byte	.LASF10
 475 0085 03       		.uleb128 0x3
 476 0086 08       		.byte	0x8
 477 0087 07       		.byte	0x7
 478 0088 D4000000 		.4byte	.LASF11
 479 008c 04       		.uleb128 0x4
 480 008d 01040000 		.4byte	.LASF12
 481 0091 03       		.byte	0x3
 482 0092 2A       		.byte	0x2a
 483 0093 3A000000 		.4byte	0x3a
 484 0097 04       		.uleb128 0x4
 485 0098 9D020000 		.4byte	.LASF13
 486 009c 03       		.byte	0x3
 487 009d 41       		.byte	0x41
 488 009e 5A000000 		.4byte	0x5a
 489 00a2 04       		.uleb128 0x4
 490 00a3 1E030000 		.4byte	.LASF14
 491 00a7 03       		.byte	0x3
 492 00a8 42       		.byte	0x42
 493 00a9 6C000000 		.4byte	0x6c
 494 00ad 03       		.uleb128 0x3
 495 00ae 01       		.byte	0x1
 496 00af 02       		.byte	0x2
 497 00b0 97020000 		.4byte	.LASF15
 498 00b4 04       		.uleb128 0x4
 499 00b5 FA010000 		.4byte	.LASF16
 500 00b9 04       		.byte	0x4
 501 00ba 2C       		.byte	0x2c
 502 00bb 8C000000 		.4byte	0x8c
ARM GAS  /tmp/cciHZsyq.s 			page 10


 503 00bf 04       		.uleb128 0x4
 504 00c0 63010000 		.4byte	.LASF17
 505 00c4 04       		.byte	0x4
 506 00c5 2D       		.byte	0x2d
 507 00c6 8C000000 		.4byte	0x8c
 508 00ca 04       		.uleb128 0x4
 509 00cb 48010000 		.4byte	.LASF18
 510 00cf 04       		.byte	0x4
 511 00d0 2F       		.byte	0x2f
 512 00d1 8C000000 		.4byte	0x8c
 513 00d5 04       		.uleb128 0x4
 514 00d6 81020000 		.4byte	.LASF19
 515 00da 04       		.byte	0x4
 516 00db 30       		.byte	0x30
 517 00dc A2000000 		.4byte	0xa2
 518 00e0 04       		.uleb128 0x4
 519 00e1 E8010000 		.4byte	.LASF20
 520 00e5 04       		.byte	0x4
 521 00e6 31       		.byte	0x31
 522 00e7 97000000 		.4byte	0x97
 523 00eb 04       		.uleb128 0x4
 524 00ec 0E020000 		.4byte	.LASF21
 525 00f0 04       		.byte	0x4
 526 00f1 33       		.byte	0x33
 527 00f2 A2000000 		.4byte	0xa2
 528 00f6 04       		.uleb128 0x4
 529 00f7 A0030000 		.4byte	.LASF22
 530 00fb 04       		.byte	0x4
 531 00fc 35       		.byte	0x35
 532 00fd A2000000 		.4byte	0xa2
 533 0101 04       		.uleb128 0x4
 534 0102 F6020000 		.4byte	.LASF23
 535 0106 05       		.byte	0x5
 536 0107 2A       		.byte	0x2a
 537 0108 0C010000 		.4byte	0x10c
 538 010c 05       		.uleb128 0x5
 539 010d F6020000 		.4byte	.LASF23
 540 0111 34       		.byte	0x34
 541 0112 06       		.byte	0x6
 542 0113 5E       		.byte	0x5e
 543 0114 C1010000 		.4byte	0x1c1
 544 0118 06       		.uleb128 0x6
 545 0119 E7020000 		.4byte	.LASF24
 546 011d 06       		.byte	0x6
 547 011e 5F       		.byte	0x5f
 548 011f E2010000 		.4byte	0x1e2
 549 0123 00       		.byte	0
 550 0124 06       		.uleb128 0x6
 551 0125 7A020000 		.4byte	.LASF25
 552 0129 06       		.byte	0x6
 553 012a 61       		.byte	0x61
 554 012b E2010000 		.4byte	0x1e2
 555 012f 04       		.byte	0x4
 556 0130 06       		.uleb128 0x6
 557 0131 05010000 		.4byte	.LASF26
 558 0135 06       		.byte	0x6
 559 0136 63       		.byte	0x63
ARM GAS  /tmp/cciHZsyq.s 			page 11


 560 0137 D5000000 		.4byte	0xd5
 561 013b 08       		.byte	0x8
 562 013c 06       		.uleb128 0x6
 563 013d 3F040000 		.4byte	.LASF27
 564 0141 06       		.byte	0x6
 565 0142 64       		.byte	0x64
 566 0143 9C020000 		.4byte	0x29c
 567 0147 0C       		.byte	0xc
 568 0148 06       		.uleb128 0x6
 569 0149 C7020000 		.4byte	.LASF28
 570 014d 06       		.byte	0x6
 571 014e 79       		.byte	0x79
 572 014f BF000000 		.4byte	0xbf
 573 0153 10       		.byte	0x10
 574 0154 06       		.uleb128 0x6
 575 0155 EE020000 		.4byte	.LASF29
 576 0159 06       		.byte	0x6
 577 015a 7D       		.byte	0x7d
 578 015b B4000000 		.4byte	0xb4
 579 015f 11       		.byte	0x11
 580 0160 06       		.uleb128 0x6
 581 0161 CF020000 		.4byte	.LASF30
 582 0165 06       		.byte	0x6
 583 0166 88       		.byte	0x88
 584 0167 CA000000 		.4byte	0xca
 585 016b 12       		.byte	0x12
 586 016c 07       		.uleb128 0x7
 587 016d 705F7500 		.ascii	"p_u\000"
 588 0171 06       		.byte	0x6
 589 0172 B4       		.byte	0xb4
 590 0173 6E030000 		.4byte	0x36e
 591 0177 14       		.byte	0x14
 592 0178 06       		.uleb128 0x6
 593 0179 45040000 		.4byte	.LASF31
 594 017d 06       		.byte	0x6
 595 017e B9       		.byte	0xb9
 596 017f 08020000 		.4byte	0x208
 597 0183 18       		.byte	0x18
 598 0184 06       		.uleb128 0x6
 599 0185 D9030000 		.4byte	.LASF32
 600 0189 06       		.byte	0x6
 601 018a BF       		.byte	0xbf
 602 018b E8010000 		.4byte	0x1e8
 603 018f 1C       		.byte	0x1c
 604 0190 06       		.uleb128 0x6
 605 0191 00000000 		.4byte	.LASF33
 606 0195 06       		.byte	0x6
 607 0196 C3       		.byte	0xc3
 608 0197 E0000000 		.4byte	0xe0
 609 019b 24       		.byte	0x24
 610 019c 06       		.uleb128 0x6
 611 019d 13030000 		.4byte	.LASF34
 612 01a1 06       		.byte	0x6
 613 01a2 C9       		.byte	0xc9
 614 01a3 EB000000 		.4byte	0xeb
 615 01a7 28       		.byte	0x28
 616 01a8 06       		.uleb128 0x6
ARM GAS  /tmp/cciHZsyq.s 			page 12


 617 01a9 B3020000 		.4byte	.LASF35
 618 01ad 06       		.byte	0x6
 619 01ae D0       		.byte	0xd0
 620 01af A3030000 		.4byte	0x3a3
 621 01b3 2C       		.byte	0x2c
 622 01b4 06       		.uleb128 0x6
 623 01b5 AA030000 		.4byte	.LASF36
 624 01b9 06       		.byte	0x6
 625 01ba D4       		.byte	0xd4
 626 01bb D5000000 		.4byte	0xd5
 627 01bf 30       		.byte	0x30
 628 01c0 00       		.byte	0
 629 01c1 08       		.uleb128 0x8
 630 01c2 08       		.byte	0x8
 631 01c3 05       		.byte	0x5
 632 01c4 61       		.byte	0x61
 633 01c5 E2010000 		.4byte	0x1e2
 634 01c9 06       		.uleb128 0x6
 635 01ca E7020000 		.4byte	.LASF24
 636 01ce 05       		.byte	0x5
 637 01cf 62       		.byte	0x62
 638 01d0 E2010000 		.4byte	0x1e2
 639 01d4 00       		.byte	0
 640 01d5 06       		.uleb128 0x6
 641 01d6 7A020000 		.4byte	.LASF25
 642 01da 05       		.byte	0x5
 643 01db 64       		.byte	0x64
 644 01dc E2010000 		.4byte	0x1e2
 645 01e0 04       		.byte	0x4
 646 01e1 00       		.byte	0
 647 01e2 09       		.uleb128 0x9
 648 01e3 04       		.byte	0x4
 649 01e4 01010000 		.4byte	0x101
 650 01e8 04       		.uleb128 0x4
 651 01e9 4E020000 		.4byte	.LASF37
 652 01ed 05       		.byte	0x5
 653 01ee 66       		.byte	0x66
 654 01ef C1010000 		.4byte	0x1c1
 655 01f3 08       		.uleb128 0x8
 656 01f4 04       		.byte	0x4
 657 01f5 05       		.byte	0x5
 658 01f6 6B       		.byte	0x6b
 659 01f7 08020000 		.4byte	0x208
 660 01fb 06       		.uleb128 0x6
 661 01fc E7020000 		.4byte	.LASF24
 662 0200 05       		.byte	0x5
 663 0201 6D       		.byte	0x6d
 664 0202 E2010000 		.4byte	0x1e2
 665 0206 00       		.byte	0
 666 0207 00       		.byte	0
 667 0208 04       		.uleb128 0x4
 668 0209 02020000 		.4byte	.LASF38
 669 020d 05       		.byte	0x5
 670 020e 70       		.byte	0x70
 671 020f F3010000 		.4byte	0x1f3
 672 0213 04       		.uleb128 0x4
 673 0214 93010000 		.4byte	.LASF39
ARM GAS  /tmp/cciHZsyq.s 			page 13


 674 0218 07       		.byte	0x7
 675 0219 E5       		.byte	0xe5
 676 021a 1E020000 		.4byte	0x21e
 677 021e 0A       		.uleb128 0xa
 678 021f 04       		.byte	0x4
 679 0220 0B       		.uleb128 0xb
 680 0221 D2030000 		.4byte	.LASF40
 681 0225 24       		.byte	0x24
 682 0226 07       		.byte	0x7
 683 0227 0C01     		.2byte	0x10c
 684 0229 9C020000 		.4byte	0x29c
 685 022d 0C       		.uleb128 0xc
 686 022e 723400   		.ascii	"r4\000"
 687 0231 07       		.byte	0x7
 688 0232 1F01     		.2byte	0x11f
 689 0234 13020000 		.4byte	0x213
 690 0238 00       		.byte	0
 691 0239 0C       		.uleb128 0xc
 692 023a 723500   		.ascii	"r5\000"
 693 023d 07       		.byte	0x7
 694 023e 2001     		.2byte	0x120
 695 0240 13020000 		.4byte	0x213
 696 0244 04       		.byte	0x4
 697 0245 0C       		.uleb128 0xc
 698 0246 723600   		.ascii	"r6\000"
 699 0249 07       		.byte	0x7
 700 024a 2101     		.2byte	0x121
 701 024c 13020000 		.4byte	0x213
 702 0250 08       		.byte	0x8
 703 0251 0C       		.uleb128 0xc
 704 0252 723700   		.ascii	"r7\000"
 705 0255 07       		.byte	0x7
 706 0256 2201     		.2byte	0x122
 707 0258 13020000 		.4byte	0x213
 708 025c 0C       		.byte	0xc
 709 025d 0C       		.uleb128 0xc
 710 025e 723800   		.ascii	"r8\000"
 711 0261 07       		.byte	0x7
 712 0262 2301     		.2byte	0x123
 713 0264 13020000 		.4byte	0x213
 714 0268 10       		.byte	0x10
 715 0269 0C       		.uleb128 0xc
 716 026a 723900   		.ascii	"r9\000"
 717 026d 07       		.byte	0x7
 718 026e 2401     		.2byte	0x124
 719 0270 13020000 		.4byte	0x213
 720 0274 14       		.byte	0x14
 721 0275 0C       		.uleb128 0xc
 722 0276 72313000 		.ascii	"r10\000"
 723 027a 07       		.byte	0x7
 724 027b 2501     		.2byte	0x125
 725 027d 13020000 		.4byte	0x213
 726 0281 18       		.byte	0x18
 727 0282 0C       		.uleb128 0xc
 728 0283 72313100 		.ascii	"r11\000"
 729 0287 07       		.byte	0x7
 730 0288 2601     		.2byte	0x126
ARM GAS  /tmp/cciHZsyq.s 			page 14


 731 028a 13020000 		.4byte	0x213
 732 028e 1C       		.byte	0x1c
 733 028f 0C       		.uleb128 0xc
 734 0290 6C7200   		.ascii	"lr\000"
 735 0293 07       		.byte	0x7
 736 0294 2701     		.2byte	0x127
 737 0296 13020000 		.4byte	0x213
 738 029a 20       		.byte	0x20
 739 029b 00       		.byte	0
 740 029c 0B       		.uleb128 0xb
 741 029d CA030000 		.4byte	.LASF41
 742 02a1 04       		.byte	0x4
 743 02a2 07       		.byte	0x7
 744 02a3 3101     		.2byte	0x131
 745 02a5 B7020000 		.4byte	0x2b7
 746 02a9 0C       		.uleb128 0xc
 747 02aa 72313300 		.ascii	"r13\000"
 748 02ae 07       		.byte	0x7
 749 02af 3201     		.2byte	0x132
 750 02b1 B7020000 		.4byte	0x2b7
 751 02b5 00       		.byte	0
 752 02b6 00       		.byte	0
 753 02b7 09       		.uleb128 0x9
 754 02b8 04       		.byte	0x4
 755 02b9 20020000 		.4byte	0x220
 756 02bd 03       		.uleb128 0x3
 757 02be 04       		.byte	0x4
 758 02bf 07       		.byte	0x7
 759 02c0 20020000 		.4byte	.LASF42
 760 02c4 08       		.uleb128 0x8
 761 02c5 14       		.byte	0x14
 762 02c6 08       		.byte	0x8
 763 02c7 5E       		.byte	0x5e
 764 02c8 FD020000 		.4byte	0x2fd
 765 02cc 06       		.uleb128 0x6
 766 02cd 27030000 		.4byte	.LASF43
 767 02d1 08       		.byte	0x8
 768 02d2 5F       		.byte	0x5f
 769 02d3 E8010000 		.4byte	0x1e8
 770 02d7 00       		.byte	0
 771 02d8 06       		.uleb128 0x6
 772 02d9 D9020000 		.4byte	.LASF44
 773 02dd 08       		.byte	0x8
 774 02de 60       		.byte	0x60
 775 02df D5000000 		.4byte	0xd5
 776 02e3 08       		.byte	0x8
 777 02e4 06       		.uleb128 0x6
 778 02e5 48020000 		.4byte	.LASF45
 779 02e9 08       		.byte	0x8
 780 02ea 62       		.byte	0x62
 781 02eb 9C020000 		.4byte	0x29c
 782 02ef 0C       		.byte	0xc
 783 02f0 06       		.uleb128 0x6
 784 02f1 60020000 		.4byte	.LASF46
 785 02f5 08       		.byte	0x8
 786 02f6 69       		.byte	0x69
 787 02f7 E2010000 		.4byte	0x1e2
ARM GAS  /tmp/cciHZsyq.s 			page 15


 788 02fb 10       		.byte	0x10
 789 02fc 00       		.byte	0
 790 02fd 04       		.uleb128 0x4
 791 02fe F1030000 		.4byte	.LASF47
 792 0302 08       		.byte	0x8
 793 0303 6B       		.byte	0x6b
 794 0304 C4020000 		.4byte	0x2c4
 795 0308 05       		.uleb128 0x5
 796 0309 1A020000 		.4byte	.LASF48
 797 030d 10       		.byte	0x10
 798 030e 09       		.byte	0x9
 799 030f 2C       		.byte	0x2c
 800 0310 39030000 		.4byte	0x339
 801 0314 06       		.uleb128 0x6
 802 0315 40010000 		.4byte	.LASF49
 803 0319 09       		.byte	0x9
 804 031a 2D       		.byte	0x2d
 805 031b E8010000 		.4byte	0x1e8
 806 031f 00       		.byte	0
 807 0320 06       		.uleb128 0x6
 808 0321 37040000 		.4byte	.LASF50
 809 0325 09       		.byte	0x9
 810 0326 2F       		.byte	0x2f
 811 0327 E2010000 		.4byte	0x1e2
 812 032b 08       		.byte	0x8
 813 032c 06       		.uleb128 0x6
 814 032d 99030000 		.4byte	.LASF51
 815 0331 09       		.byte	0x9
 816 0332 31       		.byte	0x31
 817 0333 39030000 		.4byte	0x339
 818 0337 0C       		.byte	0xc
 819 0338 00       		.byte	0
 820 0339 09       		.uleb128 0x9
 821 033a 04       		.byte	0x4
 822 033b 08030000 		.4byte	0x308
 823 033f 04       		.uleb128 0x4
 824 0340 1A020000 		.4byte	.LASF48
 825 0344 09       		.byte	0x9
 826 0345 33       		.byte	0x33
 827 0346 08030000 		.4byte	0x308
 828 034a 05       		.uleb128 0x5
 829 034b 52010000 		.4byte	.LASF52
 830 034f 08       		.byte	0x8
 831 0350 0A       		.byte	0xa
 832 0351 36       		.byte	0x36
 833 0352 63030000 		.4byte	0x363
 834 0356 06       		.uleb128 0x6
 835 0357 FD020000 		.4byte	.LASF53
 836 035b 0A       		.byte	0xa
 837 035c 37       		.byte	0x37
 838 035d E8010000 		.4byte	0x1e8
 839 0361 00       		.byte	0
 840 0362 00       		.byte	0
 841 0363 04       		.uleb128 0x4
 842 0364 52010000 		.4byte	.LASF52
 843 0368 0A       		.byte	0xa
 844 0369 38       		.byte	0x38
ARM GAS  /tmp/cciHZsyq.s 			page 16


 845 036a 4A030000 		.4byte	0x34a
 846 036e 0D       		.uleb128 0xd
 847 036f 04       		.byte	0x4
 848 0370 06       		.byte	0x6
 849 0371 96       		.byte	0x96
 850 0372 A3030000 		.4byte	0x3a3
 851 0376 0E       		.uleb128 0xe
 852 0377 11000000 		.4byte	.LASF54
 853 037b 06       		.byte	0x6
 854 037c 9D       		.byte	0x9d
 855 037d E0000000 		.4byte	0xe0
 856 0381 0E       		.uleb128 0xe
 857 0382 EB000000 		.4byte	.LASF55
 858 0386 06       		.byte	0x6
 859 0387 A4       		.byte	0xa4
 860 0388 E0000000 		.4byte	0xe0
 861 038c 0E       		.uleb128 0xe
 862 038d 09040000 		.4byte	.LASF56
 863 0391 06       		.byte	0x6
 864 0392 AB       		.byte	0xab
 865 0393 1E020000 		.4byte	0x21e
 866 0397 0E       		.uleb128 0xe
 867 0398 E0020000 		.4byte	.LASF57
 868 039c 06       		.byte	0x6
 869 039d B2       		.byte	0xb2
 870 039e EB000000 		.4byte	0xeb
 871 03a2 00       		.byte	0
 872 03a3 09       		.uleb128 0x9
 873 03a4 04       		.byte	0x4
 874 03a5 3F030000 		.4byte	0x33f
 875 03a9 0F       		.uleb128 0xf
 876 03aa 06000000 		.4byte	.LASF58
 877 03ae 01       		.byte	0x1
 878 03af 3B       		.byte	0x3b
 879 03b0 00000000 		.4byte	.LFB0
 880 03b4 06000000 		.4byte	.LFE0-.LFB0
 881 03b8 01       		.uleb128 0x1
 882 03b9 9C       		.byte	0x9c
 883 03ba CB030000 		.4byte	0x3cb
 884 03be 10       		.uleb128 0x10
 885 03bf 637000   		.ascii	"cp\000"
 886 03c2 01       		.byte	0x1
 887 03c3 3B       		.byte	0x3b
 888 03c4 CB030000 		.4byte	0x3cb
 889 03c8 01       		.uleb128 0x1
 890 03c9 50       		.byte	0x50
 891 03ca 00       		.byte	0
 892 03cb 09       		.uleb128 0x9
 893 03cc 04       		.byte	0x4
 894 03cd 63030000 		.4byte	0x363
 895 03d1 0F       		.uleb128 0xf
 896 03d2 9C010000 		.4byte	.LASF59
 897 03d6 01       		.byte	0x1
 898 03d7 49       		.byte	0x49
 899 03d8 00000000 		.4byte	.LFB1
 900 03dc 1C000000 		.4byte	.LFE1-.LFB1
 901 03e0 01       		.uleb128 0x1
ARM GAS  /tmp/cciHZsyq.s 			page 17


 902 03e1 9C       		.byte	0x9c
 903 03e2 19040000 		.4byte	0x419
 904 03e6 11       		.uleb128 0x11
 905 03e7 637000   		.ascii	"cp\000"
 906 03ea 01       		.byte	0x1
 907 03eb 49       		.byte	0x49
 908 03ec CB030000 		.4byte	0x3cb
 909 03f0 00000000 		.4byte	.LLST0
 910 03f4 12       		.uleb128 0x12
 911 03f5 10000000 		.4byte	.LVL2
 912 03f9 C2060000 		.4byte	0x6c2
 913 03fd 09040000 		.4byte	0x409
 914 0401 13       		.uleb128 0x13
 915 0402 01       		.uleb128 0x1
 916 0403 50       		.byte	0x50
 917 0404 03       		.uleb128 0x3
 918 0405 F3       		.byte	0xf3
 919 0406 01       		.uleb128 0x1
 920 0407 50       		.byte	0x50
 921 0408 00       		.byte	0
 922 0409 14       		.uleb128 0x14
 923 040a 16000000 		.4byte	.LVL3
 924 040e DD060000 		.4byte	0x6dd
 925 0412 13       		.uleb128 0x13
 926 0413 01       		.uleb128 0x1
 927 0414 51       		.byte	0x51
 928 0415 01       		.uleb128 0x1
 929 0416 30       		.byte	0x30
 930 0417 00       		.byte	0
 931 0418 00       		.byte	0
 932 0419 0F       		.uleb128 0xf
 933 041a 89020000 		.4byte	.LASF60
 934 041e 01       		.byte	0x1
 935 041f 5E       		.byte	0x5e
 936 0420 00000000 		.4byte	.LFB2
 937 0424 16000000 		.4byte	.LFE2-.LFB2
 938 0428 01       		.uleb128 0x1
 939 0429 9C       		.byte	0x9c
 940 042a 5B040000 		.4byte	0x45b
 941 042e 11       		.uleb128 0x11
 942 042f 637000   		.ascii	"cp\000"
 943 0432 01       		.byte	0x1
 944 0433 5E       		.byte	0x5e
 945 0434 CB030000 		.4byte	0x3cb
 946 0438 21000000 		.4byte	.LLST1
 947 043c 12       		.uleb128 0x12
 948 043d 0C000000 		.4byte	.LVL5
 949 0441 C2060000 		.4byte	0x6c2
 950 0445 51040000 		.4byte	0x451
 951 0449 13       		.uleb128 0x13
 952 044a 01       		.uleb128 0x1
 953 044b 50       		.byte	0x50
 954 044c 03       		.uleb128 0x3
 955 044d F3       		.byte	0xf3
 956 044e 01       		.uleb128 0x1
 957 044f 50       		.byte	0x50
 958 0450 00       		.byte	0
ARM GAS  /tmp/cciHZsyq.s 			page 18


 959 0451 15       		.uleb128 0x15
 960 0452 10000000 		.4byte	.LVL6
 961 0456 F3060000 		.4byte	0x6f3
 962 045a 00       		.byte	0
 963 045b 0F       		.uleb128 0xf
 964 045c F4000000 		.4byte	.LASF61
 965 0460 01       		.byte	0x1
 966 0461 81       		.byte	0x81
 967 0462 00000000 		.4byte	.LFB4
 968 0466 22000000 		.4byte	.LFE4-.LFB4
 969 046a 01       		.uleb128 0x1
 970 046b 9C       		.byte	0x9c
 971 046c 9C040000 		.4byte	0x49c
 972 0470 11       		.uleb128 0x11
 973 0471 637000   		.ascii	"cp\000"
 974 0474 01       		.byte	0x1
 975 0475 81       		.byte	0x81
 976 0476 CB030000 		.4byte	0x3cb
 977 047a 42000000 		.4byte	.LLST2
 978 047e 12       		.uleb128 0x12
 979 047f 14000000 		.4byte	.LVL9
 980 0483 C2060000 		.4byte	0x6c2
 981 0487 92040000 		.4byte	0x492
 982 048b 13       		.uleb128 0x13
 983 048c 01       		.uleb128 0x1
 984 048d 50       		.byte	0x50
 985 048e 02       		.uleb128 0x2
 986 048f 74       		.byte	0x74
 987 0490 00       		.sleb128 0
 988 0491 00       		.byte	0
 989 0492 15       		.uleb128 0x15
 990 0493 18000000 		.4byte	.LVL10
 991 0497 F3060000 		.4byte	0x6f3
 992 049b 00       		.byte	0
 993 049c 0F       		.uleb128 0xf
 994 049d 6A020000 		.4byte	.LASF62
 995 04a1 01       		.byte	0x1
 996 04a2 6E       		.byte	0x6e
 997 04a3 00000000 		.4byte	.LFB3
 998 04a7 14000000 		.4byte	.LFE3-.LFB3
 999 04ab 01       		.uleb128 0x1
 1000 04ac 9C       		.byte	0x9c
 1001 04ad DE040000 		.4byte	0x4de
 1002 04b1 11       		.uleb128 0x11
 1003 04b2 637000   		.ascii	"cp\000"
 1004 04b5 01       		.byte	0x1
 1005 04b6 6E       		.byte	0x6e
 1006 04b7 CB030000 		.4byte	0x3cb
 1007 04bb 60000000 		.4byte	.LLST3
 1008 04bf 12       		.uleb128 0x12
 1009 04c0 0A000000 		.4byte	.LVL12
 1010 04c4 5B040000 		.4byte	0x45b
 1011 04c8 D4040000 		.4byte	0x4d4
 1012 04cc 13       		.uleb128 0x13
 1013 04cd 01       		.uleb128 0x1
 1014 04ce 50       		.byte	0x50
 1015 04cf 03       		.uleb128 0x3
ARM GAS  /tmp/cciHZsyq.s 			page 19


 1016 04d0 F3       		.byte	0xf3
 1017 04d1 01       		.uleb128 0x1
 1018 04d2 50       		.byte	0x50
 1019 04d3 00       		.byte	0
 1020 04d4 15       		.uleb128 0x15
 1021 04d5 0E000000 		.4byte	.LVL13
 1022 04d9 08070000 		.4byte	0x708
 1023 04dd 00       		.byte	0
 1024 04de 16       		.uleb128 0x16
 1025 04df 8D030000 		.4byte	.LASF63
 1026 04e3 01       		.byte	0x1
 1027 04e4 B8       		.byte	0xb8
 1028 04e5 E0000000 		.4byte	0xe0
 1029 04e9 00000000 		.4byte	.LFB6
 1030 04ed 30000000 		.4byte	.LFE6-.LFB6
 1031 04f1 01       		.uleb128 0x1
 1032 04f2 9C       		.byte	0x9c
 1033 04f3 76050000 		.4byte	0x576
 1034 04f7 11       		.uleb128 0x11
 1035 04f8 637000   		.ascii	"cp\000"
 1036 04fb 01       		.byte	0x1
 1037 04fc B8       		.byte	0xb8
 1038 04fd CB030000 		.4byte	0x3cb
 1039 0501 81000000 		.4byte	.LLST4
 1040 0505 17       		.uleb128 0x17
 1041 0506 63747000 		.ascii	"ctp\000"
 1042 050a 01       		.byte	0x1
 1043 050b B9       		.byte	0xb9
 1044 050c E2010000 		.4byte	0x1e2
 1045 0510 9F000000 		.4byte	.LLST5
 1046 0514 17       		.uleb128 0x17
 1047 0515 6D7000   		.ascii	"mp\000"
 1048 0518 01       		.byte	0x1
 1049 0519 BA       		.byte	0xba
 1050 051a A3030000 		.4byte	0x3a3
 1051 051e B2000000 		.4byte	.LLST6
 1052 0522 18       		.uleb128 0x18
 1053 0523 6D736700 		.ascii	"msg\000"
 1054 0527 01       		.byte	0x1
 1055 0528 BB       		.byte	0xbb
 1056 0529 E0000000 		.4byte	0xe0
 1057 052d 01       		.uleb128 0x1
 1058 052e 54       		.byte	0x54
 1059 052f 15       		.uleb128 0x15
 1060 0530 12000000 		.4byte	.LVL16
 1061 0534 0F070000 		.4byte	0x70f
 1062 0538 12       		.uleb128 0x12
 1063 0539 1E000000 		.4byte	.LVL19
 1064 053d 1A070000 		.4byte	0x71a
 1065 0541 52050000 		.4byte	0x552
 1066 0545 13       		.uleb128 0x13
 1067 0546 01       		.uleb128 0x1
 1068 0547 51       		.byte	0x51
 1069 0548 02       		.uleb128 0x2
 1070 0549 75       		.byte	0x75
 1071 054a 00       		.sleb128 0
 1072 054b 13       		.uleb128 0x13
ARM GAS  /tmp/cciHZsyq.s 			page 20


 1073 054c 01       		.uleb128 0x1
 1074 054d 50       		.byte	0x50
 1075 054e 02       		.uleb128 0x2
 1076 054f 74       		.byte	0x74
 1077 0550 00       		.sleb128 0
 1078 0551 00       		.byte	0
 1079 0552 12       		.uleb128 0x12
 1080 0553 24000000 		.4byte	.LVL20
 1081 0557 30070000 		.4byte	0x730
 1082 055b 65050000 		.4byte	0x565
 1083 055f 13       		.uleb128 0x13
 1084 0560 01       		.uleb128 0x1
 1085 0561 50       		.byte	0x50
 1086 0562 01       		.uleb128 0x1
 1087 0563 35       		.byte	0x35
 1088 0564 00       		.byte	0
 1089 0565 14       		.uleb128 0x14
 1090 0566 2C000000 		.4byte	.LVL22
 1091 056a 41070000 		.4byte	0x741
 1092 056e 13       		.uleb128 0x13
 1093 056f 01       		.uleb128 0x1
 1094 0570 50       		.byte	0x50
 1095 0571 02       		.uleb128 0x2
 1096 0572 76       		.byte	0x76
 1097 0573 00       		.sleb128 0
 1098 0574 00       		.byte	0
 1099 0575 00       		.byte	0
 1100 0576 16       		.uleb128 0x16
 1101 0577 BF030000 		.4byte	.LASF64
 1102 057b 01       		.byte	0x1
 1103 057c 9E       		.byte	0x9e
 1104 057d E0000000 		.4byte	0xe0
 1105 0581 00000000 		.4byte	.LFB5
 1106 0585 10000000 		.4byte	.LFE5-.LFB5
 1107 0589 01       		.uleb128 0x1
 1108 058a 9C       		.byte	0x9c
 1109 058b BC050000 		.4byte	0x5bc
 1110 058f 11       		.uleb128 0x11
 1111 0590 637000   		.ascii	"cp\000"
 1112 0593 01       		.byte	0x1
 1113 0594 9E       		.byte	0x9e
 1114 0595 CB030000 		.4byte	0x3cb
 1115 0599 D0000000 		.4byte	.LLST7
 1116 059d 18       		.uleb128 0x18
 1117 059e 6D736700 		.ascii	"msg\000"
 1118 05a2 01       		.byte	0x1
 1119 05a3 9F       		.byte	0x9f
 1120 05a4 E0000000 		.4byte	0xe0
 1121 05a8 01       		.uleb128 0x1
 1122 05a9 50       		.byte	0x50
 1123 05aa 14       		.uleb128 0x14
 1124 05ab 0A000000 		.4byte	.LVL24
 1125 05af DE040000 		.4byte	0x4de
 1126 05b3 13       		.uleb128 0x13
 1127 05b4 01       		.uleb128 0x1
 1128 05b5 50       		.byte	0x50
 1129 05b6 03       		.uleb128 0x3
ARM GAS  /tmp/cciHZsyq.s 			page 21


 1130 05b7 F3       		.byte	0xf3
 1131 05b8 01       		.uleb128 0x1
 1132 05b9 50       		.byte	0x50
 1133 05ba 00       		.byte	0
 1134 05bb 00       		.byte	0
 1135 05bc 19       		.uleb128 0x19
 1136 05bd 29020000 		.4byte	.LASF65
 1137 05c1 01       		.byte	0x1
 1138 05c2 0E01     		.2byte	0x10e
 1139 05c4 E0000000 		.4byte	0xe0
 1140 05c8 00000000 		.4byte	.LFB8
 1141 05cc 36000000 		.4byte	.LFE8-.LFB8
 1142 05d0 01       		.uleb128 0x1
 1143 05d1 9C       		.byte	0x9c
 1144 05d2 5B060000 		.4byte	0x65b
 1145 05d6 1A       		.uleb128 0x1a
 1146 05d7 637000   		.ascii	"cp\000"
 1147 05da 01       		.byte	0x1
 1148 05db 0E01     		.2byte	0x10e
 1149 05dd CB030000 		.4byte	0x3cb
 1150 05e1 F1000000 		.4byte	.LLST8
 1151 05e5 1B       		.uleb128 0x1b
 1152 05e6 5B020000 		.4byte	.LASF66
 1153 05ea 01       		.byte	0x1
 1154 05eb 0E01     		.2byte	0x10e
 1155 05ed F6000000 		.4byte	0xf6
 1156 05f1 1D010000 		.4byte	.LLST9
 1157 05f5 1C       		.uleb128 0x1c
 1158 05f6 6D7000   		.ascii	"mp\000"
 1159 05f9 01       		.byte	0x1
 1160 05fa 0F01     		.2byte	0x10f
 1161 05fc A3030000 		.4byte	0x3a3
 1162 0600 3B010000 		.4byte	.LLST10
 1163 0604 1C       		.uleb128 0x1c
 1164 0605 6D736700 		.ascii	"msg\000"
 1165 0609 01       		.byte	0x1
 1166 060a 1001     		.2byte	0x110
 1167 060c E0000000 		.4byte	0xe0
 1168 0610 59010000 		.4byte	.LLST11
 1169 0614 15       		.uleb128 0x15
 1170 0615 0A000000 		.4byte	.LVL26
 1171 0619 0F070000 		.4byte	0x70f
 1172 061d 12       		.uleb128 0x12
 1173 061e 1E000000 		.4byte	.LVL29
 1174 0622 1A070000 		.4byte	0x71a
 1175 0626 31060000 		.4byte	0x631
 1176 062a 13       		.uleb128 0x13
 1177 062b 01       		.uleb128 0x1
 1178 062c 51       		.byte	0x51
 1179 062d 02       		.uleb128 0x2
 1180 062e 74       		.byte	0x74
 1181 062f 00       		.sleb128 0
 1182 0630 00       		.byte	0
 1183 0631 12       		.uleb128 0x12
 1184 0632 26000000 		.4byte	.LVL30
 1185 0636 52070000 		.4byte	0x752
 1186 063a 4A060000 		.4byte	0x64a
ARM GAS  /tmp/cciHZsyq.s 			page 22


 1187 063e 13       		.uleb128 0x13
 1188 063f 01       		.uleb128 0x1
 1189 0640 51       		.byte	0x51
 1190 0641 02       		.uleb128 0x2
 1191 0642 75       		.byte	0x75
 1192 0643 00       		.sleb128 0
 1193 0644 13       		.uleb128 0x13
 1194 0645 01       		.uleb128 0x1
 1195 0646 50       		.byte	0x50
 1196 0647 01       		.uleb128 0x1
 1197 0648 35       		.byte	0x35
 1198 0649 00       		.byte	0
 1199 064a 14       		.uleb128 0x14
 1200 064b 32000000 		.4byte	.LVL33
 1201 064f 41070000 		.4byte	0x741
 1202 0653 13       		.uleb128 0x13
 1203 0654 01       		.uleb128 0x1
 1204 0655 50       		.byte	0x50
 1205 0656 02       		.uleb128 0x2
 1206 0657 76       		.byte	0x76
 1207 0658 00       		.sleb128 0
 1208 0659 00       		.byte	0
 1209 065a 00       		.byte	0
 1210 065b 16       		.uleb128 0x16
 1211 065c 10040000 		.4byte	.LASF67
 1212 0660 01       		.byte	0x1
 1213 0661 E9       		.byte	0xe9
 1214 0662 E0000000 		.4byte	0xe0
 1215 0666 00000000 		.4byte	.LFB7
 1216 066a 10000000 		.4byte	.LFE7-.LFB7
 1217 066e 01       		.uleb128 0x1
 1218 066f 9C       		.byte	0x9c
 1219 0670 B7060000 		.4byte	0x6b7
 1220 0674 11       		.uleb128 0x11
 1221 0675 637000   		.ascii	"cp\000"
 1222 0678 01       		.byte	0x1
 1223 0679 E9       		.byte	0xe9
 1224 067a CB030000 		.4byte	0x3cb
 1225 067e 77010000 		.4byte	.LLST12
 1226 0682 1D       		.uleb128 0x1d
 1227 0683 5B020000 		.4byte	.LASF66
 1228 0687 01       		.byte	0x1
 1229 0688 E9       		.byte	0xe9
 1230 0689 F6000000 		.4byte	0xf6
 1231 068d 98010000 		.4byte	.LLST13
 1232 0691 18       		.uleb128 0x18
 1233 0692 6D736700 		.ascii	"msg\000"
 1234 0696 01       		.byte	0x1
 1235 0697 EA       		.byte	0xea
 1236 0698 E0000000 		.4byte	0xe0
 1237 069c 01       		.uleb128 0x1
 1238 069d 50       		.byte	0x50
 1239 069e 14       		.uleb128 0x14
 1240 069f 0A000000 		.4byte	.LVL35
 1241 06a3 BC050000 		.4byte	0x5bc
 1242 06a7 13       		.uleb128 0x13
 1243 06a8 01       		.uleb128 0x1
ARM GAS  /tmp/cciHZsyq.s 			page 23


 1244 06a9 51       		.byte	0x51
 1245 06aa 03       		.uleb128 0x3
 1246 06ab F3       		.byte	0xf3
 1247 06ac 01       		.uleb128 0x1
 1248 06ad 51       		.byte	0x51
 1249 06ae 13       		.uleb128 0x13
 1250 06af 01       		.uleb128 0x1
 1251 06b0 50       		.byte	0x50
 1252 06b1 03       		.uleb128 0x3
 1253 06b2 F3       		.byte	0xf3
 1254 06b3 01       		.uleb128 0x1
 1255 06b4 50       		.byte	0x50
 1256 06b5 00       		.byte	0
 1257 06b6 00       		.byte	0
 1258 06b7 1E       		.uleb128 0x1e
 1259 06b8 FB030000 		.4byte	.LASF78
 1260 06bc 08       		.byte	0x8
 1261 06bd 6F       		.byte	0x6f
 1262 06be FD020000 		.4byte	0x2fd
 1263 06c2 1F       		.uleb128 0x1f
 1264 06c3 3C020000 		.4byte	.LASF68
 1265 06c7 05       		.byte	0x5
 1266 06c8 79       		.byte	0x79
 1267 06c9 E2010000 		.4byte	0x1e2
 1268 06cd D7060000 		.4byte	0x6d7
 1269 06d1 20       		.uleb128 0x20
 1270 06d2 D7060000 		.4byte	0x6d7
 1271 06d6 00       		.byte	0
 1272 06d7 09       		.uleb128 0x9
 1273 06d8 04       		.byte	0x4
 1274 06d9 E8010000 		.4byte	0x1e8
 1275 06dd 21       		.uleb128 0x21
 1276 06de E4030000 		.4byte	.LASF70
 1277 06e2 08       		.byte	0x8
 1278 06e3 99       		.byte	0x99
 1279 06e4 F3060000 		.4byte	0x6f3
 1280 06e8 20       		.uleb128 0x20
 1281 06e9 E2010000 		.4byte	0x1e2
 1282 06ed 20       		.uleb128 0x20
 1283 06ee E0000000 		.4byte	0xe0
 1284 06f2 00       		.byte	0
 1285 06f3 1F       		.uleb128 0x1f
 1286 06f4 2F030000 		.4byte	.LASF69
 1287 06f8 08       		.byte	0x8
 1288 06f9 90       		.byte	0x90
 1289 06fa E2010000 		.4byte	0x1e2
 1290 06fe 08070000 		.4byte	0x708
 1291 0702 20       		.uleb128 0x20
 1292 0703 E2010000 		.4byte	0x1e2
 1293 0707 00       		.byte	0
 1294 0708 22       		.uleb128 0x22
 1295 0709 77010000 		.4byte	.LASF79
 1296 070d 08       		.byte	0x8
 1297 070e 9C       		.byte	0x9c
 1298 070f 23       		.uleb128 0x23
 1299 0710 A9010000 		.4byte	.LASF80
 1300 0714 09       		.byte	0x9
ARM GAS  /tmp/cciHZsyq.s 			page 24


 1301 0715 3E       		.byte	0x3e
 1302 0716 A3030000 		.4byte	0x3a3
 1303 071a 21       		.uleb128 0x21
 1304 071b EE010000 		.4byte	.LASF71
 1305 071f 05       		.byte	0x5
 1306 0720 77       		.byte	0x77
 1307 0721 30070000 		.4byte	0x730
 1308 0725 20       		.uleb128 0x20
 1309 0726 E2010000 		.4byte	0x1e2
 1310 072a 20       		.uleb128 0x20
 1311 072b D7060000 		.4byte	0x6d7
 1312 072f 00       		.byte	0
 1313 0730 21       		.uleb128 0x21
 1314 0731 05030000 		.4byte	.LASF72
 1315 0735 08       		.byte	0x8
 1316 0736 93       		.byte	0x93
 1317 0737 41070000 		.4byte	0x741
 1318 073b 20       		.uleb128 0x20
 1319 073c BF000000 		.4byte	0xbf
 1320 0740 00       		.byte	0
 1321 0741 21       		.uleb128 0x21
 1322 0742 6C010000 		.4byte	.LASF73
 1323 0746 09       		.byte	0x9
 1324 0747 3A       		.byte	0x3a
 1325 0748 52070000 		.4byte	0x752
 1326 074c 20       		.uleb128 0x20
 1327 074d A3030000 		.4byte	0x3a3
 1328 0751 00       		.byte	0
 1329 0752 24       		.uleb128 0x24
 1330 0753 22040000 		.4byte	.LASF74
 1331 0757 08       		.byte	0x8
 1332 0758 96       		.byte	0x96
 1333 0759 E0000000 		.4byte	0xe0
 1334 075d 20       		.uleb128 0x20
 1335 075e BF000000 		.4byte	0xbf
 1336 0762 20       		.uleb128 0x20
 1337 0763 F6000000 		.4byte	0xf6
 1338 0767 00       		.byte	0
 1339 0768 00       		.byte	0
 1340              		.section	.debug_abbrev,"",%progbits
 1341              	.Ldebug_abbrev0:
 1342 0000 01       		.uleb128 0x1
 1343 0001 11       		.uleb128 0x11
 1344 0002 01       		.byte	0x1
 1345 0003 25       		.uleb128 0x25
 1346 0004 0E       		.uleb128 0xe
 1347 0005 13       		.uleb128 0x13
 1348 0006 0B       		.uleb128 0xb
 1349 0007 03       		.uleb128 0x3
 1350 0008 0E       		.uleb128 0xe
 1351 0009 1B       		.uleb128 0x1b
 1352 000a 0E       		.uleb128 0xe
 1353 000b 55       		.uleb128 0x55
 1354 000c 17       		.uleb128 0x17
 1355 000d 11       		.uleb128 0x11
 1356 000e 01       		.uleb128 0x1
 1357 000f 10       		.uleb128 0x10
ARM GAS  /tmp/cciHZsyq.s 			page 25


 1358 0010 17       		.uleb128 0x17
 1359 0011 00       		.byte	0
 1360 0012 00       		.byte	0
 1361 0013 02       		.uleb128 0x2
 1362 0014 24       		.uleb128 0x24
 1363 0015 00       		.byte	0
 1364 0016 0B       		.uleb128 0xb
 1365 0017 0B       		.uleb128 0xb
 1366 0018 3E       		.uleb128 0x3e
 1367 0019 0B       		.uleb128 0xb
 1368 001a 03       		.uleb128 0x3
 1369 001b 08       		.uleb128 0x8
 1370 001c 00       		.byte	0
 1371 001d 00       		.byte	0
 1372 001e 03       		.uleb128 0x3
 1373 001f 24       		.uleb128 0x24
 1374 0020 00       		.byte	0
 1375 0021 0B       		.uleb128 0xb
 1376 0022 0B       		.uleb128 0xb
 1377 0023 3E       		.uleb128 0x3e
 1378 0024 0B       		.uleb128 0xb
 1379 0025 03       		.uleb128 0x3
 1380 0026 0E       		.uleb128 0xe
 1381 0027 00       		.byte	0
 1382 0028 00       		.byte	0
 1383 0029 04       		.uleb128 0x4
 1384 002a 16       		.uleb128 0x16
 1385 002b 00       		.byte	0
 1386 002c 03       		.uleb128 0x3
 1387 002d 0E       		.uleb128 0xe
 1388 002e 3A       		.uleb128 0x3a
 1389 002f 0B       		.uleb128 0xb
 1390 0030 3B       		.uleb128 0x3b
 1391 0031 0B       		.uleb128 0xb
 1392 0032 49       		.uleb128 0x49
 1393 0033 13       		.uleb128 0x13
 1394 0034 00       		.byte	0
 1395 0035 00       		.byte	0
 1396 0036 05       		.uleb128 0x5
 1397 0037 13       		.uleb128 0x13
 1398 0038 01       		.byte	0x1
 1399 0039 03       		.uleb128 0x3
 1400 003a 0E       		.uleb128 0xe
 1401 003b 0B       		.uleb128 0xb
 1402 003c 0B       		.uleb128 0xb
 1403 003d 3A       		.uleb128 0x3a
 1404 003e 0B       		.uleb128 0xb
 1405 003f 3B       		.uleb128 0x3b
 1406 0040 0B       		.uleb128 0xb
 1407 0041 01       		.uleb128 0x1
 1408 0042 13       		.uleb128 0x13
 1409 0043 00       		.byte	0
 1410 0044 00       		.byte	0
 1411 0045 06       		.uleb128 0x6
 1412 0046 0D       		.uleb128 0xd
 1413 0047 00       		.byte	0
 1414 0048 03       		.uleb128 0x3
ARM GAS  /tmp/cciHZsyq.s 			page 26


 1415 0049 0E       		.uleb128 0xe
 1416 004a 3A       		.uleb128 0x3a
 1417 004b 0B       		.uleb128 0xb
 1418 004c 3B       		.uleb128 0x3b
 1419 004d 0B       		.uleb128 0xb
 1420 004e 49       		.uleb128 0x49
 1421 004f 13       		.uleb128 0x13
 1422 0050 38       		.uleb128 0x38
 1423 0051 0B       		.uleb128 0xb
 1424 0052 00       		.byte	0
 1425 0053 00       		.byte	0
 1426 0054 07       		.uleb128 0x7
 1427 0055 0D       		.uleb128 0xd
 1428 0056 00       		.byte	0
 1429 0057 03       		.uleb128 0x3
 1430 0058 08       		.uleb128 0x8
 1431 0059 3A       		.uleb128 0x3a
 1432 005a 0B       		.uleb128 0xb
 1433 005b 3B       		.uleb128 0x3b
 1434 005c 0B       		.uleb128 0xb
 1435 005d 49       		.uleb128 0x49
 1436 005e 13       		.uleb128 0x13
 1437 005f 38       		.uleb128 0x38
 1438 0060 0B       		.uleb128 0xb
 1439 0061 00       		.byte	0
 1440 0062 00       		.byte	0
 1441 0063 08       		.uleb128 0x8
 1442 0064 13       		.uleb128 0x13
 1443 0065 01       		.byte	0x1
 1444 0066 0B       		.uleb128 0xb
 1445 0067 0B       		.uleb128 0xb
 1446 0068 3A       		.uleb128 0x3a
 1447 0069 0B       		.uleb128 0xb
 1448 006a 3B       		.uleb128 0x3b
 1449 006b 0B       		.uleb128 0xb
 1450 006c 01       		.uleb128 0x1
 1451 006d 13       		.uleb128 0x13
 1452 006e 00       		.byte	0
 1453 006f 00       		.byte	0
 1454 0070 09       		.uleb128 0x9
 1455 0071 0F       		.uleb128 0xf
 1456 0072 00       		.byte	0
 1457 0073 0B       		.uleb128 0xb
 1458 0074 0B       		.uleb128 0xb
 1459 0075 49       		.uleb128 0x49
 1460 0076 13       		.uleb128 0x13
 1461 0077 00       		.byte	0
 1462 0078 00       		.byte	0
 1463 0079 0A       		.uleb128 0xa
 1464 007a 0F       		.uleb128 0xf
 1465 007b 00       		.byte	0
 1466 007c 0B       		.uleb128 0xb
 1467 007d 0B       		.uleb128 0xb
 1468 007e 00       		.byte	0
 1469 007f 00       		.byte	0
 1470 0080 0B       		.uleb128 0xb
 1471 0081 13       		.uleb128 0x13
ARM GAS  /tmp/cciHZsyq.s 			page 27


 1472 0082 01       		.byte	0x1
 1473 0083 03       		.uleb128 0x3
 1474 0084 0E       		.uleb128 0xe
 1475 0085 0B       		.uleb128 0xb
 1476 0086 0B       		.uleb128 0xb
 1477 0087 3A       		.uleb128 0x3a
 1478 0088 0B       		.uleb128 0xb
 1479 0089 3B       		.uleb128 0x3b
 1480 008a 05       		.uleb128 0x5
 1481 008b 01       		.uleb128 0x1
 1482 008c 13       		.uleb128 0x13
 1483 008d 00       		.byte	0
 1484 008e 00       		.byte	0
 1485 008f 0C       		.uleb128 0xc
 1486 0090 0D       		.uleb128 0xd
 1487 0091 00       		.byte	0
 1488 0092 03       		.uleb128 0x3
 1489 0093 08       		.uleb128 0x8
 1490 0094 3A       		.uleb128 0x3a
 1491 0095 0B       		.uleb128 0xb
 1492 0096 3B       		.uleb128 0x3b
 1493 0097 05       		.uleb128 0x5
 1494 0098 49       		.uleb128 0x49
 1495 0099 13       		.uleb128 0x13
 1496 009a 38       		.uleb128 0x38
 1497 009b 0B       		.uleb128 0xb
 1498 009c 00       		.byte	0
 1499 009d 00       		.byte	0
 1500 009e 0D       		.uleb128 0xd
 1501 009f 17       		.uleb128 0x17
 1502 00a0 01       		.byte	0x1
 1503 00a1 0B       		.uleb128 0xb
 1504 00a2 0B       		.uleb128 0xb
 1505 00a3 3A       		.uleb128 0x3a
 1506 00a4 0B       		.uleb128 0xb
 1507 00a5 3B       		.uleb128 0x3b
 1508 00a6 0B       		.uleb128 0xb
 1509 00a7 01       		.uleb128 0x1
 1510 00a8 13       		.uleb128 0x13
 1511 00a9 00       		.byte	0
 1512 00aa 00       		.byte	0
 1513 00ab 0E       		.uleb128 0xe
 1514 00ac 0D       		.uleb128 0xd
 1515 00ad 00       		.byte	0
 1516 00ae 03       		.uleb128 0x3
 1517 00af 0E       		.uleb128 0xe
 1518 00b0 3A       		.uleb128 0x3a
 1519 00b1 0B       		.uleb128 0xb
 1520 00b2 3B       		.uleb128 0x3b
 1521 00b3 0B       		.uleb128 0xb
 1522 00b4 49       		.uleb128 0x49
 1523 00b5 13       		.uleb128 0x13
 1524 00b6 00       		.byte	0
 1525 00b7 00       		.byte	0
 1526 00b8 0F       		.uleb128 0xf
 1527 00b9 2E       		.uleb128 0x2e
 1528 00ba 01       		.byte	0x1
ARM GAS  /tmp/cciHZsyq.s 			page 28


 1529 00bb 3F       		.uleb128 0x3f
 1530 00bc 19       		.uleb128 0x19
 1531 00bd 03       		.uleb128 0x3
 1532 00be 0E       		.uleb128 0xe
 1533 00bf 3A       		.uleb128 0x3a
 1534 00c0 0B       		.uleb128 0xb
 1535 00c1 3B       		.uleb128 0x3b
 1536 00c2 0B       		.uleb128 0xb
 1537 00c3 27       		.uleb128 0x27
 1538 00c4 19       		.uleb128 0x19
 1539 00c5 11       		.uleb128 0x11
 1540 00c6 01       		.uleb128 0x1
 1541 00c7 12       		.uleb128 0x12
 1542 00c8 06       		.uleb128 0x6
 1543 00c9 40       		.uleb128 0x40
 1544 00ca 18       		.uleb128 0x18
 1545 00cb 9742     		.uleb128 0x2117
 1546 00cd 19       		.uleb128 0x19
 1547 00ce 01       		.uleb128 0x1
 1548 00cf 13       		.uleb128 0x13
 1549 00d0 00       		.byte	0
 1550 00d1 00       		.byte	0
 1551 00d2 10       		.uleb128 0x10
 1552 00d3 05       		.uleb128 0x5
 1553 00d4 00       		.byte	0
 1554 00d5 03       		.uleb128 0x3
 1555 00d6 08       		.uleb128 0x8
 1556 00d7 3A       		.uleb128 0x3a
 1557 00d8 0B       		.uleb128 0xb
 1558 00d9 3B       		.uleb128 0x3b
 1559 00da 0B       		.uleb128 0xb
 1560 00db 49       		.uleb128 0x49
 1561 00dc 13       		.uleb128 0x13
 1562 00dd 02       		.uleb128 0x2
 1563 00de 18       		.uleb128 0x18
 1564 00df 00       		.byte	0
 1565 00e0 00       		.byte	0
 1566 00e1 11       		.uleb128 0x11
 1567 00e2 05       		.uleb128 0x5
 1568 00e3 00       		.byte	0
 1569 00e4 03       		.uleb128 0x3
 1570 00e5 08       		.uleb128 0x8
 1571 00e6 3A       		.uleb128 0x3a
 1572 00e7 0B       		.uleb128 0xb
 1573 00e8 3B       		.uleb128 0x3b
 1574 00e9 0B       		.uleb128 0xb
 1575 00ea 49       		.uleb128 0x49
 1576 00eb 13       		.uleb128 0x13
 1577 00ec 02       		.uleb128 0x2
 1578 00ed 17       		.uleb128 0x17
 1579 00ee 00       		.byte	0
 1580 00ef 00       		.byte	0
 1581 00f0 12       		.uleb128 0x12
 1582 00f1 898201   		.uleb128 0x4109
 1583 00f4 01       		.byte	0x1
 1584 00f5 11       		.uleb128 0x11
 1585 00f6 01       		.uleb128 0x1
ARM GAS  /tmp/cciHZsyq.s 			page 29


 1586 00f7 31       		.uleb128 0x31
 1587 00f8 13       		.uleb128 0x13
 1588 00f9 01       		.uleb128 0x1
 1589 00fa 13       		.uleb128 0x13
 1590 00fb 00       		.byte	0
 1591 00fc 00       		.byte	0
 1592 00fd 13       		.uleb128 0x13
 1593 00fe 8A8201   		.uleb128 0x410a
 1594 0101 00       		.byte	0
 1595 0102 02       		.uleb128 0x2
 1596 0103 18       		.uleb128 0x18
 1597 0104 9142     		.uleb128 0x2111
 1598 0106 18       		.uleb128 0x18
 1599 0107 00       		.byte	0
 1600 0108 00       		.byte	0
 1601 0109 14       		.uleb128 0x14
 1602 010a 898201   		.uleb128 0x4109
 1603 010d 01       		.byte	0x1
 1604 010e 11       		.uleb128 0x11
 1605 010f 01       		.uleb128 0x1
 1606 0110 31       		.uleb128 0x31
 1607 0111 13       		.uleb128 0x13
 1608 0112 00       		.byte	0
 1609 0113 00       		.byte	0
 1610 0114 15       		.uleb128 0x15
 1611 0115 898201   		.uleb128 0x4109
 1612 0118 00       		.byte	0
 1613 0119 11       		.uleb128 0x11
 1614 011a 01       		.uleb128 0x1
 1615 011b 31       		.uleb128 0x31
 1616 011c 13       		.uleb128 0x13
 1617 011d 00       		.byte	0
 1618 011e 00       		.byte	0
 1619 011f 16       		.uleb128 0x16
 1620 0120 2E       		.uleb128 0x2e
 1621 0121 01       		.byte	0x1
 1622 0122 3F       		.uleb128 0x3f
 1623 0123 19       		.uleb128 0x19
 1624 0124 03       		.uleb128 0x3
 1625 0125 0E       		.uleb128 0xe
 1626 0126 3A       		.uleb128 0x3a
 1627 0127 0B       		.uleb128 0xb
 1628 0128 3B       		.uleb128 0x3b
 1629 0129 0B       		.uleb128 0xb
 1630 012a 27       		.uleb128 0x27
 1631 012b 19       		.uleb128 0x19
 1632 012c 49       		.uleb128 0x49
 1633 012d 13       		.uleb128 0x13
 1634 012e 11       		.uleb128 0x11
 1635 012f 01       		.uleb128 0x1
 1636 0130 12       		.uleb128 0x12
 1637 0131 06       		.uleb128 0x6
 1638 0132 40       		.uleb128 0x40
 1639 0133 18       		.uleb128 0x18
 1640 0134 9742     		.uleb128 0x2117
 1641 0136 19       		.uleb128 0x19
 1642 0137 01       		.uleb128 0x1
ARM GAS  /tmp/cciHZsyq.s 			page 30


 1643 0138 13       		.uleb128 0x13
 1644 0139 00       		.byte	0
 1645 013a 00       		.byte	0
 1646 013b 17       		.uleb128 0x17
 1647 013c 34       		.uleb128 0x34
 1648 013d 00       		.byte	0
 1649 013e 03       		.uleb128 0x3
 1650 013f 08       		.uleb128 0x8
 1651 0140 3A       		.uleb128 0x3a
 1652 0141 0B       		.uleb128 0xb
 1653 0142 3B       		.uleb128 0x3b
 1654 0143 0B       		.uleb128 0xb
 1655 0144 49       		.uleb128 0x49
 1656 0145 13       		.uleb128 0x13
 1657 0146 02       		.uleb128 0x2
 1658 0147 17       		.uleb128 0x17
 1659 0148 00       		.byte	0
 1660 0149 00       		.byte	0
 1661 014a 18       		.uleb128 0x18
 1662 014b 34       		.uleb128 0x34
 1663 014c 00       		.byte	0
 1664 014d 03       		.uleb128 0x3
 1665 014e 08       		.uleb128 0x8
 1666 014f 3A       		.uleb128 0x3a
 1667 0150 0B       		.uleb128 0xb
 1668 0151 3B       		.uleb128 0x3b
 1669 0152 0B       		.uleb128 0xb
 1670 0153 49       		.uleb128 0x49
 1671 0154 13       		.uleb128 0x13
 1672 0155 02       		.uleb128 0x2
 1673 0156 18       		.uleb128 0x18
 1674 0157 00       		.byte	0
 1675 0158 00       		.byte	0
 1676 0159 19       		.uleb128 0x19
 1677 015a 2E       		.uleb128 0x2e
 1678 015b 01       		.byte	0x1
 1679 015c 3F       		.uleb128 0x3f
 1680 015d 19       		.uleb128 0x19
 1681 015e 03       		.uleb128 0x3
 1682 015f 0E       		.uleb128 0xe
 1683 0160 3A       		.uleb128 0x3a
 1684 0161 0B       		.uleb128 0xb
 1685 0162 3B       		.uleb128 0x3b
 1686 0163 05       		.uleb128 0x5
 1687 0164 27       		.uleb128 0x27
 1688 0165 19       		.uleb128 0x19
 1689 0166 49       		.uleb128 0x49
 1690 0167 13       		.uleb128 0x13
 1691 0168 11       		.uleb128 0x11
 1692 0169 01       		.uleb128 0x1
 1693 016a 12       		.uleb128 0x12
 1694 016b 06       		.uleb128 0x6
 1695 016c 40       		.uleb128 0x40
 1696 016d 18       		.uleb128 0x18
 1697 016e 9742     		.uleb128 0x2117
 1698 0170 19       		.uleb128 0x19
 1699 0171 01       		.uleb128 0x1
ARM GAS  /tmp/cciHZsyq.s 			page 31


 1700 0172 13       		.uleb128 0x13
 1701 0173 00       		.byte	0
 1702 0174 00       		.byte	0
 1703 0175 1A       		.uleb128 0x1a
 1704 0176 05       		.uleb128 0x5
 1705 0177 00       		.byte	0
 1706 0178 03       		.uleb128 0x3
 1707 0179 08       		.uleb128 0x8
 1708 017a 3A       		.uleb128 0x3a
 1709 017b 0B       		.uleb128 0xb
 1710 017c 3B       		.uleb128 0x3b
 1711 017d 05       		.uleb128 0x5
 1712 017e 49       		.uleb128 0x49
 1713 017f 13       		.uleb128 0x13
 1714 0180 02       		.uleb128 0x2
 1715 0181 17       		.uleb128 0x17
 1716 0182 00       		.byte	0
 1717 0183 00       		.byte	0
 1718 0184 1B       		.uleb128 0x1b
 1719 0185 05       		.uleb128 0x5
 1720 0186 00       		.byte	0
 1721 0187 03       		.uleb128 0x3
 1722 0188 0E       		.uleb128 0xe
 1723 0189 3A       		.uleb128 0x3a
 1724 018a 0B       		.uleb128 0xb
 1725 018b 3B       		.uleb128 0x3b
 1726 018c 05       		.uleb128 0x5
 1727 018d 49       		.uleb128 0x49
 1728 018e 13       		.uleb128 0x13
 1729 018f 02       		.uleb128 0x2
 1730 0190 17       		.uleb128 0x17
 1731 0191 00       		.byte	0
 1732 0192 00       		.byte	0
 1733 0193 1C       		.uleb128 0x1c
 1734 0194 34       		.uleb128 0x34
 1735 0195 00       		.byte	0
 1736 0196 03       		.uleb128 0x3
 1737 0197 08       		.uleb128 0x8
 1738 0198 3A       		.uleb128 0x3a
 1739 0199 0B       		.uleb128 0xb
 1740 019a 3B       		.uleb128 0x3b
 1741 019b 05       		.uleb128 0x5
 1742 019c 49       		.uleb128 0x49
 1743 019d 13       		.uleb128 0x13
 1744 019e 02       		.uleb128 0x2
 1745 019f 17       		.uleb128 0x17
 1746 01a0 00       		.byte	0
 1747 01a1 00       		.byte	0
 1748 01a2 1D       		.uleb128 0x1d
 1749 01a3 05       		.uleb128 0x5
 1750 01a4 00       		.byte	0
 1751 01a5 03       		.uleb128 0x3
 1752 01a6 0E       		.uleb128 0xe
 1753 01a7 3A       		.uleb128 0x3a
 1754 01a8 0B       		.uleb128 0xb
 1755 01a9 3B       		.uleb128 0x3b
 1756 01aa 0B       		.uleb128 0xb
ARM GAS  /tmp/cciHZsyq.s 			page 32


 1757 01ab 49       		.uleb128 0x49
 1758 01ac 13       		.uleb128 0x13
 1759 01ad 02       		.uleb128 0x2
 1760 01ae 17       		.uleb128 0x17
 1761 01af 00       		.byte	0
 1762 01b0 00       		.byte	0
 1763 01b1 1E       		.uleb128 0x1e
 1764 01b2 34       		.uleb128 0x34
 1765 01b3 00       		.byte	0
 1766 01b4 03       		.uleb128 0x3
 1767 01b5 0E       		.uleb128 0xe
 1768 01b6 3A       		.uleb128 0x3a
 1769 01b7 0B       		.uleb128 0xb
 1770 01b8 3B       		.uleb128 0x3b
 1771 01b9 0B       		.uleb128 0xb
 1772 01ba 49       		.uleb128 0x49
 1773 01bb 13       		.uleb128 0x13
 1774 01bc 3F       		.uleb128 0x3f
 1775 01bd 19       		.uleb128 0x19
 1776 01be 3C       		.uleb128 0x3c
 1777 01bf 19       		.uleb128 0x19
 1778 01c0 00       		.byte	0
 1779 01c1 00       		.byte	0
 1780 01c2 1F       		.uleb128 0x1f
 1781 01c3 2E       		.uleb128 0x2e
 1782 01c4 01       		.byte	0x1
 1783 01c5 3F       		.uleb128 0x3f
 1784 01c6 19       		.uleb128 0x19
 1785 01c7 03       		.uleb128 0x3
 1786 01c8 0E       		.uleb128 0xe
 1787 01c9 3A       		.uleb128 0x3a
 1788 01ca 0B       		.uleb128 0xb
 1789 01cb 3B       		.uleb128 0x3b
 1790 01cc 0B       		.uleb128 0xb
 1791 01cd 27       		.uleb128 0x27
 1792 01ce 19       		.uleb128 0x19
 1793 01cf 49       		.uleb128 0x49
 1794 01d0 13       		.uleb128 0x13
 1795 01d1 3C       		.uleb128 0x3c
 1796 01d2 19       		.uleb128 0x19
 1797 01d3 01       		.uleb128 0x1
 1798 01d4 13       		.uleb128 0x13
 1799 01d5 00       		.byte	0
 1800 01d6 00       		.byte	0
 1801 01d7 20       		.uleb128 0x20
 1802 01d8 05       		.uleb128 0x5
 1803 01d9 00       		.byte	0
 1804 01da 49       		.uleb128 0x49
 1805 01db 13       		.uleb128 0x13
 1806 01dc 00       		.byte	0
 1807 01dd 00       		.byte	0
 1808 01de 21       		.uleb128 0x21
 1809 01df 2E       		.uleb128 0x2e
 1810 01e0 01       		.byte	0x1
 1811 01e1 3F       		.uleb128 0x3f
 1812 01e2 19       		.uleb128 0x19
 1813 01e3 03       		.uleb128 0x3
ARM GAS  /tmp/cciHZsyq.s 			page 33


 1814 01e4 0E       		.uleb128 0xe
 1815 01e5 3A       		.uleb128 0x3a
 1816 01e6 0B       		.uleb128 0xb
 1817 01e7 3B       		.uleb128 0x3b
 1818 01e8 0B       		.uleb128 0xb
 1819 01e9 27       		.uleb128 0x27
 1820 01ea 19       		.uleb128 0x19
 1821 01eb 3C       		.uleb128 0x3c
 1822 01ec 19       		.uleb128 0x19
 1823 01ed 01       		.uleb128 0x1
 1824 01ee 13       		.uleb128 0x13
 1825 01ef 00       		.byte	0
 1826 01f0 00       		.byte	0
 1827 01f1 22       		.uleb128 0x22
 1828 01f2 2E       		.uleb128 0x2e
 1829 01f3 00       		.byte	0
 1830 01f4 3F       		.uleb128 0x3f
 1831 01f5 19       		.uleb128 0x19
 1832 01f6 03       		.uleb128 0x3
 1833 01f7 0E       		.uleb128 0xe
 1834 01f8 3A       		.uleb128 0x3a
 1835 01f9 0B       		.uleb128 0xb
 1836 01fa 3B       		.uleb128 0x3b
 1837 01fb 0B       		.uleb128 0xb
 1838 01fc 27       		.uleb128 0x27
 1839 01fd 19       		.uleb128 0x19
 1840 01fe 3C       		.uleb128 0x3c
 1841 01ff 19       		.uleb128 0x19
 1842 0200 00       		.byte	0
 1843 0201 00       		.byte	0
 1844 0202 23       		.uleb128 0x23
 1845 0203 2E       		.uleb128 0x2e
 1846 0204 00       		.byte	0
 1847 0205 3F       		.uleb128 0x3f
 1848 0206 19       		.uleb128 0x19
 1849 0207 03       		.uleb128 0x3
 1850 0208 0E       		.uleb128 0xe
 1851 0209 3A       		.uleb128 0x3a
 1852 020a 0B       		.uleb128 0xb
 1853 020b 3B       		.uleb128 0x3b
 1854 020c 0B       		.uleb128 0xb
 1855 020d 27       		.uleb128 0x27
 1856 020e 19       		.uleb128 0x19
 1857 020f 49       		.uleb128 0x49
 1858 0210 13       		.uleb128 0x13
 1859 0211 3C       		.uleb128 0x3c
 1860 0212 19       		.uleb128 0x19
 1861 0213 00       		.byte	0
 1862 0214 00       		.byte	0
 1863 0215 24       		.uleb128 0x24
 1864 0216 2E       		.uleb128 0x2e
 1865 0217 01       		.byte	0x1
 1866 0218 3F       		.uleb128 0x3f
 1867 0219 19       		.uleb128 0x19
 1868 021a 03       		.uleb128 0x3
 1869 021b 0E       		.uleb128 0xe
 1870 021c 3A       		.uleb128 0x3a
ARM GAS  /tmp/cciHZsyq.s 			page 34


 1871 021d 0B       		.uleb128 0xb
 1872 021e 3B       		.uleb128 0x3b
 1873 021f 0B       		.uleb128 0xb
 1874 0220 27       		.uleb128 0x27
 1875 0221 19       		.uleb128 0x19
 1876 0222 49       		.uleb128 0x49
 1877 0223 13       		.uleb128 0x13
 1878 0224 3C       		.uleb128 0x3c
 1879 0225 19       		.uleb128 0x19
 1880 0226 00       		.byte	0
 1881 0227 00       		.byte	0
 1882 0228 00       		.byte	0
 1883              		.section	.debug_loc,"",%progbits
 1884              	.Ldebug_loc0:
 1885              	.LLST0:
 1886 0000 00000000 		.4byte	.LVL1
 1887 0004 0F000000 		.4byte	.LVL2-1
 1888 0008 0100     		.2byte	0x1
 1889 000a 50       		.byte	0x50
 1890 000b 0F000000 		.4byte	.LVL2-1
 1891 000f 1C000000 		.4byte	.LFE1
 1892 0013 0400     		.2byte	0x4
 1893 0015 F3       		.byte	0xf3
 1894 0016 01       		.uleb128 0x1
 1895 0017 50       		.byte	0x50
 1896 0018 9F       		.byte	0x9f
 1897 0019 00000000 		.4byte	0
 1898 001d 00000000 		.4byte	0
 1899              	.LLST1:
 1900 0021 00000000 		.4byte	.LVL4
 1901 0025 0B000000 		.4byte	.LVL5-1
 1902 0029 0100     		.2byte	0x1
 1903 002b 50       		.byte	0x50
 1904 002c 0B000000 		.4byte	.LVL5-1
 1905 0030 16000000 		.4byte	.LFE2
 1906 0034 0400     		.2byte	0x4
 1907 0036 F3       		.byte	0xf3
 1908 0037 01       		.uleb128 0x1
 1909 0038 50       		.byte	0x50
 1910 0039 9F       		.byte	0x9f
 1911 003a 00000000 		.4byte	0
 1912 003e 00000000 		.4byte	0
 1913              	.LLST2:
 1914 0042 00000000 		.4byte	.LVL7
 1915 0046 0E000000 		.4byte	.LVL8
 1916 004a 0100     		.2byte	0x1
 1917 004c 50       		.byte	0x50
 1918 004d 0E000000 		.4byte	.LVL8
 1919 0051 22000000 		.4byte	.LFE4
 1920 0055 0100     		.2byte	0x1
 1921 0057 54       		.byte	0x54
 1922 0058 00000000 		.4byte	0
 1923 005c 00000000 		.4byte	0
 1924              	.LLST3:
 1925 0060 00000000 		.4byte	.LVL11
 1926 0064 09000000 		.4byte	.LVL12-1
 1927 0068 0100     		.2byte	0x1
ARM GAS  /tmp/cciHZsyq.s 			page 35


 1928 006a 50       		.byte	0x50
 1929 006b 09000000 		.4byte	.LVL12-1
 1930 006f 14000000 		.4byte	.LFE3
 1931 0073 0400     		.2byte	0x4
 1932 0075 F3       		.byte	0xf3
 1933 0076 01       		.uleb128 0x1
 1934 0077 50       		.byte	0x50
 1935 0078 9F       		.byte	0x9f
 1936 0079 00000000 		.4byte	0
 1937 007d 00000000 		.4byte	0
 1938              	.LLST4:
 1939 0081 00000000 		.4byte	.LVL14
 1940 0085 11000000 		.4byte	.LVL16-1
 1941 0089 0100     		.2byte	0x1
 1942 008b 50       		.byte	0x50
 1943 008c 11000000 		.4byte	.LVL16-1
 1944 0090 30000000 		.4byte	.LFE6
 1945 0094 0100     		.2byte	0x1
 1946 0096 55       		.byte	0x55
 1947 0097 00000000 		.4byte	0
 1948 009b 00000000 		.4byte	0
 1949              	.LLST5:
 1950 009f 0C000000 		.4byte	.LVL15
 1951 00a3 26000000 		.4byte	.LVL21
 1952 00a7 0100     		.2byte	0x1
 1953 00a9 54       		.byte	0x54
 1954 00aa 00000000 		.4byte	0
 1955 00ae 00000000 		.4byte	0
 1956              	.LLST6:
 1957 00b2 16000000 		.4byte	.LVL17
 1958 00b6 1A000000 		.4byte	.LVL18
 1959 00ba 0100     		.2byte	0x1
 1960 00bc 50       		.byte	0x50
 1961 00bd 1A000000 		.4byte	.LVL18
 1962 00c1 30000000 		.4byte	.LFE6
 1963 00c5 0100     		.2byte	0x1
 1964 00c7 56       		.byte	0x56
 1965 00c8 00000000 		.4byte	0
 1966 00cc 00000000 		.4byte	0
 1967              	.LLST7:
 1968 00d0 00000000 		.4byte	.LVL23
 1969 00d4 09000000 		.4byte	.LVL24-1
 1970 00d8 0100     		.2byte	0x1
 1971 00da 50       		.byte	0x50
 1972 00db 09000000 		.4byte	.LVL24-1
 1973 00df 10000000 		.4byte	.LFE5
 1974 00e3 0400     		.2byte	0x4
 1975 00e5 F3       		.byte	0xf3
 1976 00e6 01       		.uleb128 0x1
 1977 00e7 50       		.byte	0x50
 1978 00e8 9F       		.byte	0x9f
 1979 00e9 00000000 		.4byte	0
 1980 00ed 00000000 		.4byte	0
 1981              	.LLST8:
 1982 00f1 00000000 		.4byte	.LVL25
 1983 00f5 09000000 		.4byte	.LVL26-1
 1984 00f9 0100     		.2byte	0x1
ARM GAS  /tmp/cciHZsyq.s 			page 36


 1985 00fb 50       		.byte	0x50
 1986 00fc 09000000 		.4byte	.LVL26-1
 1987 0100 2A000000 		.4byte	.LVL31
 1988 0104 0100     		.2byte	0x1
 1989 0106 54       		.byte	0x54
 1990 0107 2A000000 		.4byte	.LVL31
 1991 010b 36000000 		.4byte	.LFE8
 1992 010f 0400     		.2byte	0x4
 1993 0111 F3       		.byte	0xf3
 1994 0112 01       		.uleb128 0x1
 1995 0113 50       		.byte	0x50
 1996 0114 9F       		.byte	0x9f
 1997 0115 00000000 		.4byte	0
 1998 0119 00000000 		.4byte	0
 1999              	.LLST9:
 2000 011d 00000000 		.4byte	.LVL25
 2001 0121 09000000 		.4byte	.LVL26-1
 2002 0125 0100     		.2byte	0x1
 2003 0127 51       		.byte	0x51
 2004 0128 09000000 		.4byte	.LVL26-1
 2005 012c 36000000 		.4byte	.LFE8
 2006 0130 0100     		.2byte	0x1
 2007 0132 55       		.byte	0x55
 2008 0133 00000000 		.4byte	0
 2009 0137 00000000 		.4byte	0
 2010              	.LLST10:
 2011 013b 14000000 		.4byte	.LVL27
 2012 013f 16000000 		.4byte	.LVL28
 2013 0143 0100     		.2byte	0x1
 2014 0145 50       		.byte	0x50
 2015 0146 16000000 		.4byte	.LVL28
 2016 014a 36000000 		.4byte	.LFE8
 2017 014e 0100     		.2byte	0x1
 2018 0150 56       		.byte	0x56
 2019 0151 00000000 		.4byte	0
 2020 0155 00000000 		.4byte	0
 2021              	.LLST11:
 2022 0159 2A000000 		.4byte	.LVL31
 2023 015d 2E000000 		.4byte	.LVL32
 2024 0161 0100     		.2byte	0x1
 2025 0163 50       		.byte	0x50
 2026 0164 2E000000 		.4byte	.LVL32
 2027 0168 36000000 		.4byte	.LFE8
 2028 016c 0100     		.2byte	0x1
 2029 016e 54       		.byte	0x54
 2030 016f 00000000 		.4byte	0
 2031 0173 00000000 		.4byte	0
 2032              	.LLST12:
 2033 0177 00000000 		.4byte	.LVL34
 2034 017b 09000000 		.4byte	.LVL35-1
 2035 017f 0100     		.2byte	0x1
 2036 0181 50       		.byte	0x50
 2037 0182 09000000 		.4byte	.LVL35-1
 2038 0186 10000000 		.4byte	.LFE7
 2039 018a 0400     		.2byte	0x4
 2040 018c F3       		.byte	0xf3
 2041 018d 01       		.uleb128 0x1
ARM GAS  /tmp/cciHZsyq.s 			page 37


 2042 018e 50       		.byte	0x50
 2043 018f 9F       		.byte	0x9f
 2044 0190 00000000 		.4byte	0
 2045 0194 00000000 		.4byte	0
 2046              	.LLST13:
 2047 0198 00000000 		.4byte	.LVL34
 2048 019c 09000000 		.4byte	.LVL35-1
 2049 01a0 0100     		.2byte	0x1
 2050 01a2 51       		.byte	0x51
 2051 01a3 09000000 		.4byte	.LVL35-1
 2052 01a7 10000000 		.4byte	.LFE7
 2053 01ab 0400     		.2byte	0x4
 2054 01ad F3       		.byte	0xf3
 2055 01ae 01       		.uleb128 0x1
 2056 01af 51       		.byte	0x51
 2057 01b0 9F       		.byte	0x9f
 2058 01b1 00000000 		.4byte	0
 2059 01b5 00000000 		.4byte	0
 2060              		.section	.debug_aranges,"",%progbits
 2061 0000 5C000000 		.4byte	0x5c
 2062 0004 0200     		.2byte	0x2
 2063 0006 00000000 		.4byte	.Ldebug_info0
 2064 000a 04       		.byte	0x4
 2065 000b 00       		.byte	0
 2066 000c 0000     		.2byte	0
 2067 000e 0000     		.2byte	0
 2068 0010 00000000 		.4byte	.LFB0
 2069 0014 06000000 		.4byte	.LFE0-.LFB0
 2070 0018 00000000 		.4byte	.LFB1
 2071 001c 1C000000 		.4byte	.LFE1-.LFB1
 2072 0020 00000000 		.4byte	.LFB2
 2073 0024 16000000 		.4byte	.LFE2-.LFB2
 2074 0028 00000000 		.4byte	.LFB4
 2075 002c 22000000 		.4byte	.LFE4-.LFB4
 2076 0030 00000000 		.4byte	.LFB3
 2077 0034 14000000 		.4byte	.LFE3-.LFB3
 2078 0038 00000000 		.4byte	.LFB6
 2079 003c 30000000 		.4byte	.LFE6-.LFB6
 2080 0040 00000000 		.4byte	.LFB5
 2081 0044 10000000 		.4byte	.LFE5-.LFB5
 2082 0048 00000000 		.4byte	.LFB8
 2083 004c 36000000 		.4byte	.LFE8-.LFB8
 2084 0050 00000000 		.4byte	.LFB7
 2085 0054 10000000 		.4byte	.LFE7-.LFB7
 2086 0058 00000000 		.4byte	0
 2087 005c 00000000 		.4byte	0
 2088              		.section	.debug_ranges,"",%progbits
 2089              	.Ldebug_ranges0:
 2090 0000 00000000 		.4byte	.LFB0
 2091 0004 06000000 		.4byte	.LFE0
 2092 0008 00000000 		.4byte	.LFB1
 2093 000c 1C000000 		.4byte	.LFE1
 2094 0010 00000000 		.4byte	.LFB2
 2095 0014 16000000 		.4byte	.LFE2
 2096 0018 00000000 		.4byte	.LFB4
 2097 001c 22000000 		.4byte	.LFE4
 2098 0020 00000000 		.4byte	.LFB3
ARM GAS  /tmp/cciHZsyq.s 			page 38


 2099 0024 14000000 		.4byte	.LFE3
 2100 0028 00000000 		.4byte	.LFB6
 2101 002c 30000000 		.4byte	.LFE6
 2102 0030 00000000 		.4byte	.LFB5
 2103 0034 10000000 		.4byte	.LFE5
 2104 0038 00000000 		.4byte	.LFB8
 2105 003c 36000000 		.4byte	.LFE8
 2106 0040 00000000 		.4byte	.LFB7
 2107 0044 10000000 		.4byte	.LFE7
 2108 0048 00000000 		.4byte	0
 2109 004c 00000000 		.4byte	0
 2110              		.section	.debug_line,"",%progbits
 2111              	.Ldebug_line0:
 2112 0000 D4010000 		.section	.debug_str,"MS",%progbits,1
 2112      02000801 
 2112      00000201 
 2112      FB0E0D00 
 2112      01010101 
 2113              	.LASF33:
 2114 0000 705F6D73 		.ascii	"p_msg\000"
 2114      6700
 2115              	.LASF58:
 2116 0006 6368436F 		.ascii	"chCondInit\000"
 2116      6E64496E 
 2116      697400
 2117              	.LASF54:
 2118 0011 7264796D 		.ascii	"rdymsg\000"
 2118      736700
 2119              	.LASF5:
 2120 0018 5F5F7569 		.ascii	"__uint8_t\000"
 2120      6E74385F 
 2120      7400
 2121              	.LASF75:
 2122 0022 474E5520 		.ascii	"GNU C 4.8.2 -mcpu=cortex-m3 -mno-thumb-interwork -m"
 2122      4320342E 
 2122      382E3220 
 2122      2D6D6370 
 2122      753D636F 
 2123 0055 7468756D 		.ascii	"thumb -ggdb -O2 -fomit-frame-pointer -falign-functi"
 2123      62202D67 
 2123      67646220 
 2123      2D4F3220 
 2123      2D666F6D 
 2124 0088 6F6E733D 		.ascii	"ons=16 -ffunction-sections -fdata-sections -fno-com"
 2124      3136202D 
 2124      6666756E 
 2124      6374696F 
 2124      6E2D7365 
 2125 00bb 6D6F6E20 		.ascii	"mon -fno-strict-aliasing\000"
 2125      2D666E6F 
 2125      2D737472 
 2125      6963742D 
 2125      616C6961 
 2126              	.LASF11:
 2127 00d4 6C6F6E67 		.ascii	"long long unsigned int\000"
 2127      206C6F6E 
 2127      6720756E 
ARM GAS  /tmp/cciHZsyq.s 			page 39


 2127      7369676E 
 2127      65642069 
 2128              	.LASF55:
 2129 00eb 65786974 		.ascii	"exitcode\000"
 2129      636F6465 
 2129      00
 2130              	.LASF61:
 2131 00f4 6368436F 		.ascii	"chCondBroadcastI\000"
 2131      6E644272 
 2131      6F616463 
 2131      61737449 
 2131      00
 2132              	.LASF26:
 2133 0105 705F7072 		.ascii	"p_prio\000"
 2133      696F00
 2134              	.LASF76:
 2135 010c 2E2E2F6F 		.ascii	"../os/kernel/src/chcond.c\000"
 2135      732F6B65 
 2135      726E656C 
 2135      2F737263 
 2135      2F636863 
 2136              	.LASF10:
 2137 0126 6C6F6E67 		.ascii	"long long int\000"
 2137      206C6F6E 
 2137      6720696E 
 2137      7400
 2138              	.LASF1:
 2139 0134 7369676E 		.ascii	"signed char\000"
 2139      65642063 
 2139      68617200 
 2140              	.LASF49:
 2141 0140 6D5F7175 		.ascii	"m_queue\000"
 2141      65756500 
 2142              	.LASF18:
 2143 0148 74736C69 		.ascii	"tslices_t\000"
 2143      6365735F 
 2143      7400
 2144              	.LASF52:
 2145 0152 436F6E64 		.ascii	"CondVar\000"
 2145      56617200 
 2146              	.LASF7:
 2147 015a 6C6F6E67 		.ascii	"long int\000"
 2147      20696E74 
 2147      00
 2148              	.LASF17:
 2149 0163 74737461 		.ascii	"tstate_t\000"
 2149      74655F74 
 2149      00
 2150              	.LASF73:
 2151 016c 63684D74 		.ascii	"chMtxLockS\000"
 2151      784C6F63 
 2151      6B5300
 2152              	.LASF79:
 2153 0177 63685363 		.ascii	"chSchRescheduleS\000"
 2153      68526573 
 2153      63686564 
 2153      756C6553 
ARM GAS  /tmp/cciHZsyq.s 			page 40


 2153      00
 2154              	.LASF8:
 2155 0188 5F5F7569 		.ascii	"__uint32_t\000"
 2155      6E743332 
 2155      5F7400
 2156              	.LASF39:
 2157 0193 72656761 		.ascii	"regarm_t\000"
 2157      726D5F74 
 2157      00
 2158              	.LASF59:
 2159 019c 6368436F 		.ascii	"chCondSignal\000"
 2159      6E645369 
 2159      676E616C 
 2159      00
 2160              	.LASF80:
 2161 01a9 63684D74 		.ascii	"chMtxUnlockS\000"
 2161      78556E6C 
 2161      6F636B53 
 2161      00
 2162              	.LASF0:
 2163 01b6 756E7369 		.ascii	"unsigned int\000"
 2163      676E6564 
 2163      20696E74 
 2163      00
 2164              	.LASF9:
 2165 01c3 6C6F6E67 		.ascii	"long unsigned int\000"
 2165      20756E73 
 2165      69676E65 
 2165      6420696E 
 2165      7400
 2166              	.LASF4:
 2167 01d5 73686F72 		.ascii	"short unsigned int\000"
 2167      7420756E 
 2167      7369676E 
 2167      65642069 
 2167      6E7400
 2168              	.LASF20:
 2169 01e8 6D73675F 		.ascii	"msg_t\000"
 2169      7400
 2170              	.LASF71:
 2171 01ee 7072696F 		.ascii	"prio_insert\000"
 2171      5F696E73 
 2171      65727400 
 2172              	.LASF16:
 2173 01fa 746D6F64 		.ascii	"tmode_t\000"
 2173      655F7400 
 2174              	.LASF38:
 2175 0202 54687265 		.ascii	"ThreadsList\000"
 2175      6164734C 
 2175      69737400 
 2176              	.LASF21:
 2177 020e 6576656E 		.ascii	"eventmask_t\000"
 2177      746D6173 
 2177      6B5F7400 
 2178              	.LASF48:
 2179 021a 4D757465 		.ascii	"Mutex\000"
 2179      7800
ARM GAS  /tmp/cciHZsyq.s 			page 41


 2180              	.LASF42:
 2181 0220 73697A65 		.ascii	"sizetype\000"
 2181      74797065 
 2181      00
 2182              	.LASF65:
 2183 0229 6368436F 		.ascii	"chCondWaitTimeoutS\000"
 2183      6E645761 
 2183      69745469 
 2183      6D656F75 
 2183      745300
 2184              	.LASF68:
 2185 023c 6669666F 		.ascii	"fifo_remove\000"
 2185      5F72656D 
 2185      6F766500 
 2186              	.LASF45:
 2187 0248 725F6374 		.ascii	"r_ctx\000"
 2187      7800
 2188              	.LASF37:
 2189 024e 54687265 		.ascii	"ThreadsQueue\000"
 2189      61647351 
 2189      75657565 
 2189      00
 2190              	.LASF66:
 2191 025b 74696D65 		.ascii	"time\000"
 2191      00
 2192              	.LASF46:
 2193 0260 725F6375 		.ascii	"r_current\000"
 2193      7272656E 
 2193      7400
 2194              	.LASF62:
 2195 026a 6368436F 		.ascii	"chCondBroadcast\000"
 2195      6E644272 
 2195      6F616463 
 2195      61737400 
 2196              	.LASF25:
 2197 027a 705F7072 		.ascii	"p_prev\000"
 2197      657600
 2198              	.LASF19:
 2199 0281 74707269 		.ascii	"tprio_t\000"
 2199      6F5F7400 
 2200              	.LASF60:
 2201 0289 6368436F 		.ascii	"chCondSignalI\000"
 2201      6E645369 
 2201      676E616C 
 2201      4900
 2202              	.LASF15:
 2203 0297 5F426F6F 		.ascii	"_Bool\000"
 2203      6C00
 2204              	.LASF13:
 2205 029d 696E7433 		.ascii	"int32_t\000"
 2205      325F7400 
 2206              	.LASF2:
 2207 02a5 756E7369 		.ascii	"unsigned char\000"
 2207      676E6564 
 2207      20636861 
 2207      7200
 2208              	.LASF35:
ARM GAS  /tmp/cciHZsyq.s 			page 42


 2209 02b3 705F6D74 		.ascii	"p_mtxlist\000"
 2209      786C6973 
 2209      7400
 2210              	.LASF3:
 2211 02bd 73686F72 		.ascii	"short int\000"
 2211      7420696E 
 2211      7400
 2212              	.LASF28:
 2213 02c7 705F7374 		.ascii	"p_state\000"
 2213      61746500 
 2214              	.LASF30:
 2215 02cf 705F7072 		.ascii	"p_preempt\000"
 2215      65656D70 
 2215      7400
 2216              	.LASF44:
 2217 02d9 725F7072 		.ascii	"r_prio\000"
 2217      696F00
 2218              	.LASF57:
 2219 02e0 65776D61 		.ascii	"ewmask\000"
 2219      736B00
 2220              	.LASF24:
 2221 02e7 705F6E65 		.ascii	"p_next\000"
 2221      787400
 2222              	.LASF29:
 2223 02ee 705F666C 		.ascii	"p_flags\000"
 2223      61677300 
 2224              	.LASF23:
 2225 02f6 54687265 		.ascii	"Thread\000"
 2225      616400
 2226              	.LASF53:
 2227 02fd 635F7175 		.ascii	"c_queue\000"
 2227      65756500 
 2228              	.LASF72:
 2229 0305 63685363 		.ascii	"chSchGoSleepS\000"
 2229      68476F53 
 2229      6C656570 
 2229      5300
 2230              	.LASF34:
 2231 0313 705F6570 		.ascii	"p_epending\000"
 2231      656E6469 
 2231      6E6700
 2232              	.LASF14:
 2233 031e 75696E74 		.ascii	"uint32_t\000"
 2233      33325F74 
 2233      00
 2234              	.LASF43:
 2235 0327 725F7175 		.ascii	"r_queue\000"
 2235      65756500 
 2236              	.LASF69:
 2237 032f 63685363 		.ascii	"chSchReadyI\000"
 2237      68526561 
 2237      64794900 
 2238              	.LASF77:
 2239 033b 2F686F6D 		.ascii	"/home/dltech/gdrive/Projects/RFM_to_Modbus_TCP/Chib"
 2239      652F646C 
 2239      74656368 
 2239      2F676472 
ARM GAS  /tmp/cciHZsyq.s 			page 43


 2239      6976652F 
 2240 036e 694F532F 		.ascii	"iOS/F103_ChibiOS_ENC60J28/main\000"
 2240      46313033 
 2240      5F436869 
 2240      62694F53 
 2240      5F454E43 
 2241              	.LASF63:
 2242 038d 6368436F 		.ascii	"chCondWaitS\000"
 2242      6E645761 
 2242      69745300 
 2243              	.LASF51:
 2244 0399 6D5F6E65 		.ascii	"m_next\000"
 2244      787400
 2245              	.LASF22:
 2246 03a0 73797374 		.ascii	"systime_t\000"
 2246      696D655F 
 2246      7400
 2247              	.LASF36:
 2248 03aa 705F7265 		.ascii	"p_realprio\000"
 2248      616C7072 
 2248      696F00
 2249              	.LASF6:
 2250 03b5 5F5F696E 		.ascii	"__int32_t\000"
 2250      7433325F 
 2250      7400
 2251              	.LASF64:
 2252 03bf 6368436F 		.ascii	"chCondWait\000"
 2252      6E645761 
 2252      697400
 2253              	.LASF41:
 2254 03ca 636F6E74 		.ascii	"context\000"
 2254      65787400 
 2255              	.LASF40:
 2256 03d2 696E7463 		.ascii	"intctx\000"
 2256      747800
 2257              	.LASF32:
 2258 03d9 705F6D73 		.ascii	"p_msgqueue\000"
 2258      67717565 
 2258      756500
 2259              	.LASF70:
 2260 03e4 63685363 		.ascii	"chSchWakeupS\000"
 2260      6857616B 
 2260      65757053 
 2260      00
 2261              	.LASF47:
 2262 03f1 52656164 		.ascii	"ReadyList\000"
 2262      794C6973 
 2262      7400
 2263              	.LASF78:
 2264 03fb 726C6973 		.ascii	"rlist\000"
 2264      7400
 2265              	.LASF12:
 2266 0401 75696E74 		.ascii	"uint8_t\000"
 2266      385F7400 
 2267              	.LASF56:
 2268 0409 77746F62 		.ascii	"wtobjp\000"
 2268      6A7000
ARM GAS  /tmp/cciHZsyq.s 			page 44


 2269              	.LASF67:
 2270 0410 6368436F 		.ascii	"chCondWaitTimeout\000"
 2270      6E645761 
 2270      69745469 
 2270      6D656F75 
 2270      7400
 2271              	.LASF74:
 2272 0422 63685363 		.ascii	"chSchGoSleepTimeoutS\000"
 2272      68476F53 
 2272      6C656570 
 2272      54696D65 
 2272      6F757453 
 2273              	.LASF50:
 2274 0437 6D5F6F77 		.ascii	"m_owner\000"
 2274      6E657200 
 2275              	.LASF27:
 2276 043f 705F6374 		.ascii	"p_ctx\000"
 2276      7800
 2277              	.LASF31:
 2278 0445 705F7761 		.ascii	"p_waiting\000"
 2278      6974696E 
 2278      6700
 2279              		.ident	"GCC: (4.8.2-14ubuntu1+6) 4.8.2"
ARM GAS  /tmp/cciHZsyq.s 			page 45


DEFINED SYMBOLS
                            *ABS*:0000000000000000 chcond.c
     /tmp/cciHZsyq.s:19     .text.chCondInit:0000000000000000 $t
     /tmp/cciHZsyq.s:25     .text.chCondInit:0000000000000000 chCondInit
     /tmp/cciHZsyq.s:42     .text.chCondSignal:0000000000000000 $t
     /tmp/cciHZsyq.s:48     .text.chCondSignal:0000000000000000 chCondSignal
     /tmp/cciHZsyq.s:85     .text.chCondSignalI:0000000000000000 $t
     /tmp/cciHZsyq.s:91     .text.chCondSignalI:0000000000000000 chCondSignalI
     /tmp/cciHZsyq.s:119    .text.chCondBroadcastI:0000000000000000 $t
     /tmp/cciHZsyq.s:125    .text.chCondBroadcastI:0000000000000000 chCondBroadcastI
     /tmp/cciHZsyq.s:165    .text.chCondBroadcast:0000000000000000 $t
     /tmp/cciHZsyq.s:171    .text.chCondBroadcast:0000000000000000 chCondBroadcast
     /tmp/cciHZsyq.s:203    .text.chCondWaitS:0000000000000000 $t
     /tmp/cciHZsyq.s:209    .text.chCondWaitS:0000000000000000 chCondWaitS
     /tmp/cciHZsyq.s:262    .text.chCondWait:0000000000000000 $t
     /tmp/cciHZsyq.s:268    .text.chCondWait:0000000000000000 chCondWait
     /tmp/cciHZsyq.s:298    .text.chCondWaitTimeoutS:0000000000000000 $t
     /tmp/cciHZsyq.s:304    .text.chCondWaitTimeoutS:0000000000000000 chCondWaitTimeoutS
     /tmp/cciHZsyq.s:364    .text.chCondWaitTimeout:0000000000000000 $t
     /tmp/cciHZsyq.s:370    .text.chCondWaitTimeout:0000000000000000 chCondWaitTimeout
                     .debug_frame:0000000000000010 $d

UNDEFINED SYMBOLS
_port_lock
fifo_remove
chSchWakeupS
_port_unlock
chSchReadyI
chSchRescheduleS
rlist
chMtxUnlockS
prio_insert
chSchGoSleepS
chMtxLockS
chSchGoSleepTimeoutS
