ARM GAS  /tmp/cc6N4XqF.s 			page 1


   1              		.syntax unified
   2              		.cpu cortex-m3
   3              		.fpu softvfp
   4              		.eabi_attribute 20, 1
   5              		.eabi_attribute 21, 1
   6              		.eabi_attribute 23, 3
   7              		.eabi_attribute 24, 1
   8              		.eabi_attribute 25, 1
   9              		.eabi_attribute 26, 1
  10              		.eabi_attribute 30, 2
  11              		.eabi_attribute 34, 1
  12              		.eabi_attribute 18, 4
  13              		.thumb
  14              		.file	"chcore_v7m.c"
  15              		.text
  16              	.Ltext0:
  17              		.cfi_sections	.debug_frame
  18              		.section	.text._port_switch_from_isr,"ax",%progbits
  19              		.align	2
  20              		.p2align 4,,15
  21              		.global	_port_switch_from_isr
  22              		.thumb
  23              		.thumb_func
  24              		.type	_port_switch_from_isr, %function
  25              	_port_switch_from_isr:
  26              	.LFB6:
  27              		.file 1 "../os/ports/GCC/ARMCMx/chcore_v7m.c"
  28              		.loc 1 200 0
  29              		.cfi_startproc
  30              		@ Naked Function: prologue and epilogue provided by programmer.
  31              		@ args = 0, pretend = 0, frame = 0
  32              		@ frame_needed = 0, uses_anonymous_args = 0
  33              		.loc 1 203 0
  34 0000 FFF7FEFF 		bl	chSchDoReschedule
  35              	.LVL0:
  36              		.loc 1 205 0
  37              	@ 205 "../os/ports/GCC/ARMCMx/chcore_v7m.c" 1
  38              		_port_exit_from_isr:
  39              	@ 0 "" 2
  40              		.loc 1 207 0
  41              	@ 207 "../os/ports/GCC/ARMCMx/chcore_v7m.c" 1
  42 0004 00DF     		svc     #0
  43              	@ 0 "" 2
  44              		.loc 1 214 0
  45              		.thumb
  46              		.cfi_endproc
  47              	.LFE6:
  48              		.size	_port_switch_from_isr, .-_port_switch_from_isr
  49 0006 00BFAFF3 		.section	.text.SVCallVector,"ax",%progbits
  49      0080AFF3 
  49      0080
  50              		.align	2
  51              		.p2align 4,,15
  52              		.global	SVCallVector
  53              		.thumb
  54              		.thumb_func
  55              		.type	SVCallVector, %function
ARM GAS  /tmp/cc6N4XqF.s 			page 2


  56              	SVCallVector:
  57              	.LFB1:
  58              		.loc 1 65 0
  59              		.cfi_startproc
  60              		@ args = 0, pretend = 0, frame = 0
  61              		@ frame_needed = 0, uses_anonymous_args = 0
  62 0000 00B5     		push	{lr}
  63              		.cfi_def_cfa_offset 4
  64              		.cfi_offset 14, -4
  65              		.loc 1 74 0
  66              	@ 74 "../os/ports/GCC/ARMCMx/chcore_v7m.c" 1
  67 0002 EFF30983 		mrs     r3, PSP
  68              	@ 0 "" 2
  69              	.LVL1:
  70              		.loc 1 78 0
  71              		.thumb
  72 0006 2033     		adds	r3, r3, #32
  73              	.LVL2:
  74              		.loc 1 81 0
  75              	@ 81 "../os/ports/GCC/ARMCMx/chcore_v7m.c" 1
  76 0008 83F30988 		msr     PSP, r3
  77              	@ 0 "" 2
  78              		.loc 1 82 0
  79              	@ 82 "../os/ports/GCC/ARMCMx/chcore_v7m.c" 1
  80 000c FFF7FEFF 		bl      _port_unlock
  81              	@ 0 "" 2
  82              	.LVL3:
  83              		.thumb
  84 0010 5DF804FB 		ldr	pc, [sp], #4
  85              		.cfi_endproc
  86              	.LFE1:
  87              		.size	SVCallVector, .-SVCallVector
  88              		.section	.text._port_init,"ax",%progbits
  89              		.align	2
  90              		.p2align 4,,15
  91              		.global	_port_init
  92              		.thumb
  93              		.thumb_func
  94              		.type	_port_init, %function
  95              	_port_init:
  96              	.LFB2:
  97              		.loc 1 120 0
  98              		.cfi_startproc
  99              		@ args = 0, pretend = 0, frame = 0
 100              		@ frame_needed = 0, uses_anonymous_args = 0
 101 0000 08B5     		push	{r3, lr}
 102              		.cfi_def_cfa_offset 8
 103              		.cfi_offset 3, -8
 104              		.cfi_offset 14, -4
 105              		.loc 1 124 0
 106 0002 4FF44072 		mov	r2, #768
 107              		.loc 1 123 0
 108 0006 4FF46D43 		mov	r3, #60672
 109 000a CEF20003 		movt	r3, 57344
 110              		.loc 1 124 0
 111 000e C0F2FA52 		movt	r2, 1530
 112              		.loc 1 123 0
ARM GAS  /tmp/cc6N4XqF.s 			page 3


 113 0012 0021     		movs	r1, #0
 114 0014 9960     		str	r1, [r3, #8]
 115              		.loc 1 127 0
 116 0016 0720     		movs	r0, #7
 117              		.loc 1 124 0
 118 0018 DA60     		str	r2, [r3, #12]
 119              		.loc 1 127 0
 120 001a 1021     		movs	r1, #16
 121 001c FFF7FEFF 		bl	nvicSetSystemHandlerPriority
 122              	.LVL4:
 123              		.loc 1 129 0
 124 0020 0A20     		movs	r0, #10
 125 0022 2021     		movs	r1, #32
 126 0024 FFF7FEFF 		bl	nvicSetSystemHandlerPriority
 127              	.LVL5:
 128              		.loc 1 133 0
 129 0028 BDE80840 		pop	{r3, lr}
 130              		.loc 1 131 0
 131 002c 0B20     		movs	r0, #11
 132 002e 8021     		movs	r1, #128
 133 0030 FFF7FEBF 		b	nvicSetSystemHandlerPriority
 134              	.LVL6:
 135              		.cfi_endproc
 136              	.LFE2:
 137              		.size	_port_init, .-_port_init
 138 0034 AFF30080 		.section	.text._port_lock,"ax",%progbits
 138      AFF30080 
 138      AFF30080 
 139              		.align	2
 140              		.p2align 4,,15
 141              		.global	_port_lock
 142              		.thumb
 143              		.thumb_func
 144              		.type	_port_lock, %function
 145              	_port_lock:
 146              	.LFB3:
 147              		.loc 1 136 0
 148              		.cfi_startproc
 149              		@ args = 0, pretend = 0, frame = 0
 150              		@ frame_needed = 0, uses_anonymous_args = 0
 151              		@ link register save eliminated.
 152              		.loc 1 137 0
 153 0000 2023     		movs	r3, #32
 154              		.loc 1 138 0
 155              	@ 138 "../os/ports/GCC/ARMCMx/chcore_v7m.c" 1
 156 0002 83F31188 		msr     BASEPRI, r3
 157              	@ 0 "" 2
 158              		.thumb
 159 0006 7047     		bx	lr
 160              		.cfi_endproc
 161              	.LFE3:
 162              		.size	_port_lock, .-_port_lock
 163 0008 AFF30080 		.section	.text._port_unlock,"ax",%progbits
 163      AFF30080 
 164              		.align	2
 165              		.p2align 4,,15
 166              		.global	_port_unlock
ARM GAS  /tmp/cc6N4XqF.s 			page 4


 167              		.thumb
 168              		.thumb_func
 169              		.type	_port_unlock, %function
 170              	_port_unlock:
 171              	.LFB4:
 172              		.loc 1 141 0
 173              		.cfi_startproc
 174              		@ args = 0, pretend = 0, frame = 0
 175              		@ frame_needed = 0, uses_anonymous_args = 0
 176              		@ link register save eliminated.
 177              		.loc 1 142 0
 178 0000 0023     		movs	r3, #0
 179              		.loc 1 143 0
 180              	@ 143 "../os/ports/GCC/ARMCMx/chcore_v7m.c" 1
 181 0002 83F31188 		msr     BASEPRI, r3
 182              	@ 0 "" 2
 183              		.thumb
 184 0006 7047     		bx	lr
 185              		.cfi_endproc
 186              	.LFE4:
 187              		.size	_port_unlock, .-_port_unlock
 188 0008 AFF30080 		.section	.text._port_irq_epilogue,"ax",%progbits
 188      AFF30080 
 189              		.align	2
 190              		.p2align 4,,15
 191              		.global	_port_irq_epilogue
 192              		.thumb
 193              		.thumb_func
 194              		.type	_port_irq_epilogue, %function
 195              	_port_irq_epilogue:
 196              	.LFB5:
 197              		.loc 1 150 0
 198              		.cfi_startproc
 199              		@ args = 0, pretend = 0, frame = 0
 200              		@ frame_needed = 0, uses_anonymous_args = 0
 201 0000 00B5     		push	{lr}
 202              		.cfi_def_cfa_offset 4
 203              		.cfi_offset 14, -4
 204              		.loc 1 152 0
 205              	@ 152 "../os/ports/GCC/ARMCMx/chcore_v7m.c" 1
 206 0002 FFF7FEFF 		bl      _port_lock
 207              	@ 0 "" 2
 208              		.loc 1 153 0
 209              		.thumb
 210 0006 4FF46D43 		mov	r3, #60672
 211 000a CEF20003 		movt	r3, 57344
 212 000e 5B68     		ldr	r3, [r3, #4]
 213 0010 1B05     		lsls	r3, r3, #20
 214 0012 20D5     		bpl	.L7
 215              	.LBB2:
 216              		.loc 1 163 0
 217              	@ 163 "../os/ports/GCC/ARMCMx/chcore_v7m.c" 1
 218 0014 EFF30982 		mrs     r2, PSP
 219              	@ 0 "" 2
 220              	.LVL7:
 221              		.loc 1 168 0
 222              		.thumb
ARM GAS  /tmp/cc6N4XqF.s 			page 5


 223 0018 4FF08073 		mov	r3, #16777216
 224 001c 42F8043C 		str	r3, [r2, #-4]
 225              		.loc 1 167 0
 226 0020 A2F12003 		sub	r3, r2, #32
 227              	.LVL8:
 228              		.loc 1 172 0
 229              	@ 172 "../os/ports/GCC/ARMCMx/chcore_v7m.c" 1
 230 0024 83F30988 		msr     PSP, r3
 231              	@ 0 "" 2
 232              		.loc 1 176 0
 233              		.thumb
 234 0028 40F20003 		movw	r3, #:lower16:rlist
 235              	.LVL9:
 236 002c C0F20003 		movt	r3, #:upper16:rlist
 237 0030 1969     		ldr	r1, [r3, #16]
 238 0032 887C     		ldrb	r0, [r1, #18]	@ zero_extendqisi2
 239 0034 98B1     		cbz	r0, .L8
 240              		.loc 1 176 0 is_stmt 0 discriminator 1
 241 0036 1868     		ldr	r0, [r3]
 242 0038 8B68     		ldr	r3, [r1, #8]
 243 003a 8168     		ldr	r1, [r0, #8]
 244 003c 9942     		cmp	r1, r3
 245 003e 94BF     		ite	ls
 246 0040 0023     		movls	r3, #0
 247 0042 0123     		movhi	r3, #1
 248 0044 A3B1     		cbz	r3, .L10
 249              	.L13:
 250              		.loc 1 178 0 is_stmt 1
 251 0046 40F20003 		movw	r3, #:lower16:_port_switch_from_isr
 252 004a C0F20003 		movt	r3, #:upper16:_port_switch_from_isr
 253 004e 42F8083C 		str	r3, [r2, #-8]
 254 0052 5DF804FB 		ldr	pc, [sp], #4
 255              	.LVL10:
 256              	.L7:
 257              	.LBE2:
 258              		.loc 1 190 0
 259              	@ 190 "../os/ports/GCC/ARMCMx/chcore_v7m.c" 1
 260 0056 FFF7FEFF 		bl      _port_unlock
 261              	@ 0 "" 2
 262              		.thumb
 263 005a 5DF804FB 		ldr	pc, [sp], #4
 264              	.LVL11:
 265              	.L8:
 266              	.LBB3:
 267              		.loc 1 176 0 discriminator 2
 268 005e 1868     		ldr	r0, [r3]
 269 0060 8B68     		ldr	r3, [r1, #8]
 270 0062 8168     		ldr	r1, [r0, #8]
 271 0064 9942     		cmp	r1, r3
 272 0066 34BF     		ite	cc
 273 0068 0023     		movcc	r3, #0
 274 006a 0123     		movcs	r3, #1
 275 006c 002B     		cmp	r3, #0
 276 006e EAD1     		bne	.L13
 277              	.L10:
 278              		.loc 1 183 0
 279 0070 40F20003 		movw	r3, #:lower16:_port_exit_from_isr
ARM GAS  /tmp/cc6N4XqF.s 			page 6


 280 0074 C0F20003 		movt	r3, #:upper16:_port_exit_from_isr
 281 0078 42F8083C 		str	r3, [r2, #-8]
 282 007c 5DF804FB 		ldr	pc, [sp], #4
 283              	.LBE3:
 284              		.cfi_endproc
 285              	.LFE5:
 286              		.size	_port_irq_epilogue, .-_port_irq_epilogue
 287              		.section	.text.SysTickVector,"ax",%progbits
 288              		.align	2
 289              		.p2align 4,,15
 290              		.global	SysTickVector
 291              		.thumb
 292              		.thumb_func
 293              		.type	SysTickVector, %function
 294              	SysTickVector:
 295              	.LFB0:
 296              		.loc 1 47 0
 297              		.cfi_startproc
 298              		@ args = 0, pretend = 0, frame = 0
 299              		@ frame_needed = 0, uses_anonymous_args = 0
 300 0000 08B5     		push	{r3, lr}
 301              		.cfi_def_cfa_offset 8
 302              		.cfi_offset 3, -8
 303              		.cfi_offset 14, -4
 304              		.loc 1 51 0
 305              	@ 51 "../os/ports/GCC/ARMCMx/chcore_v7m.c" 1
 306 0002 FFF7FEFF 		bl      _port_lock
 307              	@ 0 "" 2
 308              		.loc 1 52 0
 309              		.thumb
 310 0006 FFF7FEFF 		bl	chSysTimerHandlerI
 311              	.LVL12:
 312              		.loc 1 53 0
 313              	@ 53 "../os/ports/GCC/ARMCMx/chcore_v7m.c" 1
 314 000a FFF7FEFF 		bl      _port_unlock
 315              	@ 0 "" 2
 316              		.loc 1 56 0
 317              		.thumb
 318 000e BDE80840 		pop	{r3, lr}
 319              		.loc 1 55 0
 320 0012 FFF7FEBF 		b	_port_irq_epilogue
 321              	.LVL13:
 322              		.cfi_endproc
 323              	.LFE0:
 324              		.size	SysTickVector, .-SysTickVector
 325              		.section	.text._port_switch,"ax",%progbits
 326              		.align	2
 327              		.p2align 4,,15
 328              		.global	_port_switch
 329              		.thumb
 330              		.thumb_func
 331              		.type	_port_switch, %function
 332              	_port_switch:
 333              	.LFB7:
 334              		.loc 1 229 0
 335              		.cfi_startproc
 336              		@ Naked Function: prologue and epilogue provided by programmer.
ARM GAS  /tmp/cc6N4XqF.s 			page 7


 337              		@ args = 0, pretend = 0, frame = 0
 338              		@ frame_needed = 0, uses_anonymous_args = 0
 339              	.LVL14:
 340              		.loc 1 231 0
 341              	@ 231 "../os/ports/GCC/ARMCMx/chcore_v7m.c" 1
 342 0000 2DE9F04F 		push    {r4, r5, r6, r7, r8, r9, r10, r11, lr}
 343              	@ 0 "" 2
 344              		.loc 1 237 0
 345              	@ 237 "../os/ports/GCC/ARMCMx/chcore_v7m.c" 1
 346 0004 C1F80CD0 		str     sp, [r1, #12]                          
 347 0008 D0F80CD0 		ldr     sp, [r0, #12]
 348              	@ 0 "" 2
 349              		.loc 1 243 0
 350              	@ 243 "../os/ports/GCC/ARMCMx/chcore_v7m.c" 1
 351 000c BDE8F08F 		pop     {r4, r5, r6, r7, r8, r9, r10, r11, pc}
 352              	@ 0 "" 2
 353              		.loc 1 245 0
 354              		.thumb
 355              		.cfi_endproc
 356              	.LFE7:
 357              		.size	_port_switch, .-_port_switch
 358              		.section	.text._port_thread_start,"ax",%progbits
 359              		.align	2
 360              		.p2align 4,,15
 361              		.global	_port_thread_start
 362              		.thumb
 363              		.thumb_func
 364              		.type	_port_thread_start, %function
 365              	_port_thread_start:
 366              	.LFB8:
 367              		.loc 1 252 0
 368              		.cfi_startproc
 369              		@ args = 0, pretend = 0, frame = 0
 370              		@ frame_needed = 0, uses_anonymous_args = 0
 371 0000 00B5     		push	{lr}
 372              		.cfi_def_cfa_offset 4
 373              		.cfi_offset 14, -4
 374              		.loc 1 254 0
 375              	@ 254 "../os/ports/GCC/ARMCMx/chcore_v7m.c" 1
 376 0002 FFF7FEFF 		bl      _port_unlock
 377              	@ 0 "" 2
 378              		.loc 1 255 0
 379              	@ 255 "../os/ports/GCC/ARMCMx/chcore_v7m.c" 1
 380 0006 2846     		mov     r0, r5                                 
 381 0008 A047     		blx     r4                                     
 382 000a FFF7FEFF 		bl      chThdExit
 383              	@ 0 "" 2
 384              		.thumb
 385 000e 5DF804FB 		ldr	pc, [sp], #4
 386              		.cfi_endproc
 387              	.LFE8:
 388              		.size	_port_thread_start, .-_port_thread_start
 389 0012 00BFAFF3 		.text
 389      0080AFF3 
 389      0080AFF3 
 389      0080
 390              	.Letext0:
ARM GAS  /tmp/cc6N4XqF.s 			page 8


 391              		.file 2 "/usr/include/newlib/machine/_default_types.h"
 392              		.file 3 "/usr/include/newlib/stdint.h"
 393              		.file 4 "../os/ports/GCC/ARMCMx/chtypes.h"
 394              		.file 5 "../os/kernel/include/chlists.h"
 395              		.file 6 "../os/kernel/include/chthreads.h"
 396              		.file 7 "../os/ports/GCC/ARMCMx/chcore_v7m.h"
 397              		.file 8 "../os/ports/common/ARMCMx/nvic.h"
 398              		.file 9 "../os/kernel/include/chschd.h"
 399              		.file 10 "../os/kernel/include/chmtx.h"
 400              		.file 11 "../os/kernel/include/chsys.h"