ARM GAS  /tmp/cciHZsyq.s 			page 1


   1              		.syntax unified
   2              		.cpu cortex-m3
   3              		.fpu softvfp
   4              		.eabi_attribute 20, 1
   5              		.eabi_attribute 21, 1
   6              		.eabi_attribute 23, 3
   7              		.eabi_attribute 24, 1
   8              		.eabi_attribute 25, 1
   9              		.eabi_attribute 26, 1
  10              		.eabi_attribute 30, 2
  11              		.eabi_attribute 34, 1
  12              		.eabi_attribute 18, 4
  13              		.thumb
  14              		.file	"chcond.c"
  15              		.text
  16              	.Ltext0:
  17              		.cfi_sections	.debug_frame
  18              		.section	.text.chCondInit,"ax",%progbits
  19              		.align	2
  20              		.p2align 4,,15
  21              		.global	chCondInit
  22              		.thumb
  23              		.thumb_func
  24              		.type	chCondInit, %function
  25              	chCondInit:
  26              	.LFB0:
  27              		.file 1 "../os/kernel/src/chcond.c"
  28              		.loc 1 59 0
  29              		.cfi_startproc
  30              		@ args = 0, pretend = 0, frame = 0
  31              		@ frame_needed = 0, uses_anonymous_args = 0
  32              		@ link register save eliminated.
  33              	.LVL0:
  34              		.loc 1 63 0
  35 0000 4060     		str	r0, [r0, #4]
  36 0002 0060     		str	r0, [r0]
  37 0004 7047     		bx	lr
  38              		.cfi_endproc
  39              	.LFE0:
  40              		.size	chCondInit, .-chCondInit
  41 0006 00BFAFF3 		.section	.text.chCondSignal,"ax",%progbits
  41      0080AFF3 
  41      0080
  42              		.align	2
  43              		.p2align 4,,15
  44              		.global	chCondSignal
  45              		.thumb
  46              		.thumb_func
  47              		.type	chCondSignal, %function
  48              	chCondSignal:
  49              	.LFB1:
  50              		.loc 1 73 0
  51              		.cfi_startproc
  52              		@ args = 0, pretend = 0, frame = 0
  53              		@ frame_needed = 0, uses_anonymous_args = 0
  54              	.LVL1:
  55 0000 08B5     		push	{r3, lr}
ARM GAS  /tmp/cciHZsyq.s 			page 2


  56              		.cfi_def_cfa_offset 8
  57              		.cfi_offset 3, -8
  58              		.cfi_offset 14, -4
  59              		.loc 1 77 0
  60              	@ 77 "../os/kernel/src/chcond.c" 1
  61 0002 FFF7FEFF 		bl      _port_lock
  62              	@ 0 "" 2
  63              		.loc 1 78 0
  64              		.thumb
  65 0006 0368     		ldr	r3, [r0]
  66 0008 8342     		cmp	r3, r0
  67 000a 04D0     		beq	.L3
  68              		.loc 1 79 0
  69 000c FFF7FEFF 		bl	fifo_remove
  70              	.LVL2:
  71 0010 0021     		movs	r1, #0
  72 0012 FFF7FEFF 		bl	chSchWakeupS
  73              	.LVL3:
  74              	.L3:
  75              		.loc 1 80 0
  76              	@ 80 "../os/kernel/src/chcond.c" 1
  77 0016 FFF7FEFF 		bl      _port_unlock
  78              	@ 0 "" 2
  79              		.thumb
  80 001a 08BD     		pop	{r3, pc}
  81              		.cfi_endproc
  82              	.LFE1:
  83              		.size	chCondSignal, .-chCondSignal
  84 001c AFF30080 		.section	.text.chCondSignalI,"ax",%progbits
  85              		.align	2
  86              		.p2align 4,,15
  87              		.global	chCondSignalI
  88              		.thumb
  89              		.thumb_func
  90              		.type	chCondSignalI, %function
  91              	chCondSignalI:
  92              	.LFB2:
  93              		.loc 1 94 0
  94              		.cfi_startproc
  95              		@ args = 0, pretend = 0, frame = 0
  96              		@ frame_needed = 0, uses_anonymous_args = 0
  97              	.LVL4:
  98 0000 08B5     		push	{r3, lr}
  99              		.cfi_def_cfa_offset 8
 100              		.cfi_offset 3, -8
 101              		.cfi_offset 14, -4
 102              		.loc 1 99 0
 103 0002 0368     		ldr	r3, [r0]
 104 0004 8342     		cmp	r3, r0
 105 0006 05D0     		beq	.L5
 106              		.loc 1 100 0
 107 0008 FFF7FEFF 		bl	fifo_remove
 108              	.LVL5:
 109 000c FFF7FEFF 		bl	chSchReadyI
 110              	.LVL6:
 111 0010 0023     		movs	r3, #0
 112 0012 4361     		str	r3, [r0, #20]
ARM GAS  /tmp/cciHZsyq.s 			page 3


 113              	.L5:
 114 0014 08BD     		pop	{r3, pc}
 115              		.cfi_endproc
 116              	.LFE2:
 117              		.size	chCondSignalI, .-chCondSignalI
 118 0016 00BFAFF3 		.section	.text.chCondBroadcastI,"ax",%progbits
 118      0080AFF3 
 118      0080
 119              		.align	2
 120              		.p2align 4,,15
 121              		.global	chCondBroadcastI
 122              		.thumb
 123              		.thumb_func
 124              		.type	chCondBroadcastI, %function
 125              	chCondBroadcastI:
 126              	.LFB4:
 127              		.loc 1 129 0
 128              		.cfi_startproc
 129              		@ args = 0, pretend = 0, frame = 0
 130              		@ frame_needed = 0, uses_anonymous_args = 0
 131              	.LVL7:
 132 0000 38B5     		push	{r3, r4, r5, lr}
 133              		.cfi_def_cfa_offset 16
 134              		.cfi_offset 3, -16
 135              		.cfi_offset 4, -12
 136              		.cfi_offset 5, -8
 137              		.cfi_offset 14, -4
 138              		.loc 1 137 0
 139 0002 0368     		ldr	r3, [r0]
 140              		.loc 1 129 0
 141 0004 0446     		mov	r4, r0
 142              		.loc 1 137 0
 143 0006 8342     		cmp	r3, r0
 144 0008 0AD0     		beq	.L7
 145              		.loc 1 138 0
 146 000a 6FF00105 		mvn	r5, #1
 147              	.LVL8:
 148              	.L10:
 149 000e 2046     		mov	r0, r4
 150 0010 FFF7FEFF 		bl	fifo_remove
 151              	.LVL9:
 152 0014 FFF7FEFF 		bl	chSchReadyI
 153              	.LVL10:
 154 0018 4561     		str	r5, [r0, #20]
 155              		.loc 1 137 0
 156 001a 2368     		ldr	r3, [r4]
 157 001c A342     		cmp	r3, r4
 158 001e F6D1     		bne	.L10
 159              	.L7:
 160 0020 38BD     		pop	{r3, r4, r5, pc}
 161              		.cfi_endproc
 162              	.LFE4:
 163              		.size	chCondBroadcastI, .-chCondBroadcastI
 164 0022 00BFAFF3 		.section	.text.chCondBroadcast,"ax",%progbits
 164      0080AFF3 
 164      0080AFF3 
 164      0080
ARM GAS  /tmp/cciHZsyq.s 			page 4


 165              		.align	2
 166              		.p2align 4,,15
 167              		.global	chCondBroadcast
 168              		.thumb
 169              		.thumb_func
 170              		.type	chCondBroadcast, %function
 171              	chCondBroadcast:
 172              	.LFB3:
 173              		.loc 1 110 0
 174              		.cfi_startproc
 175              		@ args = 0, pretend = 0, frame = 0
 176              		@ frame_needed = 0, uses_anonymous_args = 0
 177              	.LVL11:
 178 0000 08B5     		push	{r3, lr}
 179              		.cfi_def_cfa_offset 8
 180              		.cfi_offset 3, -8
 181              		.cfi_offset 14, -4
 182              		.loc 1 112 0
 183              	@ 112 "../os/kernel/src/chcond.c" 1
 184 0002 FFF7FEFF 		bl      _port_lock
 185              	@ 0 "" 2
 186              		.loc 1 113 0
 187              		.thumb
 188 0006 FFF7FEFF 		bl	chCondBroadcastI
 189              	.LVL12:
 190              		.loc 1 114 0
 191 000a FFF7FEFF 		bl	chSchRescheduleS
 192              	.LVL13:
 193              		.loc 1 115 0
 194              	@ 115 "../os/kernel/src/chcond.c" 1
 195 000e FFF7FEFF 		bl      _port_unlock
 196              	@ 0 "" 2
 197              		.thumb
 198 0012 08BD     		pop	{r3, pc}
 199              		.cfi_endproc
 200              	.LFE3:
 201              		.size	chCondBroadcast, .-chCondBroadcast
 202 0014 AFF30080 		.section	.text.chCondWaitS,"ax",%progbits
 202      AFF30080 
 202      AFF30080 
 203              		.align	2
 204              		.p2align 4,,15
 205              		.global	chCondWaitS
 206              		.thumb
 207              		.thumb_func
 208              		.type	chCondWaitS, %function
 209              	chCondWaitS:
 210              	.LFB6:
 211              		.loc 1 184 0
 212              		.cfi_startproc
 213              		@ args = 0, pretend = 0, frame = 0
 214              		@ frame_needed = 0, uses_anonymous_args = 0
 215              	.LVL14:
 216 0000 70B5     		push	{r4, r5, r6, lr}
 217              		.cfi_def_cfa_offset 16
 218              		.cfi_offset 4, -16
 219              		.cfi_offset 5, -12
ARM GAS  /tmp/cciHZsyq.s 			page 5


 220              		.cfi_offset 6, -8
 221              		.cfi_offset 14, -4
 222              		.loc 1 185 0
 223 0002 40F20003 		movw	r3, #:lower16:rlist
 224 0006 C0F20003 		movt	r3, #:upper16:rlist
 225 000a 1C69     		ldr	r4, [r3, #16]
 226              	.LVL15:
 227              		.loc 1 184 0
 228 000c 0546     		mov	r5, r0
 229              		.loc 1 195 0
 230 000e FFF7FEFF 		bl	chMtxUnlockS
 231              	.LVL16:
 232              		.loc 1 197 0
 233 0012 2946     		mov	r1, r5
 234              		.loc 1 195 0
 235 0014 0646     		mov	r6, r0
 236              	.LVL17:
 237              		.loc 1 196 0
 238 0016 6561     		str	r5, [r4, #20]
 239              		.loc 1 197 0
 240 0018 2046     		mov	r0, r4
 241              	.LVL18:
 242 001a FFF7FEFF 		bl	prio_insert
 243              	.LVL19:
 244              		.loc 1 198 0
 245 001e 0520     		movs	r0, #5
 246 0020 FFF7FEFF 		bl	chSchGoSleepS
 247              	.LVL20:
 248              		.loc 1 199 0
 249 0024 6469     		ldr	r4, [r4, #20]
 250              	.LVL21:
 251              		.loc 1 200 0
 252 0026 3046     		mov	r0, r6
 253 0028 FFF7FEFF 		bl	chMtxLockS
 254              	.LVL22:
 255              		.loc 1 202 0
 256 002c 2046     		mov	r0, r4
 257 002e 70BD     		pop	{r4, r5, r6, pc}
 258              		.cfi_endproc
 259              	.LFE6:
 260              		.size	chCondWaitS, .-chCondWaitS
 261              		.section	.text.chCondWait,"ax",%progbits
 262              		.align	2
 263              		.p2align 4,,15
 264              		.global	chCondWait
 265              		.thumb
 266              		.thumb_func
 267              		.type	chCondWait, %function
 268              	chCondWait:
 269              	.LFB5:
 270              		.loc 1 158 0
 271              		.cfi_startproc
 272              		@ args = 0, pretend = 0, frame = 0
 273              		@ frame_needed = 0, uses_anonymous_args = 0
 274              	.LVL23:
 275 0000 08B5     		push	{r3, lr}
 276              		.cfi_def_cfa_offset 8
ARM GAS  /tmp/cciHZsyq.s 			page 6


 277              		.cfi_offset 3, -8
 278              		.cfi_offset 14, -4
 279              		.loc 1 161 0
 280              	@ 161 "../os/kernel/src/chcond.c" 1
 281 0002 FFF7FEFF 		bl      _port_lock
 282              	@ 0 "" 2
 283              		.loc 1 162 0
 284              		.thumb
 285 0006 FFF7FEFF 		bl	chCondWaitS
 286              	.LVL24:
 287              		.loc 1 163 0
 288              	@ 163 "../os/kernel/src/chcond.c" 1
 289 000a FFF7FEFF 		bl      _port_unlock
 290              	@ 0 "" 2
 291              		.loc 1 165 0
 292              		.thumb
 293 000e 08BD     		pop	{r3, pc}
 294              		.cfi_endproc
 295              	.LFE5:
 296              		.size	chCondWait, .-chCondWait
 297              		.section	.text.chCondWaitTimeoutS,"ax",%progbits
 298              		.align	2
 299              		.p2align 4,,15
 300              		.global	chCondWaitTimeoutS
 301              		.thumb
 302              		.thumb_func
 303              		.type	chCondWaitTimeoutS, %function
 304              	chCondWaitTimeoutS:
 305              	.LFB8:
 306              		.loc 1 270 0
 307              		.cfi_startproc
 308              		@ args = 0, pretend = 0, frame = 0
 309              		@ frame_needed = 0, uses_anonymous_args = 0
 310              	.LVL25:
 311 0000 70B5     		push	{r4, r5, r6, lr}
 312              		.cfi_def_cfa_offset 16
 313              		.cfi_offset 4, -16
 314              		.cfi_offset 5, -12
 315              		.cfi_offset 6, -8
 316              		.cfi_offset 14, -4
 317              		.loc 1 270 0
 318 0002 0446     		mov	r4, r0
 319 0004 0D46     		mov	r5, r1
 320              		.loc 1 280 0
 321 0006 FFF7FEFF 		bl	chMtxUnlockS
 322              	.LVL26:
 323              		.loc 1 281 0
 324 000a 40F20003 		movw	r3, #:lower16:rlist
 325 000e C0F20003 		movt	r3, #:upper16:rlist
 326              		.loc 1 280 0
 327 0012 0646     		mov	r6, r0
 328              	.LVL27:
 329              		.loc 1 281 0
 330 0014 1869     		ldr	r0, [r3, #16]
 331              	.LVL28:
 332              		.loc 1 282 0
 333 0016 2146     		mov	r1, r4
ARM GAS  /tmp/cciHZsyq.s 			page 7


 334              		.loc 1 281 0
 335 0018 4461     		str	r4, [r0, #20]
 336              		.loc 1 282 0
 337 001a FFF7FEFF 		bl	prio_insert
 338              	.LVL29:
 339              		.loc 1 283 0
 340 001e 2946     		mov	r1, r5
 341 0020 0520     		movs	r0, #5
 342 0022 FFF7FEFF 		bl	chSchGoSleepTimeoutS
 343              	.LVL30:
 344              		.loc 1 284 0
 345 0026 431C     		adds	r3, r0, #1
 346              		.loc 1 283 0
 347 0028 0446     		mov	r4, r0
 348              	.LVL31:
 349              		.loc 1 284 0
 350 002a 02D0     		beq	.L15
 351              		.loc 1 285 0
 352 002c 3046     		mov	r0, r6
 353              	.LVL32:
 354 002e FFF7FEFF 		bl	chMtxLockS
 355              	.LVL33:
 356              	.L15:
 357              		.loc 1 287 0
 358 0032 2046     		mov	r0, r4
 359 0034 70BD     		pop	{r4, r5, r6, pc}
 360              		.cfi_endproc
 361              	.LFE8:
 362              		.size	chCondWaitTimeoutS, .-chCondWaitTimeoutS
 363 0036 00BFAFF3 		.section	.text.chCondWaitTimeout,"ax",%progbits
 363      0080AFF3 
 363      0080
 364              		.align	2
 365              		.p2align 4,,15
 366              		.global	chCondWaitTimeout
 367              		.thumb
 368              		.thumb_func
 369              		.type	chCondWaitTimeout, %function
 370              	chCondWaitTimeout:
 371              	.LFB7:
 372              		.loc 1 233 0
 373              		.cfi_startproc
 374              		@ args = 0, pretend = 0, frame = 0
 375              		@ frame_needed = 0, uses_anonymous_args = 0
 376              	.LVL34:
 377 0000 08B5     		push	{r3, lr}
 378              		.cfi_def_cfa_offset 8
 379              		.cfi_offset 3, -8
 380              		.cfi_offset 14, -4
 381              		.loc 1 236 0
 382              	@ 236 "../os/kernel/src/chcond.c" 1
 383 0002 FFF7FEFF 		bl      _port_lock
 384              	@ 0 "" 2
 385              		.loc 1 237 0
 386              		.thumb
 387 0006 FFF7FEFF 		bl	chCondWaitTimeoutS
 388              	.LVL35:
ARM GAS  /tmp/cciHZsyq.s 			page 8


 389              		.loc 1 238 0
 390              	@ 238 "../os/kernel/src/chcond.c" 1
 391 000a FFF7FEFF 		bl      _port_unlock
 392              	@ 0 "" 2
 393              		.loc 1 240 0
 394              		.thumb
 395 000e 08BD     		pop	{r3, pc}
 396              		.cfi_endproc
 397              	.LFE7:
 398              		.size	chCondWaitTimeout, .-chCondWaitTimeout
 399              		.text
 400              	.Letext0:
 401              		.file 2 "/usr/include/newlib/machine/_default_types.h"
 402              		.file 3 "/usr/include/newlib/stdint.h"
 403              		.file 4 "../os/ports/GCC/ARMCMx/chtypes.h"
 404              		.file 5 "../os/kernel/include/chlists.h"
 405              		.file 6 "../os/kernel/include/chthreads.h"
 406              		.file 7 "../os/ports/GCC/ARMCMx/chcore_v7m.h"
 407              		.file 8 "../os/kernel/include/chschd.h"
 408              		.file 9 "../os/kernel/include/chmtx.h"
 409              		.file 10 "../os/kernel/include/chcond.h"