ARM GAS  /tmp/ccQD821u.s 			page 1


   1              		.syntax unified
   2              		.cpu cortex-m3
   3              		.fpu softvfp
   4              		.eabi_attribute 20, 1
   5              		.eabi_attribute 21, 1
   6              		.eabi_attribute 23, 3
   7              		.eabi_attribute 24, 1
   8              		.eabi_attribute 25, 1
   9              		.eabi_attribute 26, 1
  10              		.eabi_attribute 30, 2
  11              		.eabi_attribute 34, 1
  12              		.eabi_attribute 18, 4
  13              		.thumb
  14              		.file	"chevents.c"
  15              		.text
  16              	.Ltext0:
  17              		.cfi_sections	.debug_frame
  18              		.section	.text.chEvtRegisterMask,"ax",%progbits
  19              		.align	2
  20              		.p2align 4,,15
  21              		.global	chEvtRegisterMask
  22              		.thumb
  23              		.thumb_func
  24              		.type	chEvtRegisterMask, %function
  25              	chEvtRegisterMask:
  26              	.LFB0:
  27              		.file 1 "../os/kernel/src/chevents.c"
  28              		.loc 1 85 0
  29              		.cfi_startproc
  30              		@ args = 0, pretend = 0, frame = 0
  31              		@ frame_needed = 0, uses_anonymous_args = 0
  32              	.LVL0:
  33 0000 10B5     		push	{r4, lr}
  34              		.cfi_def_cfa_offset 8
  35              		.cfi_offset 4, -8
  36              		.cfi_offset 14, -4
  37              		.loc 1 89 0
  38              	@ 89 "../os/kernel/src/chevents.c" 1
  39 0002 FFF7FEFF 		bl      _port_lock
  40              	@ 0 "" 2
  41              		.loc 1 90 0
  42              		.thumb
  43 0006 0468     		ldr	r4, [r0]
  44              		.loc 1 92 0
  45 0008 40F20003 		movw	r3, #:lower16:rlist
  46              		.loc 1 90 0
  47 000c 0C60     		str	r4, [r1]
  48              		.loc 1 92 0
  49 000e C0F20003 		movt	r3, #:upper16:rlist
  50              		.loc 1 91 0
  51 0012 0160     		str	r1, [r0]
  52              		.loc 1 92 0
  53 0014 1B69     		ldr	r3, [r3, #16]
  54              		.loc 1 94 0
  55 0016 0020     		movs	r0, #0
  56              	.LVL1:
  57              		.loc 1 92 0
ARM GAS  /tmp/ccQD821u.s 			page 2


  58 0018 4B60     		str	r3, [r1, #4]
  59              		.loc 1 93 0
  60 001a 8A60     		str	r2, [r1, #8]
  61              		.loc 1 94 0
  62 001c C860     		str	r0, [r1, #12]
  63              		.loc 1 95 0
  64              	@ 95 "../os/kernel/src/chevents.c" 1
  65 001e FFF7FEFF 		bl      _port_unlock
  66              	@ 0 "" 2
  67              		.thumb
  68 0022 10BD     		pop	{r4, pc}
  69              		.cfi_endproc
  70              	.LFE0:
  71              		.size	chEvtRegisterMask, .-chEvtRegisterMask
  72 0024 AFF30080 		.section	.text.chEvtUnregister,"ax",%progbits
  72      AFF30080 
  72      AFF30080 
  73              		.align	2
  74              		.p2align 4,,15
  75              		.global	chEvtUnregister
  76              		.thumb
  77              		.thumb_func
  78              		.type	chEvtUnregister, %function
  79              	chEvtUnregister:
  80              	.LFB1:
  81              		.loc 1 111 0
  82              		.cfi_startproc
  83              		@ args = 0, pretend = 0, frame = 0
  84              		@ frame_needed = 0, uses_anonymous_args = 0
  85              	.LVL2:
  86 0000 00B5     		push	{lr}
  87              		.cfi_def_cfa_offset 4
  88              		.cfi_offset 14, -4
  89              		.loc 1 117 0
  90              	@ 117 "../os/kernel/src/chevents.c" 1
  91 0002 FFF7FEFF 		bl      _port_lock
  92              	@ 0 "" 2
  93              		.loc 1 116 0
  94              		.thumb
  95 0006 0246     		mov	r2, r0
  96              		.loc 1 118 0
  97 0008 02E0     		b	.L3
  98              	.LVL3:
  99              	.L6:
 100              		.loc 1 119 0
 101 000a 9942     		cmp	r1, r3
 102 000c 07D0     		beq	.L8
 103 000e 1A46     		mov	r2, r3
 104              	.LVL4:
 105              	.L3:
 106              		.loc 1 118 0 discriminator 1
 107 0010 1368     		ldr	r3, [r2]
 108 0012 8342     		cmp	r3, r0
 109 0014 F9D1     		bne	.L6
 110              		.loc 1 125 0
 111              	@ 125 "../os/kernel/src/chevents.c" 1
 112 0016 FFF7FEFF 		bl      _port_unlock
ARM GAS  /tmp/ccQD821u.s 			page 3


 113              	@ 0 "" 2
 114              		.thumb
 115 001a 5DF804FB 		ldr	pc, [sp], #4
 116              	.L8:
 117              		.loc 1 120 0
 118 001e 0B68     		ldr	r3, [r1]
 119 0020 1360     		str	r3, [r2]
 120              		.loc 1 125 0
 121              	@ 125 "../os/kernel/src/chevents.c" 1
 122 0022 FFF7FEFF 		bl      _port_unlock
 123              	@ 0 "" 2
 124              		.thumb
 125 0026 5DF804FB 		ldr	pc, [sp], #4
 126              		.cfi_endproc
 127              	.LFE1:
 128              		.size	chEvtUnregister, .-chEvtUnregister
 129 002a 00BFAFF3 		.section	.text.chEvtGetAndClearEvents,"ax",%progbits
 129      0080
 130              		.align	2
 131              		.p2align 4,,15
 132              		.global	chEvtGetAndClearEvents
 133              		.thumb
 134              		.thumb_func
 135              		.type	chEvtGetAndClearEvents, %function
 136              	chEvtGetAndClearEvents:
 137              	.LFB2:
 138              		.loc 1 136 0
 139              		.cfi_startproc
 140              		@ args = 0, pretend = 0, frame = 0
 141              		@ frame_needed = 0, uses_anonymous_args = 0
 142              	.LVL5:
 143 0000 00B5     		push	{lr}
 144              		.cfi_def_cfa_offset 4
 145              		.cfi_offset 14, -4
 146              		.loc 1 139 0
 147              	@ 139 "../os/kernel/src/chevents.c" 1
 148 0002 FFF7FEFF 		bl      _port_lock
 149              	@ 0 "" 2
 150              		.loc 1 141 0
 151              		.thumb
 152 0006 40F20003 		movw	r3, #:lower16:rlist
 153 000a C0F20003 		movt	r3, #:upper16:rlist
 154 000e 1B69     		ldr	r3, [r3, #16]
 155 0010 9A6A     		ldr	r2, [r3, #40]
 156              	.LVL6:
 157              		.loc 1 142 0
 158 0012 22EA0001 		bic	r1, r2, r0
 159 0016 9962     		str	r1, [r3, #40]
 160              		.loc 1 144 0
 161              	@ 144 "../os/kernel/src/chevents.c" 1
 162 0018 FFF7FEFF 		bl      _port_unlock
 163              	@ 0 "" 2
 164              		.loc 1 146 0
 165              		.thumb
 166 001c 1040     		ands	r0, r0, r2
 167              	.LVL7:
 168 001e 5DF804FB 		ldr	pc, [sp], #4
ARM GAS  /tmp/ccQD821u.s 			page 4


 169              		.cfi_endproc
 170              	.LFE2:
 171              		.size	chEvtGetAndClearEvents, .-chEvtGetAndClearEvents
 172 0022 00BFAFF3 		.section	.text.chEvtAddEvents,"ax",%progbits
 172      0080AFF3 
 172      0080AFF3 
 172      0080
 173              		.align	2
 174              		.p2align 4,,15
 175              		.global	chEvtAddEvents
 176              		.thumb
 177              		.thumb_func
 178              		.type	chEvtAddEvents, %function
 179              	chEvtAddEvents:
 180              	.LFB3:
 181              		.loc 1 157 0
 182              		.cfi_startproc
 183              		@ args = 0, pretend = 0, frame = 0
 184              		@ frame_needed = 0, uses_anonymous_args = 0
 185              	.LVL8:
 186 0000 00B5     		push	{lr}
 187              		.cfi_def_cfa_offset 4
 188              		.cfi_offset 14, -4
 189              		.loc 1 159 0
 190              	@ 159 "../os/kernel/src/chevents.c" 1
 191 0002 FFF7FEFF 		bl      _port_lock
 192              	@ 0 "" 2
 193              		.loc 1 161 0
 194              		.thumb
 195 0006 40F20003 		movw	r3, #:lower16:rlist
 196 000a C0F20003 		movt	r3, #:upper16:rlist
 197 000e 1B69     		ldr	r3, [r3, #16]
 198 0010 9A6A     		ldr	r2, [r3, #40]
 199 0012 1043     		orrs	r0, r0, r2
 200              	.LVL9:
 201 0014 9862     		str	r0, [r3, #40]
 202              	.LVL10:
 203              		.loc 1 163 0
 204              	@ 163 "../os/kernel/src/chevents.c" 1
 205 0016 FFF7FEFF 		bl      _port_unlock
 206              	@ 0 "" 2
 207              		.loc 1 165 0
 208              		.thumb
 209 001a 5DF804FB 		ldr	pc, [sp], #4
 210              		.cfi_endproc
 211              	.LFE3:
 212              		.size	chEvtAddEvents, .-chEvtAddEvents
 213 001e 00BF     		.section	.text.chEvtGetAndClearFlags,"ax",%progbits
 214              		.align	2
 215              		.p2align 4,,15
 216              		.global	chEvtGetAndClearFlags
 217              		.thumb
 218              		.thumb_func
 219              		.type	chEvtGetAndClearFlags, %function
 220              	chEvtGetAndClearFlags:
 221              	.LFB5:
 222              		.loc 1 209 0
ARM GAS  /tmp/ccQD821u.s 			page 5


 223              		.cfi_startproc
 224              		@ args = 0, pretend = 0, frame = 0
 225              		@ frame_needed = 0, uses_anonymous_args = 0
 226              	.LVL11:
 227 0000 00B5     		push	{lr}
 228              		.cfi_def_cfa_offset 4
 229              		.cfi_offset 14, -4
 230              		.loc 1 209 0
 231 0002 0246     		mov	r2, r0
 232              		.loc 1 212 0
 233              	@ 212 "../os/kernel/src/chevents.c" 1
 234 0004 FFF7FEFF 		bl      _port_lock
 235              	@ 0 "" 2
 236              		.loc 1 215 0
 237              		.thumb
 238 0008 0023     		movs	r3, #0
 239              		.loc 1 214 0
 240 000a C068     		ldr	r0, [r0, #12]
 241              	.LVL12:
 242              		.loc 1 215 0
 243 000c D360     		str	r3, [r2, #12]
 244              		.loc 1 217 0
 245              	@ 217 "../os/kernel/src/chevents.c" 1
 246 000e FFF7FEFF 		bl      _port_unlock
 247              	@ 0 "" 2
 248              		.loc 1 219 0
 249              		.thumb
 250 0012 5DF804FB 		ldr	pc, [sp], #4
 251              		.cfi_endproc
 252              	.LFE5:
 253              		.size	chEvtGetAndClearFlags, .-chEvtGetAndClearFlags
 254 0016 00BFAFF3 		.section	.text.chEvtSignalI,"ax",%progbits
 254      0080AFF3 
 254      0080
 255              		.align	2
 256              		.p2align 4,,15
 257              		.global	chEvtSignalI
 258              		.thumb
 259              		.thumb_func
 260              		.type	chEvtSignalI, %function
 261              	chEvtSignalI:
 262              	.LFB7:
 263              		.loc 1 251 0
 264              		.cfi_startproc
 265              		@ args = 0, pretend = 0, frame = 0
 266              		@ frame_needed = 0, uses_anonymous_args = 0
 267              	.LVL13:
 268 0000 08B5     		push	{r3, lr}
 269              		.cfi_def_cfa_offset 8
 270              		.cfi_offset 3, -8
 271              		.cfi_offset 14, -4
 272              		.loc 1 256 0
 273 0002 826A     		ldr	r2, [r0, #40]
 274              		.loc 1 258 0
 275 0004 037C     		ldrb	r3, [r0, #16]	@ zero_extendqisi2
 276              		.loc 1 256 0
 277 0006 1143     		orrs	r1, r1, r2
ARM GAS  /tmp/ccQD821u.s 			page 6


 278              	.LVL14:
 279              		.loc 1 258 0
 280 0008 082B     		cmp	r3, #8
 281              		.loc 1 256 0
 282 000a 8162     		str	r1, [r0, #40]
 283              		.loc 1 258 0
 284 000c 0BD0     		beq	.L16
 285              		.loc 1 259 0
 286 000e 092B     		cmp	r3, #9
 287 0010 00D0     		beq	.L17
 288              	.L12:
 289 0012 08BD     		pop	{r3, pc}
 290              	.L17:
 291              		.loc 1 261 0
 292 0014 4369     		ldr	r3, [r0, #20]
 293 0016 1940     		ands	r1, r1, r3
 294              		.loc 1 260 0
 295 0018 8B42     		cmp	r3, r1
 296 001a FAD1     		bne	.L12
 297              	.L14:
 298              	.LVL15:
 299              	.LBB4:
 300              	.LBB5:
 301              		.loc 1 262 0
 302 001c FFF7FEFF 		bl	chSchReadyI
 303              	.LVL16:
 304 0020 0023     		movs	r3, #0
 305 0022 4361     		str	r3, [r0, #20]
 306 0024 08BD     		pop	{r3, pc}
 307              	.LVL17:
 308              	.L16:
 309              	.LBE5:
 310              	.LBE4:
 311              		.loc 1 259 0 discriminator 1
 312 0026 4369     		ldr	r3, [r0, #20]
 313              		.loc 1 258 0 discriminator 1
 314 0028 1942     		tst	r1, r3
 315 002a F7D1     		bne	.L14
 316 002c 08BD     		pop	{r3, pc}
 317              		.cfi_endproc
 318              	.LFE7:
 319              		.size	chEvtSignalI, .-chEvtSignalI
 320 002e 00BF     		.section	.text.chEvtBroadcastFlagsI,"ax",%progbits
 321              		.align	2
 322              		.p2align 4,,15
 323              		.global	chEvtBroadcastFlagsI
 324              		.thumb
 325              		.thumb_func
 326              		.type	chEvtBroadcastFlagsI, %function
 327              	chEvtBroadcastFlagsI:
 328              	.LFB4:
 329              		.loc 1 184 0
 330              		.cfi_startproc
 331              		@ args = 0, pretend = 0, frame = 0
 332              		@ frame_needed = 0, uses_anonymous_args = 0
 333              	.LVL18:
 334 0000 70B5     		push	{r4, r5, r6, lr}
ARM GAS  /tmp/ccQD821u.s 			page 7


 335              		.cfi_def_cfa_offset 16
 336              		.cfi_offset 4, -16
 337              		.cfi_offset 5, -12
 338              		.cfi_offset 6, -8
 339              		.cfi_offset 14, -4
 340              		.loc 1 190 0
 341 0002 0468     		ldr	r4, [r0]
 342              	.LVL19:
 343              		.loc 1 184 0
 344 0004 0546     		mov	r5, r0
 345              		.loc 1 191 0
 346 0006 A042     		cmp	r0, r4
 347              		.loc 1 184 0
 348 0008 0E46     		mov	r6, r1
 349              		.loc 1 191 0
 350 000a 09D0     		beq	.L18
 351              	.LVL20:
 352              	.L21:
 353              		.loc 1 192 0
 354 000c E368     		ldr	r3, [r4, #12]
 355              		.loc 1 193 0
 356 000e 6068     		ldr	r0, [r4, #4]
 357              		.loc 1 192 0
 358 0010 3343     		orrs	r3, r3, r6
 359 0012 E360     		str	r3, [r4, #12]
 360              		.loc 1 193 0
 361 0014 A168     		ldr	r1, [r4, #8]
 362 0016 FFF7FEFF 		bl	chEvtSignalI
 363              	.LVL21:
 364              		.loc 1 194 0
 365 001a 2468     		ldr	r4, [r4]
 366              	.LVL22:
 367              		.loc 1 191 0
 368 001c A542     		cmp	r5, r4
 369 001e F5D1     		bne	.L21
 370              	.L18:
 371 0020 70BD     		pop	{r4, r5, r6, pc}
 372              		.cfi_endproc
 373              	.LFE4:
 374              		.size	chEvtBroadcastFlagsI, .-chEvtBroadcastFlagsI
 375 0022 00BFAFF3 		.section	.text.chEvtSignal,"ax",%progbits
 375      0080AFF3 
 375      0080AFF3 
 375      0080
 376              		.align	2
 377              		.p2align 4,,15
 378              		.global	chEvtSignal
 379              		.thumb
 380              		.thumb_func
 381              		.type	chEvtSignal, %function
 382              	chEvtSignal:
 383              	.LFB6:
 384              		.loc 1 229 0
 385              		.cfi_startproc
 386              		@ args = 0, pretend = 0, frame = 0
 387              		@ frame_needed = 0, uses_anonymous_args = 0
 388              	.LVL23:
ARM GAS  /tmp/ccQD821u.s 			page 8


 389 0000 08B5     		push	{r3, lr}
 390              		.cfi_def_cfa_offset 8
 391              		.cfi_offset 3, -8
 392              		.cfi_offset 14, -4
 393              		.loc 1 233 0
 394              	@ 233 "../os/kernel/src/chevents.c" 1
 395 0002 FFF7FEFF 		bl      _port_lock
 396              	@ 0 "" 2
 397              		.loc 1 234 0
 398              		.thumb
 399 0006 FFF7FEFF 		bl	chEvtSignalI
 400              	.LVL24:
 401              		.loc 1 235 0
 402 000a FFF7FEFF 		bl	chSchRescheduleS
 403              	.LVL25:
 404              		.loc 1 236 0
 405              	@ 236 "../os/kernel/src/chevents.c" 1
 406 000e FFF7FEFF 		bl      _port_unlock
 407              	@ 0 "" 2
 408              		.thumb
 409 0012 08BD     		pop	{r3, pc}
 410              		.cfi_endproc
 411              	.LFE6:
 412              		.size	chEvtSignal, .-chEvtSignal
 413 0014 AFF30080 		.section	.text.chEvtBroadcastFlags,"ax",%progbits
 413      AFF30080 
 413      AFF30080 
 414              		.align	2
 415              		.p2align 4,,15
 416              		.global	chEvtBroadcastFlags
 417              		.thumb
 418              		.thumb_func
 419              		.type	chEvtBroadcastFlags, %function
 420              	chEvtBroadcastFlags:
 421              	.LFB8:
 422              		.loc 1 278 0
 423              		.cfi_startproc
 424              		@ args = 0, pretend = 0, frame = 0
 425              		@ frame_needed = 0, uses_anonymous_args = 0
 426              	.LVL26:
 427 0000 08B5     		push	{r3, lr}
 428              		.cfi_def_cfa_offset 8
 429              		.cfi_offset 3, -8
 430              		.cfi_offset 14, -4
 431              		.loc 1 280 0
 432              	@ 280 "../os/kernel/src/chevents.c" 1
 433 0002 FFF7FEFF 		bl      _port_lock
 434              	@ 0 "" 2
 435              		.loc 1 281 0
 436              		.thumb
 437 0006 FFF7FEFF 		bl	chEvtBroadcastFlagsI
 438              	.LVL27:
 439              		.loc 1 282 0
 440 000a FFF7FEFF 		bl	chSchRescheduleS
 441              	.LVL28:
 442              		.loc 1 283 0
 443              	@ 283 "../os/kernel/src/chevents.c" 1
ARM GAS  /tmp/ccQD821u.s 			page 9


 444 000e FFF7FEFF 		bl      _port_unlock
 445              	@ 0 "" 2
 446              		.thumb
 447 0012 08BD     		pop	{r3, pc}
 448              		.cfi_endproc
 449              	.LFE8:
 450              		.size	chEvtBroadcastFlags, .-chEvtBroadcastFlags
 451 0014 AFF30080 		.section	.text.chEvtGetAndClearFlagsI,"ax",%progbits
 451      AFF30080 
 451      AFF30080 
 452              		.align	2
 453              		.p2align 4,,15
 454              		.global	chEvtGetAndClearFlagsI
 455              		.thumb
 456              		.thumb_func
 457              		.type	chEvtGetAndClearFlagsI, %function
 458              	chEvtGetAndClearFlagsI:
 459              	.LFB9:
 460              		.loc 1 297 0
 461              		.cfi_startproc
 462              		@ args = 0, pretend = 0, frame = 0
 463              		@ frame_needed = 0, uses_anonymous_args = 0
 464              		@ link register save eliminated.
 465              	.LVL29:
 466              		.loc 1 297 0
 467 0000 0346     		mov	r3, r0
 468              		.loc 1 301 0
 469 0002 0022     		movs	r2, #0
 470              		.loc 1 300 0
 471 0004 C068     		ldr	r0, [r0, #12]
 472              	.LVL30:
 473              		.loc 1 301 0
 474 0006 DA60     		str	r2, [r3, #12]
 475              		.loc 1 304 0
 476 0008 7047     		bx	lr
 477              		.cfi_endproc
 478              	.LFE9:
 479              		.size	chEvtGetAndClearFlagsI, .-chEvtGetAndClearFlagsI
 480 000a 00BFAFF3 		.section	.text.chEvtDispatch,"ax",%progbits
 480      0080
 481              		.align	2
 482              		.p2align 4,,15
 483              		.global	chEvtDispatch
 484              		.thumb
 485              		.thumb_func
 486              		.type	chEvtDispatch, %function
 487              	chEvtDispatch:
 488              	.LFB10:
 489              		.loc 1 315 0
 490              		.cfi_startproc
 491              		@ args = 0, pretend = 0, frame = 0
 492              		@ frame_needed = 0, uses_anonymous_args = 0
 493              	.LVL31:
 494 0000 F8B5     		push	{r3, r4, r5, r6, r7, lr}
 495              		.cfi_def_cfa_offset 24
 496              		.cfi_offset 3, -24
 497              		.cfi_offset 4, -20
ARM GAS  /tmp/ccQD821u.s 			page 10


 498              		.cfi_offset 5, -16
 499              		.cfi_offset 6, -12
 500              		.cfi_offset 7, -8
 501              		.cfi_offset 14, -4
 502              		.loc 1 321 0
 503 0002 0D46     		mov	r5, r1
 504              		.loc 1 315 0
 505 0004 0746     		mov	r7, r0
 506              		.loc 1 321 0
 507 0006 89B1     		cbz	r1, .L25
 508              		.loc 1 320 0
 509 0008 0024     		movs	r4, #0
 510              		.loc 1 322 0
 511 000a 0126     		movs	r6, #1
 512 000c 01E0     		b	.L29
 513              	.LVL32:
 514              	.L27:
 515              		.loc 1 329 0
 516 000e 0134     		adds	r4, r4, #1
 517              	.LVL33:
 518              		.loc 1 321 0
 519 0010 65B1     		cbz	r5, .L25
 520              	.LVL34:
 521              	.L29:
 522              		.loc 1 322 0
 523 0012 06FA04F3 		lsl	r3, r6, r4
 524 0016 2B42     		tst	r3, r5
 525 0018 F9D0     		beq	.L27
 526              		.loc 1 327 0
 527 001a 57F82420 		ldr	r2, [r7, r4, lsl #2]
 528 001e 2046     		mov	r0, r4
 529              		.loc 1 326 0
 530 0020 25EA0305 		bic	r5, r5, r3
 531              	.LVL35:
 532              		.loc 1 329 0
 533 0024 0134     		adds	r4, r4, #1
 534              	.LVL36:
 535              		.loc 1 327 0
 536 0026 9047     		blx	r2
 537              	.LVL37:
 538              		.loc 1 321 0
 539 0028 002D     		cmp	r5, #0
 540 002a F2D1     		bne	.L29
 541              	.LVL38:
 542              	.L25:
 543 002c F8BD     		pop	{r3, r4, r5, r6, r7, pc}
 544              		.cfi_endproc
 545              	.LFE10:
 546              		.size	chEvtDispatch, .-chEvtDispatch
 547 002e 00BF     		.section	.text.chEvtWaitOneTimeout,"ax",%progbits
 548              		.align	2
 549              		.p2align 4,,15
 550              		.global	chEvtWaitOneTimeout
 551              		.thumb
 552              		.thumb_func
 553              		.type	chEvtWaitOneTimeout, %function
 554              	chEvtWaitOneTimeout:
ARM GAS  /tmp/ccQD821u.s 			page 11


 555              	.LFB11:
 556              		.loc 1 446 0
 557              		.cfi_startproc
 558              		@ args = 0, pretend = 0, frame = 0
 559              		@ frame_needed = 0, uses_anonymous_args = 0
 560              	.LVL39:
 561 0000 38B5     		push	{r3, r4, r5, lr}
 562              		.cfi_def_cfa_offset 16
 563              		.cfi_offset 3, -16
 564              		.cfi_offset 4, -12
 565              		.cfi_offset 5, -8
 566              		.cfi_offset 14, -4
 567              		.loc 1 447 0
 568 0002 40F20003 		movw	r3, #:lower16:rlist
 569 0006 C0F20003 		movt	r3, #:upper16:rlist
 570              		.loc 1 446 0
 571 000a 0446     		mov	r4, r0
 572              		.loc 1 447 0
 573 000c 1D69     		ldr	r5, [r3, #16]
 574              	.LVL40:
 575              		.loc 1 450 0
 576              	@ 450 "../os/kernel/src/chevents.c" 1
 577 000e FFF7FEFF 		bl      _port_lock
 578              	@ 0 "" 2
 579              		.loc 1 452 0
 580              		.thumb
 581 0012 AB6A     		ldr	r3, [r5, #40]
 582              	.LVL41:
 583 0014 10EA0302 		ands	r2, r0, r3
 584              	.LVL42:
 585 0018 0DD1     		bne	.L37
 586              		.loc 1 453 0
 587 001a 19B9     		cbnz	r1, .L38
 588              	.LVL43:
 589              	.L42:
 590              		.loc 1 459 0
 591              	@ 459 "../os/kernel/src/chevents.c" 1
 592 001c FFF7FEFF 		bl      _port_unlock
 593              	@ 0 "" 2
 594              		.loc 1 460 0
 595              		.thumb
 596 0020 0020     		movs	r0, #0
 597 0022 38BD     		pop	{r3, r4, r5, pc}
 598              	.LVL44:
 599              	.L38:
 600              		.loc 1 457 0
 601 0024 6861     		str	r0, [r5, #20]
 602              		.loc 1 458 0
 603 0026 0820     		movs	r0, #8
 604              	.LVL45:
 605 0028 FFF7FEFF 		bl	chSchGoSleepTimeoutS
 606              	.LVL46:
 607 002c 0028     		cmp	r0, #0
 608 002e F5DB     		blt	.L42
 609              		.loc 1 462 0
 610 0030 AB6A     		ldr	r3, [r5, #40]
 611 0032 04EA0302 		and	r2, r4, r3
ARM GAS  /tmp/ccQD821u.s 			page 12


 612              	.LVL47:
 613              	.L37:
 614              		.loc 1 464 0
 615 0036 5042     		negs	r0, r2
 616 0038 1040     		ands	r0, r0, r2
 617              	.LVL48:
 618              		.loc 1 465 0
 619 003a 23EA0003 		bic	r3, r3, r0
 620 003e AB62     		str	r3, [r5, #40]
 621              		.loc 1 467 0
 622              	@ 467 "../os/kernel/src/chevents.c" 1
 623 0040 FFF7FEFF 		bl      _port_unlock
 624              	@ 0 "" 2
 625              		.loc 1 469 0
 626              		.thumb
 627 0044 38BD     		pop	{r3, r4, r5, pc}
 628              		.cfi_endproc
 629              	.LFE11:
 630              		.size	chEvtWaitOneTimeout, .-chEvtWaitOneTimeout
 631 0046 00BFAFF3 		.section	.text.chEvtWaitAnyTimeout,"ax",%progbits
 631      0080AFF3 
 631      0080
 632              		.align	2
 633              		.p2align 4,,15
 634              		.global	chEvtWaitAnyTimeout
 635              		.thumb
 636              		.thumb_func
 637              		.type	chEvtWaitAnyTimeout, %function
 638              	chEvtWaitAnyTimeout:
 639              	.LFB12:
 640              		.loc 1 489 0
 641              		.cfi_startproc
 642              		@ args = 0, pretend = 0, frame = 0
 643              		@ frame_needed = 0, uses_anonymous_args = 0
 644              	.LVL49:
 645 0000 38B5     		push	{r3, r4, r5, lr}
 646              		.cfi_def_cfa_offset 16
 647              		.cfi_offset 3, -16
 648              		.cfi_offset 4, -12
 649              		.cfi_offset 5, -8
 650              		.cfi_offset 14, -4
 651              		.loc 1 490 0
 652 0002 40F20003 		movw	r3, #:lower16:rlist
 653 0006 C0F20003 		movt	r3, #:upper16:rlist
 654              		.loc 1 489 0
 655 000a 0446     		mov	r4, r0
 656              		.loc 1 490 0
 657 000c 1D69     		ldr	r5, [r3, #16]
 658              	.LVL50:
 659              		.loc 1 493 0
 660              	@ 493 "../os/kernel/src/chevents.c" 1
 661 000e FFF7FEFF 		bl      _port_lock
 662              	@ 0 "" 2
 663              		.loc 1 495 0
 664              		.thumb
 665 0012 AB6A     		ldr	r3, [r5, #40]
 666              	.LVL51:
ARM GAS  /tmp/ccQD821u.s 			page 13


 667 0014 1840     		ands	r0, r0, r3
 668              	.LVL52:
 669 0016 0DD1     		bne	.L44
 670              		.loc 1 496 0
 671 0018 19B9     		cbnz	r1, .L45
 672              	.LVL53:
 673              	.L49:
 674              		.loc 1 502 0
 675              	@ 502 "../os/kernel/src/chevents.c" 1
 676 001a FFF7FEFF 		bl      _port_unlock
 677              	@ 0 "" 2
 678              		.loc 1 503 0
 679              		.thumb
 680 001e 0020     		movs	r0, #0
 681 0020 38BD     		pop	{r3, r4, r5, pc}
 682              	.LVL54:
 683              	.L45:
 684              		.loc 1 500 0
 685 0022 6C61     		str	r4, [r5, #20]
 686              		.loc 1 501 0
 687 0024 0820     		movs	r0, #8
 688              	.LVL55:
 689 0026 FFF7FEFF 		bl	chSchGoSleepTimeoutS
 690              	.LVL56:
 691 002a 0028     		cmp	r0, #0
 692 002c F5DB     		blt	.L49
 693              		.loc 1 505 0
 694 002e AB6A     		ldr	r3, [r5, #40]
 695 0030 04EA0300 		and	r0, r4, r3
 696              	.LVL57:
 697              	.L44:
 698              		.loc 1 507 0
 699 0034 23EA0003 		bic	r3, r3, r0
 700 0038 AB62     		str	r3, [r5, #40]
 701              		.loc 1 509 0
 702              	@ 509 "../os/kernel/src/chevents.c" 1
 703 003a FFF7FEFF 		bl      _port_unlock
 704              	@ 0 "" 2
 705              		.loc 1 511 0
 706              		.thumb
 707 003e 38BD     		pop	{r3, r4, r5, pc}
 708              		.cfi_endproc
 709              	.LFE12:
 710              		.size	chEvtWaitAnyTimeout, .-chEvtWaitAnyTimeout
 711              		.section	.text.chEvtWaitAllTimeout,"ax",%progbits
 712              		.align	2
 713              		.p2align 4,,15
 714              		.global	chEvtWaitAllTimeout
 715              		.thumb
 716              		.thumb_func
 717              		.type	chEvtWaitAllTimeout, %function
 718              	chEvtWaitAllTimeout:
 719              	.LFB13:
 720              		.loc 1 530 0
 721              		.cfi_startproc
 722              		@ args = 0, pretend = 0, frame = 0
 723              		@ frame_needed = 0, uses_anonymous_args = 0
ARM GAS  /tmp/ccQD821u.s 			page 14


 724              	.LVL58:
 725 0000 38B5     		push	{r3, r4, r5, lr}
 726              		.cfi_def_cfa_offset 16
 727              		.cfi_offset 3, -16
 728              		.cfi_offset 4, -12
 729              		.cfi_offset 5, -8
 730              		.cfi_offset 14, -4
 731              		.loc 1 531 0
 732 0002 40F20003 		movw	r3, #:lower16:rlist
 733 0006 C0F20003 		movt	r3, #:upper16:rlist
 734              		.loc 1 530 0
 735 000a 0446     		mov	r4, r0
 736              		.loc 1 531 0
 737 000c 1D69     		ldr	r5, [r3, #16]
 738              	.LVL59:
 739              		.loc 1 533 0
 740              	@ 533 "../os/kernel/src/chevents.c" 1
 741 000e FFF7FEFF 		bl      _port_lock
 742              	@ 0 "" 2
 743              		.loc 1 535 0
 744              		.thumb
 745 0012 AB6A     		ldr	r3, [r5, #40]
 746 0014 00EA0302 		and	r2, r0, r3
 747 0018 8242     		cmp	r2, r0
 748 001a 0BD0     		beq	.L51
 749              		.loc 1 536 0
 750 001c 19B9     		cbnz	r1, .L52
 751              	.LVL60:
 752              	.L54:
 753              		.loc 1 542 0
 754              	@ 542 "../os/kernel/src/chevents.c" 1
 755 001e FFF7FEFF 		bl      _port_unlock
 756              	@ 0 "" 2
 757              		.loc 1 543 0
 758              		.thumb
 759 0022 0020     		movs	r0, #0
 760 0024 38BD     		pop	{r3, r4, r5, pc}
 761              	.LVL61:
 762              	.L52:
 763              		.loc 1 540 0
 764 0026 6861     		str	r0, [r5, #20]
 765              		.loc 1 541 0
 766 0028 0920     		movs	r0, #9
 767              	.LVL62:
 768 002a FFF7FEFF 		bl	chSchGoSleepTimeoutS
 769              	.LVL63:
 770 002e 0028     		cmp	r0, #0
 771 0030 F5DB     		blt	.L54
 772 0032 AB6A     		ldr	r3, [r5, #40]
 773              	.L51:
 774              		.loc 1 546 0
 775 0034 23EA0403 		bic	r3, r3, r4
 776 0038 AB62     		str	r3, [r5, #40]
 777              		.loc 1 548 0
 778              	@ 548 "../os/kernel/src/chevents.c" 1
 779 003a FFF7FEFF 		bl      _port_unlock
 780              	@ 0 "" 2
ARM GAS  /tmp/ccQD821u.s 			page 15


 781              		.loc 1 549 0
 782              		.thumb
 783 003e 2046     		mov	r0, r4
 784              		.loc 1 550 0
 785 0040 38BD     		pop	{r3, r4, r5, pc}
 786              		.cfi_endproc
 787              	.LFE13:
 788              		.size	chEvtWaitAllTimeout, .-chEvtWaitAllTimeout
 789 0042 00BFAFF3 		.text
 789      0080AFF3 
 789      0080AFF3 
 789      0080
 790              	.Letext0:
 791              		.file 2 "/usr/include/newlib/machine/_default_types.h"
 792              		.file 3 "/usr/include/newlib/stdint.h"
 793              		.file 4 "../os/ports/GCC/ARMCMx/chtypes.h"
 794              		.file 5 "../os/kernel/include/chlists.h"
 795              		.file 6 "../os/kernel/include/chthreads.h"
 796              		.file 7 "../os/ports/GCC/ARMCMx/chcore_v7m.h"
 797              		.file 8 "../os/kernel/include/chschd.h"
 798              		.file 9 "../os/kernel/include/chmtx.h"
 799              		.file 10 "../os/kernel/include/chevents.h"