ARM GAS  /tmp/ccH3BRWG.s 			page 1


   1              		.syntax unified
   2              		.cpu cortex-m3
   3              		.fpu softvfp
   4              		.eabi_attribute 20, 1
   5              		.eabi_attribute 21, 1
   6              		.eabi_attribute 23, 3
   7              		.eabi_attribute 24, 1
   8              		.eabi_attribute 25, 1
   9              		.eabi_attribute 26, 1
  10              		.eabi_attribute 30, 2
  11              		.eabi_attribute 34, 1
  12              		.eabi_attribute 18, 4
  13              		.thumb
  14              		.file	"chmboxes.c"
  15              		.text
  16              	.Ltext0:
  17              		.cfi_sections	.debug_frame
  18              		.section	.text.chMBInit,"ax",%progbits
  19              		.align	2
  20              		.p2align 4,,15
  21              		.global	chMBInit
  22              		.thumb
  23              		.thumb_func
  24              		.type	chMBInit, %function
  25              	chMBInit:
  26              	.LFB0:
  27              		.file 1 "../os/kernel/src/chmboxes.c"
  28              		.loc 1 72 0
  29              		.cfi_startproc
  30              		@ args = 0, pretend = 0, frame = 0
  31              		@ frame_needed = 0, uses_anonymous_args = 0
  32              	.LVL0:
  33 0000 10B5     		push	{r4, lr}
  34              		.cfi_def_cfa_offset 8
  35              		.cfi_offset 4, -8
  36              		.cfi_offset 14, -4
  37              		.loc 1 72 0
  38 0002 0B46     		mov	r3, r1
  39              		.loc 1 77 0
  40 0004 01EB8201 		add	r1, r1, r2, lsl #2
  41              	.LVL1:
  42 0008 4160     		str	r1, [r0, #4]
  43              		.loc 1 72 0
  44 000a 0446     		mov	r4, r0
  45              		.loc 1 76 0
  46 000c C360     		str	r3, [r0, #12]
  47 000e 8360     		str	r3, [r0, #8]
  48 0010 0360     		str	r3, [r0]
  49              		.loc 1 78 0
  50 0012 1146     		mov	r1, r2
  51 0014 1C30     		adds	r0, r0, #28
  52              	.LVL2:
  53 0016 FFF7FEFF 		bl	chSemInit
  54              	.LVL3:
  55              		.loc 1 79 0
  56 001a 04F11000 		add	r0, r4, #16
  57 001e 0021     		movs	r1, #0
ARM GAS  /tmp/ccH3BRWG.s 			page 2


  58              		.loc 1 80 0
  59 0020 BDE81040 		pop	{r4, lr}
  60              	.LVL4:
  61              		.loc 1 79 0
  62 0024 FFF7FEBF 		b	chSemInit
  63              	.LVL5:
  64              		.cfi_endproc
  65              	.LFE0:
  66              		.size	chMBInit, .-chMBInit
  67 0028 AFF30080 		.section	.text.chMBReset,"ax",%progbits
  67      AFF30080 
  68              		.align	2
  69              		.p2align 4,,15
  70              		.global	chMBReset
  71              		.thumb
  72              		.thumb_func
  73              		.type	chMBReset, %function
  74              	chMBReset:
  75              	.LFB1:
  76              		.loc 1 91 0
  77              		.cfi_startproc
  78              		@ args = 0, pretend = 0, frame = 0
  79              		@ frame_needed = 0, uses_anonymous_args = 0
  80              	.LVL6:
  81 0000 10B5     		push	{r4, lr}
  82              		.cfi_def_cfa_offset 8
  83              		.cfi_offset 4, -8
  84              		.cfi_offset 14, -4
  85              		.loc 1 91 0
  86 0002 0446     		mov	r4, r0
  87              		.loc 1 95 0
  88              	@ 95 "../os/kernel/src/chmboxes.c" 1
  89 0004 FFF7FEFF 		bl      _port_lock
  90              	@ 0 "" 2
  91              		.loc 1 96 0
  92              		.thumb
  93 0008 0368     		ldr	r3, [r0]
  94              		.loc 1 97 0
  95 000a 4168     		ldr	r1, [r0, #4]
  96              		.loc 1 96 0
  97 000c C360     		str	r3, [r0, #12]
  98              		.loc 1 97 0
  99 000e C91A     		subs	r1, r1, r3
 100              		.loc 1 96 0
 101 0010 8360     		str	r3, [r0, #8]
 102              		.loc 1 97 0
 103 0012 8910     		asrs	r1, r1, #2
 104 0014 1C30     		adds	r0, r0, #28
 105              	.LVL7:
 106 0016 FFF7FEFF 		bl	chSemResetI
 107              	.LVL8:
 108              		.loc 1 98 0
 109 001a 04F11000 		add	r0, r4, #16
 110 001e 0021     		movs	r1, #0
 111 0020 FFF7FEFF 		bl	chSemResetI
 112              	.LVL9:
 113              		.loc 1 99 0
ARM GAS  /tmp/ccH3BRWG.s 			page 3


 114 0024 FFF7FEFF 		bl	chSchRescheduleS
 115              	.LVL10:
 116              		.loc 1 100 0
 117              	@ 100 "../os/kernel/src/chmboxes.c" 1
 118 0028 FFF7FEFF 		bl      _port_unlock
 119              	@ 0 "" 2
 120              		.thumb
 121 002c 10BD     		pop	{r4, pc}
 122              		.cfi_endproc
 123              	.LFE1:
 124              		.size	chMBReset, .-chMBReset
 125 002e 00BF     		.section	.text.chMBPostS,"ax",%progbits
 126              		.align	2
 127              		.p2align 4,,15
 128              		.global	chMBPostS
 129              		.thumb
 130              		.thumb_func
 131              		.type	chMBPostS, %function
 132              	chMBPostS:
 133              	.LFB3:
 134              		.loc 1 150 0
 135              		.cfi_startproc
 136              		@ args = 0, pretend = 0, frame = 0
 137              		@ frame_needed = 0, uses_anonymous_args = 0
 138              	.LVL11:
 139 0000 70B5     		push	{r4, r5, r6, lr}
 140              		.cfi_def_cfa_offset 16
 141              		.cfi_offset 4, -16
 142              		.cfi_offset 5, -12
 143              		.cfi_offset 6, -8
 144              		.cfi_offset 14, -4
 145              		.loc 1 150 0
 146 0002 0446     		mov	r4, r0
 147 0004 0E46     		mov	r6, r1
 148              		.loc 1 156 0
 149 0006 1C30     		adds	r0, r0, #28
 150              	.LVL12:
 151 0008 1146     		mov	r1, r2
 152              	.LVL13:
 153 000a FFF7FEFF 		bl	chSemWaitTimeoutS
 154              	.LVL14:
 155              		.loc 1 157 0
 156 000e 0546     		mov	r5, r0
 157 0010 78B9     		cbnz	r0, .L4
 158              		.loc 1 158 0
 159 0012 A368     		ldr	r3, [r4, #8]
 160              		.loc 1 161 0
 161 0014 04F11000 		add	r0, r4, #16
 162              	.LVL15:
 163              		.loc 1 158 0
 164 0018 1A1D     		adds	r2, r3, #4
 165 001a A260     		str	r2, [r4, #8]
 166 001c 1E60     		str	r6, [r3]
 167              		.loc 1 159 0
 168 001e 6368     		ldr	r3, [r4, #4]
 169 0020 A268     		ldr	r2, [r4, #8]
 170 0022 9A42     		cmp	r2, r3
ARM GAS  /tmp/ccH3BRWG.s 			page 4


 171              		.loc 1 160 0
 172 0024 24BF     		itt	cs
 173 0026 2368     		ldrcs	r3, [r4]
 174 0028 A360     		strcs	r3, [r4, #8]
 175              		.loc 1 161 0
 176 002a FFF7FEFF 		bl	chSemSignalI
 177              	.LVL16:
 178              		.loc 1 162 0
 179 002e FFF7FEFF 		bl	chSchRescheduleS
 180              	.LVL17:
 181              	.L4:
 182              		.loc 1 165 0
 183 0032 2846     		mov	r0, r5
 184 0034 70BD     		pop	{r4, r5, r6, pc}
 185              		.cfi_endproc
 186              	.LFE3:
 187              		.size	chMBPostS, .-chMBPostS
 188 0036 00BFAFF3 		.section	.text.chMBPost,"ax",%progbits
 188      0080AFF3 
 188      0080
 189              		.align	2
 190              		.p2align 4,,15
 191              		.global	chMBPost
 192              		.thumb
 193              		.thumb_func
 194              		.type	chMBPost, %function
 195              	chMBPost:
 196              	.LFB2:
 197              		.loc 1 122 0
 198              		.cfi_startproc
 199              		@ args = 0, pretend = 0, frame = 0
 200              		@ frame_needed = 0, uses_anonymous_args = 0
 201              	.LVL18:
 202 0000 08B5     		push	{r3, lr}
 203              		.cfi_def_cfa_offset 8
 204              		.cfi_offset 3, -8
 205              		.cfi_offset 14, -4
 206              		.loc 1 125 0
 207              	@ 125 "../os/kernel/src/chmboxes.c" 1
 208 0002 FFF7FEFF 		bl      _port_lock
 209              	@ 0 "" 2
 210              		.loc 1 126 0
 211              		.thumb
 212 0006 FFF7FEFF 		bl	chMBPostS
 213              	.LVL19:
 214              		.loc 1 127 0
 215              	@ 127 "../os/kernel/src/chmboxes.c" 1
 216 000a FFF7FEFF 		bl      _port_unlock
 217              	@ 0 "" 2
 218              		.loc 1 129 0
 219              		.thumb
 220 000e 08BD     		pop	{r3, pc}
 221              		.cfi_endproc
 222              	.LFE2:
 223              		.size	chMBPost, .-chMBPost
 224              		.section	.text.chMBPostI,"ax",%progbits
 225              		.align	2
ARM GAS  /tmp/ccH3BRWG.s 			page 5


 226              		.p2align 4,,15
 227              		.global	chMBPostI
 228              		.thumb
 229              		.thumb_func
 230              		.type	chMBPostI, %function
 231              	chMBPostI:
 232              	.LFB4:
 233              		.loc 1 181 0
 234              		.cfi_startproc
 235              		@ args = 0, pretend = 0, frame = 0
 236              		@ frame_needed = 0, uses_anonymous_args = 0
 237              	.LVL20:
 238 0000 10B5     		push	{r4, lr}
 239              		.cfi_def_cfa_offset 8
 240              		.cfi_offset 4, -8
 241              		.cfi_offset 14, -4
 242              		.loc 1 186 0
 243 0002 436A     		ldr	r3, [r0, #36]
 244 0004 002B     		cmp	r3, #0
 245 0006 12DD     		ble	.L11
 246              		.loc 1 189 0
 247 0008 8268     		ldr	r2, [r0, #8]
 248              		.loc 1 188 0
 249 000a 013B     		subs	r3, r3, #1
 250              		.loc 1 189 0
 251 000c 141D     		adds	r4, r2, #4
 252 000e 8460     		str	r4, [r0, #8]
 253              		.loc 1 188 0
 254 0010 4362     		str	r3, [r0, #36]
 255              		.loc 1 189 0
 256 0012 1160     		str	r1, [r2]
 257              		.loc 1 190 0
 258 0014 4368     		ldr	r3, [r0, #4]
 259 0016 8268     		ldr	r2, [r0, #8]
 260              		.loc 1 192 0
 261 0018 1030     		adds	r0, r0, #16
 262              	.LVL21:
 263              		.loc 1 190 0
 264 001a 9A42     		cmp	r2, r3
 265              		.loc 1 191 0
 266 001c 24BF     		itt	cs
 267 001e 50F8103C 		ldrcs	r3, [r0, #-16]
 268 0022 40F8083C 		strcs	r3, [r0, #-8]
 269              		.loc 1 192 0
 270 0026 FFF7FEFF 		bl	chSemSignalI
 271              	.LVL22:
 272              		.loc 1 193 0
 273 002a 0020     		movs	r0, #0
 274 002c 10BD     		pop	{r4, pc}
 275              	.LVL23:
 276              	.L11:
 277              		.loc 1 187 0
 278 002e 4FF0FF30 		mov	r0, #-1
 279              	.LVL24:
 280              		.loc 1 194 0
 281 0032 10BD     		pop	{r4, pc}
 282              		.cfi_endproc
ARM GAS  /tmp/ccH3BRWG.s 			page 6


 283              	.LFE4:
 284              		.size	chMBPostI, .-chMBPostI
 285 0034 AFF30080 		.section	.text.chMBPostAheadS,"ax",%progbits
 285      AFF30080 
 285      AFF30080 
 286              		.align	2
 287              		.p2align 4,,15
 288              		.global	chMBPostAheadS
 289              		.thumb
 290              		.thumb_func
 291              		.type	chMBPostAheadS, %function
 292              	chMBPostAheadS:
 293              	.LFB6:
 294              		.loc 1 243 0
 295              		.cfi_startproc
 296              		@ args = 0, pretend = 0, frame = 0
 297              		@ frame_needed = 0, uses_anonymous_args = 0
 298              	.LVL25:
 299 0000 70B5     		push	{r4, r5, r6, lr}
 300              		.cfi_def_cfa_offset 16
 301              		.cfi_offset 4, -16
 302              		.cfi_offset 5, -12
 303              		.cfi_offset 6, -8
 304              		.cfi_offset 14, -4
 305              		.loc 1 243 0
 306 0002 0446     		mov	r4, r0
 307 0004 0E46     		mov	r6, r1
 308              		.loc 1 249 0
 309 0006 1C30     		adds	r0, r0, #28
 310              	.LVL26:
 311 0008 1146     		mov	r1, r2
 312              	.LVL27:
 313 000a FFF7FEFF 		bl	chSemWaitTimeoutS
 314              	.LVL28:
 315              		.loc 1 250 0
 316 000e 0546     		mov	r5, r0
 317 0010 80B9     		cbnz	r0, .L13
 318              		.loc 1 251 0
 319 0012 E368     		ldr	r3, [r4, #12]
 320 0014 2268     		ldr	r2, [r4]
 321 0016 043B     		subs	r3, r3, #4
 322 0018 9342     		cmp	r3, r2
 323 001a E360     		str	r3, [r4, #12]
 324              		.loc 1 252 0
 325 001c 38BF     		it	cc
 326 001e 6368     		ldrcc	r3, [r4, #4]
 327              		.loc 1 254 0
 328 0020 04F11000 		add	r0, r4, #16
 329              	.LVL29:
 330              		.loc 1 252 0
 331 0024 3CBF     		itt	cc
 332 0026 043B     		subcc	r3, r3, #4
 333 0028 E360     		strcc	r3, [r4, #12]
 334              		.loc 1 253 0
 335 002a 1E60     		str	r6, [r3]
 336              		.loc 1 254 0
 337 002c FFF7FEFF 		bl	chSemSignalI
ARM GAS  /tmp/ccH3BRWG.s 			page 7


 338              	.LVL30:
 339              		.loc 1 255 0
 340 0030 FFF7FEFF 		bl	chSchRescheduleS
 341              	.LVL31:
 342              	.L13:
 343              		.loc 1 258 0
 344 0034 2846     		mov	r0, r5
 345 0036 70BD     		pop	{r4, r5, r6, pc}
 346              		.cfi_endproc
 347              	.LFE6:
 348              		.size	chMBPostAheadS, .-chMBPostAheadS
 349 0038 AFF30080 		.section	.text.chMBPostAhead,"ax",%progbits
 349      AFF30080 
 350              		.align	2
 351              		.p2align 4,,15
 352              		.global	chMBPostAhead
 353              		.thumb
 354              		.thumb_func
 355              		.type	chMBPostAhead, %function
 356              	chMBPostAhead:
 357              	.LFB5:
 358              		.loc 1 215 0
 359              		.cfi_startproc
 360              		@ args = 0, pretend = 0, frame = 0
 361              		@ frame_needed = 0, uses_anonymous_args = 0
 362              	.LVL32:
 363 0000 08B5     		push	{r3, lr}
 364              		.cfi_def_cfa_offset 8
 365              		.cfi_offset 3, -8
 366              		.cfi_offset 14, -4
 367              		.loc 1 218 0
 368              	@ 218 "../os/kernel/src/chmboxes.c" 1
 369 0002 FFF7FEFF 		bl      _port_lock
 370              	@ 0 "" 2
 371              		.loc 1 219 0
 372              		.thumb
 373 0006 FFF7FEFF 		bl	chMBPostAheadS
 374              	.LVL33:
 375              		.loc 1 220 0
 376              	@ 220 "../os/kernel/src/chmboxes.c" 1
 377 000a FFF7FEFF 		bl      _port_unlock
 378              	@ 0 "" 2
 379              		.loc 1 222 0
 380              		.thumb
 381 000e 08BD     		pop	{r3, pc}
 382              		.cfi_endproc
 383              	.LFE5:
 384              		.size	chMBPostAhead, .-chMBPostAhead
 385              		.section	.text.chMBPostAheadI,"ax",%progbits
 386              		.align	2
 387              		.p2align 4,,15
 388              		.global	chMBPostAheadI
 389              		.thumb
 390              		.thumb_func
 391              		.type	chMBPostAheadI, %function
 392              	chMBPostAheadI:
 393              	.LFB7:
ARM GAS  /tmp/ccH3BRWG.s 			page 8


 394              		.loc 1 274 0
 395              		.cfi_startproc
 396              		@ args = 0, pretend = 0, frame = 0
 397              		@ frame_needed = 0, uses_anonymous_args = 0
 398              	.LVL34:
 399 0000 10B5     		push	{r4, lr}
 400              		.cfi_def_cfa_offset 8
 401              		.cfi_offset 4, -8
 402              		.cfi_offset 14, -4
 403              		.loc 1 279 0
 404 0002 426A     		ldr	r2, [r0, #36]
 405 0004 002A     		cmp	r2, #0
 406 0006 13DD     		ble	.L19
 407              		.loc 1 282 0
 408 0008 C368     		ldr	r3, [r0, #12]
 409 000a 0468     		ldr	r4, [r0]
 410 000c 043B     		subs	r3, r3, #4
 411 000e A342     		cmp	r3, r4
 412 0010 C360     		str	r3, [r0, #12]
 413              		.loc 1 283 0
 414 0012 38BF     		it	cc
 415 0014 4368     		ldrcc	r3, [r0, #4]
 416              		.loc 1 281 0
 417 0016 02F1FF32 		add	r2, r2, #-1
 418              		.loc 1 283 0
 419 001a 38BF     		it	cc
 420 001c 043B     		subcc	r3, r3, #4
 421              		.loc 1 281 0
 422 001e 4262     		str	r2, [r0, #36]
 423              		.loc 1 283 0
 424 0020 38BF     		it	cc
 425 0022 C360     		strcc	r3, [r0, #12]
 426              		.loc 1 284 0
 427 0024 1960     		str	r1, [r3]
 428              		.loc 1 285 0
 429 0026 1030     		adds	r0, r0, #16
 430              	.LVL35:
 431 0028 FFF7FEFF 		bl	chSemSignalI
 432              	.LVL36:
 433              		.loc 1 286 0
 434 002c 0020     		movs	r0, #0
 435 002e 10BD     		pop	{r4, pc}
 436              	.LVL37:
 437              	.L19:
 438              		.loc 1 280 0
 439 0030 4FF0FF30 		mov	r0, #-1
 440              	.LVL38:
 441              		.loc 1 287 0
 442 0034 10BD     		pop	{r4, pc}
 443              		.cfi_endproc
 444              	.LFE7:
 445              		.size	chMBPostAheadI, .-chMBPostAheadI
 446 0036 00BFAFF3 		.section	.text.chMBFetchS,"ax",%progbits
 446      0080AFF3 
 446      0080
 447              		.align	2
 448              		.p2align 4,,15
ARM GAS  /tmp/ccH3BRWG.s 			page 9


 449              		.global	chMBFetchS
 450              		.thumb
 451              		.thumb_func
 452              		.type	chMBFetchS, %function
 453              	chMBFetchS:
 454              	.LFB9:
 455              		.loc 1 336 0
 456              		.cfi_startproc
 457              		@ args = 0, pretend = 0, frame = 0
 458              		@ frame_needed = 0, uses_anonymous_args = 0
 459              	.LVL39:
 460 0000 70B5     		push	{r4, r5, r6, lr}
 461              		.cfi_def_cfa_offset 16
 462              		.cfi_offset 4, -16
 463              		.cfi_offset 5, -12
 464              		.cfi_offset 6, -8
 465              		.cfi_offset 14, -4
 466              		.loc 1 336 0
 467 0002 0446     		mov	r4, r0
 468 0004 0E46     		mov	r6, r1
 469              		.loc 1 342 0
 470 0006 1030     		adds	r0, r0, #16
 471              	.LVL40:
 472 0008 1146     		mov	r1, r2
 473              	.LVL41:
 474 000a FFF7FEFF 		bl	chSemWaitTimeoutS
 475              	.LVL42:
 476              		.loc 1 343 0
 477 000e 0546     		mov	r5, r0
 478 0010 80B9     		cbnz	r0, .L21
 479              		.loc 1 344 0
 480 0012 E368     		ldr	r3, [r4, #12]
 481              		.loc 1 347 0
 482 0014 04F11C00 		add	r0, r4, #28
 483              	.LVL43:
 484              		.loc 1 344 0
 485 0018 1A1D     		adds	r2, r3, #4
 486 001a E260     		str	r2, [r4, #12]
 487 001c 1B68     		ldr	r3, [r3]
 488 001e 3360     		str	r3, [r6]
 489              		.loc 1 345 0
 490 0020 6368     		ldr	r3, [r4, #4]
 491 0022 E268     		ldr	r2, [r4, #12]
 492 0024 9A42     		cmp	r2, r3
 493              		.loc 1 346 0
 494 0026 24BF     		itt	cs
 495 0028 2368     		ldrcs	r3, [r4]
 496 002a E360     		strcs	r3, [r4, #12]
 497              		.loc 1 347 0
 498 002c FFF7FEFF 		bl	chSemSignalI
 499              	.LVL44:
 500              		.loc 1 348 0
 501 0030 FFF7FEFF 		bl	chSchRescheduleS
 502              	.LVL45:
 503              	.L21:
 504              		.loc 1 351 0
 505 0034 2846     		mov	r0, r5
ARM GAS  /tmp/ccH3BRWG.s 			page 10


 506 0036 70BD     		pop	{r4, r5, r6, pc}
 507              		.cfi_endproc
 508              	.LFE9:
 509              		.size	chMBFetchS, .-chMBFetchS
 510 0038 AFF30080 		.section	.text.chMBFetch,"ax",%progbits
 510      AFF30080 
 511              		.align	2
 512              		.p2align 4,,15
 513              		.global	chMBFetch
 514              		.thumb
 515              		.thumb_func
 516              		.type	chMBFetch, %function
 517              	chMBFetch:
 518              	.LFB8:
 519              		.loc 1 308 0
 520              		.cfi_startproc
 521              		@ args = 0, pretend = 0, frame = 0
 522              		@ frame_needed = 0, uses_anonymous_args = 0
 523              	.LVL46:
 524 0000 08B5     		push	{r3, lr}
 525              		.cfi_def_cfa_offset 8
 526              		.cfi_offset 3, -8
 527              		.cfi_offset 14, -4
 528              		.loc 1 311 0
 529              	@ 311 "../os/kernel/src/chmboxes.c" 1
 530 0002 FFF7FEFF 		bl      _port_lock
 531              	@ 0 "" 2
 532              		.loc 1 312 0
 533              		.thumb
 534 0006 FFF7FEFF 		bl	chMBFetchS
 535              	.LVL47:
 536              		.loc 1 313 0
 537              	@ 313 "../os/kernel/src/chmboxes.c" 1
 538 000a FFF7FEFF 		bl      _port_unlock
 539              	@ 0 "" 2
 540              		.loc 1 315 0
 541              		.thumb
 542 000e 08BD     		pop	{r3, pc}
 543              		.cfi_endproc
 544              	.LFE8:
 545              		.size	chMBFetch, .-chMBFetch
 546              		.section	.text.chMBFetchI,"ax",%progbits
 547              		.align	2
 548              		.p2align 4,,15
 549              		.global	chMBFetchI
 550              		.thumb
 551              		.thumb_func
 552              		.type	chMBFetchI, %function
 553              	chMBFetchI:
 554              	.LFB10:
 555              		.loc 1 367 0
 556              		.cfi_startproc
 557              		@ args = 0, pretend = 0, frame = 0
 558              		@ frame_needed = 0, uses_anonymous_args = 0
 559              	.LVL48:
 560 0000 10B5     		push	{r4, lr}
 561              		.cfi_def_cfa_offset 8
ARM GAS  /tmp/ccH3BRWG.s 			page 11


 562              		.cfi_offset 4, -8
 563              		.cfi_offset 14, -4
 564              		.loc 1 372 0
 565 0002 8369     		ldr	r3, [r0, #24]
 566 0004 002B     		cmp	r3, #0
 567 0006 15DD     		ble	.L27
 568              		.loc 1 375 0
 569 0008 C268     		ldr	r2, [r0, #12]
 570              		.loc 1 374 0
 571 000a 013B     		subs	r3, r3, #1
 572              		.loc 1 375 0
 573 000c 141D     		adds	r4, r2, #4
 574 000e C460     		str	r4, [r0, #12]
 575              		.loc 1 374 0
 576 0010 8361     		str	r3, [r0, #24]
 577              		.loc 1 375 0
 578 0012 1368     		ldr	r3, [r2]
 579              		.loc 1 378 0
 580 0014 1C30     		adds	r0, r0, #28
 581              	.LVL49:
 582              		.loc 1 375 0
 583 0016 0B60     		str	r3, [r1]
 584              		.loc 1 376 0
 585 0018 50F8183C 		ldr	r3, [r0, #-24]
 586 001c 50F8102C 		ldr	r2, [r0, #-16]
 587 0020 9A42     		cmp	r2, r3
 588              		.loc 1 377 0
 589 0022 24BF     		itt	cs
 590 0024 50F81C3C 		ldrcs	r3, [r0, #-28]
 591 0028 40F8103C 		strcs	r3, [r0, #-16]
 592              		.loc 1 378 0
 593 002c FFF7FEFF 		bl	chSemSignalI
 594              	.LVL50:
 595              		.loc 1 379 0
 596 0030 0020     		movs	r0, #0
 597 0032 10BD     		pop	{r4, pc}
 598              	.LVL51:
 599              	.L27:
 600              		.loc 1 373 0
 601 0034 4FF0FF30 		mov	r0, #-1
 602              	.LVL52:
 603              		.loc 1 380 0
 604 0038 10BD     		pop	{r4, pc}
 605              		.cfi_endproc
 606              	.LFE10:
 607              		.size	chMBFetchI, .-chMBFetchI
 608 003a 00BFAFF3 		.text
 608      0080
 609              	.Letext0:
 610              		.file 2 "/usr/include/newlib/machine/_default_types.h"
 611              		.file 3 "/usr/include/newlib/stdint.h"
 612              		.file 4 "../os/ports/GCC/ARMCMx/chtypes.h"
 613              		.file 5 "../os/kernel/include/chlists.h"
 614              		.file 6 "../os/kernel/include/chthreads.h"
 615              		.file 7 "../os/ports/GCC/ARMCMx/chcore_v7m.h"
 616              		.file 8 "../os/kernel/include/chsem.h"
 617              		.file 9 "../os/kernel/include/chmtx.h"
ARM GAS  /tmp/ccH3BRWG.s 			page 12


 618              		.file 10 "../os/kernel/include/chmboxes.h"
 619              		.file 11 "../os/kernel/include/chschd.h"