ARM GAS  /tmp/ccH3BRWG.s 			page 1


   1              		.syntax unified
   2              		.cpu cortex-m3
   3              		.fpu softvfp
   4              		.eabi_attribute 20, 1
   5              		.eabi_attribute 21, 1
   6              		.eabi_attribute 23, 3
   7              		.eabi_attribute 24, 1
   8              		.eabi_attribute 25, 1
   9              		.eabi_attribute 26, 1
  10              		.eabi_attribute 30, 2
  11              		.eabi_attribute 34, 1
  12              		.eabi_attribute 18, 4
  13              		.thumb
  14              		.file	"chmboxes.c"
  15              		.text
  16              	.Ltext0:
  17              		.cfi_sections	.debug_frame
  18              		.section	.text.chMBInit,"ax",%progbits
  19              		.align	2
  20              		.p2align 4,,15
  21              		.global	chMBInit
  22              		.thumb
  23              		.thumb_func
  24              		.type	chMBInit, %function
  25              	chMBInit:
  26              	.LFB0:
  27              		.file 1 "../os/kernel/src/chmboxes.c"
  28              		.loc 1 72 0
  29              		.cfi_startproc
  30              		@ args = 0, pretend = 0, frame = 0
  31              		@ frame_needed = 0, uses_anonymous_args = 0
  32              	.LVL0:
  33 0000 10B5     		push	{r4, lr}
  34              		.cfi_def_cfa_offset 8
  35              		.cfi_offset 4, -8
  36              		.cfi_offset 14, -4
  37              		.loc 1 72 0
  38 0002 0B46     		mov	r3, r1
  39              		.loc 1 77 0
  40 0004 01EB8201 		add	r1, r1, r2, lsl #2
  41              	.LVL1:
  42 0008 4160     		str	r1, [r0, #4]
  43              		.loc 1 72 0
  44 000a 0446     		mov	r4, r0
  45              		.loc 1 76 0
  46 000c C360     		str	r3, [r0, #12]
  47 000e 8360     		str	r3, [r0, #8]
  48 0010 0360     		str	r3, [r0]
  49              		.loc 1 78 0
  50 0012 1146     		mov	r1, r2
  51 0014 1C30     		adds	r0, r0, #28
  52              	.LVL2:
  53 0016 FFF7FEFF 		bl	chSemInit
  54              	.LVL3:
  55              		.loc 1 79 0
  56 001a 04F11000 		add	r0, r4, #16
  57 001e 0021     		movs	r1, #0
ARM GAS  /tmp/ccH3BRWG.s 			page 2


  58              		.loc 1 80 0
  59 0020 BDE81040 		pop	{r4, lr}
  60              	.LVL4:
  61              		.loc 1 79 0
  62 0024 FFF7FEBF 		b	chSemInit
  63              	.LVL5:
  64              		.cfi_endproc
  65              	.LFE0:
  66              		.size	chMBInit, .-chMBInit
  67 0028 AFF30080 		.section	.text.chMBReset,"ax",%progbits
  67      AFF30080 
  68              		.align	2
  69              		.p2align 4,,15
  70              		.global	chMBReset
  71              		.thumb
  72              		.thumb_func
  73              		.type	chMBReset, %function
  74              	chMBReset:
  75              	.LFB1:
  76              		.loc 1 91 0
  77              		.cfi_startproc
  78              		@ args = 0, pretend = 0, frame = 0
  79              		@ frame_needed = 0, uses_anonymous_args = 0
  80              	.LVL6:
  81 0000 10B5     		push	{r4, lr}
  82              		.cfi_def_cfa_offset 8
  83              		.cfi_offset 4, -8
  84              		.cfi_offset 14, -4
  85              		.loc 1 91 0
  86 0002 0446     		mov	r4, r0
  87              		.loc 1 95 0
  88              	@ 95 "../os/kernel/src/chmboxes.c" 1
  89 0004 FFF7FEFF 		bl      _port_lock
  90              	@ 0 "" 2
  91              		.loc 1 96 0
  92              		.thumb
  93 0008 0368     		ldr	r3, [r0]
  94              		.loc 1 97 0
  95 000a 4168     		ldr	r1, [r0, #4]
  96              		.loc 1 96 0
  97 000c C360     		str	r3, [r0, #12]
  98              		.loc 1 97 0
  99 000e C91A     		subs	r1, r1, r3
 100              		.loc 1 96 0
 101 0010 8360     		str	r3, [r0, #8]
 102              		.loc 1 97 0
 103 0012 8910     		asrs	r1, r1, #2
 104 0014 1C30     		adds	r0, r0, #28
 105              	.LVL7:
 106 0016 FFF7FEFF 		bl	chSemResetI
 107              	.LVL8:
 108              		.loc 1 98 0
 109 001a 04F11000 		add	r0, r4, #16
 110 001e 0021     		movs	r1, #0
 111 0020 FFF7FEFF 		bl	chSemResetI
 112              	.LVL9:
 113              		.loc 1 99 0
ARM GAS  /tmp/ccH3BRWG.s 			page 3


 114 0024 FFF7FEFF 		bl	chSchRescheduleS
 115              	.LVL10:
 116              		.loc 1 100 0
 117              	@ 100 "../os/kernel/src/chmboxes.c" 1
 118 0028 FFF7FEFF 		bl      _port_unlock
 119              	@ 0 "" 2
 120              		.thumb
 121 002c 10BD     		pop	{r4, pc}
 122              		.cfi_endproc
 123              	.LFE1:
 124              		.size	chMBReset, .-chMBReset
 125 002e 00BF     		.section	.text.chMBPostS,"ax",%progbits
 126              		.align	2
 127              		.p2align 4,,15
 128              		.global	chMBPostS
 129              		.thumb
 130              		.thumb_func
 131              		.type	chMBPostS, %function
 132              	chMBPostS:
 133              	.LFB3:
 134              		.loc 1 150 0
 135              		.cfi_startproc
 136              		@ args = 0, pretend = 0, frame = 0
 137              		@ frame_needed = 0, uses_anonymous_args = 0
 138              	.LVL11:
 139 0000 70B5     		push	{r4, r5, r6, lr}
 140              		.cfi_def_cfa_offset 16
 141              		.cfi_offset 4, -16
 142              		.cfi_offset 5, -12
 143              		.cfi_offset 6, -8
 144              		.cfi_offset 14, -4
 145              		.loc 1 150 0
 146 0002 0446     		mov	r4, r0
 147 0004 0E46     		mov	r6, r1
 148              		.loc 1 156 0
 149 0006 1C30     		adds	r0, r0, #28
 150              	.LVL12:
 151 0008 1146     		mov	r1, r2
 152              	.LVL13:
 153 000a FFF7FEFF 		bl	chSemWaitTimeoutS
 154              	.LVL14:
 155              		.loc 1 157 0
 156 000e 0546     		mov	r5, r0
 157 0010 78B9     		cbnz	r0, .L4
 158              		.loc 1 158 0
 159 0012 A368     		ldr	r3, [r4, #8]
 160              		.loc 1 161 0
 161 0014 04F11000 		add	r0, r4, #16
 162              	.LVL15:
 163              		.loc 1 158 0
 164 0018 1A1D     		adds	r2, r3, #4
 165 001a A260     		str	r2, [r4, #8]
 166 001c 1E60     		str	r6, [r3]
 167              		.loc 1 159 0
 168 001e 6368     		ldr	r3, [r4, #4]
 169 0020 A268     		ldr	r2, [r4, #8]
 170 0022 9A42     		cmp	r2, r3
ARM GAS  /tmp/ccH3BRWG.s 			page 4


 171              		.loc 1 160 0
 172 0024 24BF     		itt	cs
 173 0026 2368     		ldrcs	r3, [r4]
 174 0028 A360     		strcs	r3, [r4, #8]
 175              		.loc 1 161 0
 176 002a FFF7FEFF 		bl	chSemSignalI
 177              	.LVL16:
 178              		.loc 1 162 0
 179 002e FFF7FEFF 		bl	chSchRescheduleS
 180              	.LVL17:
 181              	.L4:
 182              		.loc 1 165 0
 183 0032 2846     		mov	r0, r5
 184 0034 70BD     		pop	{r4, r5, r6, pc}
 185              		.cfi_endproc
 186              	.LFE3:
 187              		.size	chMBPostS, .-chMBPostS
 188 0036 00BFAFF3 		.section	.text.chMBPost,"ax",%progbits
 188      0080AFF3 
 188      0080
 189              		.align	2
 190              		.p2align 4,,15
 191              		.global	chMBPost
 192              		.thumb
 193              		.thumb_func
 194              		.type	chMBPost, %function
 195              	chMBPost:
 196              	.LFB2:
 197              		.loc 1 122 0
 198              		.cfi_startproc
 199              		@ args = 0, pretend = 0, frame = 0
 200              		@ frame_needed = 0, uses_anonymous_args = 0
 201              	.LVL18:
 202 0000 08B5     		push	{r3, lr}
 203              		.cfi_def_cfa_offset 8
 204              		.cfi_offset 3, -8
 205              		.cfi_offset 14, -4
 206              		.loc 1 125 0
 207              	@ 125 "../os/kernel/src/chmboxes.c" 1
 208 0002 FFF7FEFF 		bl      _port_lock
 209              	@ 0 "" 2
 210              		.loc 1 126 0
 211              		.thumb
 212 0006 FFF7FEFF 		bl	chMBPostS
 213              	.LVL19:
 214              		.loc 1 127 0
 215              	@ 127 "../os/kernel/src/chmboxes.c" 1
 216 000a FFF7FEFF 		bl      _port_unlock
 217              	@ 0 "" 2
 218              		.loc 1 129 0
 219              		.thumb
 220 000e 08BD     		pop	{r3, pc}
 221              		.cfi_endproc
 222              	.LFE2:
 223              		.size	chMBPost, .-chMBPost
 224              		.section	.text.chMBPostI,"ax",%progbits
 225              		.align	2
ARM GAS  /tmp/ccH3BRWG.s 			page 5


 226              		.p2align 4,,15
 227              		.global	chMBPostI
 228              		.thumb
 229              		.thumb_func
 230              		.type	chMBPostI, %function
 231              	chMBPostI:
 232              	.LFB4:
 233              		.loc 1 181 0
 234              		.cfi_startproc
 235              		@ args = 0, pretend = 0, frame = 0
 236              		@ frame_needed = 0, uses_anonymous_args = 0
 237              	.LVL20:
 238 0000 10B5     		push	{r4, lr}
 239              		.cfi_def_cfa_offset 8
 240              		.cfi_offset 4, -8
 241              		.cfi_offset 14, -4
 242              		.loc 1 186 0
 243 0002 436A     		ldr	r3, [r0, #36]
 244 0004 002B     		cmp	r3, #0
 245 0006 12DD     		ble	.L11
 246              		.loc 1 189 0
 247 0008 8268     		ldr	r2, [r0, #8]
 248              		.loc 1 188 0
 249 000a 013B     		subs	r3, r3, #1
 250              		.loc 1 189 0
 251 000c 141D     		adds	r4, r2, #4
 252 000e 8460     		str	r4, [r0, #8]
 253              		.loc 1 188 0
 254 0010 4362     		str	r3, [r0, #36]
 255              		.loc 1 189 0
 256 0012 1160     		str	r1, [r2]
 257              		.loc 1 190 0
 258 0014 4368     		ldr	r3, [r0, #4]
 259 0016 8268     		ldr	r2, [r0, #8]
 260              		.loc 1 192 0
 261 0018 1030     		adds	r0, r0, #16
 262              	.LVL21:
 263              		.loc 1 190 0
 264 001a 9A42     		cmp	r2, r3
 265              		.loc 1 191 0
 266 001c 24BF     		itt	cs
 267 001e 50F8103C 		ldrcs	r3, [r0, #-16]
 268 0022 40F8083C 		strcs	r3, [r0, #-8]
 269              		.loc 1 192 0
 270 0026 FFF7FEFF 		bl	chSemSignalI
 271              	.LVL22:
 272              		.loc 1 193 0
 273 002a 0020     		movs	r0, #0
 274 002c 10BD     		pop	{r4, pc}
 275              	.LVL23:
 276              	.L11:
 277              		.loc 1 187 0
 278 002e 4FF0FF30 		mov	r0, #-1
 279              	.LVL24:
 280              		.loc 1 194 0
 281 0032 10BD     		pop	{r4, pc}
 282              		.cfi_endproc
ARM GAS  /tmp/ccH3BRWG.s 			page 6


 283              	.LFE4:
 284              		.size	chMBPostI, .-chMBPostI
 285 0034 AFF30080 		.section	.text.chMBPostAheadS,"ax",%progbits
 285      AFF30080 
 285      AFF30080 
 286              		.align	2
 287              		.p2align 4,,15
 288              		.global	chMBPostAheadS
 289              		.thumb
 290              		.thumb_func
 291              		.type	chMBPostAheadS, %function
 292              	chMBPostAheadS:
 293              	.LFB6:
 294              		.loc 1 243 0
 295              		.cfi_startproc
 296              		@ args = 0, pretend = 0, frame = 0
 297              		@ frame_needed = 0, uses_anonymous_args = 0
 298              	.LVL25:
 299 0000 70B5     		push	{r4, r5, r6, lr}
 300              		.cfi_def_cfa_offset 16
 301              		.cfi_offset 4, -16
 302              		.cfi_offset 5, -12
 303              		.cfi_offset 6, -8
 304              		.cfi_offset 14, -4
 305              		.loc 1 243 0
 306 0002 0446     		mov	r4, r0
 307 0004 0E46     		mov	r6, r1
 308              		.loc 1 249 0
 309 0006 1C30     		adds	r0, r0, #28
 310              	.LVL26:
 311 0008 1146     		mov	r1, r2
 312              	.LVL27:
 313 000a FFF7FEFF 		bl	chSemWaitTimeoutS
 314              	.LVL28:
 315              		.loc 1 250 0
 316 000e 0546     		mov	r5, r0
 317 0010 80B9     		cbnz	r0, .L13
 318              		.loc 1 251 0
 319 0012 E368     		ldr	r3, [r4, #12]
 320 0014 2268     		ldr	r2, [r4]
 321 0016 043B     		subs	r3, r3, #4
 322 0018 9342     		cmp	r3, r2
 323 001a E360     		str	r3, [r4, #12]
 324              		.loc 1 252 0
 325 001c 38BF     		it	cc
 326 001e 6368     		ldrcc	r3, [r4, #4]
 327              		.loc 1 254 0
 328 0020 04F11000 		add	r0, r4, #16
 329              	.LVL29:
 330              		.loc 1 252 0
 331 0024 3CBF     		itt	cc
 332 0026 043B     		subcc	r3, r3, #4
 333 0028 E360     		strcc	r3, [r4, #12]
 334              		.loc 1 253 0
 335 002a 1E60     		str	r6, [r3]
 336              		.loc 1 254 0
 337 002c FFF7FEFF 		bl	chSemSignalI
ARM GAS  /tmp/ccH3BRWG.s 			page 7


 338              	.LVL30:
 339              		.loc 1 255 0
 340 0030 FFF7FEFF 		bl	chSchRescheduleS
 341              	.LVL31:
 342              	.L13:
 343              		.loc 1 258 0
 344 0034 2846     		mov	r0, r5
 345 0036 70BD     		pop	{r4, r5, r6, pc}
 346              		.cfi_endproc
 347              	.LFE6:
 348              		.size	chMBPostAheadS, .-chMBPostAheadS
 349 0038 AFF30080 		.section	.text.chMBPostAhead,"ax",%progbits
 349      AFF30080 
 350              		.align	2
 351              		.p2align 4,,15
 352              		.global	chMBPostAhead
 353              		.thumb
 354              		.thumb_func
 355              		.type	chMBPostAhead, %function
 356              	chMBPostAhead:
 357              	.LFB5:
 358              		.loc 1 215 0
 359              		.cfi_startproc
 360              		@ args = 0, pretend = 0, frame = 0
 361              		@ frame_needed = 0, uses_anonymous_args = 0
 362              	.LVL32:
 363 0000 08B5     		push	{r3, lr}
 364              		.cfi_def_cfa_offset 8
 365              		.cfi_offset 3, -8
 366              		.cfi_offset 14, -4
 367              		.loc 1 218 0
 368              	@ 218 "../os/kernel/src/chmboxes.c" 1
 369 0002 FFF7FEFF 		bl      _port_lock
 370              	@ 0 "" 2
 371              		.loc 1 219 0
 372              		.thumb
 373 0006 FFF7FEFF 		bl	chMBPostAheadS
 374              	.LVL33:
 375              		.loc 1 220 0
 376              	@ 220 "../os/kernel/src/chmboxes.c" 1
 377 000a FFF7FEFF 		bl      _port_unlock
 378              	@ 0 "" 2
 379              		.loc 1 222 0
 380              		.thumb
 381 000e 08BD     		pop	{r3, pc}
 382              		.cfi_endproc
 383              	.LFE5:
 384              		.size	chMBPostAhead, .-chMBPostAhead
 385              		.section	.text.chMBPostAheadI,"ax",%progbits
 386              		.align	2
 387              		.p2align 4,,15
 388              		.global	chMBPostAheadI
 389              		.thumb
 390              		.thumb_func
 391              		.type	chMBPostAheadI, %function
 392              	chMBPostAheadI:
 393              	.LFB7:
ARM GAS  /tmp/ccH3BRWG.s 			page 8


 394              		.loc 1 274 0
 395              		.cfi_startproc
 396              		@ args = 0, pretend = 0, frame = 0
 397              		@ frame_needed = 0, uses_anonymous_args = 0
 398              	.LVL34:
 399 0000 10B5     		push	{r4, lr}
 400              		.cfi_def_cfa_offset 8
 401              		.cfi_offset 4, -8
 402              		.cfi_offset 14, -4
 403              		.loc 1 279 0
 404 0002 426A     		ldr	r2, [r0, #36]
 405 0004 002A     		cmp	r2, #0
 406 0006 13DD     		ble	.L19
 407              		.loc 1 282 0
 408 0008 C368     		ldr	r3, [r0, #12]
 409 000a 0468     		ldr	r4, [r0]
 410 000c 043B     		subs	r3, r3, #4
 411 000e A342     		cmp	r3, r4
 412 0010 C360     		str	r3, [r0, #12]
 413              		.loc 1 283 0
 414 0012 38BF     		it	cc
 415 0014 4368     		ldrcc	r3, [r0, #4]
 416              		.loc 1 281 0
 417 0016 02F1FF32 		add	r2, r2, #-1
 418              		.loc 1 283 0
 419 001a 38BF     		it	cc
 420 001c 043B     		subcc	r3, r3, #4
 421              		.loc 1 281 0
 422 001e 4262     		str	r2, [r0, #36]
 423              		.loc 1 283 0
 424 0020 38BF     		it	cc
 425 0022 C360     		strcc	r3, [r0, #12]
 426              		.loc 1 284 0
 427 0024 1960     		str	r1, [r3]
 428              		.loc 1 285 0
 429 0026 1030     		adds	r0, r0, #16
 430              	.LVL35:
 431 0028 FFF7FEFF 		bl	chSemSignalI
 432              	.LVL36:
 433              		.loc 1 286 0
 434 002c 0020     		movs	r0, #0
 435 002e 10BD     		pop	{r4, pc}
 436              	.LVL37:
 437              	.L19:
 438              		.loc 1 280 0
 439 0030 4FF0FF30 		mov	r0, #-1
 440              	.LVL38:
 441              		.loc 1 287 0
 442 0034 10BD     		pop	{r4, pc}
 443              		.cfi_endproc
 444              	.LFE7:
 445              		.size	chMBPostAheadI, .-chMBPostAheadI
 446 0036 00BFAFF3 		.section	.text.chMBFetchS,"ax",%progbits
 446      0080AFF3 
 446      0080
 447              		.align	2
 448              		.p2align 4,,15
ARM GAS  /tmp/ccH3BRWG.s 			page 9


 449              		.global	chMBFetchS
 450              		.thumb
 451              		.thumb_func
 452              		.type	chMBFetchS, %function
 453              	chMBFetchS:
 454              	.LFB9:
 455              		.loc 1 336 0
 456              		.cfi_startproc
 457              		@ args = 0, pretend = 0, frame = 0
 458              		@ frame_needed = 0, uses_anonymous_args = 0
 459              	.LVL39:
 460 0000 70B5     		push	{r4, r5, r6, lr}
 461              		.cfi_def_cfa_offset 16
 462              		.cfi_offset 4, -16
 463              		.cfi_offset 5, -12
 464              		.cfi_offset 6, -8
 465              		.cfi_offset 14, -4
 466              		.loc 1 336 0
 467 0002 0446     		mov	r4, r0
 468 0004 0E46     		mov	r6, r1
 469              		.loc 1 342 0
 470 0006 1030     		adds	r0, r0, #16
 471              	.LVL40:
 472 0008 1146     		mov	r1, r2
 473              	.LVL41:
 474 000a FFF7FEFF 		bl	chSemWaitTimeoutS
 475              	.LVL42:
 476              		.loc 1 343 0
 477 000e 0546     		mov	r5, r0
 478 0010 80B9     		cbnz	r0, .L21
 479              		.loc 1 344 0
 480 0012 E368     		ldr	r3, [r4, #12]
 481              		.loc 1 347 0
 482 0014 04F11C00 		add	r0, r4, #28
 483              	.LVL43:
 484              		.loc 1 344 0
 485 0018 1A1D     		adds	r2, r3, #4
 486 001a E260     		str	r2, [r4, #12]
 487 001c 1B68     		ldr	r3, [r3]
 488 001e 3360     		str	r3, [r6]
 489              		.loc 1 345 0
 490 0020 6368     		ldr	r3, [r4, #4]
 491 0022 E268     		ldr	r2, [r4, #12]
 492 0024 9A42     		cmp	r2, r3
 493              		.loc 1 346 0
 494 0026 24BF     		itt	cs
 495 0028 2368     		ldrcs	r3, [r4]
 496 002a E360     		strcs	r3, [r4, #12]
 497              		.loc 1 347 0
 498 002c FFF7FEFF 		bl	chSemSignalI
 499              	.LVL44:
 500              		.loc 1 348 0
 501 0030 FFF7FEFF 		bl	chSchRescheduleS
 502              	.LVL45:
 503              	.L21:
 504              		.loc 1 351 0
 505 0034 2846     		mov	r0, r5
ARM GAS  /tmp/ccH3BRWG.s 			page 10


 506 0036 70BD     		pop	{r4, r5, r6, pc}
 507              		.cfi_endproc
 508              	.LFE9:
 509              		.size	chMBFetchS, .-chMBFetchS
 510 0038 AFF30080 		.section	.text.chMBFetch,"ax",%progbits
 510      AFF30080 
 511              		.align	2
 512              		.p2align 4,,15
 513              		.global	chMBFetch
 514              		.thumb
 515              		.thumb_func
 516              		.type	chMBFetch, %function
 517              	chMBFetch:
 518              	.LFB8:
 519              		.loc 1 308 0
 520              		.cfi_startproc
 521              		@ args = 0, pretend = 0, frame = 0
 522              		@ frame_needed = 0, uses_anonymous_args = 0
 523              	.LVL46:
 524 0000 08B5     		push	{r3, lr}
 525              		.cfi_def_cfa_offset 8
 526              		.cfi_offset 3, -8
 527              		.cfi_offset 14, -4
 528              		.loc 1 311 0
 529              	@ 311 "../os/kernel/src/chmboxes.c" 1
 530 0002 FFF7FEFF 		bl      _port_lock
 531              	@ 0 "" 2
 532              		.loc 1 312 0
 533              		.thumb
 534 0006 FFF7FEFF 		bl	chMBFetchS
 535              	.LVL47:
 536              		.loc 1 313 0
 537              	@ 313 "../os/kernel/src/chmboxes.c" 1
 538 000a FFF7FEFF 		bl      _port_unlock
 539              	@ 0 "" 2
 540              		.loc 1 315 0
 541              		.thumb
 542 000e 08BD     		pop	{r3, pc}
 543              		.cfi_endproc
 544              	.LFE8:
 545              		.size	chMBFetch, .-chMBFetch
 546              		.section	.text.chMBFetchI,"ax",%progbits
 547              		.align	2
 548              		.p2align 4,,15
 549              		.global	chMBFetchI
 550              		.thumb
 551              		.thumb_func
 552              		.type	chMBFetchI, %function
 553              	chMBFetchI:
 554              	.LFB10:
 555              		.loc 1 367 0
 556              		.cfi_startproc
 557              		@ args = 0, pretend = 0, frame = 0
 558              		@ frame_needed = 0, uses_anonymous_args = 0
 559              	.LVL48:
 560 0000 10B5     		push	{r4, lr}
 561              		.cfi_def_cfa_offset 8
ARM GAS  /tmp/ccH3BRWG.s 			page 11


 562              		.cfi_offset 4, -8
 563              		.cfi_offset 14, -4
 564              		.loc 1 372 0
 565 0002 8369     		ldr	r3, [r0, #24]
 566 0004 002B     		cmp	r3, #0
 567 0006 15DD     		ble	.L27
 568              		.loc 1 375 0
 569 0008 C268     		ldr	r2, [r0, #12]
 570              		.loc 1 374 0
 571 000a 013B     		subs	r3, r3, #1
 572              		.loc 1 375 0
 573 000c 141D     		adds	r4, r2, #4
 574 000e C460     		str	r4, [r0, #12]
 575              		.loc 1 374 0
 576 0010 8361     		str	r3, [r0, #24]
 577              		.loc 1 375 0
 578 0012 1368     		ldr	r3, [r2]
 579              		.loc 1 378 0
 580 0014 1C30     		adds	r0, r0, #28
 581              	.LVL49:
 582              		.loc 1 375 0
 583 0016 0B60     		str	r3, [r1]
 584              		.loc 1 376 0
 585 0018 50F8183C 		ldr	r3, [r0, #-24]
 586 001c 50F8102C 		ldr	r2, [r0, #-16]
 587 0020 9A42     		cmp	r2, r3
 588              		.loc 1 377 0
 589 0022 24BF     		itt	cs
 590 0024 50F81C3C 		ldrcs	r3, [r0, #-28]
 591 0028 40F8103C 		strcs	r3, [r0, #-16]
 592              		.loc 1 378 0
 593 002c FFF7FEFF 		bl	chSemSignalI
 594              	.LVL50:
 595              		.loc 1 379 0
 596 0030 0020     		movs	r0, #0
 597 0032 10BD     		pop	{r4, pc}
 598              	.LVL51:
 599              	.L27:
 600              		.loc 1 373 0
 601 0034 4FF0FF30 		mov	r0, #-1
 602              	.LVL52:
 603              		.loc 1 380 0
 604 0038 10BD     		pop	{r4, pc}
 605              		.cfi_endproc
 606              	.LFE10:
 607              		.size	chMBFetchI, .-chMBFetchI
 608 003a 00BFAFF3 		.text
 608      0080
 609              	.Letext0:
 610              		.file 2 "/usr/include/newlib/machine/_default_types.h"
 611              		.file 3 "/usr/include/newlib/stdint.h"
 612              		.file 4 "../os/ports/GCC/ARMCMx/chtypes.h"
 613              		.file 5 "../os/kernel/include/chlists.h"
 614              		.file 6 "../os/kernel/include/chthreads.h"
 615              		.file 7 "../os/ports/GCC/ARMCMx/chcore_v7m.h"
 616              		.file 8 "../os/kernel/include/chsem.h"
 617              		.file 9 "../os/kernel/include/chmtx.h"
ARM GAS  /tmp/ccH3BRWG.s 			page 12


 618              		.file 10 "../os/kernel/include/chmboxes.h"
 619              		.file 11 "../os/kernel/include/chschd.h"
 620              		.section	.debug_info,"",%progbits
 621              	.Ldebug_info0:
 622 0000 04090000 		.4byte	0x904
 623 0004 0400     		.2byte	0x4
 624 0006 00000000 		.4byte	.Ldebug_abbrev0
 625 000a 04       		.byte	0x4
 626 000b 01       		.uleb128 0x1
 627 000c 40000000 		.4byte	.LASF77
 628 0010 01       		.byte	0x1
 629 0011 06000000 		.4byte	.LASF78
 630 0015 21030000 		.4byte	.LASF79
 631 0019 00000000 		.4byte	.Ldebug_ranges0+0
 632 001d 00000000 		.4byte	0
 633 0021 00000000 		.4byte	.Ldebug_line0
 634 0025 02       		.uleb128 0x2
 635 0026 04       		.byte	0x4
 636 0027 05       		.byte	0x5
 637 0028 696E7400 		.ascii	"int\000"
 638 002c 03       		.uleb128 0x3
 639 002d 04       		.byte	0x4
 640 002e 07       		.byte	0x7
 641 002f C3010000 		.4byte	.LASF0
 642 0033 03       		.uleb128 0x3
 643 0034 01       		.byte	0x1
 644 0035 06       		.byte	0x6
 645 0036 60010000 		.4byte	.LASF1
 646 003a 04       		.uleb128 0x4
 647 003b 36000000 		.4byte	.LASF5
 648 003f 02       		.byte	0x2
 649 0040 1C       		.byte	0x1c
 650 0041 45000000 		.4byte	0x45
 651 0045 03       		.uleb128 0x3
 652 0046 01       		.byte	0x1
 653 0047 08       		.byte	0x8
 654 0048 AC020000 		.4byte	.LASF2
 655 004c 03       		.uleb128 0x3
 656 004d 02       		.byte	0x2
 657 004e 05       		.byte	0x5
 658 004f CB020000 		.4byte	.LASF3
 659 0053 03       		.uleb128 0x3
 660 0054 02       		.byte	0x2
 661 0055 07       		.byte	0x7
 662 0056 FD010000 		.4byte	.LASF4
 663 005a 04       		.uleb128 0x4
 664 005b A1030000 		.4byte	.LASF6
 665 005f 02       		.byte	0x2
 666 0060 37       		.byte	0x37
 667 0061 65000000 		.4byte	0x65
 668 0065 03       		.uleb128 0x3
 669 0066 04       		.byte	0x4
 670 0067 05       		.byte	0x5
 671 0068 7E010000 		.4byte	.LASF7
 672 006c 04       		.uleb128 0x4
 673 006d A9010000 		.4byte	.LASF8
 674 0071 02       		.byte	0x2
ARM GAS  /tmp/ccH3BRWG.s 			page 13


 675 0072 38       		.byte	0x38
 676 0073 77000000 		.4byte	0x77
 677 0077 03       		.uleb128 0x3
 678 0078 04       		.byte	0x4
 679 0079 07       		.byte	0x7
 680 007a D9010000 		.4byte	.LASF9
 681 007e 03       		.uleb128 0x3
 682 007f 08       		.byte	0x8
 683 0080 05       		.byte	0x5
 684 0081 52010000 		.4byte	.LASF10
 685 0085 03       		.uleb128 0x3
 686 0086 08       		.byte	0x8
 687 0087 07       		.byte	0x7
 688 0088 13010000 		.4byte	.LASF11
 689 008c 04       		.uleb128 0x4
 690 008d FE030000 		.4byte	.LASF12
 691 0091 03       		.byte	0x3
 692 0092 2A       		.byte	0x2a
 693 0093 3A000000 		.4byte	0x3a
 694 0097 04       		.uleb128 0x4
 695 0098 A4020000 		.4byte	.LASF13
 696 009c 03       		.byte	0x3
 697 009d 41       		.byte	0x41
 698 009e 5A000000 		.4byte	0x5a
 699 00a2 04       		.uleb128 0x4
 700 00a3 18030000 		.4byte	.LASF14
 701 00a7 03       		.byte	0x3
 702 00a8 42       		.byte	0x42
 703 00a9 6C000000 		.4byte	0x6c
 704 00ad 03       		.uleb128 0x3
 705 00ae 01       		.byte	0x1
 706 00af 02       		.byte	0x2
 707 00b0 9E020000 		.4byte	.LASF15
 708 00b4 04       		.uleb128 0x4
 709 00b5 2C020000 		.4byte	.LASF16
 710 00b9 04       		.byte	0x4
 711 00ba 2C       		.byte	0x2c
 712 00bb 8C000000 		.4byte	0x8c
 713 00bf 04       		.uleb128 0x4
 714 00c0 87010000 		.4byte	.LASF17
 715 00c4 04       		.byte	0x4
 716 00c5 2D       		.byte	0x2d
 717 00c6 8C000000 		.4byte	0x8c
 718 00ca 04       		.uleb128 0x4
 719 00cb 74010000 		.4byte	.LASF18
 720 00cf 04       		.byte	0x4
 721 00d0 2F       		.byte	0x2f
 722 00d1 8C000000 		.4byte	0x8c
 723 00d5 04       		.uleb128 0x4
 724 00d6 96020000 		.4byte	.LASF19
 725 00da 04       		.byte	0x4
 726 00db 30       		.byte	0x30
 727 00dc A2000000 		.4byte	0xa2
 728 00e0 04       		.uleb128 0x4
 729 00e1 1B020000 		.4byte	.LASF20
 730 00e5 04       		.byte	0x4
 731 00e6 31       		.byte	0x31
ARM GAS  /tmp/ccH3BRWG.s 			page 14


 732 00e7 97000000 		.4byte	0x97
 733 00eb 04       		.uleb128 0x4
 734 00ec 40020000 		.4byte	.LASF21
 735 00f0 04       		.byte	0x4
 736 00f1 33       		.byte	0x33
 737 00f2 A2000000 		.4byte	0xa2
 738 00f6 04       		.uleb128 0x4
 739 00f7 8C030000 		.4byte	.LASF22
 740 00fb 04       		.byte	0x4
 741 00fc 35       		.byte	0x35
 742 00fd A2000000 		.4byte	0xa2
 743 0101 04       		.uleb128 0x4
 744 0102 BD010000 		.4byte	.LASF23
 745 0106 04       		.byte	0x4
 746 0107 36       		.byte	0x36
 747 0108 97000000 		.4byte	0x97
 748 010c 04       		.uleb128 0x4
 749 010d 06030000 		.4byte	.LASF24
 750 0111 05       		.byte	0x5
 751 0112 2A       		.byte	0x2a
 752 0113 17010000 		.4byte	0x117
 753 0117 05       		.uleb128 0x5
 754 0118 06030000 		.4byte	.LASF24
 755 011c 34       		.byte	0x34
 756 011d 06       		.byte	0x6
 757 011e 5E       		.byte	0x5e
 758 011f CC010000 		.4byte	0x1cc
 759 0123 06       		.uleb128 0x6
 760 0124 EE020000 		.4byte	.LASF25
 761 0128 06       		.byte	0x6
 762 0129 5F       		.byte	0x5f
 763 012a ED010000 		.4byte	0x1ed
 764 012e 00       		.byte	0
 765 012f 06       		.uleb128 0x6
 766 0130 8F020000 		.4byte	.LASF26
 767 0134 06       		.byte	0x6
 768 0135 61       		.byte	0x61
 769 0136 ED010000 		.4byte	0x1ed
 770 013a 04       		.byte	0x4
 771 013b 06       		.uleb128 0x6
 772 013c 4B010000 		.4byte	.LASF27
 773 0140 06       		.byte	0x6
 774 0141 63       		.byte	0x63
 775 0142 D5000000 		.4byte	0xd5
 776 0146 08       		.byte	0x8
 777 0147 06       		.uleb128 0x6
 778 0148 1F040000 		.4byte	.LASF28
 779 014c 06       		.byte	0x6
 780 014d 64       		.byte	0x64
 781 014e A7020000 		.4byte	0x2a7
 782 0152 0C       		.byte	0xc
 783 0153 06       		.uleb128 0x6
 784 0154 D5020000 		.4byte	.LASF29
 785 0158 06       		.byte	0x6
 786 0159 79       		.byte	0x79
 787 015a BF000000 		.4byte	0xbf
 788 015e 10       		.byte	0x10
ARM GAS  /tmp/ccH3BRWG.s 			page 15


 789 015f 06       		.uleb128 0x6
 790 0160 F5020000 		.4byte	.LASF30
 791 0164 06       		.byte	0x6
 792 0165 7D       		.byte	0x7d
 793 0166 B4000000 		.4byte	0xb4
 794 016a 11       		.byte	0x11
 795 016b 06       		.uleb128 0x6
 796 016c DD020000 		.4byte	.LASF31
 797 0170 06       		.byte	0x6
 798 0171 88       		.byte	0x88
 799 0172 CA000000 		.4byte	0xca
 800 0176 12       		.byte	0x12
 801 0177 07       		.uleb128 0x7
 802 0178 705F7500 		.ascii	"p_u\000"
 803 017c 06       		.byte	0x6
 804 017d B4       		.byte	0xb4
 805 017e A3030000 		.4byte	0x3a3
 806 0182 14       		.byte	0x14
 807 0183 06       		.uleb128 0x6
 808 0184 25040000 		.4byte	.LASF32
 809 0188 06       		.byte	0x6
 810 0189 B9       		.byte	0xb9
 811 018a 13020000 		.4byte	0x213
 812 018e 18       		.byte	0x18
 813 018f 06       		.uleb128 0x6
 814 0190 C8030000 		.4byte	.LASF33
 815 0194 06       		.byte	0x6
 816 0195 BF       		.byte	0xbf
 817 0196 F3010000 		.4byte	0x1f3
 818 019a 1C       		.byte	0x1c
 819 019b 06       		.uleb128 0x6
 820 019c 00000000 		.4byte	.LASF34
 821 01a0 06       		.byte	0x6
 822 01a1 C3       		.byte	0xc3
 823 01a2 E0000000 		.4byte	0xe0
 824 01a6 24       		.byte	0x24
 825 01a7 06       		.uleb128 0x6
 826 01a8 0D030000 		.4byte	.LASF35
 827 01ac 06       		.byte	0x6
 828 01ad C9       		.byte	0xc9
 829 01ae EB000000 		.4byte	0xeb
 830 01b2 28       		.byte	0x28
 831 01b3 06       		.uleb128 0x6
 832 01b4 C1020000 		.4byte	.LASF36
 833 01b8 06       		.byte	0x6
 834 01b9 D0       		.byte	0xd0
 835 01ba D8030000 		.4byte	0x3d8
 836 01be 2C       		.byte	0x2c
 837 01bf 06       		.uleb128 0x6
 838 01c0 96030000 		.4byte	.LASF37
 839 01c4 06       		.byte	0x6
 840 01c5 D4       		.byte	0xd4
 841 01c6 D5000000 		.4byte	0xd5
 842 01ca 30       		.byte	0x30
 843 01cb 00       		.byte	0
 844 01cc 08       		.uleb128 0x8
 845 01cd 08       		.byte	0x8
ARM GAS  /tmp/ccH3BRWG.s 			page 16


 846 01ce 05       		.byte	0x5
 847 01cf 61       		.byte	0x61
 848 01d0 ED010000 		.4byte	0x1ed
 849 01d4 06       		.uleb128 0x6
 850 01d5 EE020000 		.4byte	.LASF25
 851 01d9 05       		.byte	0x5
 852 01da 62       		.byte	0x62
 853 01db ED010000 		.4byte	0x1ed
 854 01df 00       		.byte	0
 855 01e0 06       		.uleb128 0x6
 856 01e1 8F020000 		.4byte	.LASF26
 857 01e5 05       		.byte	0x5
 858 01e6 64       		.byte	0x64
 859 01e7 ED010000 		.4byte	0x1ed
 860 01eb 04       		.byte	0x4
 861 01ec 00       		.byte	0
 862 01ed 09       		.uleb128 0x9
 863 01ee 04       		.byte	0x4
 864 01ef 0C010000 		.4byte	0x10c
 865 01f3 04       		.uleb128 0x4
 866 01f4 73020000 		.4byte	.LASF38
 867 01f8 05       		.byte	0x5
 868 01f9 66       		.byte	0x66
 869 01fa CC010000 		.4byte	0x1cc
 870 01fe 08       		.uleb128 0x8
 871 01ff 04       		.byte	0x4
 872 0200 05       		.byte	0x5
 873 0201 6B       		.byte	0x6b
 874 0202 13020000 		.4byte	0x213
 875 0206 06       		.uleb128 0x6
 876 0207 EE020000 		.4byte	.LASF25
 877 020b 05       		.byte	0x5
 878 020c 6D       		.byte	0x6d
 879 020d ED010000 		.4byte	0x1ed
 880 0211 00       		.byte	0
 881 0212 00       		.byte	0
 882 0213 04       		.uleb128 0x4
 883 0214 34020000 		.4byte	.LASF39
 884 0218 05       		.byte	0x5
 885 0219 70       		.byte	0x70
 886 021a FE010000 		.4byte	0x1fe
 887 021e 04       		.uleb128 0x4
 888 021f B4010000 		.4byte	.LASF40
 889 0223 07       		.byte	0x7
 890 0224 E5       		.byte	0xe5
 891 0225 29020000 		.4byte	0x229
 892 0229 0A       		.uleb128 0xa
 893 022a 04       		.byte	0x4
 894 022b 0B       		.uleb128 0xb
 895 022c C1030000 		.4byte	.LASF41
 896 0230 24       		.byte	0x24
 897 0231 07       		.byte	0x7
 898 0232 0C01     		.2byte	0x10c
 899 0234 A7020000 		.4byte	0x2a7
 900 0238 0C       		.uleb128 0xc
 901 0239 723400   		.ascii	"r4\000"
 902 023c 07       		.byte	0x7
ARM GAS  /tmp/ccH3BRWG.s 			page 17


 903 023d 1F01     		.2byte	0x11f
 904 023f 1E020000 		.4byte	0x21e
 905 0243 00       		.byte	0
 906 0244 0C       		.uleb128 0xc
 907 0245 723500   		.ascii	"r5\000"
 908 0248 07       		.byte	0x7
 909 0249 2001     		.2byte	0x120
 910 024b 1E020000 		.4byte	0x21e
 911 024f 04       		.byte	0x4
 912 0250 0C       		.uleb128 0xc
 913 0251 723600   		.ascii	"r6\000"
 914 0254 07       		.byte	0x7
 915 0255 2101     		.2byte	0x121
 916 0257 1E020000 		.4byte	0x21e
 917 025b 08       		.byte	0x8
 918 025c 0C       		.uleb128 0xc
 919 025d 723700   		.ascii	"r7\000"
 920 0260 07       		.byte	0x7
 921 0261 2201     		.2byte	0x122
 922 0263 1E020000 		.4byte	0x21e
 923 0267 0C       		.byte	0xc
 924 0268 0C       		.uleb128 0xc
 925 0269 723800   		.ascii	"r8\000"
 926 026c 07       		.byte	0x7
 927 026d 2301     		.2byte	0x123
 928 026f 1E020000 		.4byte	0x21e
 929 0273 10       		.byte	0x10
 930 0274 0C       		.uleb128 0xc
 931 0275 723900   		.ascii	"r9\000"
 932 0278 07       		.byte	0x7
 933 0279 2401     		.2byte	0x124
 934 027b 1E020000 		.4byte	0x21e
 935 027f 14       		.byte	0x14
 936 0280 0C       		.uleb128 0xc
 937 0281 72313000 		.ascii	"r10\000"
 938 0285 07       		.byte	0x7
 939 0286 2501     		.2byte	0x125
 940 0288 1E020000 		.4byte	0x21e
 941 028c 18       		.byte	0x18
 942 028d 0C       		.uleb128 0xc
 943 028e 72313100 		.ascii	"r11\000"
 944 0292 07       		.byte	0x7
 945 0293 2601     		.2byte	0x126
 946 0295 1E020000 		.4byte	0x21e
 947 0299 1C       		.byte	0x1c
 948 029a 0C       		.uleb128 0xc
 949 029b 6C7200   		.ascii	"lr\000"
 950 029e 07       		.byte	0x7
 951 029f 2701     		.2byte	0x127
 952 02a1 1E020000 		.4byte	0x21e
 953 02a5 20       		.byte	0x20
 954 02a6 00       		.byte	0
 955 02a7 0B       		.uleb128 0xb
 956 02a8 AB030000 		.4byte	.LASF42
 957 02ac 04       		.byte	0x4
 958 02ad 07       		.byte	0x7
 959 02ae 3101     		.2byte	0x131
ARM GAS  /tmp/ccH3BRWG.s 			page 18


 960 02b0 C2020000 		.4byte	0x2c2
 961 02b4 0C       		.uleb128 0xc
 962 02b5 72313300 		.ascii	"r13\000"
 963 02b9 07       		.byte	0x7
 964 02ba 3201     		.2byte	0x132
 965 02bc C2020000 		.4byte	0x2c2
 966 02c0 00       		.byte	0
 967 02c1 00       		.byte	0
 968 02c2 09       		.uleb128 0x9
 969 02c3 04       		.byte	0x4
 970 02c4 2B020000 		.4byte	0x22b
 971 02c8 03       		.uleb128 0x3
 972 02c9 04       		.byte	0x4
 973 02ca 07       		.byte	0x7
 974 02cb 57020000 		.4byte	.LASF43
 975 02cf 05       		.uleb128 0x5
 976 02d0 DD030000 		.4byte	.LASF44
 977 02d4 0C       		.byte	0xc
 978 02d5 08       		.byte	0x8
 979 02d6 2C       		.byte	0x2c
 980 02d7 F4020000 		.4byte	0x2f4
 981 02db 06       		.uleb128 0x6
 982 02dc 90010000 		.4byte	.LASF45
 983 02e0 08       		.byte	0x8
 984 02e1 2D       		.byte	0x2d
 985 02e2 F3010000 		.4byte	0x1f3
 986 02e6 00       		.byte	0
 987 02e7 06       		.uleb128 0x6
 988 02e8 F7010000 		.4byte	.LASF46
 989 02ec 08       		.byte	0x8
 990 02ed 2F       		.byte	0x2f
 991 02ee 01010000 		.4byte	0x101
 992 02f2 08       		.byte	0x8
 993 02f3 00       		.byte	0
 994 02f4 04       		.uleb128 0x4
 995 02f5 DD030000 		.4byte	.LASF44
 996 02f9 08       		.byte	0x8
 997 02fa 30       		.byte	0x30
 998 02fb CF020000 		.4byte	0x2cf
 999 02ff 05       		.uleb128 0x5
 1000 0300 4C020000 		.4byte	.LASF47
 1001 0304 10       		.byte	0x10
 1002 0305 09       		.byte	0x9
 1003 0306 2C       		.byte	0x2c
 1004 0307 30030000 		.4byte	0x330
 1005 030b 06       		.uleb128 0x6
 1006 030c 6C010000 		.4byte	.LASF48
 1007 0310 09       		.byte	0x9
 1008 0311 2D       		.byte	0x2d
 1009 0312 F3010000 		.4byte	0x1f3
 1010 0316 00       		.byte	0
 1011 0317 06       		.uleb128 0x6
 1012 0318 17040000 		.4byte	.LASF49
 1013 031c 09       		.byte	0x9
 1014 031d 2F       		.byte	0x2f
 1015 031e ED010000 		.4byte	0x1ed
 1016 0322 08       		.byte	0x8
ARM GAS  /tmp/ccH3BRWG.s 			page 19


 1017 0323 06       		.uleb128 0x6
 1018 0324 85030000 		.4byte	.LASF50
 1019 0328 09       		.byte	0x9
 1020 0329 31       		.byte	0x31
 1021 032a 30030000 		.4byte	0x330
 1022 032e 0C       		.byte	0xc
 1023 032f 00       		.byte	0
 1024 0330 09       		.uleb128 0x9
 1025 0331 04       		.byte	0x4
 1026 0332 FF020000 		.4byte	0x2ff
 1027 0336 04       		.uleb128 0x4
 1028 0337 4C020000 		.4byte	.LASF47
 1029 033b 09       		.byte	0x9
 1030 033c 33       		.byte	0x33
 1031 033d FF020000 		.4byte	0x2ff
 1032 0341 08       		.uleb128 0x8
 1033 0342 28       		.byte	0x28
 1034 0343 0A       		.byte	0xa
 1035 0344 33       		.byte	0x33
 1036 0345 92030000 		.4byte	0x392
 1037 0349 06       		.uleb128 0x6
 1038 034a 80020000 		.4byte	.LASF51
 1039 034e 0A       		.byte	0xa
 1040 034f 34       		.byte	0x34
 1041 0350 92030000 		.4byte	0x392
 1042 0354 00       		.byte	0
 1043 0355 06       		.uleb128 0x6
 1044 0356 BA020000 		.4byte	.LASF52
 1045 035a 0A       		.byte	0xa
 1046 035b 36       		.byte	0x36
 1047 035c 92030000 		.4byte	0x392
 1048 0360 04       		.byte	0x4
 1049 0361 06       		.uleb128 0x6
 1050 0362 42010000 		.4byte	.LASF53
 1051 0366 0A       		.byte	0xa
 1052 0367 38       		.byte	0x38
 1053 0368 92030000 		.4byte	0x392
 1054 036c 08       		.byte	0x8
 1055 036d 06       		.uleb128 0x6
 1056 036e 60020000 		.4byte	.LASF54
 1057 0372 0A       		.byte	0xa
 1058 0373 39       		.byte	0x39
 1059 0374 92030000 		.4byte	0x392
 1060 0378 0C       		.byte	0xc
 1061 0379 06       		.uleb128 0x6
 1062 037a E7030000 		.4byte	.LASF55
 1063 037e 0A       		.byte	0xa
 1064 037f 3A       		.byte	0x3a
 1065 0380 F4020000 		.4byte	0x2f4
 1066 0384 10       		.byte	0x10
 1067 0385 06       		.uleb128 0x6
 1068 0386 EB010000 		.4byte	.LASF56
 1069 038a 0A       		.byte	0xa
 1070 038b 3C       		.byte	0x3c
 1071 038c F4020000 		.4byte	0x2f4
 1072 0390 1C       		.byte	0x1c
 1073 0391 00       		.byte	0
ARM GAS  /tmp/ccH3BRWG.s 			page 20


 1074 0392 09       		.uleb128 0x9
 1075 0393 04       		.byte	0x4
 1076 0394 E0000000 		.4byte	0xe0
 1077 0398 04       		.uleb128 0x4
 1078 0399 FC000000 		.4byte	.LASF57
 1079 039d 0A       		.byte	0xa
 1080 039e 3E       		.byte	0x3e
 1081 039f 41030000 		.4byte	0x341
 1082 03a3 0D       		.uleb128 0xd
 1083 03a4 04       		.byte	0x4
 1084 03a5 06       		.byte	0x6
 1085 03a6 96       		.byte	0x96
 1086 03a7 D8030000 		.4byte	0x3d8
 1087 03ab 0E       		.uleb128 0xe
 1088 03ac 2F000000 		.4byte	.LASF58
 1089 03b0 06       		.byte	0x6
 1090 03b1 9D       		.byte	0x9d
 1091 03b2 E0000000 		.4byte	0xe0
 1092 03b6 0E       		.uleb128 0xe
 1093 03b7 2A010000 		.4byte	.LASF59
 1094 03bb 06       		.byte	0x6
 1095 03bc A4       		.byte	0xa4
 1096 03bd E0000000 		.4byte	0xe0
 1097 03c1 0E       		.uleb128 0xe
 1098 03c2 06040000 		.4byte	.LASF60
 1099 03c6 06       		.byte	0x6
 1100 03c7 AB       		.byte	0xab
 1101 03c8 29020000 		.4byte	0x229
 1102 03cc 0E       		.uleb128 0xe
 1103 03cd E7020000 		.4byte	.LASF61
 1104 03d1 06       		.byte	0x6
 1105 03d2 B2       		.byte	0xb2
 1106 03d3 EB000000 		.4byte	0xeb
 1107 03d7 00       		.byte	0
 1108 03d8 09       		.uleb128 0x9
 1109 03d9 04       		.byte	0x4
 1110 03da 36030000 		.4byte	0x336
 1111 03de 0F       		.uleb128 0xf
 1112 03df D0010000 		.4byte	.LASF62
 1113 03e3 01       		.byte	0x1
 1114 03e4 48       		.byte	0x48
 1115 03e5 00000000 		.4byte	.LFB0
 1116 03e9 28000000 		.4byte	.LFE0-.LFB0
 1117 03ed 01       		.uleb128 0x1
 1118 03ee 9C       		.byte	0x9c
 1119 03ef 52040000 		.4byte	0x452
 1120 03f3 10       		.uleb128 0x10
 1121 03f4 6D627000 		.ascii	"mbp\000"
 1122 03f8 01       		.byte	0x1
 1123 03f9 48       		.byte	0x48
 1124 03fa 52040000 		.4byte	0x452
 1125 03fe 00000000 		.4byte	.LLST0
 1126 0402 10       		.uleb128 0x10
 1127 0403 62756600 		.ascii	"buf\000"
 1128 0407 01       		.byte	0x1
 1129 0408 48       		.byte	0x48
 1130 0409 92030000 		.4byte	0x392
ARM GAS  /tmp/ccH3BRWG.s 			page 21


 1131 040d 39000000 		.4byte	.LLST1
 1132 0411 10       		.uleb128 0x10
 1133 0412 6E00     		.ascii	"n\000"
 1134 0414 01       		.byte	0x1
 1135 0415 48       		.byte	0x48
 1136 0416 01010000 		.4byte	0x101
 1137 041a 65000000 		.4byte	.LLST2
 1138 041e 11       		.uleb128 0x11
 1139 041f 1A000000 		.4byte	.LVL3
 1140 0423 A7080000 		.4byte	0x8a7
 1141 0427 39040000 		.4byte	0x439
 1142 042b 12       		.uleb128 0x12
 1143 042c 01       		.uleb128 0x1
 1144 042d 51       		.byte	0x51
 1145 042e 03       		.uleb128 0x3
 1146 042f F3       		.byte	0xf3
 1147 0430 01       		.uleb128 0x1
 1148 0431 52       		.byte	0x52
 1149 0432 12       		.uleb128 0x12
 1150 0433 01       		.uleb128 0x1
 1151 0434 50       		.byte	0x50
 1152 0435 02       		.uleb128 0x2
 1153 0436 74       		.byte	0x74
 1154 0437 1C       		.sleb128 28
 1155 0438 00       		.byte	0
 1156 0439 13       		.uleb128 0x13
 1157 043a 28000000 		.4byte	.LVL5
 1158 043e A7080000 		.4byte	0x8a7
 1159 0442 12       		.uleb128 0x12
 1160 0443 01       		.uleb128 0x1
 1161 0444 51       		.byte	0x51
 1162 0445 01       		.uleb128 0x1
 1163 0446 30       		.byte	0x30
 1164 0447 12       		.uleb128 0x12
 1165 0448 01       		.uleb128 0x1
 1166 0449 50       		.byte	0x50
 1167 044a 05       		.uleb128 0x5
 1168 044b F3       		.byte	0xf3
 1169 044c 01       		.uleb128 0x1
 1170 044d 50       		.byte	0x50
 1171 044e 23       		.byte	0x23
 1172 044f 10       		.uleb128 0x10
 1173 0450 00       		.byte	0
 1174 0451 00       		.byte	0
 1175 0452 09       		.uleb128 0x9
 1176 0453 04       		.byte	0x4
 1177 0454 98030000 		.4byte	0x398
 1178 0458 0F       		.uleb128 0xf
 1179 0459 69020000 		.4byte	.LASF63
 1180 045d 01       		.byte	0x1
 1181 045e 5B       		.byte	0x5b
 1182 045f 00000000 		.4byte	.LFB1
 1183 0463 2E000000 		.4byte	.LFE1-.LFB1
 1184 0467 01       		.uleb128 0x1
 1185 0468 9C       		.byte	0x9c
 1186 0469 B3040000 		.4byte	0x4b3
 1187 046d 10       		.uleb128 0x10
ARM GAS  /tmp/ccH3BRWG.s 			page 22


 1188 046e 6D627000 		.ascii	"mbp\000"
 1189 0472 01       		.byte	0x1
 1190 0473 5B       		.byte	0x5b
 1191 0474 52040000 		.4byte	0x452
 1192 0478 86000000 		.4byte	.LLST3
 1193 047c 11       		.uleb128 0x11
 1194 047d 1A000000 		.4byte	.LVL8
 1195 0481 C3080000 		.4byte	0x8c3
 1196 0485 90040000 		.4byte	0x490
 1197 0489 12       		.uleb128 0x12
 1198 048a 01       		.uleb128 0x1
 1199 048b 50       		.byte	0x50
 1200 048c 02       		.uleb128 0x2
 1201 048d 74       		.byte	0x74
 1202 048e 1C       		.sleb128 28
 1203 048f 00       		.byte	0
 1204 0490 11       		.uleb128 0x11
 1205 0491 24000000 		.4byte	.LVL9
 1206 0495 C3080000 		.4byte	0x8c3
 1207 0499 A9040000 		.4byte	0x4a9
 1208 049d 12       		.uleb128 0x12
 1209 049e 01       		.uleb128 0x1
 1210 049f 51       		.byte	0x51
 1211 04a0 01       		.uleb128 0x1
 1212 04a1 30       		.byte	0x30
 1213 04a2 12       		.uleb128 0x12
 1214 04a3 01       		.uleb128 0x1
 1215 04a4 50       		.byte	0x50
 1216 04a5 02       		.uleb128 0x2
 1217 04a6 74       		.byte	0x74
 1218 04a7 10       		.sleb128 16
 1219 04a8 00       		.byte	0
 1220 04a9 14       		.uleb128 0x14
 1221 04aa 28000000 		.4byte	.LVL10
 1222 04ae D9080000 		.4byte	0x8d9
 1223 04b2 00       		.byte	0
 1224 04b3 15       		.uleb128 0x15
 1225 04b4 F2000000 		.4byte	.LASF65
 1226 04b8 01       		.byte	0x1
 1227 04b9 96       		.byte	0x96
 1228 04ba E0000000 		.4byte	0xe0
 1229 04be 00000000 		.4byte	.LFB3
 1230 04c2 36000000 		.4byte	.LFE3-.LFB3
 1231 04c6 01       		.uleb128 0x1
 1232 04c7 9C       		.byte	0x9c
 1233 04c8 41050000 		.4byte	0x541
 1234 04cc 10       		.uleb128 0x10
 1235 04cd 6D627000 		.ascii	"mbp\000"
 1236 04d1 01       		.byte	0x1
 1237 04d2 96       		.byte	0x96
 1238 04d3 52040000 		.4byte	0x452
 1239 04d7 A4000000 		.4byte	.LLST4
 1240 04db 10       		.uleb128 0x10
 1241 04dc 6D736700 		.ascii	"msg\000"
 1242 04e0 01       		.byte	0x1
 1243 04e1 96       		.byte	0x96
 1244 04e2 E0000000 		.4byte	0xe0
ARM GAS  /tmp/ccH3BRWG.s 			page 23


 1245 04e6 C2000000 		.4byte	.LLST5
 1246 04ea 16       		.uleb128 0x16
 1247 04eb 8A020000 		.4byte	.LASF64
 1248 04ef 01       		.byte	0x1
 1249 04f0 96       		.byte	0x96
 1250 04f1 F6000000 		.4byte	0xf6
 1251 04f5 E0000000 		.4byte	.LLST6
 1252 04f9 17       		.uleb128 0x17
 1253 04fa 2F000000 		.4byte	.LASF58
 1254 04fe 01       		.byte	0x1
 1255 04ff 97       		.byte	0x97
 1256 0500 E0000000 		.4byte	0xe0
 1257 0504 01010000 		.4byte	.LLST7
 1258 0508 11       		.uleb128 0x11
 1259 0509 0E000000 		.4byte	.LVL14
 1260 050d E0080000 		.4byte	0x8e0
 1261 0511 23050000 		.4byte	0x523
 1262 0515 12       		.uleb128 0x12
 1263 0516 01       		.uleb128 0x1
 1264 0517 51       		.byte	0x51
 1265 0518 03       		.uleb128 0x3
 1266 0519 F3       		.byte	0xf3
 1267 051a 01       		.uleb128 0x1
 1268 051b 52       		.byte	0x52
 1269 051c 12       		.uleb128 0x12
 1270 051d 01       		.uleb128 0x1
 1271 051e 50       		.byte	0x50
 1272 051f 02       		.uleb128 0x2
 1273 0520 74       		.byte	0x74
 1274 0521 1C       		.sleb128 28
 1275 0522 00       		.byte	0
 1276 0523 11       		.uleb128 0x11
 1277 0524 2E000000 		.4byte	.LVL16
 1278 0528 FA080000 		.4byte	0x8fa
 1279 052c 37050000 		.4byte	0x537
 1280 0530 12       		.uleb128 0x12
 1281 0531 01       		.uleb128 0x1
 1282 0532 50       		.byte	0x50
 1283 0533 02       		.uleb128 0x2
 1284 0534 74       		.byte	0x74
 1285 0535 10       		.sleb128 16
 1286 0536 00       		.byte	0
 1287 0537 14       		.uleb128 0x14
 1288 0538 32000000 		.4byte	.LVL17
 1289 053c D9080000 		.4byte	0x8d9
 1290 0540 00       		.byte	0
 1291 0541 15       		.uleb128 0x15
 1292 0542 FD020000 		.4byte	.LASF66
 1293 0546 01       		.byte	0x1
 1294 0547 7A       		.byte	0x7a
 1295 0548 E0000000 		.4byte	0xe0
 1296 054c 00000000 		.4byte	.LFB2
 1297 0550 10000000 		.4byte	.LFE2-.LFB2
 1298 0554 01       		.uleb128 0x1
 1299 0555 9C       		.byte	0x9c
 1300 0556 B4050000 		.4byte	0x5b4
 1301 055a 10       		.uleb128 0x10
ARM GAS  /tmp/ccH3BRWG.s 			page 24


 1302 055b 6D627000 		.ascii	"mbp\000"
 1303 055f 01       		.byte	0x1
 1304 0560 7A       		.byte	0x7a
 1305 0561 52040000 		.4byte	0x452
 1306 0565 1F010000 		.4byte	.LLST8
 1307 0569 10       		.uleb128 0x10
 1308 056a 6D736700 		.ascii	"msg\000"
 1309 056e 01       		.byte	0x1
 1310 056f 7A       		.byte	0x7a
 1311 0570 E0000000 		.4byte	0xe0
 1312 0574 40010000 		.4byte	.LLST9
 1313 0578 16       		.uleb128 0x16
 1314 0579 8A020000 		.4byte	.LASF64
 1315 057d 01       		.byte	0x1
 1316 057e 7A       		.byte	0x7a
 1317 057f F6000000 		.4byte	0xf6
 1318 0583 61010000 		.4byte	.LLST10
 1319 0587 18       		.uleb128 0x18
 1320 0588 2F000000 		.4byte	.LASF58
 1321 058c 01       		.byte	0x1
 1322 058d 7B       		.byte	0x7b
 1323 058e E0000000 		.4byte	0xe0
 1324 0592 01       		.uleb128 0x1
 1325 0593 50       		.byte	0x50
 1326 0594 19       		.uleb128 0x19
 1327 0595 0A000000 		.4byte	.LVL19
 1328 0599 B3040000 		.4byte	0x4b3
 1329 059d 12       		.uleb128 0x12
 1330 059e 01       		.uleb128 0x1
 1331 059f 52       		.byte	0x52
 1332 05a0 03       		.uleb128 0x3
 1333 05a1 F3       		.byte	0xf3
 1334 05a2 01       		.uleb128 0x1
 1335 05a3 52       		.byte	0x52
 1336 05a4 12       		.uleb128 0x12
 1337 05a5 01       		.uleb128 0x1
 1338 05a6 51       		.byte	0x51
 1339 05a7 03       		.uleb128 0x3
 1340 05a8 F3       		.byte	0xf3
 1341 05a9 01       		.uleb128 0x1
 1342 05aa 51       		.byte	0x51
 1343 05ab 12       		.uleb128 0x12
 1344 05ac 01       		.uleb128 0x1
 1345 05ad 50       		.byte	0x50
 1346 05ae 03       		.uleb128 0x3
 1347 05af F3       		.byte	0xf3
 1348 05b0 01       		.uleb128 0x1
 1349 05b1 50       		.byte	0x50
 1350 05b2 00       		.byte	0
 1351 05b3 00       		.byte	0
 1352 05b4 15       		.uleb128 0x15
 1353 05b5 0D040000 		.4byte	.LASF67
 1354 05b9 01       		.byte	0x1
 1355 05ba B5       		.byte	0xb5
 1356 05bb E0000000 		.4byte	0xe0
 1357 05bf 00000000 		.4byte	.LFB4
 1358 05c3 34000000 		.4byte	.LFE4-.LFB4
ARM GAS  /tmp/ccH3BRWG.s 			page 25


 1359 05c7 01       		.uleb128 0x1
 1360 05c8 9C       		.byte	0x9c
 1361 05c9 FF050000 		.4byte	0x5ff
 1362 05cd 10       		.uleb128 0x10
 1363 05ce 6D627000 		.ascii	"mbp\000"
 1364 05d2 01       		.byte	0x1
 1365 05d3 B5       		.byte	0xb5
 1366 05d4 52040000 		.4byte	0x452
 1367 05d8 82010000 		.4byte	.LLST11
 1368 05dc 10       		.uleb128 0x10
 1369 05dd 6D736700 		.ascii	"msg\000"
 1370 05e1 01       		.byte	0x1
 1371 05e2 B5       		.byte	0xb5
 1372 05e3 E0000000 		.4byte	0xe0
 1373 05e7 C9010000 		.4byte	.LLST12
 1374 05eb 19       		.uleb128 0x19
 1375 05ec 2A000000 		.4byte	.LVL22
 1376 05f0 FA080000 		.4byte	0x8fa
 1377 05f4 12       		.uleb128 0x12
 1378 05f5 01       		.uleb128 0x1
 1379 05f6 50       		.byte	0x50
 1380 05f7 05       		.uleb128 0x5
 1381 05f8 F3       		.byte	0xf3
 1382 05f9 01       		.uleb128 0x1
 1383 05fa 50       		.byte	0x50
 1384 05fb 23       		.byte	0x23
 1385 05fc 10       		.uleb128 0x10
 1386 05fd 00       		.byte	0
 1387 05fe 00       		.byte	0
 1388 05ff 15       		.uleb128 0x15
 1389 0600 33010000 		.4byte	.LASF68
 1390 0604 01       		.byte	0x1
 1391 0605 F3       		.byte	0xf3
 1392 0606 E0000000 		.4byte	0xe0
 1393 060a 00000000 		.4byte	.LFB6
 1394 060e 38000000 		.4byte	.LFE6-.LFB6
 1395 0612 01       		.uleb128 0x1
 1396 0613 9C       		.byte	0x9c
 1397 0614 8D060000 		.4byte	0x68d
 1398 0618 10       		.uleb128 0x10
 1399 0619 6D627000 		.ascii	"mbp\000"
 1400 061d 01       		.byte	0x1
 1401 061e F3       		.byte	0xf3
 1402 061f 52040000 		.4byte	0x452
 1403 0623 F5010000 		.4byte	.LLST13
 1404 0627 10       		.uleb128 0x10
 1405 0628 6D736700 		.ascii	"msg\000"
 1406 062c 01       		.byte	0x1
 1407 062d F3       		.byte	0xf3
 1408 062e E0000000 		.4byte	0xe0
 1409 0632 13020000 		.4byte	.LLST14
 1410 0636 16       		.uleb128 0x16
 1411 0637 8A020000 		.4byte	.LASF64
 1412 063b 01       		.byte	0x1
 1413 063c F3       		.byte	0xf3
 1414 063d F6000000 		.4byte	0xf6
 1415 0641 31020000 		.4byte	.LLST15
ARM GAS  /tmp/ccH3BRWG.s 			page 26


 1416 0645 17       		.uleb128 0x17
 1417 0646 2F000000 		.4byte	.LASF58
 1418 064a 01       		.byte	0x1
 1419 064b F4       		.byte	0xf4
 1420 064c E0000000 		.4byte	0xe0
 1421 0650 52020000 		.4byte	.LLST16
 1422 0654 11       		.uleb128 0x11
 1423 0655 0E000000 		.4byte	.LVL28
 1424 0659 E0080000 		.4byte	0x8e0
 1425 065d 6F060000 		.4byte	0x66f
 1426 0661 12       		.uleb128 0x12
 1427 0662 01       		.uleb128 0x1
 1428 0663 51       		.byte	0x51
 1429 0664 03       		.uleb128 0x3
 1430 0665 F3       		.byte	0xf3
 1431 0666 01       		.uleb128 0x1
 1432 0667 52       		.byte	0x52
 1433 0668 12       		.uleb128 0x12
 1434 0669 01       		.uleb128 0x1
 1435 066a 50       		.byte	0x50
 1436 066b 02       		.uleb128 0x2
 1437 066c 74       		.byte	0x74
 1438 066d 1C       		.sleb128 28
 1439 066e 00       		.byte	0
 1440 066f 11       		.uleb128 0x11
 1441 0670 30000000 		.4byte	.LVL30
 1442 0674 FA080000 		.4byte	0x8fa
 1443 0678 83060000 		.4byte	0x683
 1444 067c 12       		.uleb128 0x12
 1445 067d 01       		.uleb128 0x1
 1446 067e 50       		.byte	0x50
 1447 067f 02       		.uleb128 0x2
 1448 0680 74       		.byte	0x74
 1449 0681 10       		.sleb128 16
 1450 0682 00       		.byte	0
 1451 0683 14       		.uleb128 0x14
 1452 0684 34000000 		.4byte	.LVL31
 1453 0688 D9080000 		.4byte	0x8d9
 1454 068c 00       		.byte	0
 1455 068d 15       		.uleb128 0x15
 1456 068e B3030000 		.4byte	.LASF69
 1457 0692 01       		.byte	0x1
 1458 0693 D7       		.byte	0xd7
 1459 0694 E0000000 		.4byte	0xe0
 1460 0698 00000000 		.4byte	.LFB5
 1461 069c 10000000 		.4byte	.LFE5-.LFB5
 1462 06a0 01       		.uleb128 0x1
 1463 06a1 9C       		.byte	0x9c
 1464 06a2 00070000 		.4byte	0x700
 1465 06a6 10       		.uleb128 0x10
 1466 06a7 6D627000 		.ascii	"mbp\000"
 1467 06ab 01       		.byte	0x1
 1468 06ac D7       		.byte	0xd7
 1469 06ad 52040000 		.4byte	0x452
 1470 06b1 70020000 		.4byte	.LLST17
 1471 06b5 10       		.uleb128 0x10
 1472 06b6 6D736700 		.ascii	"msg\000"
ARM GAS  /tmp/ccH3BRWG.s 			page 27


 1473 06ba 01       		.byte	0x1
 1474 06bb D7       		.byte	0xd7
 1475 06bc E0000000 		.4byte	0xe0
 1476 06c0 91020000 		.4byte	.LLST18
 1477 06c4 16       		.uleb128 0x16
 1478 06c5 8A020000 		.4byte	.LASF64
 1479 06c9 01       		.byte	0x1
 1480 06ca D7       		.byte	0xd7
 1481 06cb F6000000 		.4byte	0xf6
 1482 06cf B2020000 		.4byte	.LLST19
 1483 06d3 18       		.uleb128 0x18
 1484 06d4 2F000000 		.4byte	.LASF58
 1485 06d8 01       		.byte	0x1
 1486 06d9 D8       		.byte	0xd8
 1487 06da E0000000 		.4byte	0xe0
 1488 06de 01       		.uleb128 0x1
 1489 06df 50       		.byte	0x50
 1490 06e0 19       		.uleb128 0x19
 1491 06e1 0A000000 		.4byte	.LVL33
 1492 06e5 FF050000 		.4byte	0x5ff
 1493 06e9 12       		.uleb128 0x12
 1494 06ea 01       		.uleb128 0x1
 1495 06eb 52       		.byte	0x52
 1496 06ec 03       		.uleb128 0x3
 1497 06ed F3       		.byte	0xf3
 1498 06ee 01       		.uleb128 0x1
 1499 06ef 52       		.byte	0x52
 1500 06f0 12       		.uleb128 0x12
 1501 06f1 01       		.uleb128 0x1
 1502 06f2 51       		.byte	0x51
 1503 06f3 03       		.uleb128 0x3
 1504 06f4 F3       		.byte	0xf3
 1505 06f5 01       		.uleb128 0x1
 1506 06f6 51       		.byte	0x51
 1507 06f7 12       		.uleb128 0x12
 1508 06f8 01       		.uleb128 0x1
 1509 06f9 50       		.byte	0x50
 1510 06fa 03       		.uleb128 0x3
 1511 06fb F3       		.byte	0xf3
 1512 06fc 01       		.uleb128 0x1
 1513 06fd 50       		.byte	0x50
 1514 06fe 00       		.byte	0
 1515 06ff 00       		.byte	0
 1516 0700 1A       		.uleb128 0x1a
 1517 0701 04010000 		.4byte	.LASF70
 1518 0705 01       		.byte	0x1
 1519 0706 1201     		.2byte	0x112
 1520 0708 E0000000 		.4byte	0xe0
 1521 070c 00000000 		.4byte	.LFB7
 1522 0710 36000000 		.4byte	.LFE7-.LFB7
 1523 0714 01       		.uleb128 0x1
 1524 0715 9C       		.byte	0x9c
 1525 0716 4E070000 		.4byte	0x74e
 1526 071a 1B       		.uleb128 0x1b
 1527 071b 6D627000 		.ascii	"mbp\000"
 1528 071f 01       		.byte	0x1
 1529 0720 1201     		.2byte	0x112
ARM GAS  /tmp/ccH3BRWG.s 			page 28


 1530 0722 52040000 		.4byte	0x452
 1531 0726 D3020000 		.4byte	.LLST20
 1532 072a 1B       		.uleb128 0x1b
 1533 072b 6D736700 		.ascii	"msg\000"
 1534 072f 01       		.byte	0x1
 1535 0730 1201     		.2byte	0x112
 1536 0732 E0000000 		.4byte	0xe0
 1537 0736 1A030000 		.4byte	.LLST21
 1538 073a 19       		.uleb128 0x19
 1539 073b 2C000000 		.4byte	.LVL36
 1540 073f FA080000 		.4byte	0x8fa
 1541 0743 12       		.uleb128 0x12
 1542 0744 01       		.uleb128 0x1
 1543 0745 50       		.byte	0x50
 1544 0746 05       		.uleb128 0x5
 1545 0747 F3       		.byte	0xf3
 1546 0748 01       		.uleb128 0x1
 1547 0749 50       		.byte	0x50
 1548 074a 23       		.byte	0x23
 1549 074b 10       		.uleb128 0x10
 1550 074c 00       		.byte	0
 1551 074d 00       		.byte	0
 1552 074e 1A       		.uleb128 0x1a
 1553 074f 21020000 		.4byte	.LASF71
 1554 0753 01       		.byte	0x1
 1555 0754 5001     		.2byte	0x150
 1556 0756 E0000000 		.4byte	0xe0
 1557 075a 00000000 		.4byte	.LFB9
 1558 075e 38000000 		.4byte	.LFE9-.LFB9
 1559 0762 01       		.uleb128 0x1
 1560 0763 9C       		.byte	0x9c
 1561 0764 E1070000 		.4byte	0x7e1
 1562 0768 1B       		.uleb128 0x1b
 1563 0769 6D627000 		.ascii	"mbp\000"
 1564 076d 01       		.byte	0x1
 1565 076e 5001     		.2byte	0x150
 1566 0770 52040000 		.4byte	0x452
 1567 0774 46030000 		.4byte	.LLST22
 1568 0778 1C       		.uleb128 0x1c
 1569 0779 52020000 		.4byte	.LASF72
 1570 077d 01       		.byte	0x1
 1571 077e 5001     		.2byte	0x150
 1572 0780 92030000 		.4byte	0x392
 1573 0784 64030000 		.4byte	.LLST23
 1574 0788 1C       		.uleb128 0x1c
 1575 0789 8A020000 		.4byte	.LASF64
 1576 078d 01       		.byte	0x1
 1577 078e 5001     		.2byte	0x150
 1578 0790 F6000000 		.4byte	0xf6
 1579 0794 82030000 		.4byte	.LLST24
 1580 0798 1D       		.uleb128 0x1d
 1581 0799 2F000000 		.4byte	.LASF58
 1582 079d 01       		.byte	0x1
 1583 079e 5101     		.2byte	0x151
 1584 07a0 E0000000 		.4byte	0xe0
 1585 07a4 A3030000 		.4byte	.LLST25
 1586 07a8 11       		.uleb128 0x11
ARM GAS  /tmp/ccH3BRWG.s 			page 29


 1587 07a9 0E000000 		.4byte	.LVL42
 1588 07ad E0080000 		.4byte	0x8e0
 1589 07b1 C3070000 		.4byte	0x7c3
 1590 07b5 12       		.uleb128 0x12
 1591 07b6 01       		.uleb128 0x1
 1592 07b7 51       		.byte	0x51
 1593 07b8 03       		.uleb128 0x3
 1594 07b9 F3       		.byte	0xf3
 1595 07ba 01       		.uleb128 0x1
 1596 07bb 52       		.byte	0x52
 1597 07bc 12       		.uleb128 0x12
 1598 07bd 01       		.uleb128 0x1
 1599 07be 50       		.byte	0x50
 1600 07bf 02       		.uleb128 0x2
 1601 07c0 74       		.byte	0x74
 1602 07c1 10       		.sleb128 16
 1603 07c2 00       		.byte	0
 1604 07c3 11       		.uleb128 0x11
 1605 07c4 30000000 		.4byte	.LVL44
 1606 07c8 FA080000 		.4byte	0x8fa
 1607 07cc D7070000 		.4byte	0x7d7
 1608 07d0 12       		.uleb128 0x12
 1609 07d1 01       		.uleb128 0x1
 1610 07d2 50       		.byte	0x50
 1611 07d3 02       		.uleb128 0x2
 1612 07d4 74       		.byte	0x74
 1613 07d5 1C       		.sleb128 28
 1614 07d6 00       		.byte	0
 1615 07d7 14       		.uleb128 0x14
 1616 07d8 34000000 		.4byte	.LVL45
 1617 07dc D9080000 		.4byte	0x8d9
 1618 07e0 00       		.byte	0
 1619 07e1 1A       		.uleb128 0x1a
 1620 07e2 D3030000 		.4byte	.LASF73
 1621 07e6 01       		.byte	0x1
 1622 07e7 3401     		.2byte	0x134
 1623 07e9 E0000000 		.4byte	0xe0
 1624 07ed 00000000 		.4byte	.LFB8
 1625 07f1 10000000 		.4byte	.LFE8-.LFB8
 1626 07f5 01       		.uleb128 0x1
 1627 07f6 9C       		.byte	0x9c
 1628 07f7 59080000 		.4byte	0x859
 1629 07fb 1B       		.uleb128 0x1b
 1630 07fc 6D627000 		.ascii	"mbp\000"
 1631 0800 01       		.byte	0x1
 1632 0801 3401     		.2byte	0x134
 1633 0803 52040000 		.4byte	0x452
 1634 0807 C1030000 		.4byte	.LLST26
 1635 080b 1C       		.uleb128 0x1c
 1636 080c 52020000 		.4byte	.LASF72
 1637 0810 01       		.byte	0x1
 1638 0811 3401     		.2byte	0x134
 1639 0813 92030000 		.4byte	0x392
 1640 0817 E2030000 		.4byte	.LLST27
 1641 081b 1C       		.uleb128 0x1c
 1642 081c 8A020000 		.4byte	.LASF64
 1643 0820 01       		.byte	0x1
ARM GAS  /tmp/ccH3BRWG.s 			page 30


 1644 0821 3401     		.2byte	0x134
 1645 0823 F6000000 		.4byte	0xf6
 1646 0827 03040000 		.4byte	.LLST28
 1647 082b 1E       		.uleb128 0x1e
 1648 082c 2F000000 		.4byte	.LASF58
 1649 0830 01       		.byte	0x1
 1650 0831 3501     		.2byte	0x135
 1651 0833 E0000000 		.4byte	0xe0
 1652 0837 01       		.uleb128 0x1
 1653 0838 50       		.byte	0x50
 1654 0839 19       		.uleb128 0x19
 1655 083a 0A000000 		.4byte	.LVL47
 1656 083e 4E070000 		.4byte	0x74e
 1657 0842 12       		.uleb128 0x12
 1658 0843 01       		.uleb128 0x1
 1659 0844 52       		.byte	0x52
 1660 0845 03       		.uleb128 0x3
 1661 0846 F3       		.byte	0xf3
 1662 0847 01       		.uleb128 0x1
 1663 0848 52       		.byte	0x52
 1664 0849 12       		.uleb128 0x12
 1665 084a 01       		.uleb128 0x1
 1666 084b 51       		.byte	0x51
 1667 084c 03       		.uleb128 0x3
 1668 084d F3       		.byte	0xf3
 1669 084e 01       		.uleb128 0x1
 1670 084f 51       		.byte	0x51
 1671 0850 12       		.uleb128 0x12
 1672 0851 01       		.uleb128 0x1
 1673 0852 50       		.byte	0x50
 1674 0853 03       		.uleb128 0x3
 1675 0854 F3       		.byte	0xf3
 1676 0855 01       		.uleb128 0x1
 1677 0856 50       		.byte	0x50
 1678 0857 00       		.byte	0
 1679 0858 00       		.byte	0
 1680 0859 1A       		.uleb128 0x1a
 1681 085a 10020000 		.4byte	.LASF74
 1682 085e 01       		.byte	0x1
 1683 085f 6F01     		.2byte	0x16f
 1684 0861 E0000000 		.4byte	0xe0
 1685 0865 00000000 		.4byte	.LFB10
 1686 0869 3A000000 		.4byte	.LFE10-.LFB10
 1687 086d 01       		.uleb128 0x1
 1688 086e 9C       		.byte	0x9c
 1689 086f A7080000 		.4byte	0x8a7
 1690 0873 1B       		.uleb128 0x1b
 1691 0874 6D627000 		.ascii	"mbp\000"
 1692 0878 01       		.byte	0x1
 1693 0879 6F01     		.2byte	0x16f
 1694 087b 52040000 		.4byte	0x452
 1695 087f 24040000 		.4byte	.LLST29
 1696 0883 1C       		.uleb128 0x1c
 1697 0884 52020000 		.4byte	.LASF72
 1698 0888 01       		.byte	0x1
 1699 0889 6F01     		.2byte	0x16f
 1700 088b 92030000 		.4byte	0x392
ARM GAS  /tmp/ccH3BRWG.s 			page 31


 1701 088f 6B040000 		.4byte	.LLST30
 1702 0893 19       		.uleb128 0x19
 1703 0894 30000000 		.4byte	.LVL50
 1704 0898 FA080000 		.4byte	0x8fa
 1705 089c 12       		.uleb128 0x12
 1706 089d 01       		.uleb128 0x1
 1707 089e 50       		.byte	0x50
 1708 089f 05       		.uleb128 0x5
 1709 08a0 F3       		.byte	0xf3
 1710 08a1 01       		.uleb128 0x1
 1711 08a2 50       		.byte	0x50
 1712 08a3 23       		.byte	0x23
 1713 08a4 1C       		.uleb128 0x1c
 1714 08a5 00       		.byte	0
 1715 08a6 00       		.byte	0
 1716 08a7 1F       		.uleb128 0x1f
 1717 08a8 2F040000 		.4byte	.LASF75
 1718 08ac 08       		.byte	0x8
 1719 08ad 35       		.byte	0x35
 1720 08ae BD080000 		.4byte	0x8bd
 1721 08b2 20       		.uleb128 0x20
 1722 08b3 BD080000 		.4byte	0x8bd
 1723 08b7 20       		.uleb128 0x20
 1724 08b8 01010000 		.4byte	0x101
 1725 08bc 00       		.byte	0
 1726 08bd 09       		.uleb128 0x9
 1727 08be 04       		.byte	0x4
 1728 08bf F4020000 		.4byte	0x2f4
 1729 08c3 1F       		.uleb128 0x1f
 1730 08c4 F2030000 		.4byte	.LASF76
 1731 08c8 08       		.byte	0x8
 1732 08c9 37       		.byte	0x37
 1733 08ca D9080000 		.4byte	0x8d9
 1734 08ce 20       		.uleb128 0x20
 1735 08cf BD080000 		.4byte	0x8bd
 1736 08d3 20       		.uleb128 0x20
 1737 08d4 01010000 		.4byte	0x101
 1738 08d8 00       		.byte	0
 1739 08d9 21       		.uleb128 0x21
 1740 08da 98010000 		.4byte	.LASF80
 1741 08de 0B       		.byte	0xb
 1742 08df 9C       		.byte	0x9c
 1743 08e0 22       		.uleb128 0x22
 1744 08e1 73030000 		.4byte	.LASF81
 1745 08e5 08       		.byte	0x8
 1746 08e6 3B       		.byte	0x3b
 1747 08e7 E0000000 		.4byte	0xe0
 1748 08eb FA080000 		.4byte	0x8fa
 1749 08ef 20       		.uleb128 0x20
 1750 08f0 BD080000 		.4byte	0x8bd
 1751 08f4 20       		.uleb128 0x20
 1752 08f5 F6000000 		.4byte	0xf6
 1753 08f9 00       		.byte	0
 1754 08fa 23       		.uleb128 0x23
 1755 08fb 22000000 		.4byte	.LASF82
 1756 08ff 08       		.byte	0x8
 1757 0900 3D       		.byte	0x3d
ARM GAS  /tmp/ccH3BRWG.s 			page 32


 1758 0901 20       		.uleb128 0x20
 1759 0902 BD080000 		.4byte	0x8bd
 1760 0906 00       		.byte	0
 1761 0907 00       		.byte	0
 1762              		.section	.debug_abbrev,"",%progbits
 1763              	.Ldebug_abbrev0:
 1764 0000 01       		.uleb128 0x1
 1765 0001 11       		.uleb128 0x11
 1766 0002 01       		.byte	0x1
 1767 0003 25       		.uleb128 0x25
 1768 0004 0E       		.uleb128 0xe
 1769 0005 13       		.uleb128 0x13
 1770 0006 0B       		.uleb128 0xb
 1771 0007 03       		.uleb128 0x3
 1772 0008 0E       		.uleb128 0xe
 1773 0009 1B       		.uleb128 0x1b
 1774 000a 0E       		.uleb128 0xe
 1775 000b 55       		.uleb128 0x55
 1776 000c 17       		.uleb128 0x17
 1777 000d 11       		.uleb128 0x11
 1778 000e 01       		.uleb128 0x1
 1779 000f 10       		.uleb128 0x10
 1780 0010 17       		.uleb128 0x17
 1781 0011 00       		.byte	0
 1782 0012 00       		.byte	0
 1783 0013 02       		.uleb128 0x2
 1784 0014 24       		.uleb128 0x24
 1785 0015 00       		.byte	0
 1786 0016 0B       		.uleb128 0xb
 1787 0017 0B       		.uleb128 0xb
 1788 0018 3E       		.uleb128 0x3e
 1789 0019 0B       		.uleb128 0xb
 1790 001a 03       		.uleb128 0x3
 1791 001b 08       		.uleb128 0x8
 1792 001c 00       		.byte	0
 1793 001d 00       		.byte	0
 1794 001e 03       		.uleb128 0x3
 1795 001f 24       		.uleb128 0x24
 1796 0020 00       		.byte	0
 1797 0021 0B       		.uleb128 0xb
 1798 0022 0B       		.uleb128 0xb
 1799 0023 3E       		.uleb128 0x3e
 1800 0024 0B       		.uleb128 0xb
 1801 0025 03       		.uleb128 0x3
 1802 0026 0E       		.uleb128 0xe
 1803 0027 00       		.byte	0
 1804 0028 00       		.byte	0
 1805 0029 04       		.uleb128 0x4
 1806 002a 16       		.uleb128 0x16
 1807 002b 00       		.byte	0
 1808 002c 03       		.uleb128 0x3
 1809 002d 0E       		.uleb128 0xe
 1810 002e 3A       		.uleb128 0x3a
 1811 002f 0B       		.uleb128 0xb
 1812 0030 3B       		.uleb128 0x3b
 1813 0031 0B       		.uleb128 0xb
 1814 0032 49       		.uleb128 0x49
ARM GAS  /tmp/ccH3BRWG.s 			page 33


 1815 0033 13       		.uleb128 0x13
 1816 0034 00       		.byte	0
 1817 0035 00       		.byte	0
 1818 0036 05       		.uleb128 0x5
 1819 0037 13       		.uleb128 0x13
 1820 0038 01       		.byte	0x1
 1821 0039 03       		.uleb128 0x3
 1822 003a 0E       		.uleb128 0xe
 1823 003b 0B       		.uleb128 0xb
 1824 003c 0B       		.uleb128 0xb
 1825 003d 3A       		.uleb128 0x3a
 1826 003e 0B       		.uleb128 0xb
 1827 003f 3B       		.uleb128 0x3b
 1828 0040 0B       		.uleb128 0xb
 1829 0041 01       		.uleb128 0x1
 1830 0042 13       		.uleb128 0x13
 1831 0043 00       		.byte	0
 1832 0044 00       		.byte	0
 1833 0045 06       		.uleb128 0x6
 1834 0046 0D       		.uleb128 0xd
 1835 0047 00       		.byte	0
 1836 0048 03       		.uleb128 0x3
 1837 0049 0E       		.uleb128 0xe
 1838 004a 3A       		.uleb128 0x3a
 1839 004b 0B       		.uleb128 0xb
 1840 004c 3B       		.uleb128 0x3b
 1841 004d 0B       		.uleb128 0xb
 1842 004e 49       		.uleb128 0x49
 1843 004f 13       		.uleb128 0x13
 1844 0050 38       		.uleb128 0x38
 1845 0051 0B       		.uleb128 0xb
 1846 0052 00       		.byte	0
 1847 0053 00       		.byte	0
 1848 0054 07       		.uleb128 0x7
 1849 0055 0D       		.uleb128 0xd
 1850 0056 00       		.byte	0
 1851 0057 03       		.uleb128 0x3
 1852 0058 08       		.uleb128 0x8
 1853 0059 3A       		.uleb128 0x3a
 1854 005a 0B       		.uleb128 0xb
 1855 005b 3B       		.uleb128 0x3b
 1856 005c 0B       		.uleb128 0xb
 1857 005d 49       		.uleb128 0x49
 1858 005e 13       		.uleb128 0x13
 1859 005f 38       		.uleb128 0x38
 1860 0060 0B       		.uleb128 0xb
 1861 0061 00       		.byte	0
 1862 0062 00       		.byte	0
 1863 0063 08       		.uleb128 0x8
 1864 0064 13       		.uleb128 0x13
 1865 0065 01       		.byte	0x1
 1866 0066 0B       		.uleb128 0xb
 1867 0067 0B       		.uleb128 0xb
 1868 0068 3A       		.uleb128 0x3a
 1869 0069 0B       		.uleb128 0xb
 1870 006a 3B       		.uleb128 0x3b
 1871 006b 0B       		.uleb128 0xb
ARM GAS  /tmp/ccH3BRWG.s 			page 34


 1872 006c 01       		.uleb128 0x1
 1873 006d 13       		.uleb128 0x13
 1874 006e 00       		.byte	0
 1875 006f 00       		.byte	0
 1876 0070 09       		.uleb128 0x9
 1877 0071 0F       		.uleb128 0xf
 1878 0072 00       		.byte	0
 1879 0073 0B       		.uleb128 0xb
 1880 0074 0B       		.uleb128 0xb
 1881 0075 49       		.uleb128 0x49
 1882 0076 13       		.uleb128 0x13
 1883 0077 00       		.byte	0
 1884 0078 00       		.byte	0
 1885 0079 0A       		.uleb128 0xa
 1886 007a 0F       		.uleb128 0xf
 1887 007b 00       		.byte	0
 1888 007c 0B       		.uleb128 0xb
 1889 007d 0B       		.uleb128 0xb
 1890 007e 00       		.byte	0
 1891 007f 00       		.byte	0
 1892 0080 0B       		.uleb128 0xb
 1893 0081 13       		.uleb128 0x13
 1894 0082 01       		.byte	0x1
 1895 0083 03       		.uleb128 0x3
 1896 0084 0E       		.uleb128 0xe
 1897 0085 0B       		.uleb128 0xb
 1898 0086 0B       		.uleb128 0xb
 1899 0087 3A       		.uleb128 0x3a
 1900 0088 0B       		.uleb128 0xb
 1901 0089 3B       		.uleb128 0x3b
 1902 008a 05       		.uleb128 0x5
 1903 008b 01       		.uleb128 0x1
 1904 008c 13       		.uleb128 0x13
 1905 008d 00       		.byte	0
 1906 008e 00       		.byte	0
 1907 008f 0C       		.uleb128 0xc
 1908 0090 0D       		.uleb128 0xd
 1909 0091 00       		.byte	0
 1910 0092 03       		.uleb128 0x3
 1911 0093 08       		.uleb128 0x8
 1912 0094 3A       		.uleb128 0x3a
 1913 0095 0B       		.uleb128 0xb
 1914 0096 3B       		.uleb128 0x3b
 1915 0097 05       		.uleb128 0x5
 1916 0098 49       		.uleb128 0x49
 1917 0099 13       		.uleb128 0x13
 1918 009a 38       		.uleb128 0x38
 1919 009b 0B       		.uleb128 0xb
 1920 009c 00       		.byte	0
 1921 009d 00       		.byte	0
 1922 009e 0D       		.uleb128 0xd
 1923 009f 17       		.uleb128 0x17
 1924 00a0 01       		.byte	0x1
 1925 00a1 0B       		.uleb128 0xb
 1926 00a2 0B       		.uleb128 0xb
 1927 00a3 3A       		.uleb128 0x3a
 1928 00a4 0B       		.uleb128 0xb
ARM GAS  /tmp/ccH3BRWG.s 			page 35


 1929 00a5 3B       		.uleb128 0x3b
 1930 00a6 0B       		.uleb128 0xb
 1931 00a7 01       		.uleb128 0x1
 1932 00a8 13       		.uleb128 0x13
 1933 00a9 00       		.byte	0
 1934 00aa 00       		.byte	0
 1935 00ab 0E       		.uleb128 0xe
 1936 00ac 0D       		.uleb128 0xd
 1937 00ad 00       		.byte	0
 1938 00ae 03       		.uleb128 0x3
 1939 00af 0E       		.uleb128 0xe
 1940 00b0 3A       		.uleb128 0x3a
 1941 00b1 0B       		.uleb128 0xb
 1942 00b2 3B       		.uleb128 0x3b
 1943 00b3 0B       		.uleb128 0xb
 1944 00b4 49       		.uleb128 0x49
 1945 00b5 13       		.uleb128 0x13
 1946 00b6 00       		.byte	0
 1947 00b7 00       		.byte	0
 1948 00b8 0F       		.uleb128 0xf
 1949 00b9 2E       		.uleb128 0x2e
 1950 00ba 01       		.byte	0x1
 1951 00bb 3F       		.uleb128 0x3f
 1952 00bc 19       		.uleb128 0x19
 1953 00bd 03       		.uleb128 0x3
 1954 00be 0E       		.uleb128 0xe
 1955 00bf 3A       		.uleb128 0x3a
 1956 00c0 0B       		.uleb128 0xb
 1957 00c1 3B       		.uleb128 0x3b
 1958 00c2 0B       		.uleb128 0xb
 1959 00c3 27       		.uleb128 0x27
 1960 00c4 19       		.uleb128 0x19
 1961 00c5 11       		.uleb128 0x11
 1962 00c6 01       		.uleb128 0x1
 1963 00c7 12       		.uleb128 0x12
 1964 00c8 06       		.uleb128 0x6
 1965 00c9 40       		.uleb128 0x40
 1966 00ca 18       		.uleb128 0x18
 1967 00cb 9742     		.uleb128 0x2117
 1968 00cd 19       		.uleb128 0x19
 1969 00ce 01       		.uleb128 0x1
 1970 00cf 13       		.uleb128 0x13
 1971 00d0 00       		.byte	0
 1972 00d1 00       		.byte	0
 1973 00d2 10       		.uleb128 0x10
 1974 00d3 05       		.uleb128 0x5
 1975 00d4 00       		.byte	0
 1976 00d5 03       		.uleb128 0x3
 1977 00d6 08       		.uleb128 0x8
 1978 00d7 3A       		.uleb128 0x3a
 1979 00d8 0B       		.uleb128 0xb
 1980 00d9 3B       		.uleb128 0x3b
 1981 00da 0B       		.uleb128 0xb
 1982 00db 49       		.uleb128 0x49
 1983 00dc 13       		.uleb128 0x13
 1984 00dd 02       		.uleb128 0x2
 1985 00de 17       		.uleb128 0x17
ARM GAS  /tmp/ccH3BRWG.s 			page 36


 1986 00df 00       		.byte	0
 1987 00e0 00       		.byte	0
 1988 00e1 11       		.uleb128 0x11
 1989 00e2 898201   		.uleb128 0x4109
 1990 00e5 01       		.byte	0x1
 1991 00e6 11       		.uleb128 0x11
 1992 00e7 01       		.uleb128 0x1
 1993 00e8 31       		.uleb128 0x31
 1994 00e9 13       		.uleb128 0x13
 1995 00ea 01       		.uleb128 0x1
 1996 00eb 13       		.uleb128 0x13
 1997 00ec 00       		.byte	0
 1998 00ed 00       		.byte	0
 1999 00ee 12       		.uleb128 0x12
 2000 00ef 8A8201   		.uleb128 0x410a
 2001 00f2 00       		.byte	0
 2002 00f3 02       		.uleb128 0x2
 2003 00f4 18       		.uleb128 0x18
 2004 00f5 9142     		.uleb128 0x2111
 2005 00f7 18       		.uleb128 0x18
 2006 00f8 00       		.byte	0
 2007 00f9 00       		.byte	0
 2008 00fa 13       		.uleb128 0x13
 2009 00fb 898201   		.uleb128 0x4109
 2010 00fe 01       		.byte	0x1
 2011 00ff 11       		.uleb128 0x11
 2012 0100 01       		.uleb128 0x1
 2013 0101 9542     		.uleb128 0x2115
 2014 0103 19       		.uleb128 0x19
 2015 0104 31       		.uleb128 0x31
 2016 0105 13       		.uleb128 0x13
 2017 0106 00       		.byte	0
 2018 0107 00       		.byte	0
 2019 0108 14       		.uleb128 0x14
 2020 0109 898201   		.uleb128 0x4109
 2021 010c 00       		.byte	0
 2022 010d 11       		.uleb128 0x11
 2023 010e 01       		.uleb128 0x1
 2024 010f 31       		.uleb128 0x31
 2025 0110 13       		.uleb128 0x13
 2026 0111 00       		.byte	0
 2027 0112 00       		.byte	0
 2028 0113 15       		.uleb128 0x15
 2029 0114 2E       		.uleb128 0x2e
 2030 0115 01       		.byte	0x1
 2031 0116 3F       		.uleb128 0x3f
 2032 0117 19       		.uleb128 0x19
 2033 0118 03       		.uleb128 0x3
 2034 0119 0E       		.uleb128 0xe
 2035 011a 3A       		.uleb128 0x3a
 2036 011b 0B       		.uleb128 0xb
 2037 011c 3B       		.uleb128 0x3b
 2038 011d 0B       		.uleb128 0xb
 2039 011e 27       		.uleb128 0x27
 2040 011f 19       		.uleb128 0x19
 2041 0120 49       		.uleb128 0x49
 2042 0121 13       		.uleb128 0x13
ARM GAS  /tmp/ccH3BRWG.s 			page 37


 2043 0122 11       		.uleb128 0x11
 2044 0123 01       		.uleb128 0x1
 2045 0124 12       		.uleb128 0x12
 2046 0125 06       		.uleb128 0x6
 2047 0126 40       		.uleb128 0x40
 2048 0127 18       		.uleb128 0x18
 2049 0128 9742     		.uleb128 0x2117
 2050 012a 19       		.uleb128 0x19
 2051 012b 01       		.uleb128 0x1
 2052 012c 13       		.uleb128 0x13
 2053 012d 00       		.byte	0
 2054 012e 00       		.byte	0
 2055 012f 16       		.uleb128 0x16
 2056 0130 05       		.uleb128 0x5
 2057 0131 00       		.byte	0
 2058 0132 03       		.uleb128 0x3
 2059 0133 0E       		.uleb128 0xe
 2060 0134 3A       		.uleb128 0x3a
 2061 0135 0B       		.uleb128 0xb
 2062 0136 3B       		.uleb128 0x3b
 2063 0137 0B       		.uleb128 0xb
 2064 0138 49       		.uleb128 0x49
 2065 0139 13       		.uleb128 0x13
 2066 013a 02       		.uleb128 0x2
 2067 013b 17       		.uleb128 0x17
 2068 013c 00       		.byte	0
 2069 013d 00       		.byte	0
 2070 013e 17       		.uleb128 0x17
 2071 013f 34       		.uleb128 0x34
 2072 0140 00       		.byte	0
 2073 0141 03       		.uleb128 0x3
 2074 0142 0E       		.uleb128 0xe
 2075 0143 3A       		.uleb128 0x3a
 2076 0144 0B       		.uleb128 0xb
 2077 0145 3B       		.uleb128 0x3b
 2078 0146 0B       		.uleb128 0xb
 2079 0147 49       		.uleb128 0x49
 2080 0148 13       		.uleb128 0x13
 2081 0149 02       		.uleb128 0x2
 2082 014a 17       		.uleb128 0x17
 2083 014b 00       		.byte	0
 2084 014c 00       		.byte	0
 2085 014d 18       		.uleb128 0x18
 2086 014e 34       		.uleb128 0x34
 2087 014f 00       		.byte	0
 2088 0150 03       		.uleb128 0x3
 2089 0151 0E       		.uleb128 0xe
 2090 0152 3A       		.uleb128 0x3a
 2091 0153 0B       		.uleb128 0xb
 2092 0154 3B       		.uleb128 0x3b
 2093 0155 0B       		.uleb128 0xb
 2094 0156 49       		.uleb128 0x49
 2095 0157 13       		.uleb128 0x13
 2096 0158 02       		.uleb128 0x2
 2097 0159 18       		.uleb128 0x18
 2098 015a 00       		.byte	0
 2099 015b 00       		.byte	0
ARM GAS  /tmp/ccH3BRWG.s 			page 38


 2100 015c 19       		.uleb128 0x19
 2101 015d 898201   		.uleb128 0x4109
 2102 0160 01       		.byte	0x1
 2103 0161 11       		.uleb128 0x11
 2104 0162 01       		.uleb128 0x1
 2105 0163 31       		.uleb128 0x31
 2106 0164 13       		.uleb128 0x13
 2107 0165 00       		.byte	0
 2108 0166 00       		.byte	0
 2109 0167 1A       		.uleb128 0x1a
 2110 0168 2E       		.uleb128 0x2e
 2111 0169 01       		.byte	0x1
 2112 016a 3F       		.uleb128 0x3f
 2113 016b 19       		.uleb128 0x19
 2114 016c 03       		.uleb128 0x3
 2115 016d 0E       		.uleb128 0xe
 2116 016e 3A       		.uleb128 0x3a
 2117 016f 0B       		.uleb128 0xb
 2118 0170 3B       		.uleb128 0x3b
 2119 0171 05       		.uleb128 0x5
 2120 0172 27       		.uleb128 0x27
 2121 0173 19       		.uleb128 0x19
 2122 0174 49       		.uleb128 0x49
 2123 0175 13       		.uleb128 0x13
 2124 0176 11       		.uleb128 0x11
 2125 0177 01       		.uleb128 0x1
 2126 0178 12       		.uleb128 0x12
 2127 0179 06       		.uleb128 0x6
 2128 017a 40       		.uleb128 0x40
 2129 017b 18       		.uleb128 0x18
 2130 017c 9742     		.uleb128 0x2117
 2131 017e 19       		.uleb128 0x19
 2132 017f 01       		.uleb128 0x1
 2133 0180 13       		.uleb128 0x13
 2134 0181 00       		.byte	0
 2135 0182 00       		.byte	0
 2136 0183 1B       		.uleb128 0x1b
 2137 0184 05       		.uleb128 0x5
 2138 0185 00       		.byte	0
 2139 0186 03       		.uleb128 0x3
 2140 0187 08       		.uleb128 0x8
 2141 0188 3A       		.uleb128 0x3a
 2142 0189 0B       		.uleb128 0xb
 2143 018a 3B       		.uleb128 0x3b
 2144 018b 05       		.uleb128 0x5
 2145 018c 49       		.uleb128 0x49
 2146 018d 13       		.uleb128 0x13
 2147 018e 02       		.uleb128 0x2
 2148 018f 17       		.uleb128 0x17
 2149 0190 00       		.byte	0
 2150 0191 00       		.byte	0
 2151 0192 1C       		.uleb128 0x1c
 2152 0193 05       		.uleb128 0x5
 2153 0194 00       		.byte	0
 2154 0195 03       		.uleb128 0x3
 2155 0196 0E       		.uleb128 0xe
 2156 0197 3A       		.uleb128 0x3a
ARM GAS  /tmp/ccH3BRWG.s 			page 39


 2157 0198 0B       		.uleb128 0xb
 2158 0199 3B       		.uleb128 0x3b
 2159 019a 05       		.uleb128 0x5
 2160 019b 49       		.uleb128 0x49
 2161 019c 13       		.uleb128 0x13
 2162 019d 02       		.uleb128 0x2
 2163 019e 17       		.uleb128 0x17
 2164 019f 00       		.byte	0
 2165 01a0 00       		.byte	0
 2166 01a1 1D       		.uleb128 0x1d
 2167 01a2 34       		.uleb128 0x34
 2168 01a3 00       		.byte	0
 2169 01a4 03       		.uleb128 0x3
 2170 01a5 0E       		.uleb128 0xe
 2171 01a6 3A       		.uleb128 0x3a
 2172 01a7 0B       		.uleb128 0xb
 2173 01a8 3B       		.uleb128 0x3b
 2174 01a9 05       		.uleb128 0x5
 2175 01aa 49       		.uleb128 0x49
 2176 01ab 13       		.uleb128 0x13
 2177 01ac 02       		.uleb128 0x2
 2178 01ad 17       		.uleb128 0x17
 2179 01ae 00       		.byte	0
 2180 01af 00       		.byte	0
 2181 01b0 1E       		.uleb128 0x1e
 2182 01b1 34       		.uleb128 0x34
 2183 01b2 00       		.byte	0
 2184 01b3 03       		.uleb128 0x3
 2185 01b4 0E       		.uleb128 0xe
 2186 01b5 3A       		.uleb128 0x3a
 2187 01b6 0B       		.uleb128 0xb
 2188 01b7 3B       		.uleb128 0x3b
 2189 01b8 05       		.uleb128 0x5
 2190 01b9 49       		.uleb128 0x49
 2191 01ba 13       		.uleb128 0x13
 2192 01bb 02       		.uleb128 0x2
 2193 01bc 18       		.uleb128 0x18
 2194 01bd 00       		.byte	0
 2195 01be 00       		.byte	0
 2196 01bf 1F       		.uleb128 0x1f
 2197 01c0 2E       		.uleb128 0x2e
 2198 01c1 01       		.byte	0x1
 2199 01c2 3F       		.uleb128 0x3f
 2200 01c3 19       		.uleb128 0x19
 2201 01c4 03       		.uleb128 0x3
 2202 01c5 0E       		.uleb128 0xe
 2203 01c6 3A       		.uleb128 0x3a
 2204 01c7 0B       		.uleb128 0xb
 2205 01c8 3B       		.uleb128 0x3b
 2206 01c9 0B       		.uleb128 0xb
 2207 01ca 27       		.uleb128 0x27
 2208 01cb 19       		.uleb128 0x19
 2209 01cc 3C       		.uleb128 0x3c
 2210 01cd 19       		.uleb128 0x19
 2211 01ce 01       		.uleb128 0x1
 2212 01cf 13       		.uleb128 0x13
 2213 01d0 00       		.byte	0
ARM GAS  /tmp/ccH3BRWG.s 			page 40


 2214 01d1 00       		.byte	0
 2215 01d2 20       		.uleb128 0x20
 2216 01d3 05       		.uleb128 0x5
 2217 01d4 00       		.byte	0
 2218 01d5 49       		.uleb128 0x49
 2219 01d6 13       		.uleb128 0x13
 2220 01d7 00       		.byte	0
 2221 01d8 00       		.byte	0
 2222 01d9 21       		.uleb128 0x21
 2223 01da 2E       		.uleb128 0x2e
 2224 01db 00       		.byte	0
 2225 01dc 3F       		.uleb128 0x3f
 2226 01dd 19       		.uleb128 0x19
 2227 01de 03       		.uleb128 0x3
 2228 01df 0E       		.uleb128 0xe
 2229 01e0 3A       		.uleb128 0x3a
 2230 01e1 0B       		.uleb128 0xb
 2231 01e2 3B       		.uleb128 0x3b
 2232 01e3 0B       		.uleb128 0xb
 2233 01e4 27       		.uleb128 0x27
 2234 01e5 19       		.uleb128 0x19
 2235 01e6 3C       		.uleb128 0x3c
 2236 01e7 19       		.uleb128 0x19
 2237 01e8 00       		.byte	0
 2238 01e9 00       		.byte	0
 2239 01ea 22       		.uleb128 0x22
 2240 01eb 2E       		.uleb128 0x2e
 2241 01ec 01       		.byte	0x1
 2242 01ed 3F       		.uleb128 0x3f
 2243 01ee 19       		.uleb128 0x19
 2244 01ef 03       		.uleb128 0x3
 2245 01f0 0E       		.uleb128 0xe
 2246 01f1 3A       		.uleb128 0x3a
 2247 01f2 0B       		.uleb128 0xb
 2248 01f3 3B       		.uleb128 0x3b
 2249 01f4 0B       		.uleb128 0xb
 2250 01f5 27       		.uleb128 0x27
 2251 01f6 19       		.uleb128 0x19
 2252 01f7 49       		.uleb128 0x49
 2253 01f8 13       		.uleb128 0x13
 2254 01f9 3C       		.uleb128 0x3c
 2255 01fa 19       		.uleb128 0x19
 2256 01fb 01       		.uleb128 0x1
 2257 01fc 13       		.uleb128 0x13
 2258 01fd 00       		.byte	0
 2259 01fe 00       		.byte	0
 2260 01ff 23       		.uleb128 0x23
 2261 0200 2E       		.uleb128 0x2e
 2262 0201 01       		.byte	0x1
 2263 0202 3F       		.uleb128 0x3f
 2264 0203 19       		.uleb128 0x19
 2265 0204 03       		.uleb128 0x3
 2266 0205 0E       		.uleb128 0xe
 2267 0206 3A       		.uleb128 0x3a
 2268 0207 0B       		.uleb128 0xb
 2269 0208 3B       		.uleb128 0x3b
 2270 0209 0B       		.uleb128 0xb
ARM GAS  /tmp/ccH3BRWG.s 			page 41


 2271 020a 27       		.uleb128 0x27
 2272 020b 19       		.uleb128 0x19
 2273 020c 3C       		.uleb128 0x3c
 2274 020d 19       		.uleb128 0x19
 2275 020e 00       		.byte	0
 2276 020f 00       		.byte	0
 2277 0210 00       		.byte	0
 2278              		.section	.debug_loc,"",%progbits
 2279              	.Ldebug_loc0:
 2280              	.LLST0:
 2281 0000 00000000 		.4byte	.LVL0
 2282 0004 16000000 		.4byte	.LVL2
 2283 0008 0100     		.2byte	0x1
 2284 000a 50       		.byte	0x50
 2285 000b 16000000 		.4byte	.LVL2
 2286 000f 24000000 		.4byte	.LVL4
 2287 0013 0100     		.2byte	0x1
 2288 0015 54       		.byte	0x54
 2289 0016 24000000 		.4byte	.LVL4
 2290 001a 27000000 		.4byte	.LVL5-1
 2291 001e 0300     		.2byte	0x3
 2292 0020 70       		.byte	0x70
 2293 0021 70       		.sleb128 -16
 2294 0022 9F       		.byte	0x9f
 2295 0023 27000000 		.4byte	.LVL5-1
 2296 0027 28000000 		.4byte	.LFE0
 2297 002b 0400     		.2byte	0x4
 2298 002d F3       		.byte	0xf3
 2299 002e 01       		.uleb128 0x1
 2300 002f 50       		.byte	0x50
 2301 0030 9F       		.byte	0x9f
 2302 0031 00000000 		.4byte	0
 2303 0035 00000000 		.4byte	0
 2304              	.LLST1:
 2305 0039 00000000 		.4byte	.LVL0
 2306 003d 08000000 		.4byte	.LVL1
 2307 0041 0100     		.2byte	0x1
 2308 0043 51       		.byte	0x51
 2309 0044 08000000 		.4byte	.LVL1
 2310 0048 19000000 		.4byte	.LVL3-1
 2311 004c 0100     		.2byte	0x1
 2312 004e 53       		.byte	0x53
 2313 004f 19000000 		.4byte	.LVL3-1
 2314 0053 28000000 		.4byte	.LFE0
 2315 0057 0400     		.2byte	0x4
 2316 0059 F3       		.byte	0xf3
 2317 005a 01       		.uleb128 0x1
 2318 005b 51       		.byte	0x51
 2319 005c 9F       		.byte	0x9f
 2320 005d 00000000 		.4byte	0
 2321 0061 00000000 		.4byte	0
 2322              	.LLST2:
 2323 0065 00000000 		.4byte	.LVL0
 2324 0069 19000000 		.4byte	.LVL3-1
 2325 006d 0100     		.2byte	0x1
 2326 006f 52       		.byte	0x52
 2327 0070 19000000 		.4byte	.LVL3-1
ARM GAS  /tmp/ccH3BRWG.s 			page 42


 2328 0074 28000000 		.4byte	.LFE0
 2329 0078 0400     		.2byte	0x4
 2330 007a F3       		.byte	0xf3
 2331 007b 01       		.uleb128 0x1
 2332 007c 52       		.byte	0x52
 2333 007d 9F       		.byte	0x9f
 2334 007e 00000000 		.4byte	0
 2335 0082 00000000 		.4byte	0
 2336              	.LLST3:
 2337 0086 00000000 		.4byte	.LVL6
 2338 008a 16000000 		.4byte	.LVL7
 2339 008e 0100     		.2byte	0x1
 2340 0090 50       		.byte	0x50
 2341 0091 16000000 		.4byte	.LVL7
 2342 0095 2E000000 		.4byte	.LFE1
 2343 0099 0100     		.2byte	0x1
 2344 009b 54       		.byte	0x54
 2345 009c 00000000 		.4byte	0
 2346 00a0 00000000 		.4byte	0
 2347              	.LLST4:
 2348 00a4 00000000 		.4byte	.LVL11
 2349 00a8 08000000 		.4byte	.LVL12
 2350 00ac 0100     		.2byte	0x1
 2351 00ae 50       		.byte	0x50
 2352 00af 08000000 		.4byte	.LVL12
 2353 00b3 36000000 		.4byte	.LFE3
 2354 00b7 0100     		.2byte	0x1
 2355 00b9 54       		.byte	0x54
 2356 00ba 00000000 		.4byte	0
 2357 00be 00000000 		.4byte	0
 2358              	.LLST5:
 2359 00c2 00000000 		.4byte	.LVL11
 2360 00c6 0A000000 		.4byte	.LVL13
 2361 00ca 0100     		.2byte	0x1
 2362 00cc 51       		.byte	0x51
 2363 00cd 0A000000 		.4byte	.LVL13
 2364 00d1 36000000 		.4byte	.LFE3
 2365 00d5 0100     		.2byte	0x1
 2366 00d7 56       		.byte	0x56
 2367 00d8 00000000 		.4byte	0
 2368 00dc 00000000 		.4byte	0
 2369              	.LLST6:
 2370 00e0 00000000 		.4byte	.LVL11
 2371 00e4 0D000000 		.4byte	.LVL14-1
 2372 00e8 0100     		.2byte	0x1
 2373 00ea 52       		.byte	0x52
 2374 00eb 0D000000 		.4byte	.LVL14-1
 2375 00ef 36000000 		.4byte	.LFE3
 2376 00f3 0400     		.2byte	0x4
 2377 00f5 F3       		.byte	0xf3
 2378 00f6 01       		.uleb128 0x1
 2379 00f7 52       		.byte	0x52
 2380 00f8 9F       		.byte	0x9f
 2381 00f9 00000000 		.4byte	0
 2382 00fd 00000000 		.4byte	0
 2383              	.LLST7:
 2384 0101 0E000000 		.4byte	.LVL14
ARM GAS  /tmp/ccH3BRWG.s 			page 43


 2385 0105 18000000 		.4byte	.LVL15
 2386 0109 0100     		.2byte	0x1
 2387 010b 50       		.byte	0x50
 2388 010c 18000000 		.4byte	.LVL15
 2389 0110 36000000 		.4byte	.LFE3
 2390 0114 0100     		.2byte	0x1
 2391 0116 55       		.byte	0x55
 2392 0117 00000000 		.4byte	0
 2393 011b 00000000 		.4byte	0
 2394              	.LLST8:
 2395 011f 00000000 		.4byte	.LVL18
 2396 0123 09000000 		.4byte	.LVL19-1
 2397 0127 0100     		.2byte	0x1
 2398 0129 50       		.byte	0x50
 2399 012a 09000000 		.4byte	.LVL19-1
 2400 012e 10000000 		.4byte	.LFE2
 2401 0132 0400     		.2byte	0x4
 2402 0134 F3       		.byte	0xf3
 2403 0135 01       		.uleb128 0x1
 2404 0136 50       		.byte	0x50
 2405 0137 9F       		.byte	0x9f
 2406 0138 00000000 		.4byte	0
 2407 013c 00000000 		.4byte	0
 2408              	.LLST9:
 2409 0140 00000000 		.4byte	.LVL18
 2410 0144 09000000 		.4byte	.LVL19-1
 2411 0148 0100     		.2byte	0x1
 2412 014a 51       		.byte	0x51
 2413 014b 09000000 		.4byte	.LVL19-1
 2414 014f 10000000 		.4byte	.LFE2
 2415 0153 0400     		.2byte	0x4
 2416 0155 F3       		.byte	0xf3
 2417 0156 01       		.uleb128 0x1
 2418 0157 51       		.byte	0x51
 2419 0158 9F       		.byte	0x9f
 2420 0159 00000000 		.4byte	0
 2421 015d 00000000 		.4byte	0
 2422              	.LLST10:
 2423 0161 00000000 		.4byte	.LVL18
 2424 0165 09000000 		.4byte	.LVL19-1
 2425 0169 0100     		.2byte	0x1
 2426 016b 52       		.byte	0x52
 2427 016c 09000000 		.4byte	.LVL19-1
 2428 0170 10000000 		.4byte	.LFE2
 2429 0174 0400     		.2byte	0x4
 2430 0176 F3       		.byte	0xf3
 2431 0177 01       		.uleb128 0x1
 2432 0178 52       		.byte	0x52
 2433 0179 9F       		.byte	0x9f
 2434 017a 00000000 		.4byte	0
 2435 017e 00000000 		.4byte	0
 2436              	.LLST11:
 2437 0182 00000000 		.4byte	.LVL20
 2438 0186 1A000000 		.4byte	.LVL21
 2439 018a 0100     		.2byte	0x1
 2440 018c 50       		.byte	0x50
 2441 018d 1A000000 		.4byte	.LVL21
ARM GAS  /tmp/ccH3BRWG.s 			page 44


 2442 0191 29000000 		.4byte	.LVL22-1
 2443 0195 0300     		.2byte	0x3
 2444 0197 70       		.byte	0x70
 2445 0198 70       		.sleb128 -16
 2446 0199 9F       		.byte	0x9f
 2447 019a 29000000 		.4byte	.LVL22-1
 2448 019e 2E000000 		.4byte	.LVL23
 2449 01a2 0400     		.2byte	0x4
 2450 01a4 F3       		.byte	0xf3
 2451 01a5 01       		.uleb128 0x1
 2452 01a6 50       		.byte	0x50
 2453 01a7 9F       		.byte	0x9f
 2454 01a8 2E000000 		.4byte	.LVL23
 2455 01ac 32000000 		.4byte	.LVL24
 2456 01b0 0100     		.2byte	0x1
 2457 01b2 50       		.byte	0x50
 2458 01b3 32000000 		.4byte	.LVL24
 2459 01b7 34000000 		.4byte	.LFE4
 2460 01bb 0400     		.2byte	0x4
 2461 01bd F3       		.byte	0xf3
 2462 01be 01       		.uleb128 0x1
 2463 01bf 50       		.byte	0x50
 2464 01c0 9F       		.byte	0x9f
 2465 01c1 00000000 		.4byte	0
 2466 01c5 00000000 		.4byte	0
 2467              	.LLST12:
 2468 01c9 00000000 		.4byte	.LVL20
 2469 01cd 29000000 		.4byte	.LVL22-1
 2470 01d1 0100     		.2byte	0x1
 2471 01d3 51       		.byte	0x51
 2472 01d4 29000000 		.4byte	.LVL22-1
 2473 01d8 2E000000 		.4byte	.LVL23
 2474 01dc 0400     		.2byte	0x4
 2475 01de F3       		.byte	0xf3
 2476 01df 01       		.uleb128 0x1
 2477 01e0 51       		.byte	0x51
 2478 01e1 9F       		.byte	0x9f
 2479 01e2 2E000000 		.4byte	.LVL23
 2480 01e6 34000000 		.4byte	.LFE4
 2481 01ea 0100     		.2byte	0x1
 2482 01ec 51       		.byte	0x51
 2483 01ed 00000000 		.4byte	0
 2484 01f1 00000000 		.4byte	0
 2485              	.LLST13:
 2486 01f5 00000000 		.4byte	.LVL25
 2487 01f9 08000000 		.4byte	.LVL26
 2488 01fd 0100     		.2byte	0x1
 2489 01ff 50       		.byte	0x50
 2490 0200 08000000 		.4byte	.LVL26
 2491 0204 38000000 		.4byte	.LFE6
 2492 0208 0100     		.2byte	0x1
 2493 020a 54       		.byte	0x54
 2494 020b 00000000 		.4byte	0
 2495 020f 00000000 		.4byte	0
 2496              	.LLST14:
 2497 0213 00000000 		.4byte	.LVL25
 2498 0217 0A000000 		.4byte	.LVL27
ARM GAS  /tmp/ccH3BRWG.s 			page 45


 2499 021b 0100     		.2byte	0x1
 2500 021d 51       		.byte	0x51
 2501 021e 0A000000 		.4byte	.LVL27
 2502 0222 38000000 		.4byte	.LFE6
 2503 0226 0100     		.2byte	0x1
 2504 0228 56       		.byte	0x56
 2505 0229 00000000 		.4byte	0
 2506 022d 00000000 		.4byte	0
 2507              	.LLST15:
 2508 0231 00000000 		.4byte	.LVL25
 2509 0235 0D000000 		.4byte	.LVL28-1
 2510 0239 0100     		.2byte	0x1
 2511 023b 52       		.byte	0x52
 2512 023c 0D000000 		.4byte	.LVL28-1
 2513 0240 38000000 		.4byte	.LFE6
 2514 0244 0400     		.2byte	0x4
 2515 0246 F3       		.byte	0xf3
 2516 0247 01       		.uleb128 0x1
 2517 0248 52       		.byte	0x52
 2518 0249 9F       		.byte	0x9f
 2519 024a 00000000 		.4byte	0
 2520 024e 00000000 		.4byte	0
 2521              	.LLST16:
 2522 0252 0E000000 		.4byte	.LVL28
 2523 0256 24000000 		.4byte	.LVL29
 2524 025a 0100     		.2byte	0x1
 2525 025c 50       		.byte	0x50
 2526 025d 24000000 		.4byte	.LVL29
 2527 0261 38000000 		.4byte	.LFE6
 2528 0265 0100     		.2byte	0x1
 2529 0267 55       		.byte	0x55
 2530 0268 00000000 		.4byte	0
 2531 026c 00000000 		.4byte	0
 2532              	.LLST17:
 2533 0270 00000000 		.4byte	.LVL32
 2534 0274 09000000 		.4byte	.LVL33-1
 2535 0278 0100     		.2byte	0x1
 2536 027a 50       		.byte	0x50
 2537 027b 09000000 		.4byte	.LVL33-1
 2538 027f 10000000 		.4byte	.LFE5
 2539 0283 0400     		.2byte	0x4
 2540 0285 F3       		.byte	0xf3
 2541 0286 01       		.uleb128 0x1
 2542 0287 50       		.byte	0x50
 2543 0288 9F       		.byte	0x9f
 2544 0289 00000000 		.4byte	0
 2545 028d 00000000 		.4byte	0
 2546              	.LLST18:
 2547 0291 00000000 		.4byte	.LVL32
 2548 0295 09000000 		.4byte	.LVL33-1
 2549 0299 0100     		.2byte	0x1
 2550 029b 51       		.byte	0x51
 2551 029c 09000000 		.4byte	.LVL33-1
 2552 02a0 10000000 		.4byte	.LFE5
 2553 02a4 0400     		.2byte	0x4
 2554 02a6 F3       		.byte	0xf3
 2555 02a7 01       		.uleb128 0x1
ARM GAS  /tmp/ccH3BRWG.s 			page 46


 2556 02a8 51       		.byte	0x51
 2557 02a9 9F       		.byte	0x9f
 2558 02aa 00000000 		.4byte	0
 2559 02ae 00000000 		.4byte	0
 2560              	.LLST19:
 2561 02b2 00000000 		.4byte	.LVL32
 2562 02b6 09000000 		.4byte	.LVL33-1
 2563 02ba 0100     		.2byte	0x1
 2564 02bc 52       		.byte	0x52
 2565 02bd 09000000 		.4byte	.LVL33-1
 2566 02c1 10000000 		.4byte	.LFE5
 2567 02c5 0400     		.2byte	0x4
 2568 02c7 F3       		.byte	0xf3
 2569 02c8 01       		.uleb128 0x1
 2570 02c9 52       		.byte	0x52
 2571 02ca 9F       		.byte	0x9f
 2572 02cb 00000000 		.4byte	0
 2573 02cf 00000000 		.4byte	0
 2574              	.LLST20:
 2575 02d3 00000000 		.4byte	.LVL34
 2576 02d7 28000000 		.4byte	.LVL35
 2577 02db 0100     		.2byte	0x1
 2578 02dd 50       		.byte	0x50
 2579 02de 28000000 		.4byte	.LVL35
 2580 02e2 2B000000 		.4byte	.LVL36-1
 2581 02e6 0300     		.2byte	0x3
 2582 02e8 70       		.byte	0x70
 2583 02e9 70       		.sleb128 -16
 2584 02ea 9F       		.byte	0x9f
 2585 02eb 2B000000 		.4byte	.LVL36-1
 2586 02ef 30000000 		.4byte	.LVL37
 2587 02f3 0400     		.2byte	0x4
 2588 02f5 F3       		.byte	0xf3
 2589 02f6 01       		.uleb128 0x1
 2590 02f7 50       		.byte	0x50
 2591 02f8 9F       		.byte	0x9f
 2592 02f9 30000000 		.4byte	.LVL37
 2593 02fd 34000000 		.4byte	.LVL38
 2594 0301 0100     		.2byte	0x1
 2595 0303 50       		.byte	0x50
 2596 0304 34000000 		.4byte	.LVL38
 2597 0308 36000000 		.4byte	.LFE7
 2598 030c 0400     		.2byte	0x4
 2599 030e F3       		.byte	0xf3
 2600 030f 01       		.uleb128 0x1
 2601 0310 50       		.byte	0x50
 2602 0311 9F       		.byte	0x9f
 2603 0312 00000000 		.4byte	0
 2604 0316 00000000 		.4byte	0
 2605              	.LLST21:
 2606 031a 00000000 		.4byte	.LVL34
 2607 031e 2B000000 		.4byte	.LVL36-1
 2608 0322 0100     		.2byte	0x1
 2609 0324 51       		.byte	0x51
 2610 0325 2B000000 		.4byte	.LVL36-1
 2611 0329 30000000 		.4byte	.LVL37
 2612 032d 0400     		.2byte	0x4
ARM GAS  /tmp/ccH3BRWG.s 			page 47


 2613 032f F3       		.byte	0xf3
 2614 0330 01       		.uleb128 0x1
 2615 0331 51       		.byte	0x51
 2616 0332 9F       		.byte	0x9f
 2617 0333 30000000 		.4byte	.LVL37
 2618 0337 36000000 		.4byte	.LFE7
 2619 033b 0100     		.2byte	0x1
 2620 033d 51       		.byte	0x51
 2621 033e 00000000 		.4byte	0
 2622 0342 00000000 		.4byte	0
 2623              	.LLST22:
 2624 0346 00000000 		.4byte	.LVL39
 2625 034a 08000000 		.4byte	.LVL40
 2626 034e 0100     		.2byte	0x1
 2627 0350 50       		.byte	0x50
 2628 0351 08000000 		.4byte	.LVL40
 2629 0355 38000000 		.4byte	.LFE9
 2630 0359 0100     		.2byte	0x1
 2631 035b 54       		.byte	0x54
 2632 035c 00000000 		.4byte	0
 2633 0360 00000000 		.4byte	0
 2634              	.LLST23:
 2635 0364 00000000 		.4byte	.LVL39
 2636 0368 0A000000 		.4byte	.LVL41
 2637 036c 0100     		.2byte	0x1
 2638 036e 51       		.byte	0x51
 2639 036f 0A000000 		.4byte	.LVL41
 2640 0373 38000000 		.4byte	.LFE9
 2641 0377 0100     		.2byte	0x1
 2642 0379 56       		.byte	0x56
 2643 037a 00000000 		.4byte	0
 2644 037e 00000000 		.4byte	0
 2645              	.LLST24:
 2646 0382 00000000 		.4byte	.LVL39
 2647 0386 0D000000 		.4byte	.LVL42-1
 2648 038a 0100     		.2byte	0x1
 2649 038c 52       		.byte	0x52
 2650 038d 0D000000 		.4byte	.LVL42-1
 2651 0391 38000000 		.4byte	.LFE9
 2652 0395 0400     		.2byte	0x4
 2653 0397 F3       		.byte	0xf3
 2654 0398 01       		.uleb128 0x1
 2655 0399 52       		.byte	0x52
 2656 039a 9F       		.byte	0x9f
 2657 039b 00000000 		.4byte	0
 2658 039f 00000000 		.4byte	0
 2659              	.LLST25:
 2660 03a3 0E000000 		.4byte	.LVL42
 2661 03a7 18000000 		.4byte	.LVL43
 2662 03ab 0100     		.2byte	0x1
 2663 03ad 50       		.byte	0x50
 2664 03ae 18000000 		.4byte	.LVL43
 2665 03b2 38000000 		.4byte	.LFE9
 2666 03b6 0100     		.2byte	0x1
 2667 03b8 55       		.byte	0x55
 2668 03b9 00000000 		.4byte	0
 2669 03bd 00000000 		.4byte	0
ARM GAS  /tmp/ccH3BRWG.s 			page 48


 2670              	.LLST26:
 2671 03c1 00000000 		.4byte	.LVL46
 2672 03c5 09000000 		.4byte	.LVL47-1
 2673 03c9 0100     		.2byte	0x1
 2674 03cb 50       		.byte	0x50
 2675 03cc 09000000 		.4byte	.LVL47-1
 2676 03d0 10000000 		.4byte	.LFE8
 2677 03d4 0400     		.2byte	0x4
 2678 03d6 F3       		.byte	0xf3
 2679 03d7 01       		.uleb128 0x1
 2680 03d8 50       		.byte	0x50
 2681 03d9 9F       		.byte	0x9f
 2682 03da 00000000 		.4byte	0
 2683 03de 00000000 		.4byte	0
 2684              	.LLST27:
 2685 03e2 00000000 		.4byte	.LVL46
 2686 03e6 09000000 		.4byte	.LVL47-1
 2687 03ea 0100     		.2byte	0x1
 2688 03ec 51       		.byte	0x51
 2689 03ed 09000000 		.4byte	.LVL47-1
 2690 03f1 10000000 		.4byte	.LFE8
 2691 03f5 0400     		.2byte	0x4
 2692 03f7 F3       		.byte	0xf3
 2693 03f8 01       		.uleb128 0x1
 2694 03f9 51       		.byte	0x51
 2695 03fa 9F       		.byte	0x9f
 2696 03fb 00000000 		.4byte	0
 2697 03ff 00000000 		.4byte	0
 2698              	.LLST28:
 2699 0403 00000000 		.4byte	.LVL46
 2700 0407 09000000 		.4byte	.LVL47-1
 2701 040b 0100     		.2byte	0x1
 2702 040d 52       		.byte	0x52
 2703 040e 09000000 		.4byte	.LVL47-1
 2704 0412 10000000 		.4byte	.LFE8
 2705 0416 0400     		.2byte	0x4
 2706 0418 F3       		.byte	0xf3
 2707 0419 01       		.uleb128 0x1
 2708 041a 52       		.byte	0x52
 2709 041b 9F       		.byte	0x9f
 2710 041c 00000000 		.4byte	0
 2711 0420 00000000 		.4byte	0
 2712              	.LLST29:
 2713 0424 00000000 		.4byte	.LVL48
 2714 0428 16000000 		.4byte	.LVL49
 2715 042c 0100     		.2byte	0x1
 2716 042e 50       		.byte	0x50
 2717 042f 16000000 		.4byte	.LVL49
 2718 0433 2F000000 		.4byte	.LVL50-1
 2719 0437 0300     		.2byte	0x3
 2720 0439 70       		.byte	0x70
 2721 043a 64       		.sleb128 -28
 2722 043b 9F       		.byte	0x9f
 2723 043c 2F000000 		.4byte	.LVL50-1
 2724 0440 34000000 		.4byte	.LVL51
 2725 0444 0400     		.2byte	0x4
 2726 0446 F3       		.byte	0xf3
ARM GAS  /tmp/ccH3BRWG.s 			page 49


 2727 0447 01       		.uleb128 0x1
 2728 0448 50       		.byte	0x50
 2729 0449 9F       		.byte	0x9f
 2730 044a 34000000 		.4byte	.LVL51
 2731 044e 38000000 		.4byte	.LVL52
 2732 0452 0100     		.2byte	0x1
 2733 0454 50       		.byte	0x50
 2734 0455 38000000 		.4byte	.LVL52
 2735 0459 3A000000 		.4byte	.LFE10
 2736 045d 0400     		.2byte	0x4
 2737 045f F3       		.byte	0xf3
 2738 0460 01       		.uleb128 0x1
 2739 0461 50       		.byte	0x50
 2740 0462 9F       		.byte	0x9f
 2741 0463 00000000 		.4byte	0
 2742 0467 00000000 		.4byte	0
 2743              	.LLST30:
 2744 046b 00000000 		.4byte	.LVL48
 2745 046f 2F000000 		.4byte	.LVL50-1
 2746 0473 0100     		.2byte	0x1
 2747 0475 51       		.byte	0x51
 2748 0476 2F000000 		.4byte	.LVL50-1
 2749 047a 34000000 		.4byte	.LVL51
 2750 047e 0400     		.2byte	0x4
 2751 0480 F3       		.byte	0xf3
 2752 0481 01       		.uleb128 0x1
 2753 0482 51       		.byte	0x51
 2754 0483 9F       		.byte	0x9f
 2755 0484 34000000 		.4byte	.LVL51
 2756 0488 3A000000 		.4byte	.LFE10
 2757 048c 0100     		.2byte	0x1
 2758 048e 51       		.byte	0x51
 2759 048f 00000000 		.4byte	0
 2760 0493 00000000 		.4byte	0
 2761              		.section	.debug_aranges,"",%progbits
 2762 0000 6C000000 		.4byte	0x6c
 2763 0004 0200     		.2byte	0x2
 2764 0006 00000000 		.4byte	.Ldebug_info0
 2765 000a 04       		.byte	0x4
 2766 000b 00       		.byte	0
 2767 000c 0000     		.2byte	0
 2768 000e 0000     		.2byte	0
 2769 0010 00000000 		.4byte	.LFB0
 2770 0014 28000000 		.4byte	.LFE0-.LFB0
 2771 0018 00000000 		.4byte	.LFB1
 2772 001c 2E000000 		.4byte	.LFE1-.LFB1
 2773 0020 00000000 		.4byte	.LFB3
 2774 0024 36000000 		.4byte	.LFE3-.LFB3
 2775 0028 00000000 		.4byte	.LFB2
 2776 002c 10000000 		.4byte	.LFE2-.LFB2
 2777 0030 00000000 		.4byte	.LFB4
 2778 0034 34000000 		.4byte	.LFE4-.LFB4
 2779 0038 00000000 		.4byte	.LFB6
 2780 003c 38000000 		.4byte	.LFE6-.LFB6
 2781 0040 00000000 		.4byte	.LFB5
 2782 0044 10000000 		.4byte	.LFE5-.LFB5
 2783 0048 00000000 		.4byte	.LFB7
ARM GAS  /tmp/ccH3BRWG.s 			page 50


 2784 004c 36000000 		.4byte	.LFE7-.LFB7
 2785 0050 00000000 		.4byte	.LFB9
 2786 0054 38000000 		.4byte	.LFE9-.LFB9
 2787 0058 00000000 		.4byte	.LFB8
 2788 005c 10000000 		.4byte	.LFE8-.LFB8
 2789 0060 00000000 		.4byte	.LFB10
 2790 0064 3A000000 		.4byte	.LFE10-.LFB10
 2791 0068 00000000 		.4byte	0
 2792 006c 00000000 		.4byte	0
 2793              		.section	.debug_ranges,"",%progbits
 2794              	.Ldebug_ranges0:
 2795 0000 00000000 		.4byte	.LFB0
 2796 0004 28000000 		.4byte	.LFE0
 2797 0008 00000000 		.4byte	.LFB1
 2798 000c 2E000000 		.4byte	.LFE1
 2799 0010 00000000 		.4byte	.LFB3
 2800 0014 36000000 		.4byte	.LFE3
 2801 0018 00000000 		.4byte	.LFB2
 2802 001c 10000000 		.4byte	.LFE2
 2803 0020 00000000 		.4byte	.LFB4
 2804 0024 34000000 		.4byte	.LFE4
 2805 0028 00000000 		.4byte	.LFB6
 2806 002c 38000000 		.4byte	.LFE6
 2807 0030 00000000 		.4byte	.LFB5
 2808 0034 10000000 		.4byte	.LFE5
 2809 0038 00000000 		.4byte	.LFB7
 2810 003c 36000000 		.4byte	.LFE7
 2811 0040 00000000 		.4byte	.LFB9
 2812 0044 38000000 		.4byte	.LFE9
 2813 0048 00000000 		.4byte	.LFB8
 2814 004c 10000000 		.4byte	.LFE8
 2815 0050 00000000 		.4byte	.LFB10
 2816 0054 3A000000 		.4byte	.LFE10
 2817 0058 00000000 		.4byte	0
 2818 005c 00000000 		.4byte	0
 2819              		.section	.debug_line,"",%progbits
 2820              	.Ldebug_line0:
 2821 0000 3B020000 		.section	.debug_str,"MS",%progbits,1
 2821      02001701 
 2821      00000201 
 2821      FB0E0D00 
 2821      01010101 
 2822              	.LASF34:
 2823 0000 705F6D73 		.ascii	"p_msg\000"
 2823      6700
 2824              	.LASF78:
 2825 0006 2E2E2F6F 		.ascii	"../os/kernel/src/chmboxes.c\000"
 2825      732F6B65 
 2825      726E656C 
 2825      2F737263 
 2825      2F63686D 
 2826              	.LASF82:
 2827 0022 63685365 		.ascii	"chSemSignalI\000"
 2827      6D536967 
 2827      6E616C49 
 2827      00
 2828              	.LASF58:
ARM GAS  /tmp/ccH3BRWG.s 			page 51


 2829 002f 7264796D 		.ascii	"rdymsg\000"
 2829      736700
 2830              	.LASF5:
 2831 0036 5F5F7569 		.ascii	"__uint8_t\000"
 2831      6E74385F 
 2831      7400
 2832              	.LASF77:
 2833 0040 474E5520 		.ascii	"GNU C 4.8.2 -mcpu=cortex-m3 -mno-thumb-interwork -m"
 2833      4320342E 
 2833      382E3220 
 2833      2D6D6370 
 2833      753D636F 
 2834 0073 7468756D 		.ascii	"thumb -ggdb -O2 -fomit-frame-pointer -falign-functi"
 2834      62202D67 
 2834      67646220 
 2834      2D4F3220 
 2834      2D666F6D 
 2835 00a6 6F6E733D 		.ascii	"ons=16 -ffunction-sections -fdata-sections -fno-com"
 2835      3136202D 
 2835      6666756E 
 2835      6374696F 
 2835      6E2D7365 
 2836 00d9 6D6F6E20 		.ascii	"mon -fno-strict-aliasing\000"
 2836      2D666E6F 
 2836      2D737472 
 2836      6963742D 
 2836      616C6961 
 2837              	.LASF65:
 2838 00f2 63684D42 		.ascii	"chMBPostS\000"
 2838      506F7374 
 2838      5300
 2839              	.LASF57:
 2840 00fc 4D61696C 		.ascii	"Mailbox\000"
 2840      626F7800 
 2841              	.LASF70:
 2842 0104 63684D42 		.ascii	"chMBPostAheadI\000"
 2842      506F7374 
 2842      41686561 
 2842      644900
 2843              	.LASF11:
 2844 0113 6C6F6E67 		.ascii	"long long unsigned int\000"
 2844      206C6F6E 
 2844      6720756E 
 2844      7369676E 
 2844      65642069 
 2845              	.LASF59:
 2846 012a 65786974 		.ascii	"exitcode\000"
 2846      636F6465 
 2846      00
 2847              	.LASF68:
 2848 0133 63684D42 		.ascii	"chMBPostAheadS\000"
 2848      506F7374 
 2848      41686561 
 2848      645300
 2849              	.LASF53:
 2850 0142 6D625F77 		.ascii	"mb_wrptr\000"
 2850      72707472 
ARM GAS  /tmp/ccH3BRWG.s 			page 52


 2850      00
 2851              	.LASF27:
 2852 014b 705F7072 		.ascii	"p_prio\000"
 2852      696F00
 2853              	.LASF10:
 2854 0152 6C6F6E67 		.ascii	"long long int\000"
 2854      206C6F6E 
 2854      6720696E 
 2854      7400
 2855              	.LASF1:
 2856 0160 7369676E 		.ascii	"signed char\000"
 2856      65642063 
 2856      68617200 
 2857              	.LASF48:
 2858 016c 6D5F7175 		.ascii	"m_queue\000"
 2858      65756500 
 2859              	.LASF18:
 2860 0174 74736C69 		.ascii	"tslices_t\000"
 2860      6365735F 
 2860      7400
 2861              	.LASF7:
 2862 017e 6C6F6E67 		.ascii	"long int\000"
 2862      20696E74 
 2862      00
 2863              	.LASF17:
 2864 0187 74737461 		.ascii	"tstate_t\000"
 2864      74655F74 
 2864      00
 2865              	.LASF45:
 2866 0190 735F7175 		.ascii	"s_queue\000"
 2866      65756500 
 2867              	.LASF80:
 2868 0198 63685363 		.ascii	"chSchRescheduleS\000"
 2868      68526573 
 2868      63686564 
 2868      756C6553 
 2868      00
 2869              	.LASF8:
 2870 01a9 5F5F7569 		.ascii	"__uint32_t\000"
 2870      6E743332 
 2870      5F7400
 2871              	.LASF40:
 2872 01b4 72656761 		.ascii	"regarm_t\000"
 2872      726D5F74 
 2872      00
 2873              	.LASF23:
 2874 01bd 636E745F 		.ascii	"cnt_t\000"
 2874      7400
 2875              	.LASF0:
 2876 01c3 756E7369 		.ascii	"unsigned int\000"
 2876      676E6564 
 2876      20696E74 
 2876      00
 2877              	.LASF62:
 2878 01d0 63684D42 		.ascii	"chMBInit\000"
 2878      496E6974 
 2878      00
ARM GAS  /tmp/ccH3BRWG.s 			page 53


 2879              	.LASF9:
 2880 01d9 6C6F6E67 		.ascii	"long unsigned int\000"
 2880      20756E73 
 2880      69676E65 
 2880      6420696E 
 2880      7400
 2881              	.LASF56:
 2882 01eb 6D625F65 		.ascii	"mb_emptysem\000"
 2882      6D707479 
 2882      73656D00 
 2883              	.LASF46:
 2884 01f7 735F636E 		.ascii	"s_cnt\000"
 2884      7400
 2885              	.LASF4:
 2886 01fd 73686F72 		.ascii	"short unsigned int\000"
 2886      7420756E 
 2886      7369676E 
 2886      65642069 
 2886      6E7400
 2887              	.LASF74:
 2888 0210 63684D42 		.ascii	"chMBFetchI\000"
 2888      46657463 
 2888      684900
 2889              	.LASF20:
 2890 021b 6D73675F 		.ascii	"msg_t\000"
 2890      7400
 2891              	.LASF71:
 2892 0221 63684D42 		.ascii	"chMBFetchS\000"
 2892      46657463 
 2892      685300
 2893              	.LASF16:
 2894 022c 746D6F64 		.ascii	"tmode_t\000"
 2894      655F7400 
 2895              	.LASF39:
 2896 0234 54687265 		.ascii	"ThreadsList\000"
 2896      6164734C 
 2896      69737400 
 2897              	.LASF21:
 2898 0240 6576656E 		.ascii	"eventmask_t\000"
 2898      746D6173 
 2898      6B5F7400 
 2899              	.LASF47:
 2900 024c 4D757465 		.ascii	"Mutex\000"
 2900      7800
 2901              	.LASF72:
 2902 0252 6D736770 		.ascii	"msgp\000"
 2902      00
 2903              	.LASF43:
 2904 0257 73697A65 		.ascii	"sizetype\000"
 2904      74797065 
 2904      00
 2905              	.LASF54:
 2906 0260 6D625F72 		.ascii	"mb_rdptr\000"
 2906      64707472 
 2906      00
 2907              	.LASF63:
 2908 0269 63684D42 		.ascii	"chMBReset\000"
ARM GAS  /tmp/ccH3BRWG.s 			page 54


 2908      52657365 
 2908      7400
 2909              	.LASF38:
 2910 0273 54687265 		.ascii	"ThreadsQueue\000"
 2910      61647351 
 2910      75657565 
 2910      00
 2911              	.LASF51:
 2912 0280 6D625F62 		.ascii	"mb_buffer\000"
 2912      75666665 
 2912      7200
 2913              	.LASF64:
 2914 028a 74696D65 		.ascii	"time\000"
 2914      00
 2915              	.LASF26:
 2916 028f 705F7072 		.ascii	"p_prev\000"
 2916      657600
 2917              	.LASF19:
 2918 0296 74707269 		.ascii	"tprio_t\000"
 2918      6F5F7400 
 2919              	.LASF15:
 2920 029e 5F426F6F 		.ascii	"_Bool\000"
 2920      6C00
 2921              	.LASF13:
 2922 02a4 696E7433 		.ascii	"int32_t\000"
 2922      325F7400 
 2923              	.LASF2:
 2924 02ac 756E7369 		.ascii	"unsigned char\000"
 2924      676E6564 
 2924      20636861 
 2924      7200
 2925              	.LASF52:
 2926 02ba 6D625F74 		.ascii	"mb_top\000"
 2926      6F7000
 2927              	.LASF36:
 2928 02c1 705F6D74 		.ascii	"p_mtxlist\000"
 2928      786C6973 
 2928      7400
 2929              	.LASF3:
 2930 02cb 73686F72 		.ascii	"short int\000"
 2930      7420696E 
 2930      7400
 2931              	.LASF29:
 2932 02d5 705F7374 		.ascii	"p_state\000"
 2932      61746500 
 2933              	.LASF31:
 2934 02dd 705F7072 		.ascii	"p_preempt\000"
 2934      65656D70 
 2934      7400
 2935              	.LASF61:
 2936 02e7 65776D61 		.ascii	"ewmask\000"
 2936      736B00
 2937              	.LASF25:
 2938 02ee 705F6E65 		.ascii	"p_next\000"
 2938      787400
 2939              	.LASF30:
 2940 02f5 705F666C 		.ascii	"p_flags\000"
ARM GAS  /tmp/ccH3BRWG.s 			page 55


 2940      61677300 
 2941              	.LASF66:
 2942 02fd 63684D42 		.ascii	"chMBPost\000"
 2942      506F7374 
 2942      00
 2943              	.LASF24:
 2944 0306 54687265 		.ascii	"Thread\000"
 2944      616400
 2945              	.LASF35:
 2946 030d 705F6570 		.ascii	"p_epending\000"
 2946      656E6469 
 2946      6E6700
 2947              	.LASF14:
 2948 0318 75696E74 		.ascii	"uint32_t\000"
 2948      33325F74 
 2948      00
 2949              	.LASF79:
 2950 0321 2F686F6D 		.ascii	"/home/dltech/gdrive/Projects/RFM_to_Modbus_TCP/Chib"
 2950      652F646C 
 2950      74656368 
 2950      2F676472 
 2950      6976652F 
 2951 0354 694F532F 		.ascii	"iOS/F103_ChibiOS_ENC60J28/main\000"
 2951      46313033 
 2951      5F436869 
 2951      62694F53 
 2951      5F454E43 
 2952              	.LASF81:
 2953 0373 63685365 		.ascii	"chSemWaitTimeoutS\000"
 2953      6D576169 
 2953      7454696D 
 2953      656F7574 
 2953      5300
 2954              	.LASF50:
 2955 0385 6D5F6E65 		.ascii	"m_next\000"
 2955      787400
 2956              	.LASF22:
 2957 038c 73797374 		.ascii	"systime_t\000"
 2957      696D655F 
 2957      7400
 2958              	.LASF37:
 2959 0396 705F7265 		.ascii	"p_realprio\000"
 2959      616C7072 
 2959      696F00
 2960              	.LASF6:
 2961 03a1 5F5F696E 		.ascii	"__int32_t\000"
 2961      7433325F 
 2961      7400
 2962              	.LASF42:
 2963 03ab 636F6E74 		.ascii	"context\000"
 2963      65787400 
 2964              	.LASF69:
 2965 03b3 63684D42 		.ascii	"chMBPostAhead\000"
 2965      506F7374 
 2965      41686561 
 2965      6400
 2966              	.LASF41:
ARM GAS  /tmp/ccH3BRWG.s 			page 56


 2967 03c1 696E7463 		.ascii	"intctx\000"
 2967      747800
 2968              	.LASF33:
 2969 03c8 705F6D73 		.ascii	"p_msgqueue\000"
 2969      67717565 
 2969      756500
 2970              	.LASF73:
 2971 03d3 63684D42 		.ascii	"chMBFetch\000"
 2971      46657463 
 2971      6800
 2972              	.LASF44:
 2973 03dd 53656D61 		.ascii	"Semaphore\000"
 2973      70686F72 
 2973      6500
 2974              	.LASF55:
 2975 03e7 6D625F66 		.ascii	"mb_fullsem\000"
 2975      756C6C73 
 2975      656D00
 2976              	.LASF76:
 2977 03f2 63685365 		.ascii	"chSemResetI\000"
 2977      6D526573 
 2977      65744900 
 2978              	.LASF12:
 2979 03fe 75696E74 		.ascii	"uint8_t\000"
 2979      385F7400 
 2980              	.LASF60:
 2981 0406 77746F62 		.ascii	"wtobjp\000"
 2981      6A7000
 2982              	.LASF67:
 2983 040d 63684D42 		.ascii	"chMBPostI\000"
 2983      506F7374 
 2983      4900
 2984              	.LASF49:
 2985 0417 6D5F6F77 		.ascii	"m_owner\000"
 2985      6E657200 
 2986              	.LASF28:
 2987 041f 705F6374 		.ascii	"p_ctx\000"
 2987      7800
 2988              	.LASF32:
 2989 0425 705F7761 		.ascii	"p_waiting\000"
 2989      6974696E 
 2989      6700
 2990              	.LASF75:
 2991 042f 63685365 		.ascii	"chSemInit\000"
 2991      6D496E69 
 2991      7400
 2992              		.ident	"GCC: (4.8.2-14ubuntu1+6) 4.8.2"
ARM GAS  /tmp/ccH3BRWG.s 			page 57


DEFINED SYMBOLS
                            *ABS*:0000000000000000 chmboxes.c
     /tmp/ccH3BRWG.s:19     .text.chMBInit:0000000000000000 $t
     /tmp/ccH3BRWG.s:25     .text.chMBInit:0000000000000000 chMBInit
     /tmp/ccH3BRWG.s:68     .text.chMBReset:0000000000000000 $t
     /tmp/ccH3BRWG.s:74     .text.chMBReset:0000000000000000 chMBReset
     /tmp/ccH3BRWG.s:126    .text.chMBPostS:0000000000000000 $t
     /tmp/ccH3BRWG.s:132    .text.chMBPostS:0000000000000000 chMBPostS
     /tmp/ccH3BRWG.s:189    .text.chMBPost:0000000000000000 $t
     /tmp/ccH3BRWG.s:195    .text.chMBPost:0000000000000000 chMBPost
     /tmp/ccH3BRWG.s:225    .text.chMBPostI:0000000000000000 $t
     /tmp/ccH3BRWG.s:231    .text.chMBPostI:0000000000000000 chMBPostI
     /tmp/ccH3BRWG.s:286    .text.chMBPostAheadS:0000000000000000 $t
     /tmp/ccH3BRWG.s:292    .text.chMBPostAheadS:0000000000000000 chMBPostAheadS
     /tmp/ccH3BRWG.s:350    .text.chMBPostAhead:0000000000000000 $t
     /tmp/ccH3BRWG.s:356    .text.chMBPostAhead:0000000000000000 chMBPostAhead
     /tmp/ccH3BRWG.s:386    .text.chMBPostAheadI:0000000000000000 $t
     /tmp/ccH3BRWG.s:392    .text.chMBPostAheadI:0000000000000000 chMBPostAheadI
     /tmp/ccH3BRWG.s:447    .text.chMBFetchS:0000000000000000 $t
     /tmp/ccH3BRWG.s:453    .text.chMBFetchS:0000000000000000 chMBFetchS
     /tmp/ccH3BRWG.s:511    .text.chMBFetch:0000000000000000 $t
     /tmp/ccH3BRWG.s:517    .text.chMBFetch:0000000000000000 chMBFetch
     /tmp/ccH3BRWG.s:547    .text.chMBFetchI:0000000000000000 $t
     /tmp/ccH3BRWG.s:553    .text.chMBFetchI:0000000000000000 chMBFetchI
                     .debug_frame:0000000000000010 $d

UNDEFINED SYMBOLS
chSemInit
_port_lock
chSemResetI
chSchRescheduleS
_port_unlock
chSemWaitTimeoutS
chSemSignalI
