ARM GAS  /tmp/ccPnso1E.s 			page 1


   1              		.syntax unified
   2              		.cpu cortex-m3
   3              		.fpu softvfp
   4              		.eabi_attribute 20, 1
   5              		.eabi_attribute 21, 1
   6              		.eabi_attribute 23, 3
   7              		.eabi_attribute 24, 1
   8              		.eabi_attribute 25, 1
   9              		.eabi_attribute 26, 1
  10              		.eabi_attribute 30, 2
  11              		.eabi_attribute 34, 1
  12              		.eabi_attribute 18, 4
  13              		.thumb
  14              		.file	"chmsg.c"
  15              		.text
  16              	.Ltext0:
  17              		.cfi_sections	.debug_frame
  18              		.section	.text.chMsgSend,"ax",%progbits
  19              		.align	2
  20              		.p2align 4,,15
  21              		.global	chMsgSend
  22              		.thumb
  23              		.thumb_func
  24              		.type	chMsgSend, %function
  25              	chMsgSend:
  26              	.LFB0:
  27              		.file 1 "../os/kernel/src/chmsg.c"
  28              		.loc 1 75 0
  29              		.cfi_startproc
  30              		@ args = 0, pretend = 0, frame = 0
  31              		@ frame_needed = 0, uses_anonymous_args = 0
  32              	.LVL0:
  33 0000 38B5     		push	{r3, r4, r5, lr}
  34              		.cfi_def_cfa_offset 16
  35              		.cfi_offset 3, -16
  36              		.cfi_offset 4, -12
  37              		.cfi_offset 5, -8
  38              		.cfi_offset 14, -4
  39              		.loc 1 76 0
  40 0002 40F20003 		movw	r3, #:lower16:rlist
  41 0006 C0F20003 		movt	r3, #:upper16:rlist
  42              		.loc 1 75 0
  43 000a 0546     		mov	r5, r0
  44              		.loc 1 76 0
  45 000c 1C69     		ldr	r4, [r3, #16]
  46              	.LVL1:
  47              		.loc 1 80 0
  48              	@ 80 "../os/kernel/src/chmsg.c" 1
  49 000e FFF7FEFF 		bl      _port_lock
  50              	@ 0 "" 2
  51              		.loc 1 82 0
  52              		.thumb
  53 0012 00F11C03 		add	r3, r0, #28
  54              		.loc 1 81 0
  55 0016 6162     		str	r1, [r4, #36]
  56              		.loc 1 82 0
  57 0018 6361     		str	r3, [r4, #20]
ARM GAS  /tmp/ccPnso1E.s 			page 2


  58              		.loc 1 83 0
  59 001a 1946     		mov	r1, r3
  60              	.LVL2:
  61 001c 2046     		mov	r0, r4
  62              	.LVL3:
  63 001e FFF7FEFF 		bl	queue_insert
  64              	.LVL4:
  65              		.loc 1 84 0
  66 0022 2B7C     		ldrb	r3, [r5, #16]	@ zero_extendqisi2
  67 0024 0C2B     		cmp	r3, #12
  68 0026 06D0     		beq	.L4
  69              	.L2:
  70              		.loc 1 86 0
  71 0028 0A20     		movs	r0, #10
  72 002a FFF7FEFF 		bl	chSchGoSleepS
  73              	.LVL5:
  74              		.loc 1 87 0
  75 002e 6069     		ldr	r0, [r4, #20]
  76              	.LVL6:
  77              		.loc 1 88 0
  78              	@ 88 "../os/kernel/src/chmsg.c" 1
  79 0030 FFF7FEFF 		bl      _port_unlock
  80              	@ 0 "" 2
  81              		.loc 1 90 0
  82              		.thumb
  83 0034 38BD     		pop	{r3, r4, r5, pc}
  84              	.LVL7:
  85              	.L4:
  86              		.loc 1 85 0
  87 0036 2846     		mov	r0, r5
  88 0038 FFF7FEFF 		bl	chSchReadyI
  89              	.LVL8:
  90 003c F4E7     		b	.L2
  91              		.cfi_endproc
  92              	.LFE0:
  93              		.size	chMsgSend, .-chMsgSend
  94 003e 00BF     		.section	.text.chMsgWait,"ax",%progbits
  95              		.align	2
  96              		.p2align 4,,15
  97              		.global	chMsgWait
  98              		.thumb
  99              		.thumb_func
 100              		.type	chMsgWait, %function
 101              	chMsgWait:
 102              	.LFB1:
 103              		.loc 1 106 0
 104              		.cfi_startproc
 105              		@ args = 0, pretend = 0, frame = 0
 106              		@ frame_needed = 0, uses_anonymous_args = 0
 107 0000 10B5     		push	{r4, lr}
 108              		.cfi_def_cfa_offset 8
 109              		.cfi_offset 4, -8
 110              		.cfi_offset 14, -4
 111              		.loc 1 109 0
 112              	@ 109 "../os/kernel/src/chmsg.c" 1
 113 0002 FFF7FEFF 		bl      _port_lock
 114              	@ 0 "" 2
ARM GAS  /tmp/ccPnso1E.s 			page 3


 115              		.loc 1 110 0
 116              		.thumb
 117 0006 40F20004 		movw	r4, #:lower16:rlist
 118 000a C0F20004 		movt	r4, #:upper16:rlist
 119 000e 2069     		ldr	r0, [r4, #16]
 120 0010 C369     		ldr	r3, [r0, #28]
 121 0012 1C30     		adds	r0, r0, #28
 122 0014 8342     		cmp	r3, r0
 123 0016 06D0     		beq	.L7
 124              	.L6:
 125              		.loc 1 112 0
 126 0018 FFF7FEFF 		bl	fifo_remove
 127              	.LVL9:
 128              		.loc 1 113 0
 129 001c 0B23     		movs	r3, #11
 130 001e 0374     		strb	r3, [r0, #16]
 131              		.loc 1 114 0
 132              	@ 114 "../os/kernel/src/chmsg.c" 1
 133 0020 FFF7FEFF 		bl      _port_unlock
 134              	@ 0 "" 2
 135              		.loc 1 116 0
 136              		.thumb
 137 0024 10BD     		pop	{r4, pc}
 138              	.LVL10:
 139              	.L7:
 140              		.loc 1 111 0
 141 0026 0C20     		movs	r0, #12
 142 0028 FFF7FEFF 		bl	chSchGoSleepS
 143              	.LVL11:
 144 002c 2069     		ldr	r0, [r4, #16]
 145 002e 1C30     		adds	r0, r0, #28
 146 0030 F2E7     		b	.L6
 147              		.cfi_endproc
 148              	.LFE1:
 149              		.size	chMsgWait, .-chMsgWait
 150 0032 00BFAFF3 		.section	.text.chMsgRelease,"ax",%progbits
 150      0080AFF3 
 150      0080AFF3 
 150      0080
 151              		.align	2
 152              		.p2align 4,,15
 153              		.global	chMsgRelease
 154              		.thumb
 155              		.thumb_func
 156              		.type	chMsgRelease, %function
 157              	chMsgRelease:
 158              	.LFB2:
 159              		.loc 1 128 0
 160              		.cfi_startproc
 161              		@ args = 0, pretend = 0, frame = 0
 162              		@ frame_needed = 0, uses_anonymous_args = 0
 163              	.LVL12:
 164 0000 08B5     		push	{r3, lr}
 165              		.cfi_def_cfa_offset 8
 166              		.cfi_offset 3, -8
 167              		.cfi_offset 14, -4
 168              		.loc 1 130 0
ARM GAS  /tmp/ccPnso1E.s 			page 4


 169              	@ 130 "../os/kernel/src/chmsg.c" 1
 170 0002 FFF7FEFF 		bl      _port_lock
 171              	@ 0 "" 2
 172              		.loc 1 133 0
 173              		.thumb
 174 0006 FFF7FEFF 		bl	chSchWakeupS
 175              	.LVL13:
 176              		.loc 1 134 0
 177              	@ 134 "../os/kernel/src/chmsg.c" 1
 178 000a FFF7FEFF 		bl      _port_unlock
 179              	@ 0 "" 2
 180              		.thumb
 181 000e 08BD     		pop	{r3, pc}
 182              		.cfi_endproc
 183              	.LFE2:
 184              		.size	chMsgRelease, .-chMsgRelease
 185              		.text
 186              	.Letext0:
 187              		.file 2 "/usr/include/newlib/machine/_default_types.h"
 188              		.file 3 "/usr/include/newlib/stdint.h"
 189              		.file 4 "../os/ports/GCC/ARMCMx/chtypes.h"
 190              		.file 5 "../os/kernel/include/chlists.h"
 191              		.file 6 "../os/kernel/include/chthreads.h"
 192              		.file 7 "../os/ports/GCC/ARMCMx/chcore_v7m.h"
 193              		.file 8 "../os/kernel/include/chschd.h"
 194              		.file 9 "../os/kernel/include/chmtx.h"