ARM GAS  /tmp/ccaf5zMm.s 			page 1


   1              		.syntax unified
   2              		.cpu cortex-m3
   3              		.fpu softvfp
   4              		.eabi_attribute 20, 1
   5              		.eabi_attribute 21, 1
   6              		.eabi_attribute 23, 3
   7              		.eabi_attribute 24, 1
   8              		.eabi_attribute 25, 1
   9              		.eabi_attribute 26, 1
  10              		.eabi_attribute 30, 2
  11              		.eabi_attribute 34, 1
  12              		.eabi_attribute 18, 4
  13              		.thumb
  14              		.file	"chmtx.c"
  15              		.text
  16              	.Ltext0:
  17              		.cfi_sections	.debug_frame
  18              		.section	.text.chMtxInit,"ax",%progbits
  19              		.align	2
  20              		.p2align 4,,15
  21              		.global	chMtxInit
  22              		.thumb
  23              		.thumb_func
  24              		.type	chMtxInit, %function
  25              	chMtxInit:
  26              	.LFB0:
  27              		.file 1 "../os/kernel/src/chmtx.c"
  28              		.loc 1 86 0
  29              		.cfi_startproc
  30              		@ args = 0, pretend = 0, frame = 0
  31              		@ frame_needed = 0, uses_anonymous_args = 0
  32              		@ link register save eliminated.
  33              	.LVL0:
  34              		.loc 1 91 0
  35 0000 0023     		movs	r3, #0
  36              		.loc 1 90 0
  37 0002 4060     		str	r0, [r0, #4]
  38 0004 0060     		str	r0, [r0]
  39              		.loc 1 91 0
  40 0006 8360     		str	r3, [r0, #8]
  41 0008 7047     		bx	lr
  42              		.cfi_endproc
  43              	.LFE0:
  44              		.size	chMtxInit, .-chMtxInit
  45 000a 00BFAFF3 		.section	.text.chMtxLockS,"ax",%progbits
  45      0080
  46              		.align	2
  47              		.p2align 4,,15
  48              		.global	chMtxLockS
  49              		.thumb
  50              		.thumb_func
  51              		.type	chMtxLockS, %function
  52              	chMtxLockS:
  53              	.LFB2:
  54              		.loc 1 121 0
  55              		.cfi_startproc
  56              		@ args = 0, pretend = 0, frame = 0
ARM GAS  /tmp/ccaf5zMm.s 			page 2


  57              		@ frame_needed = 0, uses_anonymous_args = 0
  58              	.LVL1:
  59 0000 70B5     		push	{r4, r5, r6, lr}
  60              		.cfi_def_cfa_offset 16
  61              		.cfi_offset 4, -16
  62              		.cfi_offset 5, -12
  63              		.cfi_offset 6, -8
  64              		.cfi_offset 14, -4
  65              		.loc 1 122 0
  66 0002 40F20003 		movw	r3, #:lower16:rlist
  67              		.loc 1 128 0
  68 0006 8468     		ldr	r4, [r0, #8]
  69              		.loc 1 122 0
  70 0008 C0F20003 		movt	r3, #:upper16:rlist
  71              		.loc 1 121 0
  72 000c 0646     		mov	r6, r0
  73              		.loc 1 122 0
  74 000e 1D69     		ldr	r5, [r3, #16]
  75              	.LVL2:
  76              		.loc 1 128 0
  77 0010 74B3     		cbz	r4, .L3
  78              	.LVL3:
  79              	.LBB4:
  80              		.loc 1 135 0 discriminator 1
  81 0012 AA68     		ldr	r2, [r5, #8]
  82 0014 A368     		ldr	r3, [r4, #8]
  83 0016 9342     		cmp	r3, r2
  84 0018 06D2     		bcs	.L5
  85              	.LVL4:
  86              	.L10:
  87              		.loc 1 139 0
  88 001a 237C     		ldrb	r3, [r4, #16]	@ zero_extendqisi2
  89              		.loc 1 137 0
  90 001c A260     		str	r2, [r4, #8]
  91              		.loc 1 139 0
  92 001e 042B     		cmp	r3, #4
  93 0020 19D0     		beq	.L6
  94 0022 052B     		cmp	r3, #5
  95 0024 10D0     		beq	.L7
  96 0026 4BB1     		cbz	r3, .L12
  97              	.L5:
  98              		.loc 1 173 0
  99 0028 2846     		mov	r0, r5
 100 002a 3146     		mov	r1, r6
 101 002c FFF7FEFF 		bl	prio_insert
 102              	.LVL5:
 103              		.loc 1 174 0
 104 0030 6E61     		str	r6, [r5, #20]
 105              		.loc 1 175 0
 106 0032 0420     		movs	r0, #4
 107              	.LBE4:
 108              		.loc 1 187 0
 109 0034 BDE87040 		pop	{r4, r5, r6, lr}
 110              	.LVL6:
 111              	.LBB5:
 112              		.loc 1 175 0
 113 0038 FFF7FEBF 		b	chSchGoSleepS
ARM GAS  /tmp/ccaf5zMm.s 			page 3


 114              	.LVL7:
 115              	.L12:
 116              		.loc 1 167 0
 117 003c 2046     		mov	r0, r4
 118 003e FFF7FEFF 		bl	dequeue
 119              	.LVL8:
 120 0042 FFF7FEFF 		bl	chSchReadyI
 121              	.LVL9:
 122              		.loc 1 168 0
 123 0046 EFE7     		b	.L5
 124              	.L7:
 125              		.loc 1 158 0
 126 0048 2046     		mov	r0, r4
 127 004a FFF7FEFF 		bl	dequeue
 128              	.LVL10:
 129 004e 6169     		ldr	r1, [r4, #20]
 130 0050 FFF7FEFF 		bl	prio_insert
 131              	.LVL11:
 132              		.loc 1 159 0
 133 0054 E8E7     		b	.L5
 134              	.L6:
 135              		.loc 1 142 0
 136 0056 2046     		mov	r0, r4
 137 0058 FFF7FEFF 		bl	dequeue
 138              	.LVL12:
 139 005c 6169     		ldr	r1, [r4, #20]
 140 005e FFF7FEFF 		bl	prio_insert
 141              	.LVL13:
 142              		.loc 1 143 0
 143 0062 6369     		ldr	r3, [r4, #20]
 144              		.loc 1 135 0
 145 0064 AA68     		ldr	r2, [r5, #8]
 146              		.loc 1 143 0
 147 0066 9C68     		ldr	r4, [r3, #8]
 148              	.LVL14:
 149              		.loc 1 135 0
 150 0068 A368     		ldr	r3, [r4, #8]
 151 006a 9342     		cmp	r3, r2
 152 006c D5D3     		bcc	.L10
 153 006e DBE7     		b	.L5
 154              	.LVL15:
 155              	.L3:
 156              	.LBE5:
 157              		.loc 1 183 0
 158 0070 8560     		str	r5, [r0, #8]
 159              		.loc 1 184 0
 160 0072 EB6A     		ldr	r3, [r5, #44]
 161 0074 C360     		str	r3, [r0, #12]
 162              		.loc 1 185 0
 163 0076 E862     		str	r0, [r5, #44]
 164 0078 70BD     		pop	{r4, r5, r6, pc}
 165              		.cfi_endproc
 166              	.LFE2:
 167              		.size	chMtxLockS, .-chMtxLockS
 168 007a 00BFAFF3 		.section	.text.chMtxLock,"ax",%progbits
 168      0080
 169              		.align	2
ARM GAS  /tmp/ccaf5zMm.s 			page 4


 170              		.p2align 4,,15
 171              		.global	chMtxLock
 172              		.thumb
 173              		.thumb_func
 174              		.type	chMtxLock, %function
 175              	chMtxLock:
 176              	.LFB1:
 177              		.loc 1 103 0
 178              		.cfi_startproc
 179              		@ args = 0, pretend = 0, frame = 0
 180              		@ frame_needed = 0, uses_anonymous_args = 0
 181              	.LVL16:
 182 0000 08B5     		push	{r3, lr}
 183              		.cfi_def_cfa_offset 8
 184              		.cfi_offset 3, -8
 185              		.cfi_offset 14, -4
 186              		.loc 1 105 0
 187              	@ 105 "../os/kernel/src/chmtx.c" 1
 188 0002 FFF7FEFF 		bl      _port_lock
 189              	@ 0 "" 2
 190              		.loc 1 107 0
 191              		.thumb
 192 0006 FFF7FEFF 		bl	chMtxLockS
 193              	.LVL17:
 194              		.loc 1 109 0
 195              	@ 109 "../os/kernel/src/chmtx.c" 1
 196 000a FFF7FEFF 		bl      _port_unlock
 197              	@ 0 "" 2
 198              		.thumb
 199 000e 08BD     		pop	{r3, pc}
 200              		.cfi_endproc
 201              	.LFE1:
 202              		.size	chMtxLock, .-chMtxLock
 203              		.section	.text.chMtxTryLock,"ax",%progbits
 204              		.align	2
 205              		.p2align 4,,15
 206              		.global	chMtxTryLock
 207              		.thumb
 208              		.thumb_func
 209              		.type	chMtxTryLock, %function
 210              	chMtxTryLock:
 211              	.LFB3:
 212              		.loc 1 206 0
 213              		.cfi_startproc
 214              		@ args = 0, pretend = 0, frame = 0
 215              		@ frame_needed = 0, uses_anonymous_args = 0
 216              	.LVL18:
 217 0000 00B5     		push	{lr}
 218              		.cfi_def_cfa_offset 4
 219              		.cfi_offset 14, -4
 220              		.loc 1 206 0
 221 0002 0246     		mov	r2, r0
 222              		.loc 1 209 0
 223              	@ 209 "../os/kernel/src/chmtx.c" 1
 224 0004 FFF7FEFF 		bl      _port_lock
 225              	@ 0 "" 2
 226              	.LVL19:
ARM GAS  /tmp/ccaf5zMm.s 			page 5


 227              		.thumb
 228              	.LBB6:
 229              	.LBB7:
 230              		.loc 1 239 0
 231 0008 8368     		ldr	r3, [r0, #8]
 232              		.loc 1 240 0
 233 000a 0020     		movs	r0, #0
 234              	.LVL20:
 235              		.loc 1 239 0
 236 000c 1BB1     		cbz	r3, .L17
 237              	.LBE7:
 238              	.LBE6:
 239              		.loc 1 213 0
 240              	@ 213 "../os/kernel/src/chmtx.c" 1
 241 000e FFF7FEFF 		bl      _port_unlock
 242              	@ 0 "" 2
 243              		.loc 1 215 0
 244              		.thumb
 245 0012 5DF804FB 		ldr	pc, [sp], #4
 246              	.L17:
 247              	.LBB9:
 248              	.LBB8:
 249              		.loc 1 241 0
 250 0016 40F20003 		movw	r3, #:lower16:rlist
 251 001a C0F20003 		movt	r3, #:upper16:rlist
 252 001e 1969     		ldr	r1, [r3, #16]
 253              		.loc 1 244 0
 254 0020 0120     		movs	r0, #1
 255              		.loc 1 241 0
 256 0022 9160     		str	r1, [r2, #8]
 257              		.loc 1 242 0
 258 0024 1969     		ldr	r1, [r3, #16]
 259 0026 C96A     		ldr	r1, [r1, #44]
 260 0028 D160     		str	r1, [r2, #12]
 261              		.loc 1 243 0
 262 002a 1B69     		ldr	r3, [r3, #16]
 263 002c DA62     		str	r2, [r3, #44]
 264              	.LBE8:
 265              	.LBE9:
 266              		.loc 1 213 0
 267              	@ 213 "../os/kernel/src/chmtx.c" 1
 268 002e FFF7FEFF 		bl      _port_unlock
 269              	@ 0 "" 2
 270              		.loc 1 215 0
 271              		.thumb
 272 0032 5DF804FB 		ldr	pc, [sp], #4
 273              		.cfi_endproc
 274              	.LFE3:
 275              		.size	chMtxTryLock, .-chMtxTryLock
 276 0036 00BFAFF3 		.section	.text.chMtxTryLockS,"ax",%progbits
 276      0080AFF3 
 276      0080
 277              		.align	2
 278              		.p2align 4,,15
 279              		.global	chMtxTryLockS
 280              		.thumb
 281              		.thumb_func
ARM GAS  /tmp/ccaf5zMm.s 			page 6


 282              		.type	chMtxTryLockS, %function
 283              	chMtxTryLockS:
 284              	.LFB4:
 285              		.loc 1 234 0
 286              		.cfi_startproc
 287              		@ args = 0, pretend = 0, frame = 0
 288              		@ frame_needed = 0, uses_anonymous_args = 0
 289              		@ link register save eliminated.
 290              	.LVL21:
 291              		.loc 1 239 0
 292 0000 8268     		ldr	r2, [r0, #8]
 293              		.loc 1 234 0
 294 0002 0346     		mov	r3, r0
 295              		.loc 1 239 0
 296 0004 0AB1     		cbz	r2, .L21
 297              		.loc 1 240 0
 298 0006 0020     		movs	r0, #0
 299              	.LVL22:
 300              		.loc 1 245 0
 301 0008 7047     		bx	lr
 302              	.LVL23:
 303              	.L21:
 304              		.loc 1 241 0
 305 000a 40F20002 		movw	r2, #:lower16:rlist
 306 000e C0F20002 		movt	r2, #:upper16:rlist
 307 0012 1169     		ldr	r1, [r2, #16]
 308              		.loc 1 244 0
 309 0014 0120     		movs	r0, #1
 310              	.LVL24:
 311              		.loc 1 241 0
 312 0016 9960     		str	r1, [r3, #8]
 313              		.loc 1 242 0
 314 0018 1169     		ldr	r1, [r2, #16]
 315 001a C96A     		ldr	r1, [r1, #44]
 316 001c D960     		str	r1, [r3, #12]
 317              		.loc 1 243 0
 318 001e 1269     		ldr	r2, [r2, #16]
 319 0020 D362     		str	r3, [r2, #44]
 320              		.loc 1 244 0
 321 0022 7047     		bx	lr
 322              		.cfi_endproc
 323              	.LFE4:
 324              		.size	chMtxTryLockS, .-chMtxTryLockS
 325 0024 AFF30080 		.section	.text.chMtxUnlock,"ax",%progbits
 325      AFF30080 
 325      AFF30080 
 326              		.align	2
 327              		.p2align 4,,15
 328              		.global	chMtxUnlock
 329              		.thumb
 330              		.thumb_func
 331              		.type	chMtxUnlock, %function
 332              	chMtxUnlock:
 333              	.LFB5:
 334              		.loc 1 257 0
 335              		.cfi_startproc
 336              		@ args = 0, pretend = 0, frame = 0
ARM GAS  /tmp/ccaf5zMm.s 			page 7


 337              		@ frame_needed = 0, uses_anonymous_args = 0
 338 0000 10B5     		push	{r4, lr}
 339              		.cfi_def_cfa_offset 8
 340              		.cfi_offset 4, -8
 341              		.cfi_offset 14, -4
 342              		.loc 1 258 0
 343 0002 40F20003 		movw	r3, #:lower16:rlist
 344 0006 C0F20003 		movt	r3, #:upper16:rlist
 345 000a 1869     		ldr	r0, [r3, #16]
 346              	.LVL25:
 347              		.loc 1 261 0
 348              	@ 261 "../os/kernel/src/chmtx.c" 1
 349 000c FFF7FEFF 		bl      _port_lock
 350              	@ 0 "" 2
 351              		.loc 1 270 0
 352              		.thumb
 353 0010 C46A     		ldr	r4, [r0, #44]
 354              	.LVL26:
 355              		.loc 1 271 0
 356 0012 E368     		ldr	r3, [r4, #12]
 357 0014 C362     		str	r3, [r0, #44]
 358              		.loc 1 273 0
 359 0016 2268     		ldr	r2, [r4]
 360 0018 A242     		cmp	r2, r4
 361 001a 1AD0     		beq	.L23
 362              	.LBB10:
 363              		.loc 1 278 0
 364 001c 016B     		ldr	r1, [r0, #48]
 365              	.LVL27:
 366              		.loc 1 280 0
 367 001e 4BB1     		cbz	r3, .L24
 368              	.L26:
 369              		.loc 1 284 0
 370 0020 1A68     		ldr	r2, [r3]
 371 0022 9A42     		cmp	r2, r3
 372 0024 03D0     		beq	.L25
 373              		.loc 1 284 0 is_stmt 0 discriminator 1
 374 0026 9268     		ldr	r2, [r2, #8]
 375 0028 9142     		cmp	r1, r2
 376 002a 38BF     		it	cc
 377 002c 1146     		movcc	r1, r2
 378              	.LVL28:
 379              	.L25:
 380              		.loc 1 286 0 is_stmt 1
 381 002e DB68     		ldr	r3, [r3, #12]
 382              	.LVL29:
 383              		.loc 1 280 0
 384 0030 002B     		cmp	r3, #0
 385 0032 F5D1     		bne	.L26
 386              	.L24:
 387              		.loc 1 290 0
 388 0034 8160     		str	r1, [r0, #8]
 389              		.loc 1 293 0
 390 0036 2046     		mov	r0, r4
 391              	.LVL30:
 392 0038 FFF7FEFF 		bl	fifo_remove
 393              	.LVL31:
ARM GAS  /tmp/ccaf5zMm.s 			page 8


 394              		.loc 1 294 0
 395 003c A060     		str	r0, [r4, #8]
 396              		.loc 1 295 0
 397 003e C26A     		ldr	r2, [r0, #44]
 398              		.loc 1 297 0
 399 0040 0021     		movs	r1, #0
 400              		.loc 1 295 0
 401 0042 E260     		str	r2, [r4, #12]
 402              		.loc 1 296 0
 403 0044 C462     		str	r4, [r0, #44]
 404              		.loc 1 297 0
 405 0046 FFF7FEFF 		bl	chSchWakeupS
 406              	.LVL32:
 407              	.LBE10:
 408              		.loc 1 301 0
 409              	@ 301 "../os/kernel/src/chmtx.c" 1
 410 004a FFF7FEFF 		bl      _port_unlock
 411              	@ 0 "" 2
 412              		.loc 1 303 0
 413              		.thumb
 414 004e 2046     		mov	r0, r4
 415 0050 10BD     		pop	{r4, pc}
 416              	.LVL33:
 417              	.L23:
 418              		.loc 1 300 0
 419 0052 0023     		movs	r3, #0
 420 0054 A360     		str	r3, [r4, #8]
 421              		.loc 1 301 0
 422              	@ 301 "../os/kernel/src/chmtx.c" 1
 423 0056 FFF7FEFF 		bl      _port_unlock
 424              	@ 0 "" 2
 425              		.loc 1 303 0
 426              		.thumb
 427 005a 2046     		mov	r0, r4
 428              	.LVL34:
 429 005c 10BD     		pop	{r4, pc}
 430              		.cfi_endproc
 431              	.LFE5:
 432              		.size	chMtxUnlock, .-chMtxUnlock
 433 005e 00BF     		.section	.text.chMtxUnlockS,"ax",%progbits
 434              		.align	2
 435              		.p2align 4,,15
 436              		.global	chMtxUnlockS
 437              		.thumb
 438              		.thumb_func
 439              		.type	chMtxUnlockS, %function
 440              	chMtxUnlockS:
 441              	.LFB6:
 442              		.loc 1 317 0
 443              		.cfi_startproc
 444              		@ args = 0, pretend = 0, frame = 0
 445              		@ frame_needed = 0, uses_anonymous_args = 0
 446 0000 10B5     		push	{r4, lr}
 447              		.cfi_def_cfa_offset 8
 448              		.cfi_offset 4, -8
 449              		.cfi_offset 14, -4
 450              		.loc 1 318 0
ARM GAS  /tmp/ccaf5zMm.s 			page 9


 451 0002 40F20003 		movw	r3, #:lower16:rlist
 452 0006 C0F20003 		movt	r3, #:upper16:rlist
 453 000a 1869     		ldr	r0, [r3, #16]
 454              	.LVL35:
 455              		.loc 1 331 0
 456 000c C46A     		ldr	r4, [r0, #44]
 457              	.LVL36:
 458              		.loc 1 332 0
 459 000e E368     		ldr	r3, [r4, #12]
 460 0010 C362     		str	r3, [r0, #44]
 461              		.loc 1 334 0
 462 0012 2268     		ldr	r2, [r4]
 463 0014 A242     		cmp	r2, r4
 464 0016 17D0     		beq	.L35
 465              	.LBB11:
 466              		.loc 1 339 0
 467 0018 016B     		ldr	r1, [r0, #48]
 468              	.LVL37:
 469              		.loc 1 341 0
 470 001a 4BB1     		cbz	r3, .L36
 471              	.L38:
 472              		.loc 1 345 0
 473 001c 1A68     		ldr	r2, [r3]
 474 001e 9A42     		cmp	r2, r3
 475 0020 03D0     		beq	.L37
 476              		.loc 1 345 0 is_stmt 0 discriminator 1
 477 0022 9268     		ldr	r2, [r2, #8]
 478 0024 9142     		cmp	r1, r2
 479 0026 38BF     		it	cc
 480 0028 1146     		movcc	r1, r2
 481              	.LVL38:
 482              	.L37:
 483              		.loc 1 347 0 is_stmt 1
 484 002a DB68     		ldr	r3, [r3, #12]
 485              	.LVL39:
 486              		.loc 1 341 0
 487 002c 002B     		cmp	r3, #0
 488 002e F5D1     		bne	.L38
 489              	.L36:
 490              		.loc 1 349 0
 491 0030 8160     		str	r1, [r0, #8]
 492              		.loc 1 352 0
 493 0032 2046     		mov	r0, r4
 494              	.LVL40:
 495 0034 FFF7FEFF 		bl	fifo_remove
 496              	.LVL41:
 497              		.loc 1 353 0
 498 0038 A060     		str	r0, [r4, #8]
 499              		.loc 1 354 0
 500 003a C26A     		ldr	r2, [r0, #44]
 501 003c E260     		str	r2, [r4, #12]
 502              		.loc 1 355 0
 503 003e C462     		str	r4, [r0, #44]
 504              		.loc 1 356 0
 505 0040 FFF7FEFF 		bl	chSchReadyI
 506              	.LVL42:
 507              	.LBE11:
ARM GAS  /tmp/ccaf5zMm.s 			page 10


 508              		.loc 1 361 0
 509 0044 2046     		mov	r0, r4
 510 0046 10BD     		pop	{r4, pc}
 511              	.LVL43:
 512              	.L35:
 513              		.loc 1 359 0
 514 0048 0023     		movs	r3, #0
 515 004a A360     		str	r3, [r4, #8]
 516              		.loc 1 361 0
 517 004c 2046     		mov	r0, r4
 518              	.LVL44:
 519 004e 10BD     		pop	{r4, pc}
 520              		.cfi_endproc
 521              	.LFE6:
 522              		.size	chMtxUnlockS, .-chMtxUnlockS
 523              		.section	.text.chMtxUnlockAll,"ax",%progbits
 524              		.align	2
 525              		.p2align 4,,15
 526              		.global	chMtxUnlockAll
 527              		.thumb
 528              		.thumb_func
 529              		.type	chMtxUnlockAll, %function
 530              	chMtxUnlockAll:
 531              	.LFB7:
 532              		.loc 1 374 0
 533              		.cfi_startproc
 534              		@ args = 0, pretend = 0, frame = 0
 535              		@ frame_needed = 0, uses_anonymous_args = 0
 536 0000 70B5     		push	{r4, r5, r6, lr}
 537              		.cfi_def_cfa_offset 16
 538              		.cfi_offset 4, -16
 539              		.cfi_offset 5, -12
 540              		.cfi_offset 6, -8
 541              		.cfi_offset 14, -4
 542              		.loc 1 375 0
 543 0002 40F20003 		movw	r3, #:lower16:rlist
 544 0006 C0F20003 		movt	r3, #:upper16:rlist
 545 000a 1D69     		ldr	r5, [r3, #16]
 546              	.LVL45:
 547              		.loc 1 377 0
 548              	@ 377 "../os/kernel/src/chmtx.c" 1
 549 000c FFF7FEFF 		bl      _port_lock
 550              	@ 0 "" 2
 551              		.loc 1 378 0
 552              		.thumb
 553 0010 EC6A     		ldr	r4, [r5, #44]
 554 0012 BCB1     		cbz	r4, .L47
 555              	.LBB12:
 556              		.loc 1 390 0
 557 0014 0026     		movs	r6, #0
 558              	.L51:
 559              	.LVL46:
 560              		.loc 1 381 0
 561 0016 E368     		ldr	r3, [r4, #12]
 562              	.LBB13:
 563              		.loc 1 383 0
 564 0018 2046     		mov	r0, r4
ARM GAS  /tmp/ccaf5zMm.s 			page 11


 565              	.LBE13:
 566              		.loc 1 381 0
 567 001a EB62     		str	r3, [r5, #44]
 568              		.loc 1 382 0
 569 001c 2368     		ldr	r3, [r4]
 570 001e A342     		cmp	r3, r4
 571              		.loc 1 390 0
 572 0020 08BF     		it	eq
 573 0022 A660     		streq	r6, [r4, #8]
 574              		.loc 1 382 0
 575 0024 07D0     		beq	.L49
 576              	.LBB14:
 577              		.loc 1 383 0
 578 0026 FFF7FEFF 		bl	fifo_remove
 579              	.LVL47:
 580              		.loc 1 384 0
 581 002a A060     		str	r0, [r4, #8]
 582              		.loc 1 385 0
 583 002c C26A     		ldr	r2, [r0, #44]
 584 002e E260     		str	r2, [r4, #12]
 585              		.loc 1 386 0
 586 0030 C462     		str	r4, [r0, #44]
 587              		.loc 1 387 0
 588 0032 FFF7FEFF 		bl	chSchReadyI
 589              	.LVL48:
 590              	.L49:
 591              	.LBE14:
 592              	.LBE12:
 593              		.loc 1 391 0
 594 0036 EC6A     		ldr	r4, [r5, #44]
 595              	.LVL49:
 596 0038 002C     		cmp	r4, #0
 597 003a ECD1     		bne	.L51
 598              		.loc 1 392 0
 599 003c 2B6B     		ldr	r3, [r5, #48]
 600 003e AB60     		str	r3, [r5, #8]
 601              		.loc 1 393 0
 602 0040 FFF7FEFF 		bl	chSchRescheduleS
 603              	.LVL50:
 604              	.L47:
 605              		.loc 1 395 0
 606              	@ 395 "../os/kernel/src/chmtx.c" 1
 607 0044 FFF7FEFF 		bl      _port_unlock
 608              	@ 0 "" 2
 609              		.thumb
 610 0048 70BD     		pop	{r4, r5, r6, pc}
 611              		.cfi_endproc
 612              	.LFE7:
 613              		.size	chMtxUnlockAll, .-chMtxUnlockAll
 614 004a 00BFAFF3 		.text
 614      0080
 615              	.Letext0:
 616              		.file 2 "/usr/include/newlib/machine/_default_types.h"
 617              		.file 3 "/usr/include/newlib/stdint.h"
 618              		.file 4 "../os/ports/GCC/ARMCMx/chtypes.h"
 619              		.file 5 "../os/kernel/include/chlists.h"
 620              		.file 6 "../os/kernel/include/chthreads.h"
ARM GAS  /tmp/ccaf5zMm.s 			page 12


 621              		.file 7 "../os/ports/GCC/ARMCMx/chcore_v7m.h"
 622              		.file 8 "../os/kernel/include/chschd.h"
 623              		.file 9 "../os/kernel/include/chmtx.h"