ARM GAS  /tmp/ccX5VwdU.s 			page 1


   1              		.syntax unified
   2              		.cpu cortex-m3
   3              		.fpu softvfp
   4              		.eabi_attribute 20, 1
   5              		.eabi_attribute 21, 1
   6              		.eabi_attribute 23, 3
   7              		.eabi_attribute 24, 1
   8              		.eabi_attribute 25, 1
   9              		.eabi_attribute 26, 1
  10              		.eabi_attribute 30, 2
  11              		.eabi_attribute 34, 1
  12              		.eabi_attribute 18, 4
  13              		.thumb
  14              		.file	"chschd.c"
  15              		.text
  16              	.Ltext0:
  17              		.cfi_sections	.debug_frame
  18              		.section	.text.wakeup,"ax",%progbits
  19              		.align	2
  20              		.p2align 4,,15
  21              		.thumb
  22              		.thumb_func
  23              		.type	wakeup, %function
  24              	wakeup:
  25              	.LFB3:
  26              		.file 1 "../os/kernel/src/chschd.c"
  27              		.loc 1 136 0
  28              		.cfi_startproc
  29              		@ args = 0, pretend = 0, frame = 0
  30              		@ frame_needed = 0, uses_anonymous_args = 0
  31              	.LVL0:
  32 0000 10B5     		push	{r4, lr}
  33              		.cfi_def_cfa_offset 8
  34              		.cfi_offset 4, -8
  35              		.cfi_offset 14, -4
  36              		.loc 1 136 0
  37 0002 0446     		mov	r4, r0
  38              	.LVL1:
  39              		.loc 1 139 0
  40              	@ 139 "../os/kernel/src/chschd.c" 1
  41 0004 FFF7FEFF 		bl      _port_lock
  42              	@ 0 "" 2
  43              		.loc 1 140 0
  44              		.thumb
  45 0008 037C     		ldrb	r3, [r0, #16]	@ zero_extendqisi2
  46 000a 0D2B     		cmp	r3, #13
  47 000c 0FD8     		bhi	.L2
  48 000e DFE803F0 		tbb	[pc, r3]
  49              	.L4:
  50 0012 21       		.byte	(.L10-.L4)/2
  51 0013 0E       		.byte	(.L2-.L4)/2
  52 0014 0E       		.byte	(.L2-.L4)/2
  53 0015 07       		.byte	(.L5-.L4)/2
  54 0016 0E       		.byte	(.L2-.L4)/2
  55 0017 0B       		.byte	(.L6-.L4)/2
  56 0018 0E       		.byte	(.L2-.L4)/2
  57 0019 0E       		.byte	(.L2-.L4)/2
ARM GAS  /tmp/ccX5VwdU.s 			page 2


  58 001a 0E       		.byte	(.L2-.L4)/2
  59 001b 0E       		.byte	(.L2-.L4)/2
  60 001c 0E       		.byte	(.L2-.L4)/2
  61 001d 0E       		.byte	(.L2-.L4)/2
  62 001e 0E       		.byte	(.L2-.L4)/2
  63 001f 0B       		.byte	(.L6-.L4)/2
  64              		.align	1
  65              	.L5:
  66              		.loc 1 150 0
  67 0020 4369     		ldr	r3, [r0, #20]
  68 0022 9A68     		ldr	r2, [r3, #8]
  69 0024 0132     		adds	r2, r2, #1
  70 0026 9A60     		str	r2, [r3, #8]
  71              	.L6:
  72              		.loc 1 160 0
  73 0028 2046     		mov	r0, r4
  74              	.LVL2:
  75 002a FFF7FEFF 		bl	dequeue
  76              	.LVL3:
  77              	.L2:
  78              		.loc 1 163 0
  79 002e 4FF0FF30 		mov	r0, #-1
  80              	.LBB11:
  81              	.LBB12:
  82              		.loc 1 92 0
  83 0032 0022     		movs	r2, #0
  84              		.loc 1 93 0
  85 0034 40F20003 		movw	r3, #:lower16:.LANCHOR0
  86 0038 A168     		ldr	r1, [r4, #8]
  87              	.LBE12:
  88              	.LBE11:
  89              		.loc 1 163 0
  90 003a 6061     		str	r0, [r4, #20]
  91              	.LVL4:
  92              	.LBB14:
  93              	.LBB13:
  94              		.loc 1 92 0
  95 003c 2274     		strb	r2, [r4, #16]
  96              	.LVL5:
  97              		.loc 1 93 0
  98 003e C0F20003 		movt	r3, #:upper16:.LANCHOR0
  99              	.LVL6:
 100              	.L9:
 101              		.loc 1 95 0
 102 0042 1B68     		ldr	r3, [r3]
 103              	.LVL7:
 104              		.loc 1 96 0
 105 0044 9A68     		ldr	r2, [r3, #8]
 106 0046 8A42     		cmp	r2, r1
 107 0048 FBD2     		bcs	.L9
 108              		.loc 1 98 0
 109 004a 2360     		str	r3, [r4]
 110              		.loc 1 99 0
 111 004c 5A68     		ldr	r2, [r3, #4]
 112 004e 6260     		str	r2, [r4, #4]
 113              		.loc 1 100 0
 114 0050 5C60     		str	r4, [r3, #4]
ARM GAS  /tmp/ccX5VwdU.s 			page 3


 115 0052 1460     		str	r4, [r2]
 116              	.LVL8:
 117              	.L10:
 118              	.LBE13:
 119              	.LBE14:
 120              		.loc 1 165 0
 121              	@ 165 "../os/kernel/src/chschd.c" 1
 122 0054 FFF7FEFF 		bl      _port_unlock
 123              	@ 0 "" 2
 124              		.thumb
 125 0058 10BD     		pop	{r4, pc}
 126              		.cfi_endproc
 127              	.LFE3:
 128              		.size	wakeup, .-wakeup
 129 005a 00BFAFF3 		.section	.text._scheduler_init,"ax",%progbits
 129      0080
 130              		.align	2
 131              		.p2align 4,,15
 132              		.global	_scheduler_init
 133              		.thumb
 134              		.thumb_func
 135              		.type	_scheduler_init, %function
 136              	_scheduler_init:
 137              	.LFB0:
 138              		.loc 1 55 0
 139              		.cfi_startproc
 140              		@ args = 0, pretend = 0, frame = 0
 141              		@ frame_needed = 0, uses_anonymous_args = 0
 142              		@ link register save eliminated.
 143              		.loc 1 57 0
 144 0000 40F20003 		movw	r3, #:lower16:.LANCHOR0
 145 0004 C0F20003 		movt	r3, #:upper16:.LANCHOR0
 146              		.loc 1 58 0
 147 0008 0022     		movs	r2, #0
 148              		.loc 1 57 0
 149 000a 5B60     		str	r3, [r3, #4]
 150 000c 1B60     		str	r3, [r3]
 151              		.loc 1 58 0
 152 000e 9A60     		str	r2, [r3, #8]
 153 0010 7047     		bx	lr
 154              		.cfi_endproc
 155              	.LFE0:
 156              		.size	_scheduler_init, .-_scheduler_init
 157 0012 00BFAFF3 		.section	.text.chSchReadyI,"ax",%progbits
 157      0080AFF3 
 157      0080AFF3 
 157      0080
 158              		.align	2
 159              		.p2align 4,,15
 160              		.global	chSchReadyI
 161              		.thumb
 162              		.thumb_func
 163              		.type	chSchReadyI, %function
 164              	chSchReadyI:
 165              	.LFB1:
 166              		.loc 1 81 0
 167              		.cfi_startproc
ARM GAS  /tmp/ccX5VwdU.s 			page 4


 168              		@ args = 0, pretend = 0, frame = 0
 169              		@ frame_needed = 0, uses_anonymous_args = 0
 170              		@ link register save eliminated.
 171              	.LVL9:
 172 0000 10B4     		push	{r4}
 173              		.cfi_def_cfa_offset 4
 174              		.cfi_offset 4, -4
 175              		.loc 1 92 0
 176 0002 0022     		movs	r2, #0
 177              		.loc 1 93 0
 178 0004 40F20003 		movw	r3, #:lower16:.LANCHOR0
 179 0008 8168     		ldr	r1, [r0, #8]
 180              		.loc 1 81 0
 181 000a 0446     		mov	r4, r0
 182              		.loc 1 92 0
 183 000c 0274     		strb	r2, [r0, #16]
 184              	.LVL10:
 185              		.loc 1 93 0
 186 000e C0F20003 		movt	r3, #:upper16:.LANCHOR0
 187              	.LVL11:
 188              	.L15:
 189              		.loc 1 95 0 discriminator 1
 190 0012 1B68     		ldr	r3, [r3]
 191              	.LVL12:
 192              		.loc 1 96 0 discriminator 1
 193 0014 9A68     		ldr	r2, [r3, #8]
 194 0016 8A42     		cmp	r2, r1
 195 0018 FBD2     		bcs	.L15
 196              		.loc 1 98 0
 197 001a 2360     		str	r3, [r4]
 198              		.loc 1 99 0
 199 001c 5A68     		ldr	r2, [r3, #4]
 200              		.loc 1 102 0
 201 001e 2046     		mov	r0, r4
 202              	.LVL13:
 203              		.loc 1 99 0
 204 0020 6260     		str	r2, [r4, #4]
 205              		.loc 1 100 0
 206 0022 5C60     		str	r4, [r3, #4]
 207 0024 1460     		str	r4, [r2]
 208              		.loc 1 102 0
 209 0026 5DF8044B 		ldr	r4, [sp], #4
 210              	.LVL14:
 211 002a 7047     		bx	lr
 212              		.cfi_endproc
 213              	.LFE1:
 214              		.size	chSchReadyI, .-chSchReadyI
 215 002c AFF30080 		.section	.text.chSchGoSleepS,"ax",%progbits
 216              		.align	2
 217              		.p2align 4,,15
 218              		.global	chSchGoSleepS
 219              		.thumb
 220              		.thumb_func
 221              		.type	chSchGoSleepS, %function
 222              	chSchGoSleepS:
 223              	.LFB2:
 224              		.loc 1 115 0
ARM GAS  /tmp/ccX5VwdU.s 			page 5


 225              		.cfi_startproc
 226              		@ args = 0, pretend = 0, frame = 0
 227              		@ frame_needed = 0, uses_anonymous_args = 0
 228              	.LVL15:
 229 0000 38B5     		push	{r3, r4, r5, lr}
 230              		.cfi_def_cfa_offset 16
 231              		.cfi_offset 3, -16
 232              		.cfi_offset 4, -12
 233              		.cfi_offset 5, -8
 234              		.cfi_offset 14, -4
 235              		.loc 1 120 0
 236 0002 40F20004 		movw	r4, #:lower16:.LANCHOR0
 237 0006 C0F20004 		movt	r4, #:upper16:.LANCHOR0
 238 000a 2569     		ldr	r5, [r4, #16]
 239              	.LVL16:
 240              		.loc 1 124 0
 241 000c 1423     		movs	r3, #20
 242              		.loc 1 120 0
 243 000e 2874     		strb	r0, [r5, #16]
 244              		.loc 1 124 0
 245 0010 AB74     		strb	r3, [r5, #18]
 246              		.loc 1 126 0
 247 0012 2046     		mov	r0, r4
 248              	.LVL17:
 249 0014 FFF7FEFF 		bl	fifo_remove
 250              	.LVL18:
 251              		.loc 1 127 0
 252 0018 0123     		movs	r3, #1
 253              		.loc 1 126 0
 254 001a 2061     		str	r0, [r4, #16]
 255              		.loc 1 127 0
 256 001c 0374     		strb	r3, [r0, #16]
 257              		.loc 1 128 0
 258 001e 2946     		mov	r1, r5
 259 0020 2069     		ldr	r0, [r4, #16]
 260              		.loc 1 129 0
 261 0022 BDE83840 		pop	{r3, r4, r5, lr}
 262              	.LVL19:
 263              		.loc 1 128 0
 264 0026 FFF7FEBF 		b	_port_switch
 265              	.LVL20:
 266              		.cfi_endproc
 267              	.LFE2:
 268              		.size	chSchGoSleepS, .-chSchGoSleepS
 269 002a 00BFAFF3 		.section	.text.chSchGoSleepTimeoutS,"ax",%progbits
 269      0080
 270              		.align	2
 271              		.p2align 4,,15
 272              		.global	chSchGoSleepTimeoutS
 273              		.thumb
 274              		.thumb_func
 275              		.type	chSchGoSleepTimeoutS, %function
 276              	chSchGoSleepTimeoutS:
 277              	.LFB4:
 278              		.loc 1 189 0
 279              		.cfi_startproc
 280              		@ args = 0, pretend = 0, frame = 24
ARM GAS  /tmp/ccX5VwdU.s 			page 6


 281              		@ frame_needed = 0, uses_anonymous_args = 0
 282              	.LVL21:
 283 0000 30B5     		push	{r4, r5, lr}
 284              		.cfi_def_cfa_offset 12
 285              		.cfi_offset 4, -12
 286              		.cfi_offset 5, -8
 287              		.cfi_offset 14, -4
 288              		.loc 1 193 0
 289 0002 4B1C     		adds	r3, r1, #1
 290              		.loc 1 189 0
 291 0004 87B0     		sub	sp, sp, #28
 292              		.cfi_def_cfa_offset 40
 293              		.loc 1 189 0
 294 0006 0546     		mov	r5, r0
 295              		.loc 1 193 0
 296 0008 17D0     		beq	.L18
 297              	.LBB15:
 298              		.loc 1 196 0
 299 000a 40F20004 		movw	r4, #:lower16:.LANCHOR0
 300 000e C0F20004 		movt	r4, #:upper16:.LANCHOR0
 301 0012 40F20002 		movw	r2, #:lower16:wakeup
 302 0016 2369     		ldr	r3, [r4, #16]
 303 0018 01A8     		add	r0, sp, #4
 304              	.LVL22:
 305 001a C0F20002 		movt	r2, #:upper16:wakeup
 306 001e FFF7FEFF 		bl	chVTSetI
 307              	.LVL23:
 308              		.loc 1 197 0
 309 0022 2846     		mov	r0, r5
 310 0024 FFF7FEFF 		bl	chSchGoSleepS
 311              	.LVL24:
 312              		.loc 1 198 0
 313 0028 049B     		ldr	r3, [sp, #16]
 314 002a 13B1     		cbz	r3, .L20
 315              		.loc 1 199 0
 316 002c 01A8     		add	r0, sp, #4
 317 002e FFF7FEFF 		bl	chVTResetI
 318              	.LVL25:
 319              	.L20:
 320              	.LBE15:
 321              		.loc 1 203 0
 322 0032 2369     		ldr	r3, [r4, #16]
 323              		.loc 1 204 0
 324 0034 5869     		ldr	r0, [r3, #20]
 325 0036 07B0     		add	sp, sp, #28
 326              		@ sp needed
 327 0038 30BD     		pop	{r4, r5, pc}
 328              	.LVL26:
 329              	.L18:
 330              		.loc 1 202 0
 331 003a FFF7FEFF 		bl	chSchGoSleepS
 332              	.LVL27:
 333 003e 40F20004 		movw	r4, #:lower16:.LANCHOR0
 334 0042 C0F20004 		movt	r4, #:upper16:.LANCHOR0
 335              		.loc 1 203 0
 336 0046 2369     		ldr	r3, [r4, #16]
 337              		.loc 1 204 0
ARM GAS  /tmp/ccX5VwdU.s 			page 7


 338 0048 5869     		ldr	r0, [r3, #20]
 339 004a 07B0     		add	sp, sp, #28
 340              		@ sp needed
 341 004c 30BD     		pop	{r4, r5, pc}
 342              		.cfi_endproc
 343              	.LFE4:
 344              		.size	chSchGoSleepTimeoutS, .-chSchGoSleepTimeoutS
 345 004e 00BF     		.section	.text.chSchWakeupS,"ax",%progbits
 346              		.align	2
 347              		.p2align 4,,15
 348              		.global	chSchWakeupS
 349              		.thumb
 350              		.thumb_func
 351              		.type	chSchWakeupS, %function
 352              	chSchWakeupS:
 353              	.LFB5:
 354              		.loc 1 225 0
 355              		.cfi_startproc
 356              		@ args = 0, pretend = 0, frame = 0
 357              		@ frame_needed = 0, uses_anonymous_args = 0
 358              		@ link register save eliminated.
 359              	.LVL28:
 360 0000 F0B4     		push	{r4, r5, r6, r7}
 361              		.cfi_def_cfa_offset 16
 362              		.cfi_offset 4, -16
 363              		.cfi_offset 5, -12
 364              		.cfi_offset 6, -8
 365              		.cfi_offset 7, -4
 366              		.loc 1 234 0
 367 0002 40F20007 		movw	r7, #:lower16:.LANCHOR0
 368 0006 C0F20007 		movt	r7, #:upper16:.LANCHOR0
 369 000a D7F810C0 		ldr	ip, [r7, #16]
 370              		.loc 1 229 0
 371 000e 4161     		str	r1, [r0, #20]
 372              		.loc 1 234 0
 373 0010 DCF80840 		ldr	r4, [ip, #8]
 374 0014 8568     		ldr	r5, [r0, #8]
 375              		.loc 1 225 0
 376 0016 0646     		mov	r6, r0
 377              		.loc 1 234 0
 378 0018 A542     		cmp	r5, r4
 379 001a 0DD8     		bhi	.L25
 380              	.LVL29:
 381              	.LBB16:
 382              	.LBB17:
 383              		.loc 1 92 0
 384 001c 0022     		movs	r2, #0
 385              		.loc 1 93 0
 386 001e 3B46     		mov	r3, r7
 387              		.loc 1 92 0
 388 0020 0274     		strb	r2, [r0, #16]
 389              	.LVL30:
 390              	.L27:
 391              		.loc 1 95 0
 392 0022 1B68     		ldr	r3, [r3]
 393              	.LVL31:
 394              		.loc 1 96 0
ARM GAS  /tmp/ccX5VwdU.s 			page 8


 395 0024 9A68     		ldr	r2, [r3, #8]
 396 0026 9542     		cmp	r5, r2
 397 0028 FBD9     		bls	.L27
 398              		.loc 1 98 0
 399 002a 3360     		str	r3, [r6]
 400              		.loc 1 99 0
 401 002c 5A68     		ldr	r2, [r3, #4]
 402 002e 7260     		str	r2, [r6, #4]
 403              		.loc 1 100 0
 404 0030 5E60     		str	r6, [r3, #4]
 405 0032 1660     		str	r6, [r2]
 406              	.LBE17:
 407              	.LBE16:
 408              		.loc 1 242 0
 409 0034 F0BC     		pop	{r4, r5, r6, r7}
 410 0036 7047     		bx	lr
 411              	.LVL32:
 412              	.L25:
 413              	.LBB18:
 414              	.LBB19:
 415              	.LBB20:
 416              		.loc 1 92 0
 417 0038 0023     		movs	r3, #0
 418 003a 8CF81030 		strb	r3, [ip, #16]
 419              	.LVL33:
 420              		.loc 1 93 0
 421 003e 3B46     		mov	r3, r7
 422              	.LVL34:
 423              	.L30:
 424              		.loc 1 95 0
 425 0040 1B68     		ldr	r3, [r3]
 426              	.LVL35:
 427              		.loc 1 96 0
 428 0042 9A68     		ldr	r2, [r3, #8]
 429 0044 9442     		cmp	r4, r2
 430 0046 FBD9     		bls	.L30
 431              		.loc 1 98 0
 432 0048 CCF80030 		str	r3, [ip]
 433              		.loc 1 99 0
 434 004c 5A68     		ldr	r2, [r3, #4]
 435              	.LBE20:
 436              	.LBE19:
 437              		.loc 1 239 0
 438 004e 0124     		movs	r4, #1
 439              	.LBB22:
 440              	.LBB21:
 441              		.loc 1 99 0
 442 0050 CCF80420 		str	r2, [ip, #4]
 443              		.loc 1 100 0
 444 0054 C3F804C0 		str	ip, [r3, #4]
 445 0058 C2F800C0 		str	ip, [r2]
 446              	.LBE21:
 447              	.LBE22:
 448              		.loc 1 238 0
 449 005c 3E61     		str	r6, [r7, #16]
 450              		.loc 1 239 0
 451 005e 3474     		strb	r4, [r6, #16]
ARM GAS  /tmp/ccX5VwdU.s 			page 9


 452              		.loc 1 240 0
 453 0060 3046     		mov	r0, r6
 454              	.LVL36:
 455 0062 6146     		mov	r1, ip
 456              	.LVL37:
 457              	.LBE18:
 458              		.loc 1 242 0
 459 0064 F0BC     		pop	{r4, r5, r6, r7}
 460              	.LVL38:
 461              	.LBB23:
 462              		.loc 1 240 0
 463 0066 FFF7FEBF 		b	_port_switch
 464              	.LVL39:
 465              	.LBE23:
 466              		.cfi_endproc
 467              	.LFE5:
 468              		.size	chSchWakeupS, .-chSchWakeupS
 469 006a 00BFAFF3 		.section	.text.chSchDoRescheduleBehind,"ax",%progbits
 469      0080
 470              		.align	2
 471              		.p2align 4,,15
 472              		.global	chSchDoRescheduleBehind
 473              		.thumb
 474              		.thumb_func
 475              		.type	chSchDoRescheduleBehind, %function
 476              	chSchDoRescheduleBehind:
 477              	.LFB7:
 478              		.loc 1 304 0
 479              		.cfi_startproc
 480              		@ args = 0, pretend = 0, frame = 0
 481              		@ frame_needed = 0, uses_anonymous_args = 0
 482 0000 38B5     		push	{r3, r4, r5, lr}
 483              		.cfi_def_cfa_offset 16
 484              		.cfi_offset 3, -16
 485              		.cfi_offset 4, -12
 486              		.cfi_offset 5, -8
 487              		.cfi_offset 14, -4
 488              		.loc 1 307 0
 489 0002 40F20004 		movw	r4, #:lower16:.LANCHOR0
 490 0006 C0F20004 		movt	r4, #:upper16:.LANCHOR0
 491              		.loc 1 309 0
 492 000a 2046     		mov	r0, r4
 493              		.loc 1 307 0
 494 000c 2569     		ldr	r5, [r4, #16]
 495              	.LVL40:
 496              		.loc 1 309 0
 497 000e FFF7FEFF 		bl	fifo_remove
 498              	.LVL41:
 499              		.loc 1 310 0
 500 0012 0123     		movs	r3, #1
 501              		.loc 1 309 0
 502 0014 2061     		str	r0, [r4, #16]
 503              		.loc 1 310 0
 504 0016 0374     		strb	r3, [r0, #16]
 505              		.loc 1 312 0
 506 0018 1422     		movs	r2, #20
 507              	.LBB24:
ARM GAS  /tmp/ccX5VwdU.s 			page 10


 508              	.LBB25:
 509              		.loc 1 93 0
 510 001a 2046     		mov	r0, r4
 511              		.loc 1 92 0
 512 001c 0023     		movs	r3, #0
 513 001e AC68     		ldr	r4, [r5, #8]
 514 0020 2B74     		strb	r3, [r5, #16]
 515              	.LBE25:
 516              	.LBE24:
 517              		.loc 1 312 0
 518 0022 AA74     		strb	r2, [r5, #18]
 519              	.LVL42:
 520              	.LBB28:
 521              	.LBB26:
 522              		.loc 1 93 0
 523 0024 0346     		mov	r3, r0
 524              	.LVL43:
 525              	.L34:
 526              		.loc 1 95 0
 527 0026 1B68     		ldr	r3, [r3]
 528              	.LVL44:
 529              		.loc 1 96 0
 530 0028 9A68     		ldr	r2, [r3, #8]
 531 002a A242     		cmp	r2, r4
 532 002c FBD2     		bcs	.L34
 533              		.loc 1 98 0
 534 002e 2B60     		str	r3, [r5]
 535              		.loc 1 99 0
 536 0030 5A68     		ldr	r2, [r3, #4]
 537              	.LBE26:
 538              	.LBE28:
 539              		.loc 1 315 0
 540 0032 2946     		mov	r1, r5
 541              	.LBB29:
 542              	.LBB27:
 543              		.loc 1 99 0
 544 0034 6A60     		str	r2, [r5, #4]
 545              		.loc 1 100 0
 546 0036 5D60     		str	r5, [r3, #4]
 547 0038 1560     		str	r5, [r2]
 548              	.LBE27:
 549              	.LBE29:
 550              		.loc 1 315 0
 551 003a 0069     		ldr	r0, [r0, #16]
 552              		.loc 1 316 0
 553 003c BDE83840 		pop	{r3, r4, r5, lr}
 554              	.LVL45:
 555              		.loc 1 315 0
 556 0040 FFF7FEBF 		b	_port_switch
 557              	.LVL46:
 558              		.cfi_endproc
 559              	.LFE7:
 560              		.size	chSchDoRescheduleBehind, .-chSchDoRescheduleBehind
 561 0044 AFF30080 		.section	.text.chSchDoRescheduleAhead,"ax",%progbits
 561      AFF30080 
 561      AFF30080 
 562              		.align	2
ARM GAS  /tmp/ccX5VwdU.s 			page 11


 563              		.p2align 4,,15
 564              		.global	chSchDoRescheduleAhead
 565              		.thumb
 566              		.thumb_func
 567              		.type	chSchDoRescheduleAhead, %function
 568              	chSchDoRescheduleAhead:
 569              	.LFB8:
 570              		.loc 1 329 0
 571              		.cfi_startproc
 572              		@ args = 0, pretend = 0, frame = 0
 573              		@ frame_needed = 0, uses_anonymous_args = 0
 574 0000 38B5     		push	{r3, r4, r5, lr}
 575              		.cfi_def_cfa_offset 16
 576              		.cfi_offset 3, -16
 577              		.cfi_offset 4, -12
 578              		.cfi_offset 5, -8
 579              		.cfi_offset 14, -4
 580              		.loc 1 332 0
 581 0002 40F20004 		movw	r4, #:lower16:.LANCHOR0
 582 0006 C0F20004 		movt	r4, #:upper16:.LANCHOR0
 583              		.loc 1 334 0
 584 000a 2046     		mov	r0, r4
 585              		.loc 1 332 0
 586 000c 2569     		ldr	r5, [r4, #16]
 587              	.LVL47:
 588              		.loc 1 334 0
 589 000e FFF7FEFF 		bl	fifo_remove
 590              	.LVL48:
 591              		.loc 1 335 0
 592 0012 0123     		movs	r3, #1
 593              		.loc 1 334 0
 594 0014 2061     		str	r0, [r4, #16]
 595              		.loc 1 335 0
 596 0016 0374     		strb	r3, [r0, #16]
 597              		.loc 1 338 0
 598 0018 2046     		mov	r0, r4
 599              		.loc 1 337 0
 600 001a 0023     		movs	r3, #0
 601 001c AC68     		ldr	r4, [r5, #8]
 602 001e 2B74     		strb	r3, [r5, #16]
 603              	.LVL49:
 604              		.loc 1 338 0
 605 0020 0346     		mov	r3, r0
 606              	.LVL50:
 607              	.L37:
 608              		.loc 1 340 0 discriminator 1
 609 0022 1B68     		ldr	r3, [r3]
 610              	.LVL51:
 611              		.loc 1 341 0 discriminator 1
 612 0024 9A68     		ldr	r2, [r3, #8]
 613 0026 A242     		cmp	r2, r4
 614 0028 FBD8     		bhi	.L37
 615              		.loc 1 343 0
 616 002a 2B60     		str	r3, [r5]
 617              		.loc 1 344 0
 618 002c 5A68     		ldr	r2, [r3, #4]
 619              		.loc 1 347 0
ARM GAS  /tmp/ccX5VwdU.s 			page 12


 620 002e 2946     		mov	r1, r5
 621              		.loc 1 344 0
 622 0030 6A60     		str	r2, [r5, #4]
 623              		.loc 1 345 0
 624 0032 5D60     		str	r5, [r3, #4]
 625 0034 1560     		str	r5, [r2]
 626              		.loc 1 347 0
 627 0036 0069     		ldr	r0, [r0, #16]
 628              		.loc 1 348 0
 629 0038 BDE83840 		pop	{r3, r4, r5, lr}
 630              	.LVL52:
 631              		.loc 1 347 0
 632 003c FFF7FEBF 		b	_port_switch
 633              	.LVL53:
 634              		.cfi_endproc
 635              	.LFE8:
 636              		.size	chSchDoRescheduleAhead, .-chSchDoRescheduleAhead
 637              		.section	.text.chSchRescheduleS,"ax",%progbits
 638              		.align	2
 639              		.p2align 4,,15
 640              		.global	chSchRescheduleS
 641              		.thumb
 642              		.thumb_func
 643              		.type	chSchRescheduleS, %function
 644              	chSchRescheduleS:
 645              	.LFB6:
 646              		.loc 1 253 0
 647              		.cfi_startproc
 648              		@ args = 0, pretend = 0, frame = 0
 649              		@ frame_needed = 0, uses_anonymous_args = 0
 650              		@ link register save eliminated.
 651              		.loc 1 257 0
 652 0000 40F20003 		movw	r3, #:lower16:.LANCHOR0
 653 0004 C0F20003 		movt	r3, #:upper16:.LANCHOR0
 654 0008 1A68     		ldr	r2, [r3]
 655 000a 1B69     		ldr	r3, [r3, #16]
 656 000c 9268     		ldr	r2, [r2, #8]
 657 000e 9B68     		ldr	r3, [r3, #8]
 658 0010 9A42     		cmp	r2, r3
 659 0012 00D8     		bhi	.L40
 660 0014 7047     		bx	lr
 661              	.L40:
 662              		.loc 1 258 0
 663 0016 FFF7FEBF 		b	chSchDoRescheduleAhead
 664              	.LVL54:
 665              		.cfi_endproc
 666              	.LFE6:
 667              		.size	chSchRescheduleS, .-chSchRescheduleS
 668 001a 00BFAFF3 		.section	.text.chSchDoReschedule,"ax",%progbits
 668      0080
 669              		.align	2
 670              		.p2align 4,,15
 671              		.global	chSchDoReschedule
 672              		.thumb
 673              		.thumb_func
 674              		.type	chSchDoReschedule, %function
 675              	chSchDoReschedule:
ARM GAS  /tmp/ccX5VwdU.s 			page 13


 676              	.LFB9:
 677              		.loc 1 362 0
 678              		.cfi_startproc
 679              		@ args = 0, pretend = 0, frame = 0
 680              		@ frame_needed = 0, uses_anonymous_args = 0
 681              		@ link register save eliminated.
 682              		.loc 1 367 0
 683 0000 40F20003 		movw	r3, #:lower16:.LANCHOR0
 684 0004 C0F20003 		movt	r3, #:upper16:.LANCHOR0
 685 0008 1B69     		ldr	r3, [r3, #16]
 686 000a 9B7C     		ldrb	r3, [r3, #18]	@ zero_extendqisi2
 687 000c 0BB1     		cbz	r3, .L43
 688              		.loc 1 375 0
 689 000e FFF7FEBF 		b	chSchDoRescheduleAhead
 690              	.LVL55:
 691              	.L43:
 692              		.loc 1 370 0
 693 0012 FFF7FEBF 		b	chSchDoRescheduleBehind
 694              	.LVL56:
 695              		.cfi_endproc
 696              	.LFE9:
 697              		.size	chSchDoReschedule, .-chSchDoReschedule
 698              		.global	rlist
 699 0016 00BFAFF3 		.section	.bss.rlist,"aw",%nobits
 699      0080AFF3 
 699      0080
 700              		.align	2
 701              		.set	.LANCHOR0,. + 0
 702              		.type	rlist, %object
 703              		.size	rlist, 20
 704              	rlist:
 705 0000 00000000 		.space	20
 705      00000000 
 705      00000000 
 705      00000000 
 705      00000000 
 706              		.text
 707              	.Letext0:
 708              		.file 2 "/usr/include/newlib/machine/_default_types.h"
 709              		.file 3 "/usr/include/newlib/stdint.h"
 710              		.file 4 "../os/ports/GCC/ARMCMx/chtypes.h"
 711              		.file 5 "../os/kernel/include/chlists.h"
 712              		.file 6 "../os/kernel/include/chthreads.h"
 713              		.file 7 "../os/ports/GCC/ARMCMx/chcore_v7m.h"
 714              		.file 8 "../os/kernel/include/chvt.h"
 715              		.file 9 "../os/kernel/include/chschd.h"
 716              		.file 10 "../os/kernel/include/chsem.h"
 717              		.file 11 "../os/kernel/include/chmtx.h"
 718              		.section	.debug_info,"",%progbits
 719              	.Ldebug_info0:
 720 0000 34080000 		.4byte	0x834
 721 0004 0400     		.2byte	0x4
 722 0006 00000000 		.4byte	.Ldebug_abbrev0
 723 000a 04       		.byte	0x4
 724 000b 01       		.uleb128 0x1
 725 000c 2E000000 		.4byte	.LASF80
 726 0010 01       		.byte	0x1
ARM GAS  /tmp/ccX5VwdU.s 			page 14


 727 0011 31030000 		.4byte	.LASF81
 728 0015 8E030000 		.4byte	.LASF82
 729 0019 68000000 		.4byte	.Ldebug_ranges0+0x68
 730 001d 00000000 		.4byte	0
 731 0021 00000000 		.4byte	.Ldebug_line0
 732 0025 02       		.uleb128 0x2
 733 0026 04       		.byte	0x4
 734 0027 05       		.byte	0x5
 735 0028 696E7400 		.ascii	"int\000"
 736 002c 03       		.uleb128 0x3
 737 002d 04       		.byte	0x4
 738 002e 07       		.byte	0x7
 739 002f A2010000 		.4byte	.LASF0
 740 0033 03       		.uleb128 0x3
 741 0034 01       		.byte	0x1
 742 0035 06       		.byte	0x6
 743 0036 25010000 		.4byte	.LASF1
 744 003a 04       		.uleb128 0x4
 745 003b 24000000 		.4byte	.LASF5
 746 003f 02       		.byte	0x2
 747 0040 1C       		.byte	0x1c
 748 0041 45000000 		.4byte	0x45
 749 0045 03       		.uleb128 0x3
 750 0046 01       		.byte	0x1
 751 0047 08       		.byte	0x8
 752 0048 C5020000 		.4byte	.LASF2
 753 004c 03       		.uleb128 0x3
 754 004d 02       		.byte	0x2
 755 004e 05       		.byte	0x5
 756 004f E6020000 		.4byte	.LASF3
 757 0053 03       		.uleb128 0x3
 758 0054 02       		.byte	0x2
 759 0055 07       		.byte	0x7
 760 0056 EC010000 		.4byte	.LASF4
 761 005a 04       		.uleb128 0x4
 762 005b FC030000 		.4byte	.LASF6
 763 005f 02       		.byte	0x2
 764 0060 37       		.byte	0x37
 765 0061 65000000 		.4byte	0x65
 766 0065 03       		.uleb128 0x3
 767 0066 04       		.byte	0x4
 768 0067 05       		.byte	0x5
 769 0068 43010000 		.4byte	.LASF7
 770 006c 04       		.uleb128 0x4
 771 006d 6E010000 		.4byte	.LASF8
 772 0071 02       		.byte	0x2
 773 0072 38       		.byte	0x38
 774 0073 77000000 		.4byte	0x77
 775 0077 03       		.uleb128 0x3
 776 0078 04       		.byte	0x4
 777 0079 07       		.byte	0x7
 778 007a CB010000 		.4byte	.LASF9
 779 007e 03       		.uleb128 0x3
 780 007f 08       		.byte	0x8
 781 0080 05       		.byte	0x5
 782 0081 17010000 		.4byte	.LASF10
 783 0085 03       		.uleb128 0x3
ARM GAS  /tmp/ccX5VwdU.s 			page 15


 784 0086 08       		.byte	0x8
 785 0087 07       		.byte	0x7
 786 0088 E0000000 		.4byte	.LASF11
 787 008c 04       		.uleb128 0x4
 788 008d 41040000 		.4byte	.LASF12
 789 0091 03       		.byte	0x3
 790 0092 2A       		.byte	0x2a
 791 0093 3A000000 		.4byte	0x3a
 792 0097 04       		.uleb128 0x4
 793 0098 BD020000 		.4byte	.LASF13
 794 009c 03       		.byte	0x3
 795 009d 41       		.byte	0x41
 796 009e 5A000000 		.4byte	0x5a
 797 00a2 04       		.uleb128 0x4
 798 00a3 64030000 		.4byte	.LASF14
 799 00a7 03       		.byte	0x3
 800 00a8 42       		.byte	0x42
 801 00a9 6C000000 		.4byte	0x6c
 802 00ad 03       		.uleb128 0x3
 803 00ae 01       		.byte	0x1
 804 00af 02       		.byte	0x2
 805 00b0 B7020000 		.4byte	.LASF15
 806 00b4 04       		.uleb128 0x4
 807 00b5 12020000 		.4byte	.LASF16
 808 00b9 04       		.byte	0x4
 809 00ba 2C       		.byte	0x2c
 810 00bb 8C000000 		.4byte	0x8c
 811 00bf 04       		.uleb128 0x4
 812 00c0 4C010000 		.4byte	.LASF17
 813 00c4 04       		.byte	0x4
 814 00c5 2D       		.byte	0x2d
 815 00c6 8C000000 		.4byte	0x8c
 816 00ca 04       		.uleb128 0x4
 817 00cb 39010000 		.4byte	.LASF18
 818 00cf 04       		.byte	0x4
 819 00d0 2F       		.byte	0x2f
 820 00d1 8C000000 		.4byte	0x8c
 821 00d5 04       		.uleb128 0x4
 822 00d6 AF020000 		.4byte	.LASF19
 823 00da 04       		.byte	0x4
 824 00db 30       		.byte	0x30
 825 00dc A2000000 		.4byte	0xa2
 826 00e0 04       		.uleb128 0x4
 827 00e1 0C020000 		.4byte	.LASF20
 828 00e5 04       		.byte	0x4
 829 00e6 31       		.byte	0x31
 830 00e7 97000000 		.4byte	0x97
 831 00eb 04       		.uleb128 0x4
 832 00ec 26020000 		.4byte	.LASF21
 833 00f0 04       		.byte	0x4
 834 00f1 33       		.byte	0x33
 835 00f2 A2000000 		.4byte	0xa2
 836 00f6 04       		.uleb128 0x4
 837 00f7 E7030000 		.4byte	.LASF22
 838 00fb 04       		.byte	0x4
 839 00fc 35       		.byte	0x35
 840 00fd A2000000 		.4byte	0xa2
ARM GAS  /tmp/ccX5VwdU.s 			page 16


 841 0101 04       		.uleb128 0x4
 842 0102 9C010000 		.4byte	.LASF23
 843 0106 04       		.byte	0x4
 844 0107 36       		.byte	0x36
 845 0108 97000000 		.4byte	0x97
 846 010c 04       		.uleb128 0x4
 847 010d 1F030000 		.4byte	.LASF24
 848 0111 05       		.byte	0x5
 849 0112 2A       		.byte	0x2a
 850 0113 17010000 		.4byte	0x117
 851 0117 05       		.uleb128 0x5
 852 0118 1F030000 		.4byte	.LASF24
 853 011c 34       		.byte	0x34
 854 011d 06       		.byte	0x6
 855 011e 5E       		.byte	0x5e
 856 011f CC010000 		.4byte	0x1cc
 857 0123 06       		.uleb128 0x6
 858 0124 10030000 		.4byte	.LASF25
 859 0128 06       		.byte	0x6
 860 0129 5F       		.byte	0x5f
 861 012a ED010000 		.4byte	0x1ed
 862 012e 00       		.byte	0
 863 012f 06       		.uleb128 0x6
 864 0130 A8020000 		.4byte	.LASF26
 865 0134 06       		.byte	0x6
 866 0135 61       		.byte	0x61
 867 0136 ED010000 		.4byte	0x1ed
 868 013a 04       		.byte	0x4
 869 013b 06       		.uleb128 0x6
 870 013c 00010000 		.4byte	.LASF27
 871 0140 06       		.byte	0x6
 872 0141 63       		.byte	0x63
 873 0142 D5000000 		.4byte	0xd5
 874 0146 08       		.byte	0x8
 875 0147 06       		.uleb128 0x6
 876 0148 6D040000 		.4byte	.LASF28
 877 014c 06       		.byte	0x6
 878 014d 64       		.byte	0x64
 879 014e A7020000 		.4byte	0x2a7
 880 0152 0C       		.byte	0xc
 881 0153 06       		.uleb128 0x6
 882 0154 F0020000 		.4byte	.LASF29
 883 0158 06       		.byte	0x6
 884 0159 79       		.byte	0x79
 885 015a BF000000 		.4byte	0xbf
 886 015e 10       		.byte	0x10
 887 015f 06       		.uleb128 0x6
 888 0160 17030000 		.4byte	.LASF30
 889 0164 06       		.byte	0x6
 890 0165 7D       		.byte	0x7d
 891 0166 B4000000 		.4byte	0xb4
 892 016a 11       		.byte	0x11
 893 016b 06       		.uleb128 0x6
 894 016c F8020000 		.4byte	.LASF31
 895 0170 06       		.byte	0x6
 896 0171 88       		.byte	0x88
 897 0172 CA000000 		.4byte	0xca
ARM GAS  /tmp/ccX5VwdU.s 			page 17


 898 0176 12       		.byte	0x12
 899 0177 07       		.uleb128 0x7
 900 0178 705F7500 		.ascii	"p_u\000"
 901 017c 06       		.byte	0x6
 902 017d B4       		.byte	0xb4
 903 017e FB030000 		.4byte	0x3fb
 904 0182 14       		.byte	0x14
 905 0183 06       		.uleb128 0x6
 906 0184 73040000 		.4byte	.LASF32
 907 0188 06       		.byte	0x6
 908 0189 B9       		.byte	0xb9
 909 018a 13020000 		.4byte	0x213
 910 018e 18       		.byte	0x18
 911 018f 06       		.uleb128 0x6
 912 0190 15040000 		.4byte	.LASF33
 913 0194 06       		.byte	0x6
 914 0195 BF       		.byte	0xbf
 915 0196 F3010000 		.4byte	0x1f3
 916 019a 1C       		.byte	0x1c
 917 019b 06       		.uleb128 0x6
 918 019c 00000000 		.4byte	.LASF34
 919 01a0 06       		.byte	0x6
 920 01a1 C3       		.byte	0xc3
 921 01a2 E0000000 		.4byte	0xe0
 922 01a6 24       		.byte	0x24
 923 01a7 06       		.uleb128 0x6
 924 01a8 59030000 		.4byte	.LASF35
 925 01ac 06       		.byte	0x6
 926 01ad C9       		.byte	0xc9
 927 01ae EB000000 		.4byte	0xeb
 928 01b2 28       		.byte	0x28
 929 01b3 06       		.uleb128 0x6
 930 01b4 DC020000 		.4byte	.LASF36
 931 01b8 06       		.byte	0x6
 932 01b9 D0       		.byte	0xd0
 933 01ba 30040000 		.4byte	0x430
 934 01be 2C       		.byte	0x2c
 935 01bf 06       		.uleb128 0x6
 936 01c0 F1030000 		.4byte	.LASF37
 937 01c4 06       		.byte	0x6
 938 01c5 D4       		.byte	0xd4
 939 01c6 D5000000 		.4byte	0xd5
 940 01ca 30       		.byte	0x30
 941 01cb 00       		.byte	0
 942 01cc 08       		.uleb128 0x8
 943 01cd 08       		.byte	0x8
 944 01ce 05       		.byte	0x5
 945 01cf 61       		.byte	0x61
 946 01d0 ED010000 		.4byte	0x1ed
 947 01d4 06       		.uleb128 0x6
 948 01d5 10030000 		.4byte	.LASF25
 949 01d9 05       		.byte	0x5
 950 01da 62       		.byte	0x62
 951 01db ED010000 		.4byte	0x1ed
 952 01df 00       		.byte	0
 953 01e0 06       		.uleb128 0x6
 954 01e1 A8020000 		.4byte	.LASF26
ARM GAS  /tmp/ccX5VwdU.s 			page 18


 955 01e5 05       		.byte	0x5
 956 01e6 64       		.byte	0x64
 957 01e7 ED010000 		.4byte	0x1ed
 958 01eb 04       		.byte	0x4
 959 01ec 00       		.byte	0
 960 01ed 09       		.uleb128 0x9
 961 01ee 04       		.byte	0x4
 962 01ef 0C010000 		.4byte	0x10c
 963 01f3 04       		.uleb128 0x4
 964 01f4 8C020000 		.4byte	.LASF38
 965 01f8 05       		.byte	0x5
 966 01f9 66       		.byte	0x66
 967 01fa CC010000 		.4byte	0x1cc
 968 01fe 08       		.uleb128 0x8
 969 01ff 04       		.byte	0x4
 970 0200 05       		.byte	0x5
 971 0201 6B       		.byte	0x6b
 972 0202 13020000 		.4byte	0x213
 973 0206 06       		.uleb128 0x6
 974 0207 10030000 		.4byte	.LASF25
 975 020b 05       		.byte	0x5
 976 020c 6D       		.byte	0x6d
 977 020d ED010000 		.4byte	0x1ed
 978 0211 00       		.byte	0
 979 0212 00       		.byte	0
 980 0213 04       		.uleb128 0x4
 981 0214 1A020000 		.4byte	.LASF39
 982 0218 05       		.byte	0x5
 983 0219 70       		.byte	0x70
 984 021a FE010000 		.4byte	0x1fe
 985 021e 04       		.uleb128 0x4
 986 021f 79010000 		.4byte	.LASF40
 987 0223 07       		.byte	0x7
 988 0224 E5       		.byte	0xe5
 989 0225 29020000 		.4byte	0x229
 990 0229 0A       		.uleb128 0xa
 991 022a 04       		.byte	0x4
 992 022b 0B       		.uleb128 0xb
 993 022c 0E040000 		.4byte	.LASF41
 994 0230 24       		.byte	0x24
 995 0231 07       		.byte	0x7
 996 0232 0C01     		.2byte	0x10c
 997 0234 A7020000 		.4byte	0x2a7
 998 0238 0C       		.uleb128 0xc
 999 0239 723400   		.ascii	"r4\000"
 1000 023c 07       		.byte	0x7
 1001 023d 1F01     		.2byte	0x11f
 1002 023f 1E020000 		.4byte	0x21e
 1003 0243 00       		.byte	0
 1004 0244 0C       		.uleb128 0xc
 1005 0245 723500   		.ascii	"r5\000"
 1006 0248 07       		.byte	0x7
 1007 0249 2001     		.2byte	0x120
 1008 024b 1E020000 		.4byte	0x21e
 1009 024f 04       		.byte	0x4
 1010 0250 0C       		.uleb128 0xc
 1011 0251 723600   		.ascii	"r6\000"
ARM GAS  /tmp/ccX5VwdU.s 			page 19


 1012 0254 07       		.byte	0x7
 1013 0255 2101     		.2byte	0x121
 1014 0257 1E020000 		.4byte	0x21e
 1015 025b 08       		.byte	0x8
 1016 025c 0C       		.uleb128 0xc
 1017 025d 723700   		.ascii	"r7\000"
 1018 0260 07       		.byte	0x7
 1019 0261 2201     		.2byte	0x122
 1020 0263 1E020000 		.4byte	0x21e
 1021 0267 0C       		.byte	0xc
 1022 0268 0C       		.uleb128 0xc
 1023 0269 723800   		.ascii	"r8\000"
 1024 026c 07       		.byte	0x7
 1025 026d 2301     		.2byte	0x123
 1026 026f 1E020000 		.4byte	0x21e
 1027 0273 10       		.byte	0x10
 1028 0274 0C       		.uleb128 0xc
 1029 0275 723900   		.ascii	"r9\000"
 1030 0278 07       		.byte	0x7
 1031 0279 2401     		.2byte	0x124
 1032 027b 1E020000 		.4byte	0x21e
 1033 027f 14       		.byte	0x14
 1034 0280 0C       		.uleb128 0xc
 1035 0281 72313000 		.ascii	"r10\000"
 1036 0285 07       		.byte	0x7
 1037 0286 2501     		.2byte	0x125
 1038 0288 1E020000 		.4byte	0x21e
 1039 028c 18       		.byte	0x18
 1040 028d 0C       		.uleb128 0xc
 1041 028e 72313100 		.ascii	"r11\000"
 1042 0292 07       		.byte	0x7
 1043 0293 2601     		.2byte	0x126
 1044 0295 1E020000 		.4byte	0x21e
 1045 0299 1C       		.byte	0x1c
 1046 029a 0C       		.uleb128 0xc
 1047 029b 6C7200   		.ascii	"lr\000"
 1048 029e 07       		.byte	0x7
 1049 029f 2701     		.2byte	0x127
 1050 02a1 1E020000 		.4byte	0x21e
 1051 02a5 20       		.byte	0x20
 1052 02a6 00       		.byte	0
 1053 02a7 0B       		.uleb128 0xb
 1054 02a8 06040000 		.4byte	.LASF42
 1055 02ac 04       		.byte	0x4
 1056 02ad 07       		.byte	0x7
 1057 02ae 3101     		.2byte	0x131
 1058 02b0 C2020000 		.4byte	0x2c2
 1059 02b4 0C       		.uleb128 0xc
 1060 02b5 72313300 		.ascii	"r13\000"
 1061 02b9 07       		.byte	0x7
 1062 02ba 3201     		.2byte	0x132
 1063 02bc C2020000 		.4byte	0x2c2
 1064 02c0 00       		.byte	0
 1065 02c1 00       		.byte	0
 1066 02c2 09       		.uleb128 0x9
 1067 02c3 04       		.byte	0x4
 1068 02c4 2B020000 		.4byte	0x22b
ARM GAS  /tmp/ccX5VwdU.s 			page 20


 1069 02c8 03       		.uleb128 0x3
 1070 02c9 04       		.byte	0x4
 1071 02ca 07       		.byte	0x7
 1072 02cb 40020000 		.4byte	.LASF43
 1073 02cf 04       		.uleb128 0x4
 1074 02d0 DD010000 		.4byte	.LASF44
 1075 02d4 08       		.byte	0x8
 1076 02d5 58       		.byte	0x58
 1077 02d6 DA020000 		.4byte	0x2da
 1078 02da 09       		.uleb128 0x9
 1079 02db 04       		.byte	0x4
 1080 02dc E0020000 		.4byte	0x2e0
 1081 02e0 0D       		.uleb128 0xd
 1082 02e1 EB020000 		.4byte	0x2eb
 1083 02e5 0E       		.uleb128 0xe
 1084 02e6 29020000 		.4byte	0x229
 1085 02ea 00       		.byte	0
 1086 02eb 04       		.uleb128 0x4
 1087 02ec 75030000 		.4byte	.LASF45
 1088 02f0 08       		.byte	0x8
 1089 02f1 5D       		.byte	0x5d
 1090 02f2 F6020000 		.4byte	0x2f6
 1091 02f6 05       		.uleb128 0x5
 1092 02f7 75030000 		.4byte	.LASF45
 1093 02fb 14       		.byte	0x14
 1094 02fc 08       		.byte	0x8
 1095 02fd 64       		.byte	0x64
 1096 02fe 3F030000 		.4byte	0x33f
 1097 0302 06       		.uleb128 0x6
 1098 0303 B6010000 		.4byte	.LASF46
 1099 0307 08       		.byte	0x8
 1100 0308 65       		.byte	0x65
 1101 0309 3F030000 		.4byte	0x33f
 1102 030d 00       		.byte	0
 1103 030e 06       		.uleb128 0x6
 1104 030f 82010000 		.4byte	.LASF47
 1105 0313 08       		.byte	0x8
 1106 0314 67       		.byte	0x67
 1107 0315 3F030000 		.4byte	0x33f
 1108 0319 04       		.byte	0x4
 1109 031a 06       		.uleb128 0x6
 1110 031b 38020000 		.4byte	.LASF48
 1111 031f 08       		.byte	0x8
 1112 0320 69       		.byte	0x69
 1113 0321 F6000000 		.4byte	0xf6
 1114 0325 08       		.byte	0x8
 1115 0326 06       		.uleb128 0x6
 1116 0327 49020000 		.4byte	.LASF49
 1117 032b 08       		.byte	0x8
 1118 032c 6A       		.byte	0x6a
 1119 032d CF020000 		.4byte	0x2cf
 1120 0331 0C       		.byte	0xc
 1121 0332 06       		.uleb128 0x6
 1122 0333 20040000 		.4byte	.LASF50
 1123 0337 08       		.byte	0x8
 1124 0338 6C       		.byte	0x6c
 1125 0339 29020000 		.4byte	0x229
ARM GAS  /tmp/ccX5VwdU.s 			page 21


 1126 033d 10       		.byte	0x10
 1127 033e 00       		.byte	0
 1128 033f 09       		.uleb128 0x9
 1129 0340 04       		.byte	0x4
 1130 0341 EB020000 		.4byte	0x2eb
 1131 0345 08       		.uleb128 0x8
 1132 0346 14       		.byte	0x14
 1133 0347 09       		.byte	0x9
 1134 0348 5E       		.byte	0x5e
 1135 0349 7E030000 		.4byte	0x37e
 1136 034d 06       		.uleb128 0x6
 1137 034e 6D030000 		.4byte	.LASF51
 1138 0352 09       		.byte	0x9
 1139 0353 5F       		.byte	0x5f
 1140 0354 F3010000 		.4byte	0x1f3
 1141 0358 00       		.byte	0
 1142 0359 06       		.uleb128 0x6
 1143 035a 02030000 		.4byte	.LASF52
 1144 035e 09       		.byte	0x9
 1145 035f 60       		.byte	0x60
 1146 0360 D5000000 		.4byte	0xd5
 1147 0364 08       		.byte	0x8
 1148 0365 06       		.uleb128 0x6
 1149 0366 86020000 		.4byte	.LASF53
 1150 036a 09       		.byte	0x9
 1151 036b 62       		.byte	0x62
 1152 036c A7020000 		.4byte	0x2a7
 1153 0370 0C       		.byte	0xc
 1154 0371 06       		.uleb128 0x6
 1155 0372 9E020000 		.4byte	.LASF54
 1156 0376 09       		.byte	0x9
 1157 0377 69       		.byte	0x69
 1158 0378 ED010000 		.4byte	0x1ed
 1159 037c 10       		.byte	0x10
 1160 037d 00       		.byte	0
 1161 037e 04       		.uleb128 0x4
 1162 037f 31040000 		.4byte	.LASF55
 1163 0383 09       		.byte	0x9
 1164 0384 6B       		.byte	0x6b
 1165 0385 45030000 		.4byte	0x345
 1166 0389 05       		.uleb128 0x5
 1167 038a 27040000 		.4byte	.LASF56
 1168 038e 0C       		.byte	0xc
 1169 038f 0A       		.byte	0xa
 1170 0390 2C       		.byte	0x2c
 1171 0391 AE030000 		.4byte	0x3ae
 1172 0395 06       		.uleb128 0x6
 1173 0396 55010000 		.4byte	.LASF57
 1174 039a 0A       		.byte	0xa
 1175 039b 2D       		.byte	0x2d
 1176 039c F3010000 		.4byte	0x1f3
 1177 03a0 00       		.byte	0
 1178 03a1 06       		.uleb128 0x6
 1179 03a2 E6010000 		.4byte	.LASF58
 1180 03a6 0A       		.byte	0xa
 1181 03a7 2F       		.byte	0x2f
 1182 03a8 01010000 		.4byte	0x101
ARM GAS  /tmp/ccX5VwdU.s 			page 22


 1183 03ac 08       		.byte	0x8
 1184 03ad 00       		.byte	0
 1185 03ae 04       		.uleb128 0x4
 1186 03af 27040000 		.4byte	.LASF56
 1187 03b3 0A       		.byte	0xa
 1188 03b4 30       		.byte	0x30
 1189 03b5 89030000 		.4byte	0x389
 1190 03b9 05       		.uleb128 0x5
 1191 03ba 32020000 		.4byte	.LASF59
 1192 03be 10       		.byte	0x10
 1193 03bf 0B       		.byte	0xb
 1194 03c0 2C       		.byte	0x2c
 1195 03c1 EA030000 		.4byte	0x3ea
 1196 03c5 06       		.uleb128 0x6
 1197 03c6 31010000 		.4byte	.LASF60
 1198 03ca 0B       		.byte	0xb
 1199 03cb 2D       		.byte	0x2d
 1200 03cc F3010000 		.4byte	0x1f3
 1201 03d0 00       		.byte	0
 1202 03d1 06       		.uleb128 0x6
 1203 03d2 65040000 		.4byte	.LASF61
 1204 03d6 0B       		.byte	0xb
 1205 03d7 2F       		.byte	0x2f
 1206 03d8 ED010000 		.4byte	0x1ed
 1207 03dc 08       		.byte	0x8
 1208 03dd 06       		.uleb128 0x6
 1209 03de E0030000 		.4byte	.LASF62
 1210 03e2 0B       		.byte	0xb
 1211 03e3 31       		.byte	0x31
 1212 03e4 EA030000 		.4byte	0x3ea
 1213 03e8 0C       		.byte	0xc
 1214 03e9 00       		.byte	0
 1215 03ea 09       		.uleb128 0x9
 1216 03eb 04       		.byte	0x4
 1217 03ec B9030000 		.4byte	0x3b9
 1218 03f0 04       		.uleb128 0x4
 1219 03f1 32020000 		.4byte	.LASF59
 1220 03f5 0B       		.byte	0xb
 1221 03f6 33       		.byte	0x33
 1222 03f7 B9030000 		.4byte	0x3b9
 1223 03fb 0F       		.uleb128 0xf
 1224 03fc 04       		.byte	0x4
 1225 03fd 06       		.byte	0x6
 1226 03fe 96       		.byte	0x96
 1227 03ff 30040000 		.4byte	0x430
 1228 0403 10       		.uleb128 0x10
 1229 0404 06000000 		.4byte	.LASF63
 1230 0408 06       		.byte	0x6
 1231 0409 9D       		.byte	0x9d
 1232 040a E0000000 		.4byte	0xe0
 1233 040e 10       		.uleb128 0x10
 1234 040f F7000000 		.4byte	.LASF64
 1235 0413 06       		.byte	0x6
 1236 0414 A4       		.byte	0xa4
 1237 0415 E0000000 		.4byte	0xe0
 1238 0419 10       		.uleb128 0x10
 1239 041a 49040000 		.4byte	.LASF65
ARM GAS  /tmp/ccX5VwdU.s 			page 23


 1240 041e 06       		.byte	0x6
 1241 041f AB       		.byte	0xab
 1242 0420 29020000 		.4byte	0x229
 1243 0424 10       		.uleb128 0x10
 1244 0425 09030000 		.4byte	.LASF66
 1245 0429 06       		.byte	0x6
 1246 042a B2       		.byte	0xb2
 1247 042b EB000000 		.4byte	0xeb
 1248 042f 00       		.byte	0
 1249 0430 09       		.uleb128 0x9
 1250 0431 04       		.byte	0x4
 1251 0432 F0030000 		.4byte	0x3f0
 1252 0436 11       		.uleb128 0x11
 1253 0437 82030000 		.4byte	.LASF75
 1254 043b 01       		.byte	0x1
 1255 043c 51       		.byte	0x51
 1256 043d ED010000 		.4byte	0x1ed
 1257 0441 01       		.byte	0x1
 1258 0442 5B040000 		.4byte	0x45b
 1259 0446 12       		.uleb128 0x12
 1260 0447 747000   		.ascii	"tp\000"
 1261 044a 01       		.byte	0x1
 1262 044b 51       		.byte	0x51
 1263 044c ED010000 		.4byte	0x1ed
 1264 0450 13       		.uleb128 0x13
 1265 0451 637000   		.ascii	"cp\000"
 1266 0454 01       		.byte	0x1
 1267 0455 52       		.byte	0x52
 1268 0456 ED010000 		.4byte	0x1ed
 1269 045a 00       		.byte	0
 1270 045b 14       		.uleb128 0x14
 1271 045c AF010000 		.4byte	.LASF83
 1272 0460 01       		.byte	0x1
 1273 0461 88       		.byte	0x88
 1274 0462 00000000 		.4byte	.LFB3
 1275 0466 5A000000 		.4byte	.LFE3-.LFB3
 1276 046a 01       		.uleb128 0x1
 1277 046b 9C       		.byte	0x9c
 1278 046c C8040000 		.4byte	0x4c8
 1279 0470 15       		.uleb128 0x15
 1280 0471 7000     		.ascii	"p\000"
 1281 0473 01       		.byte	0x1
 1282 0474 88       		.byte	0x88
 1283 0475 29020000 		.4byte	0x229
 1284 0479 00000000 		.4byte	.LLST0
 1285 047d 16       		.uleb128 0x16
 1286 047e 747000   		.ascii	"tp\000"
 1287 0481 01       		.byte	0x1
 1288 0482 89       		.byte	0x89
 1289 0483 ED010000 		.4byte	0x1ed
 1290 0487 1E000000 		.4byte	.LLST1
 1291 048b 17       		.uleb128 0x17
 1292 048c 36040000 		.4byte	0x436
 1293 0490 32000000 		.4byte	.LBB11
 1294 0494 00000000 		.4byte	.Ldebug_ranges0+0
 1295 0498 01       		.byte	0x1
 1296 0499 A4       		.byte	0xa4
ARM GAS  /tmp/ccX5VwdU.s 			page 24


 1297 049a B7040000 		.4byte	0x4b7
 1298 049e 18       		.uleb128 0x18
 1299 049f 46040000 		.4byte	0x446
 1300 04a3 3C000000 		.4byte	.LLST2
 1301 04a7 19       		.uleb128 0x19
 1302 04a8 00000000 		.4byte	.Ldebug_ranges0+0
 1303 04ac 1A       		.uleb128 0x1a
 1304 04ad 50040000 		.4byte	0x450
 1305 04b1 4F000000 		.4byte	.LLST3
 1306 04b5 00       		.byte	0
 1307 04b6 00       		.byte	0
 1308 04b7 1B       		.uleb128 0x1b
 1309 04b8 2E000000 		.4byte	.LVL3
 1310 04bc C3070000 		.4byte	0x7c3
 1311 04c0 1C       		.uleb128 0x1c
 1312 04c1 01       		.uleb128 0x1
 1313 04c2 50       		.byte	0x50
 1314 04c3 02       		.uleb128 0x2
 1315 04c4 74       		.byte	0x74
 1316 04c5 00       		.sleb128 0
 1317 04c6 00       		.byte	0
 1318 04c7 00       		.byte	0
 1319 04c8 1D       		.uleb128 0x1d
 1320 04c9 07010000 		.4byte	.LASF84
 1321 04cd 01       		.byte	0x1
 1322 04ce 37       		.byte	0x37
 1323 04cf 00000000 		.4byte	.LFB0
 1324 04d3 12000000 		.4byte	.LFE0-.LFB0
 1325 04d7 01       		.uleb128 0x1
 1326 04d8 9C       		.byte	0x9c
 1327 04d9 1E       		.uleb128 0x1e
 1328 04da 36040000 		.4byte	0x436
 1329 04de 00000000 		.4byte	.LFB1
 1330 04e2 2C000000 		.4byte	.LFE1-.LFB1
 1331 04e6 01       		.uleb128 0x1
 1332 04e7 9C       		.byte	0x9c
 1333 04e8 FF040000 		.4byte	0x4ff
 1334 04ec 18       		.uleb128 0x18
 1335 04ed 46040000 		.4byte	0x446
 1336 04f1 72000000 		.4byte	.LLST4
 1337 04f5 1A       		.uleb128 0x1a
 1338 04f6 50040000 		.4byte	0x450
 1339 04fa 9B000000 		.4byte	.LLST5
 1340 04fe 00       		.byte	0
 1341 04ff 1F       		.uleb128 0x1f
 1342 0500 4B030000 		.4byte	.LASF69
 1343 0504 01       		.byte	0x1
 1344 0505 73       		.byte	0x73
 1345 0506 00000000 		.4byte	.LFB2
 1346 050a 2A000000 		.4byte	.LFE2-.LFB2
 1347 050e 01       		.uleb128 0x1
 1348 050f 9C       		.byte	0x9c
 1349 0510 50050000 		.4byte	0x550
 1350 0514 20       		.uleb128 0x20
 1351 0515 D3020000 		.4byte	.LASF67
 1352 0519 01       		.byte	0x1
 1353 051a 73       		.byte	0x73
ARM GAS  /tmp/ccX5VwdU.s 			page 25


 1354 051b BF000000 		.4byte	0xbf
 1355 051f BE000000 		.4byte	.LLST6
 1356 0523 16       		.uleb128 0x16
 1357 0524 6F747000 		.ascii	"otp\000"
 1358 0528 01       		.byte	0x1
 1359 0529 74       		.byte	0x74
 1360 052a ED010000 		.4byte	0x1ed
 1361 052e EB000000 		.4byte	.LLST7
 1362 0532 21       		.uleb128 0x21
 1363 0533 18000000 		.4byte	.LVL18
 1364 0537 D8070000 		.4byte	0x7d8
 1365 053b 46050000 		.4byte	0x546
 1366 053f 1C       		.uleb128 0x1c
 1367 0540 01       		.uleb128 0x1
 1368 0541 50       		.byte	0x50
 1369 0542 02       		.uleb128 0x2
 1370 0543 74       		.byte	0x74
 1371 0544 00       		.sleb128 0
 1372 0545 00       		.byte	0
 1373 0546 22       		.uleb128 0x22
 1374 0547 2A000000 		.4byte	.LVL20
 1375 054b F3070000 		.4byte	0x7f3
 1376 054f 00       		.byte	0
 1377 0550 23       		.uleb128 0x23
 1378 0551 50040000 		.4byte	.LASF85
 1379 0555 01       		.byte	0x1
 1380 0556 BD       		.byte	0xbd
 1381 0557 E0000000 		.4byte	0xe0
 1382 055b 00000000 		.4byte	.LFB4
 1383 055f 4E000000 		.4byte	.LFE4-.LFB4
 1384 0563 01       		.uleb128 0x1
 1385 0564 9C       		.byte	0x9c
 1386 0565 F4050000 		.4byte	0x5f4
 1387 0569 20       		.uleb128 0x20
 1388 056a D3020000 		.4byte	.LASF67
 1389 056e 01       		.byte	0x1
 1390 056f BD       		.byte	0xbd
 1391 0570 BF000000 		.4byte	0xbf
 1392 0574 09010000 		.4byte	.LLST8
 1393 0578 20       		.uleb128 0x20
 1394 0579 99020000 		.4byte	.LASF68
 1395 057d 01       		.byte	0x1
 1396 057e BD       		.byte	0xbd
 1397 057f F6000000 		.4byte	0xf6
 1398 0583 43010000 		.4byte	.LLST9
 1399 0587 24       		.uleb128 0x24
 1400 0588 0A000000 		.4byte	.LBB15
 1401 058c 28000000 		.4byte	.LBE15-.LBB15
 1402 0590 EA050000 		.4byte	0x5ea
 1403 0594 25       		.uleb128 0x25
 1404 0595 767400   		.ascii	"vt\000"
 1405 0598 01       		.byte	0x1
 1406 0599 C2       		.byte	0xc2
 1407 059a EB020000 		.4byte	0x2eb
 1408 059e 02       		.uleb128 0x2
 1409 059f 91       		.byte	0x91
 1410 05a0 5C       		.sleb128 -36
ARM GAS  /tmp/ccX5VwdU.s 			page 26


 1411 05a1 21       		.uleb128 0x21
 1412 05a2 22000000 		.4byte	.LVL23
 1413 05a6 0A080000 		.4byte	0x80a
 1414 05aa C5050000 		.4byte	0x5c5
 1415 05ae 1C       		.uleb128 0x1c
 1416 05af 01       		.uleb128 0x1
 1417 05b0 52       		.byte	0x52
 1418 05b1 05       		.uleb128 0x5
 1419 05b2 03       		.byte	0x3
 1420 05b3 00000000 		.4byte	wakeup
 1421 05b7 1C       		.uleb128 0x1c
 1422 05b8 01       		.uleb128 0x1
 1423 05b9 51       		.byte	0x51
 1424 05ba 03       		.uleb128 0x3
 1425 05bb F3       		.byte	0xf3
 1426 05bc 01       		.uleb128 0x1
 1427 05bd 51       		.byte	0x51
 1428 05be 1C       		.uleb128 0x1c
 1429 05bf 01       		.uleb128 0x1
 1430 05c0 50       		.byte	0x50
 1431 05c1 02       		.uleb128 0x2
 1432 05c2 91       		.byte	0x91
 1433 05c3 5C       		.sleb128 -36
 1434 05c4 00       		.byte	0
 1435 05c5 21       		.uleb128 0x21
 1436 05c6 28000000 		.4byte	.LVL24
 1437 05ca FF040000 		.4byte	0x4ff
 1438 05ce D9050000 		.4byte	0x5d9
 1439 05d2 1C       		.uleb128 0x1c
 1440 05d3 01       		.uleb128 0x1
 1441 05d4 50       		.byte	0x50
 1442 05d5 02       		.uleb128 0x2
 1443 05d6 75       		.byte	0x75
 1444 05d7 00       		.sleb128 0
 1445 05d8 00       		.byte	0
 1446 05d9 1B       		.uleb128 0x1b
 1447 05da 32000000 		.4byte	.LVL25
 1448 05de 2A080000 		.4byte	0x82a
 1449 05e2 1C       		.uleb128 0x1c
 1450 05e3 01       		.uleb128 0x1
 1451 05e4 50       		.byte	0x50
 1452 05e5 02       		.uleb128 0x2
 1453 05e6 91       		.byte	0x91
 1454 05e7 5C       		.sleb128 -36
 1455 05e8 00       		.byte	0
 1456 05e9 00       		.byte	0
 1457 05ea 26       		.uleb128 0x26
 1458 05eb 3E000000 		.4byte	.LVL27
 1459 05ef FF040000 		.4byte	0x4ff
 1460 05f3 00       		.byte	0
 1461 05f4 1F       		.uleb128 0x1f
 1462 05f5 FF010000 		.4byte	.LASF70
 1463 05f9 01       		.byte	0x1
 1464 05fa E1       		.byte	0xe1
 1465 05fb 00000000 		.4byte	.LFB5
 1466 05ff 6A000000 		.4byte	.LFE5-.LFB5
 1467 0603 01       		.uleb128 0x1
ARM GAS  /tmp/ccX5VwdU.s 			page 27


 1468 0604 9C       		.byte	0x9c
 1469 0605 A6060000 		.4byte	0x6a6
 1470 0609 15       		.uleb128 0x15
 1471 060a 6E747000 		.ascii	"ntp\000"
 1472 060e 01       		.byte	0x1
 1473 060f E1       		.byte	0xe1
 1474 0610 ED010000 		.4byte	0x1ed
 1475 0614 7D010000 		.4byte	.LLST10
 1476 0618 15       		.uleb128 0x15
 1477 0619 6D736700 		.ascii	"msg\000"
 1478 061d 01       		.byte	0x1
 1479 061e E1       		.byte	0xe1
 1480 061f E0000000 		.4byte	0xe0
 1481 0623 B4010000 		.4byte	.LLST11
 1482 0627 27       		.uleb128 0x27
 1483 0628 36040000 		.4byte	0x436
 1484 062c 1C000000 		.4byte	.LBB16
 1485 0630 18000000 		.4byte	.LBE16-.LBB16
 1486 0634 01       		.byte	0x1
 1487 0635 EB       		.byte	0xeb
 1488 0636 57060000 		.4byte	0x657
 1489 063a 18       		.uleb128 0x18
 1490 063b 46040000 		.4byte	0x446
 1491 063f D5010000 		.4byte	.LLST12
 1492 0643 28       		.uleb128 0x28
 1493 0644 1C000000 		.4byte	.LBB17
 1494 0648 18000000 		.4byte	.LBE17-.LBB17
 1495 064c 1A       		.uleb128 0x1a
 1496 064d 50040000 		.4byte	0x450
 1497 0651 E8010000 		.4byte	.LLST13
 1498 0655 00       		.byte	0
 1499 0656 00       		.byte	0
 1500 0657 19       		.uleb128 0x19
 1501 0658 18000000 		.4byte	.Ldebug_ranges0+0x18
 1502 065c 13       		.uleb128 0x13
 1503 065d 6F747000 		.ascii	"otp\000"
 1504 0661 01       		.byte	0x1
 1505 0662 ED       		.byte	0xed
 1506 0663 ED010000 		.4byte	0x1ed
 1507 0667 17       		.uleb128 0x17
 1508 0668 36040000 		.4byte	0x436
 1509 066c 38000000 		.4byte	.LBB19
 1510 0670 30000000 		.4byte	.Ldebug_ranges0+0x30
 1511 0674 01       		.byte	0x1
 1512 0675 ED       		.byte	0xed
 1513 0676 93060000 		.4byte	0x693
 1514 067a 18       		.uleb128 0x18
 1515 067b 46040000 		.4byte	0x446
 1516 067f FB010000 		.4byte	.LLST14
 1517 0683 19       		.uleb128 0x19
 1518 0684 30000000 		.4byte	.Ldebug_ranges0+0x30
 1519 0688 1A       		.uleb128 0x1a
 1520 0689 50040000 		.4byte	0x450
 1521 068d 0E020000 		.4byte	.LLST15
 1522 0691 00       		.byte	0
 1523 0692 00       		.byte	0
 1524 0693 29       		.uleb128 0x29
ARM GAS  /tmp/ccX5VwdU.s 			page 28


 1525 0694 6A000000 		.4byte	.LVL39
 1526 0698 F3070000 		.4byte	0x7f3
 1527 069c 1C       		.uleb128 0x1c
 1528 069d 01       		.uleb128 0x1
 1529 069e 50       		.byte	0x50
 1530 069f 03       		.uleb128 0x3
 1531 06a0 F3       		.byte	0xf3
 1532 06a1 01       		.uleb128 0x1
 1533 06a2 50       		.byte	0x50
 1534 06a3 00       		.byte	0
 1535 06a4 00       		.byte	0
 1536 06a5 00       		.byte	0
 1537 06a6 2A       		.uleb128 0x2a
 1538 06a7 59020000 		.4byte	.LASF71
 1539 06ab 01       		.byte	0x1
 1540 06ac 3001     		.2byte	0x130
 1541 06ae 00000000 		.4byte	.LFB7
 1542 06b2 44000000 		.4byte	.LFE7-.LFB7
 1543 06b6 01       		.uleb128 0x1
 1544 06b7 9C       		.byte	0x9c
 1545 06b8 17070000 		.4byte	0x717
 1546 06bc 2B       		.uleb128 0x2b
 1547 06bd 6F747000 		.ascii	"otp\000"
 1548 06c1 01       		.byte	0x1
 1549 06c2 3101     		.2byte	0x131
 1550 06c4 ED010000 		.4byte	0x1ed
 1551 06c8 31020000 		.4byte	.LLST16
 1552 06cc 2C       		.uleb128 0x2c
 1553 06cd 36040000 		.4byte	0x436
 1554 06d1 1A000000 		.4byte	.LBB24
 1555 06d5 48000000 		.4byte	.Ldebug_ranges0+0x48
 1556 06d9 01       		.byte	0x1
 1557 06da 3A01     		.2byte	0x13a
 1558 06dc F9060000 		.4byte	0x6f9
 1559 06e0 18       		.uleb128 0x18
 1560 06e1 46040000 		.4byte	0x446
 1561 06e5 4F020000 		.4byte	.LLST17
 1562 06e9 19       		.uleb128 0x19
 1563 06ea 48000000 		.4byte	.Ldebug_ranges0+0x48
 1564 06ee 1A       		.uleb128 0x1a
 1565 06ef 50040000 		.4byte	0x450
 1566 06f3 6D020000 		.4byte	.LLST18
 1567 06f7 00       		.byte	0
 1568 06f8 00       		.byte	0
 1569 06f9 21       		.uleb128 0x21
 1570 06fa 12000000 		.4byte	.LVL41
 1571 06fe D8070000 		.4byte	0x7d8
 1572 0702 0D070000 		.4byte	0x70d
 1573 0706 1C       		.uleb128 0x1c
 1574 0707 01       		.uleb128 0x1
 1575 0708 50       		.byte	0x50
 1576 0709 02       		.uleb128 0x2
 1577 070a 74       		.byte	0x74
 1578 070b 00       		.sleb128 0
 1579 070c 00       		.byte	0
 1580 070d 22       		.uleb128 0x22
 1581 070e 44000000 		.4byte	.LVL46
ARM GAS  /tmp/ccX5VwdU.s 			page 29


 1582 0712 F3070000 		.4byte	0x7f3
 1583 0716 00       		.byte	0
 1584 0717 2A       		.uleb128 0x2a
 1585 0718 0D000000 		.4byte	.LASF72
 1586 071c 01       		.byte	0x1
 1587 071d 4901     		.2byte	0x149
 1588 071f 00000000 		.4byte	.LFB8
 1589 0723 40000000 		.4byte	.LFE8-.LFB8
 1590 0727 01       		.uleb128 0x1
 1591 0728 9C       		.byte	0x9c
 1592 0729 6A070000 		.4byte	0x76a
 1593 072d 2B       		.uleb128 0x2b
 1594 072e 6F747000 		.ascii	"otp\000"
 1595 0732 01       		.byte	0x1
 1596 0733 4A01     		.2byte	0x14a
 1597 0735 ED010000 		.4byte	0x1ed
 1598 0739 90020000 		.4byte	.LLST19
 1599 073d 2B       		.uleb128 0x2b
 1600 073e 637000   		.ascii	"cp\000"
 1601 0741 01       		.byte	0x1
 1602 0742 4A01     		.2byte	0x14a
 1603 0744 ED010000 		.4byte	0x1ed
 1604 0748 AE020000 		.4byte	.LLST20
 1605 074c 21       		.uleb128 0x21
 1606 074d 12000000 		.4byte	.LVL48
 1607 0751 D8070000 		.4byte	0x7d8
 1608 0755 60070000 		.4byte	0x760
 1609 0759 1C       		.uleb128 0x1c
 1610 075a 01       		.uleb128 0x1
 1611 075b 50       		.byte	0x50
 1612 075c 02       		.uleb128 0x2
 1613 075d 74       		.byte	0x74
 1614 075e 00       		.sleb128 0
 1615 075f 00       		.byte	0
 1616 0760 22       		.uleb128 0x22
 1617 0761 40000000 		.4byte	.LVL53
 1618 0765 F3070000 		.4byte	0x7f3
 1619 0769 00       		.byte	0
 1620 076a 1F       		.uleb128 0x1f
 1621 076b 5D010000 		.4byte	.LASF73
 1622 076f 01       		.byte	0x1
 1623 0770 FD       		.byte	0xfd
 1624 0771 00000000 		.4byte	.LFB6
 1625 0775 1A000000 		.4byte	.LFE6-.LFB6
 1626 0779 01       		.uleb128 0x1
 1627 077a 9C       		.byte	0x9c
 1628 077b 89070000 		.4byte	0x789
 1629 077f 22       		.uleb128 0x22
 1630 0780 1A000000 		.4byte	.LVL54
 1631 0784 17070000 		.4byte	0x717
 1632 0788 00       		.byte	0
 1633 0789 2A       		.uleb128 0x2a
 1634 078a 8A010000 		.4byte	.LASF74
 1635 078e 01       		.byte	0x1
 1636 078f 6A01     		.2byte	0x16a
 1637 0791 00000000 		.4byte	.LFB9
 1638 0795 16000000 		.4byte	.LFE9-.LFB9
ARM GAS  /tmp/ccX5VwdU.s 			page 30


 1639 0799 01       		.uleb128 0x1
 1640 079a 9C       		.byte	0x9c
 1641 079b B2070000 		.4byte	0x7b2
 1642 079f 22       		.uleb128 0x22
 1643 07a0 12000000 		.4byte	.LVL55
 1644 07a4 17070000 		.4byte	0x717
 1645 07a8 22       		.uleb128 0x22
 1646 07a9 16000000 		.4byte	.LVL56
 1647 07ad A6060000 		.4byte	0x6a6
 1648 07b1 00       		.byte	0
 1649 07b2 2D       		.uleb128 0x2d
 1650 07b3 3B040000 		.4byte	.LASF86
 1651 07b7 01       		.byte	0x1
 1652 07b8 2F       		.byte	0x2f
 1653 07b9 7E030000 		.4byte	0x37e
 1654 07bd 05       		.uleb128 0x5
 1655 07be 03       		.byte	0x3
 1656 07bf 00000000 		.4byte	rlist
 1657 07c3 2E       		.uleb128 0x2e
 1658 07c4 51020000 		.4byte	.LASF76
 1659 07c8 05       		.byte	0x5
 1660 07c9 7B       		.byte	0x7b
 1661 07ca ED010000 		.4byte	0x1ed
 1662 07ce D8070000 		.4byte	0x7d8
 1663 07d2 0E       		.uleb128 0xe
 1664 07d3 ED010000 		.4byte	0x1ed
 1665 07d7 00       		.byte	0
 1666 07d8 2E       		.uleb128 0x2e
 1667 07d9 7A020000 		.4byte	.LASF77
 1668 07dd 05       		.byte	0x5
 1669 07de 79       		.byte	0x79
 1670 07df ED010000 		.4byte	0x1ed
 1671 07e3 ED070000 		.4byte	0x7ed
 1672 07e7 0E       		.uleb128 0xe
 1673 07e8 ED070000 		.4byte	0x7ed
 1674 07ec 00       		.byte	0
 1675 07ed 09       		.uleb128 0x9
 1676 07ee 04       		.byte	0x4
 1677 07ef F3010000 		.4byte	0x1f3
 1678 07f3 2F       		.uleb128 0x2f
 1679 07f4 BE010000 		.4byte	.LASF78
 1680 07f8 07       		.byte	0x7
 1681 07f9 0602     		.2byte	0x206
 1682 07fb 0A080000 		.4byte	0x80a
 1683 07ff 0E       		.uleb128 0xe
 1684 0800 ED010000 		.4byte	0x1ed
 1685 0804 0E       		.uleb128 0xe
 1686 0805 ED010000 		.4byte	0x1ed
 1687 0809 00       		.byte	0
 1688 080a 30       		.uleb128 0x30
 1689 080b 71020000 		.4byte	.LASF79
 1690 080f 08       		.byte	0x8
 1691 0810 FE       		.byte	0xfe
 1692 0811 2A080000 		.4byte	0x82a
 1693 0815 0E       		.uleb128 0xe
 1694 0816 3F030000 		.4byte	0x33f
 1695 081a 0E       		.uleb128 0xe
ARM GAS  /tmp/ccX5VwdU.s 			page 31


 1696 081b F6000000 		.4byte	0xf6
 1697 081f 0E       		.uleb128 0xe
 1698 0820 CF020000 		.4byte	0x2cf
 1699 0824 0E       		.uleb128 0xe
 1700 0825 29020000 		.4byte	0x229
 1701 0829 00       		.byte	0
 1702 082a 31       		.uleb128 0x31
 1703 082b 26030000 		.4byte	.LASF87
 1704 082f 08       		.byte	0x8
 1705 0830 FF       		.byte	0xff
 1706 0831 0E       		.uleb128 0xe
 1707 0832 3F030000 		.4byte	0x33f
 1708 0836 00       		.byte	0
 1709 0837 00       		.byte	0
 1710              		.section	.debug_abbrev,"",%progbits
 1711              	.Ldebug_abbrev0:
 1712 0000 01       		.uleb128 0x1
 1713 0001 11       		.uleb128 0x11
 1714 0002 01       		.byte	0x1
 1715 0003 25       		.uleb128 0x25
 1716 0004 0E       		.uleb128 0xe
 1717 0005 13       		.uleb128 0x13
 1718 0006 0B       		.uleb128 0xb
 1719 0007 03       		.uleb128 0x3
 1720 0008 0E       		.uleb128 0xe
 1721 0009 1B       		.uleb128 0x1b
 1722 000a 0E       		.uleb128 0xe
 1723 000b 55       		.uleb128 0x55
 1724 000c 17       		.uleb128 0x17
 1725 000d 11       		.uleb128 0x11
 1726 000e 01       		.uleb128 0x1
 1727 000f 10       		.uleb128 0x10
 1728 0010 17       		.uleb128 0x17
 1729 0011 00       		.byte	0
 1730 0012 00       		.byte	0
 1731 0013 02       		.uleb128 0x2
 1732 0014 24       		.uleb128 0x24
 1733 0015 00       		.byte	0
 1734 0016 0B       		.uleb128 0xb
 1735 0017 0B       		.uleb128 0xb
 1736 0018 3E       		.uleb128 0x3e
 1737 0019 0B       		.uleb128 0xb
 1738 001a 03       		.uleb128 0x3
 1739 001b 08       		.uleb128 0x8
 1740 001c 00       		.byte	0
 1741 001d 00       		.byte	0
 1742 001e 03       		.uleb128 0x3
 1743 001f 24       		.uleb128 0x24
 1744 0020 00       		.byte	0
 1745 0021 0B       		.uleb128 0xb
 1746 0022 0B       		.uleb128 0xb
 1747 0023 3E       		.uleb128 0x3e
 1748 0024 0B       		.uleb128 0xb
 1749 0025 03       		.uleb128 0x3
 1750 0026 0E       		.uleb128 0xe
 1751 0027 00       		.byte	0
 1752 0028 00       		.byte	0
ARM GAS  /tmp/ccX5VwdU.s 			page 32


 1753 0029 04       		.uleb128 0x4
 1754 002a 16       		.uleb128 0x16
 1755 002b 00       		.byte	0
 1756 002c 03       		.uleb128 0x3
 1757 002d 0E       		.uleb128 0xe
 1758 002e 3A       		.uleb128 0x3a
 1759 002f 0B       		.uleb128 0xb
 1760 0030 3B       		.uleb128 0x3b
 1761 0031 0B       		.uleb128 0xb
 1762 0032 49       		.uleb128 0x49
 1763 0033 13       		.uleb128 0x13
 1764 0034 00       		.byte	0
 1765 0035 00       		.byte	0
 1766 0036 05       		.uleb128 0x5
 1767 0037 13       		.uleb128 0x13
 1768 0038 01       		.byte	0x1
 1769 0039 03       		.uleb128 0x3
 1770 003a 0E       		.uleb128 0xe
 1771 003b 0B       		.uleb128 0xb
 1772 003c 0B       		.uleb128 0xb
 1773 003d 3A       		.uleb128 0x3a
 1774 003e 0B       		.uleb128 0xb
 1775 003f 3B       		.uleb128 0x3b
 1776 0040 0B       		.uleb128 0xb
 1777 0041 01       		.uleb128 0x1
 1778 0042 13       		.uleb128 0x13
 1779 0043 00       		.byte	0
 1780 0044 00       		.byte	0
 1781 0045 06       		.uleb128 0x6
 1782 0046 0D       		.uleb128 0xd
 1783 0047 00       		.byte	0
 1784 0048 03       		.uleb128 0x3
 1785 0049 0E       		.uleb128 0xe
 1786 004a 3A       		.uleb128 0x3a
 1787 004b 0B       		.uleb128 0xb
 1788 004c 3B       		.uleb128 0x3b
 1789 004d 0B       		.uleb128 0xb
 1790 004e 49       		.uleb128 0x49
 1791 004f 13       		.uleb128 0x13
 1792 0050 38       		.uleb128 0x38
 1793 0051 0B       		.uleb128 0xb
 1794 0052 00       		.byte	0
 1795 0053 00       		.byte	0
 1796 0054 07       		.uleb128 0x7
 1797 0055 0D       		.uleb128 0xd
 1798 0056 00       		.byte	0
 1799 0057 03       		.uleb128 0x3
 1800 0058 08       		.uleb128 0x8
 1801 0059 3A       		.uleb128 0x3a
 1802 005a 0B       		.uleb128 0xb
 1803 005b 3B       		.uleb128 0x3b
 1804 005c 0B       		.uleb128 0xb
 1805 005d 49       		.uleb128 0x49
 1806 005e 13       		.uleb128 0x13
 1807 005f 38       		.uleb128 0x38
 1808 0060 0B       		.uleb128 0xb
 1809 0061 00       		.byte	0
ARM GAS  /tmp/ccX5VwdU.s 			page 33


 1810 0062 00       		.byte	0
 1811 0063 08       		.uleb128 0x8
 1812 0064 13       		.uleb128 0x13
 1813 0065 01       		.byte	0x1
 1814 0066 0B       		.uleb128 0xb
 1815 0067 0B       		.uleb128 0xb
 1816 0068 3A       		.uleb128 0x3a
 1817 0069 0B       		.uleb128 0xb
 1818 006a 3B       		.uleb128 0x3b
 1819 006b 0B       		.uleb128 0xb
 1820 006c 01       		.uleb128 0x1
 1821 006d 13       		.uleb128 0x13
 1822 006e 00       		.byte	0
 1823 006f 00       		.byte	0
 1824 0070 09       		.uleb128 0x9
 1825 0071 0F       		.uleb128 0xf
 1826 0072 00       		.byte	0
 1827 0073 0B       		.uleb128 0xb
 1828 0074 0B       		.uleb128 0xb
 1829 0075 49       		.uleb128 0x49
 1830 0076 13       		.uleb128 0x13
 1831 0077 00       		.byte	0
 1832 0078 00       		.byte	0
 1833 0079 0A       		.uleb128 0xa
 1834 007a 0F       		.uleb128 0xf
 1835 007b 00       		.byte	0
 1836 007c 0B       		.uleb128 0xb
 1837 007d 0B       		.uleb128 0xb
 1838 007e 00       		.byte	0
 1839 007f 00       		.byte	0
 1840 0080 0B       		.uleb128 0xb
 1841 0081 13       		.uleb128 0x13
 1842 0082 01       		.byte	0x1
 1843 0083 03       		.uleb128 0x3
 1844 0084 0E       		.uleb128 0xe
 1845 0085 0B       		.uleb128 0xb
 1846 0086 0B       		.uleb128 0xb
 1847 0087 3A       		.uleb128 0x3a
 1848 0088 0B       		.uleb128 0xb
 1849 0089 3B       		.uleb128 0x3b
 1850 008a 05       		.uleb128 0x5
 1851 008b 01       		.uleb128 0x1
 1852 008c 13       		.uleb128 0x13
 1853 008d 00       		.byte	0
 1854 008e 00       		.byte	0
 1855 008f 0C       		.uleb128 0xc
 1856 0090 0D       		.uleb128 0xd
 1857 0091 00       		.byte	0
 1858 0092 03       		.uleb128 0x3
 1859 0093 08       		.uleb128 0x8
 1860 0094 3A       		.uleb128 0x3a
 1861 0095 0B       		.uleb128 0xb
 1862 0096 3B       		.uleb128 0x3b
 1863 0097 05       		.uleb128 0x5
 1864 0098 49       		.uleb128 0x49
 1865 0099 13       		.uleb128 0x13
 1866 009a 38       		.uleb128 0x38
ARM GAS  /tmp/ccX5VwdU.s 			page 34


 1867 009b 0B       		.uleb128 0xb
 1868 009c 00       		.byte	0
 1869 009d 00       		.byte	0
 1870 009e 0D       		.uleb128 0xd
 1871 009f 15       		.uleb128 0x15
 1872 00a0 01       		.byte	0x1
 1873 00a1 27       		.uleb128 0x27
 1874 00a2 19       		.uleb128 0x19
 1875 00a3 01       		.uleb128 0x1
 1876 00a4 13       		.uleb128 0x13
 1877 00a5 00       		.byte	0
 1878 00a6 00       		.byte	0
 1879 00a7 0E       		.uleb128 0xe
 1880 00a8 05       		.uleb128 0x5
 1881 00a9 00       		.byte	0
 1882 00aa 49       		.uleb128 0x49
 1883 00ab 13       		.uleb128 0x13
 1884 00ac 00       		.byte	0
 1885 00ad 00       		.byte	0
 1886 00ae 0F       		.uleb128 0xf
 1887 00af 17       		.uleb128 0x17
 1888 00b0 01       		.byte	0x1
 1889 00b1 0B       		.uleb128 0xb
 1890 00b2 0B       		.uleb128 0xb
 1891 00b3 3A       		.uleb128 0x3a
 1892 00b4 0B       		.uleb128 0xb
 1893 00b5 3B       		.uleb128 0x3b
 1894 00b6 0B       		.uleb128 0xb
 1895 00b7 01       		.uleb128 0x1
 1896 00b8 13       		.uleb128 0x13
 1897 00b9 00       		.byte	0
 1898 00ba 00       		.byte	0
 1899 00bb 10       		.uleb128 0x10
 1900 00bc 0D       		.uleb128 0xd
 1901 00bd 00       		.byte	0
 1902 00be 03       		.uleb128 0x3
 1903 00bf 0E       		.uleb128 0xe
 1904 00c0 3A       		.uleb128 0x3a
 1905 00c1 0B       		.uleb128 0xb
 1906 00c2 3B       		.uleb128 0x3b
 1907 00c3 0B       		.uleb128 0xb
 1908 00c4 49       		.uleb128 0x49
 1909 00c5 13       		.uleb128 0x13
 1910 00c6 00       		.byte	0
 1911 00c7 00       		.byte	0
 1912 00c8 11       		.uleb128 0x11
 1913 00c9 2E       		.uleb128 0x2e
 1914 00ca 01       		.byte	0x1
 1915 00cb 3F       		.uleb128 0x3f
 1916 00cc 19       		.uleb128 0x19
 1917 00cd 03       		.uleb128 0x3
 1918 00ce 0E       		.uleb128 0xe
 1919 00cf 3A       		.uleb128 0x3a
 1920 00d0 0B       		.uleb128 0xb
 1921 00d1 3B       		.uleb128 0x3b
 1922 00d2 0B       		.uleb128 0xb
 1923 00d3 27       		.uleb128 0x27
ARM GAS  /tmp/ccX5VwdU.s 			page 35


 1924 00d4 19       		.uleb128 0x19
 1925 00d5 49       		.uleb128 0x49
 1926 00d6 13       		.uleb128 0x13
 1927 00d7 20       		.uleb128 0x20
 1928 00d8 0B       		.uleb128 0xb
 1929 00d9 01       		.uleb128 0x1
 1930 00da 13       		.uleb128 0x13
 1931 00db 00       		.byte	0
 1932 00dc 00       		.byte	0
 1933 00dd 12       		.uleb128 0x12
 1934 00de 05       		.uleb128 0x5
 1935 00df 00       		.byte	0
 1936 00e0 03       		.uleb128 0x3
 1937 00e1 08       		.uleb128 0x8
 1938 00e2 3A       		.uleb128 0x3a
 1939 00e3 0B       		.uleb128 0xb
 1940 00e4 3B       		.uleb128 0x3b
 1941 00e5 0B       		.uleb128 0xb
 1942 00e6 49       		.uleb128 0x49
 1943 00e7 13       		.uleb128 0x13
 1944 00e8 00       		.byte	0
 1945 00e9 00       		.byte	0
 1946 00ea 13       		.uleb128 0x13
 1947 00eb 34       		.uleb128 0x34
 1948 00ec 00       		.byte	0
 1949 00ed 03       		.uleb128 0x3
 1950 00ee 08       		.uleb128 0x8
 1951 00ef 3A       		.uleb128 0x3a
 1952 00f0 0B       		.uleb128 0xb
 1953 00f1 3B       		.uleb128 0x3b
 1954 00f2 0B       		.uleb128 0xb
 1955 00f3 49       		.uleb128 0x49
 1956 00f4 13       		.uleb128 0x13
 1957 00f5 00       		.byte	0
 1958 00f6 00       		.byte	0
 1959 00f7 14       		.uleb128 0x14
 1960 00f8 2E       		.uleb128 0x2e
 1961 00f9 01       		.byte	0x1
 1962 00fa 03       		.uleb128 0x3
 1963 00fb 0E       		.uleb128 0xe
 1964 00fc 3A       		.uleb128 0x3a
 1965 00fd 0B       		.uleb128 0xb
 1966 00fe 3B       		.uleb128 0x3b
 1967 00ff 0B       		.uleb128 0xb
 1968 0100 27       		.uleb128 0x27
 1969 0101 19       		.uleb128 0x19
 1970 0102 11       		.uleb128 0x11
 1971 0103 01       		.uleb128 0x1
 1972 0104 12       		.uleb128 0x12
 1973 0105 06       		.uleb128 0x6
 1974 0106 40       		.uleb128 0x40
 1975 0107 18       		.uleb128 0x18
 1976 0108 9742     		.uleb128 0x2117
 1977 010a 19       		.uleb128 0x19
 1978 010b 01       		.uleb128 0x1
 1979 010c 13       		.uleb128 0x13
 1980 010d 00       		.byte	0
ARM GAS  /tmp/ccX5VwdU.s 			page 36


 1981 010e 00       		.byte	0
 1982 010f 15       		.uleb128 0x15
 1983 0110 05       		.uleb128 0x5
 1984 0111 00       		.byte	0
 1985 0112 03       		.uleb128 0x3
 1986 0113 08       		.uleb128 0x8
 1987 0114 3A       		.uleb128 0x3a
 1988 0115 0B       		.uleb128 0xb
 1989 0116 3B       		.uleb128 0x3b
 1990 0117 0B       		.uleb128 0xb
 1991 0118 49       		.uleb128 0x49
 1992 0119 13       		.uleb128 0x13
 1993 011a 02       		.uleb128 0x2
 1994 011b 17       		.uleb128 0x17
 1995 011c 00       		.byte	0
 1996 011d 00       		.byte	0
 1997 011e 16       		.uleb128 0x16
 1998 011f 34       		.uleb128 0x34
 1999 0120 00       		.byte	0
 2000 0121 03       		.uleb128 0x3
 2001 0122 08       		.uleb128 0x8
 2002 0123 3A       		.uleb128 0x3a
 2003 0124 0B       		.uleb128 0xb
 2004 0125 3B       		.uleb128 0x3b
 2005 0126 0B       		.uleb128 0xb
 2006 0127 49       		.uleb128 0x49
 2007 0128 13       		.uleb128 0x13
 2008 0129 02       		.uleb128 0x2
 2009 012a 17       		.uleb128 0x17
 2010 012b 00       		.byte	0
 2011 012c 00       		.byte	0
 2012 012d 17       		.uleb128 0x17
 2013 012e 1D       		.uleb128 0x1d
 2014 012f 01       		.byte	0x1
 2015 0130 31       		.uleb128 0x31
 2016 0131 13       		.uleb128 0x13
 2017 0132 52       		.uleb128 0x52
 2018 0133 01       		.uleb128 0x1
 2019 0134 55       		.uleb128 0x55
 2020 0135 17       		.uleb128 0x17
 2021 0136 58       		.uleb128 0x58
 2022 0137 0B       		.uleb128 0xb
 2023 0138 59       		.uleb128 0x59
 2024 0139 0B       		.uleb128 0xb
 2025 013a 01       		.uleb128 0x1
 2026 013b 13       		.uleb128 0x13
 2027 013c 00       		.byte	0
 2028 013d 00       		.byte	0
 2029 013e 18       		.uleb128 0x18
 2030 013f 05       		.uleb128 0x5
 2031 0140 00       		.byte	0
 2032 0141 31       		.uleb128 0x31
 2033 0142 13       		.uleb128 0x13
 2034 0143 02       		.uleb128 0x2
 2035 0144 17       		.uleb128 0x17
 2036 0145 00       		.byte	0
 2037 0146 00       		.byte	0
ARM GAS  /tmp/ccX5VwdU.s 			page 37


 2038 0147 19       		.uleb128 0x19
 2039 0148 0B       		.uleb128 0xb
 2040 0149 01       		.byte	0x1
 2041 014a 55       		.uleb128 0x55
 2042 014b 17       		.uleb128 0x17
 2043 014c 00       		.byte	0
 2044 014d 00       		.byte	0
 2045 014e 1A       		.uleb128 0x1a
 2046 014f 34       		.uleb128 0x34
 2047 0150 00       		.byte	0
 2048 0151 31       		.uleb128 0x31
 2049 0152 13       		.uleb128 0x13
 2050 0153 02       		.uleb128 0x2
 2051 0154 17       		.uleb128 0x17
 2052 0155 00       		.byte	0
 2053 0156 00       		.byte	0
 2054 0157 1B       		.uleb128 0x1b
 2055 0158 898201   		.uleb128 0x4109
 2056 015b 01       		.byte	0x1
 2057 015c 11       		.uleb128 0x11
 2058 015d 01       		.uleb128 0x1
 2059 015e 31       		.uleb128 0x31
 2060 015f 13       		.uleb128 0x13
 2061 0160 00       		.byte	0
 2062 0161 00       		.byte	0
 2063 0162 1C       		.uleb128 0x1c
 2064 0163 8A8201   		.uleb128 0x410a
 2065 0166 00       		.byte	0
 2066 0167 02       		.uleb128 0x2
 2067 0168 18       		.uleb128 0x18
 2068 0169 9142     		.uleb128 0x2111
 2069 016b 18       		.uleb128 0x18
 2070 016c 00       		.byte	0
 2071 016d 00       		.byte	0
 2072 016e 1D       		.uleb128 0x1d
 2073 016f 2E       		.uleb128 0x2e
 2074 0170 00       		.byte	0
 2075 0171 3F       		.uleb128 0x3f
 2076 0172 19       		.uleb128 0x19
 2077 0173 03       		.uleb128 0x3
 2078 0174 0E       		.uleb128 0xe
 2079 0175 3A       		.uleb128 0x3a
 2080 0176 0B       		.uleb128 0xb
 2081 0177 3B       		.uleb128 0x3b
 2082 0178 0B       		.uleb128 0xb
 2083 0179 27       		.uleb128 0x27
 2084 017a 19       		.uleb128 0x19
 2085 017b 11       		.uleb128 0x11
 2086 017c 01       		.uleb128 0x1
 2087 017d 12       		.uleb128 0x12
 2088 017e 06       		.uleb128 0x6
 2089 017f 40       		.uleb128 0x40
 2090 0180 18       		.uleb128 0x18
 2091 0181 9742     		.uleb128 0x2117
 2092 0183 19       		.uleb128 0x19
 2093 0184 00       		.byte	0
 2094 0185 00       		.byte	0
ARM GAS  /tmp/ccX5VwdU.s 			page 38


 2095 0186 1E       		.uleb128 0x1e
 2096 0187 2E       		.uleb128 0x2e
 2097 0188 01       		.byte	0x1
 2098 0189 31       		.uleb128 0x31
 2099 018a 13       		.uleb128 0x13
 2100 018b 11       		.uleb128 0x11
 2101 018c 01       		.uleb128 0x1
 2102 018d 12       		.uleb128 0x12
 2103 018e 06       		.uleb128 0x6
 2104 018f 40       		.uleb128 0x40
 2105 0190 18       		.uleb128 0x18
 2106 0191 9742     		.uleb128 0x2117
 2107 0193 19       		.uleb128 0x19
 2108 0194 01       		.uleb128 0x1
 2109 0195 13       		.uleb128 0x13
 2110 0196 00       		.byte	0
 2111 0197 00       		.byte	0
 2112 0198 1F       		.uleb128 0x1f
 2113 0199 2E       		.uleb128 0x2e
 2114 019a 01       		.byte	0x1
 2115 019b 3F       		.uleb128 0x3f
 2116 019c 19       		.uleb128 0x19
 2117 019d 03       		.uleb128 0x3
 2118 019e 0E       		.uleb128 0xe
 2119 019f 3A       		.uleb128 0x3a
 2120 01a0 0B       		.uleb128 0xb
 2121 01a1 3B       		.uleb128 0x3b
 2122 01a2 0B       		.uleb128 0xb
 2123 01a3 27       		.uleb128 0x27
 2124 01a4 19       		.uleb128 0x19
 2125 01a5 11       		.uleb128 0x11
 2126 01a6 01       		.uleb128 0x1
 2127 01a7 12       		.uleb128 0x12
 2128 01a8 06       		.uleb128 0x6
 2129 01a9 40       		.uleb128 0x40
 2130 01aa 18       		.uleb128 0x18
 2131 01ab 9742     		.uleb128 0x2117
 2132 01ad 19       		.uleb128 0x19
 2133 01ae 01       		.uleb128 0x1
 2134 01af 13       		.uleb128 0x13
 2135 01b0 00       		.byte	0
 2136 01b1 00       		.byte	0
 2137 01b2 20       		.uleb128 0x20
 2138 01b3 05       		.uleb128 0x5
 2139 01b4 00       		.byte	0
 2140 01b5 03       		.uleb128 0x3
 2141 01b6 0E       		.uleb128 0xe
 2142 01b7 3A       		.uleb128 0x3a
 2143 01b8 0B       		.uleb128 0xb
 2144 01b9 3B       		.uleb128 0x3b
 2145 01ba 0B       		.uleb128 0xb
 2146 01bb 49       		.uleb128 0x49
 2147 01bc 13       		.uleb128 0x13
 2148 01bd 02       		.uleb128 0x2
 2149 01be 17       		.uleb128 0x17
 2150 01bf 00       		.byte	0
 2151 01c0 00       		.byte	0
ARM GAS  /tmp/ccX5VwdU.s 			page 39


 2152 01c1 21       		.uleb128 0x21
 2153 01c2 898201   		.uleb128 0x4109
 2154 01c5 01       		.byte	0x1
 2155 01c6 11       		.uleb128 0x11
 2156 01c7 01       		.uleb128 0x1
 2157 01c8 31       		.uleb128 0x31
 2158 01c9 13       		.uleb128 0x13
 2159 01ca 01       		.uleb128 0x1
 2160 01cb 13       		.uleb128 0x13
 2161 01cc 00       		.byte	0
 2162 01cd 00       		.byte	0
 2163 01ce 22       		.uleb128 0x22
 2164 01cf 898201   		.uleb128 0x4109
 2165 01d2 00       		.byte	0
 2166 01d3 11       		.uleb128 0x11
 2167 01d4 01       		.uleb128 0x1
 2168 01d5 9542     		.uleb128 0x2115
 2169 01d7 19       		.uleb128 0x19
 2170 01d8 31       		.uleb128 0x31
 2171 01d9 13       		.uleb128 0x13
 2172 01da 00       		.byte	0
 2173 01db 00       		.byte	0
 2174 01dc 23       		.uleb128 0x23
 2175 01dd 2E       		.uleb128 0x2e
 2176 01de 01       		.byte	0x1
 2177 01df 3F       		.uleb128 0x3f
 2178 01e0 19       		.uleb128 0x19
 2179 01e1 03       		.uleb128 0x3
 2180 01e2 0E       		.uleb128 0xe
 2181 01e3 3A       		.uleb128 0x3a
 2182 01e4 0B       		.uleb128 0xb
 2183 01e5 3B       		.uleb128 0x3b
 2184 01e6 0B       		.uleb128 0xb
 2185 01e7 27       		.uleb128 0x27
 2186 01e8 19       		.uleb128 0x19
 2187 01e9 49       		.uleb128 0x49
 2188 01ea 13       		.uleb128 0x13
 2189 01eb 11       		.uleb128 0x11
 2190 01ec 01       		.uleb128 0x1
 2191 01ed 12       		.uleb128 0x12
 2192 01ee 06       		.uleb128 0x6
 2193 01ef 40       		.uleb128 0x40
 2194 01f0 18       		.uleb128 0x18
 2195 01f1 9742     		.uleb128 0x2117
 2196 01f3 19       		.uleb128 0x19
 2197 01f4 01       		.uleb128 0x1
 2198 01f5 13       		.uleb128 0x13
 2199 01f6 00       		.byte	0
 2200 01f7 00       		.byte	0
 2201 01f8 24       		.uleb128 0x24
 2202 01f9 0B       		.uleb128 0xb
 2203 01fa 01       		.byte	0x1
 2204 01fb 11       		.uleb128 0x11
 2205 01fc 01       		.uleb128 0x1
 2206 01fd 12       		.uleb128 0x12
 2207 01fe 06       		.uleb128 0x6
 2208 01ff 01       		.uleb128 0x1
ARM GAS  /tmp/ccX5VwdU.s 			page 40


 2209 0200 13       		.uleb128 0x13
 2210 0201 00       		.byte	0
 2211 0202 00       		.byte	0
 2212 0203 25       		.uleb128 0x25
 2213 0204 34       		.uleb128 0x34
 2214 0205 00       		.byte	0
 2215 0206 03       		.uleb128 0x3
 2216 0207 08       		.uleb128 0x8
 2217 0208 3A       		.uleb128 0x3a
 2218 0209 0B       		.uleb128 0xb
 2219 020a 3B       		.uleb128 0x3b
 2220 020b 0B       		.uleb128 0xb
 2221 020c 49       		.uleb128 0x49
 2222 020d 13       		.uleb128 0x13
 2223 020e 02       		.uleb128 0x2
 2224 020f 18       		.uleb128 0x18
 2225 0210 00       		.byte	0
 2226 0211 00       		.byte	0
 2227 0212 26       		.uleb128 0x26
 2228 0213 898201   		.uleb128 0x4109
 2229 0216 00       		.byte	0
 2230 0217 11       		.uleb128 0x11
 2231 0218 01       		.uleb128 0x1
 2232 0219 31       		.uleb128 0x31
 2233 021a 13       		.uleb128 0x13
 2234 021b 00       		.byte	0
 2235 021c 00       		.byte	0
 2236 021d 27       		.uleb128 0x27
 2237 021e 1D       		.uleb128 0x1d
 2238 021f 01       		.byte	0x1
 2239 0220 31       		.uleb128 0x31
 2240 0221 13       		.uleb128 0x13
 2241 0222 11       		.uleb128 0x11
 2242 0223 01       		.uleb128 0x1
 2243 0224 12       		.uleb128 0x12
 2244 0225 06       		.uleb128 0x6
 2245 0226 58       		.uleb128 0x58
 2246 0227 0B       		.uleb128 0xb
 2247 0228 59       		.uleb128 0x59
 2248 0229 0B       		.uleb128 0xb
 2249 022a 01       		.uleb128 0x1
 2250 022b 13       		.uleb128 0x13
 2251 022c 00       		.byte	0
 2252 022d 00       		.byte	0
 2253 022e 28       		.uleb128 0x28
 2254 022f 0B       		.uleb128 0xb
 2255 0230 01       		.byte	0x1
 2256 0231 11       		.uleb128 0x11
 2257 0232 01       		.uleb128 0x1
 2258 0233 12       		.uleb128 0x12
 2259 0234 06       		.uleb128 0x6
 2260 0235 00       		.byte	0
 2261 0236 00       		.byte	0
 2262 0237 29       		.uleb128 0x29
 2263 0238 898201   		.uleb128 0x4109
 2264 023b 01       		.byte	0x1
 2265 023c 11       		.uleb128 0x11
ARM GAS  /tmp/ccX5VwdU.s 			page 41


 2266 023d 01       		.uleb128 0x1
 2267 023e 9542     		.uleb128 0x2115
 2268 0240 19       		.uleb128 0x19
 2269 0241 31       		.uleb128 0x31
 2270 0242 13       		.uleb128 0x13
 2271 0243 00       		.byte	0
 2272 0244 00       		.byte	0
 2273 0245 2A       		.uleb128 0x2a
 2274 0246 2E       		.uleb128 0x2e
 2275 0247 01       		.byte	0x1
 2276 0248 3F       		.uleb128 0x3f
 2277 0249 19       		.uleb128 0x19
 2278 024a 03       		.uleb128 0x3
 2279 024b 0E       		.uleb128 0xe
 2280 024c 3A       		.uleb128 0x3a
 2281 024d 0B       		.uleb128 0xb
 2282 024e 3B       		.uleb128 0x3b
 2283 024f 05       		.uleb128 0x5
 2284 0250 27       		.uleb128 0x27
 2285 0251 19       		.uleb128 0x19
 2286 0252 11       		.uleb128 0x11
 2287 0253 01       		.uleb128 0x1
 2288 0254 12       		.uleb128 0x12
 2289 0255 06       		.uleb128 0x6
 2290 0256 40       		.uleb128 0x40
 2291 0257 18       		.uleb128 0x18
 2292 0258 9742     		.uleb128 0x2117
 2293 025a 19       		.uleb128 0x19
 2294 025b 01       		.uleb128 0x1
 2295 025c 13       		.uleb128 0x13
 2296 025d 00       		.byte	0
 2297 025e 00       		.byte	0
 2298 025f 2B       		.uleb128 0x2b
 2299 0260 34       		.uleb128 0x34
 2300 0261 00       		.byte	0
 2301 0262 03       		.uleb128 0x3
 2302 0263 08       		.uleb128 0x8
 2303 0264 3A       		.uleb128 0x3a
 2304 0265 0B       		.uleb128 0xb
 2305 0266 3B       		.uleb128 0x3b
 2306 0267 05       		.uleb128 0x5
 2307 0268 49       		.uleb128 0x49
 2308 0269 13       		.uleb128 0x13
 2309 026a 02       		.uleb128 0x2
 2310 026b 17       		.uleb128 0x17
 2311 026c 00       		.byte	0
 2312 026d 00       		.byte	0
 2313 026e 2C       		.uleb128 0x2c
 2314 026f 1D       		.uleb128 0x1d
 2315 0270 01       		.byte	0x1
 2316 0271 31       		.uleb128 0x31
 2317 0272 13       		.uleb128 0x13
 2318 0273 52       		.uleb128 0x52
 2319 0274 01       		.uleb128 0x1
 2320 0275 55       		.uleb128 0x55
 2321 0276 17       		.uleb128 0x17
 2322 0277 58       		.uleb128 0x58
ARM GAS  /tmp/ccX5VwdU.s 			page 42


 2323 0278 0B       		.uleb128 0xb
 2324 0279 59       		.uleb128 0x59
 2325 027a 05       		.uleb128 0x5
 2326 027b 01       		.uleb128 0x1
 2327 027c 13       		.uleb128 0x13
 2328 027d 00       		.byte	0
 2329 027e 00       		.byte	0
 2330 027f 2D       		.uleb128 0x2d
 2331 0280 34       		.uleb128 0x34
 2332 0281 00       		.byte	0
 2333 0282 03       		.uleb128 0x3
 2334 0283 0E       		.uleb128 0xe
 2335 0284 3A       		.uleb128 0x3a
 2336 0285 0B       		.uleb128 0xb
 2337 0286 3B       		.uleb128 0x3b
 2338 0287 0B       		.uleb128 0xb
 2339 0288 49       		.uleb128 0x49
 2340 0289 13       		.uleb128 0x13
 2341 028a 3F       		.uleb128 0x3f
 2342 028b 19       		.uleb128 0x19
 2343 028c 02       		.uleb128 0x2
 2344 028d 18       		.uleb128 0x18
 2345 028e 00       		.byte	0
 2346 028f 00       		.byte	0
 2347 0290 2E       		.uleb128 0x2e
 2348 0291 2E       		.uleb128 0x2e
 2349 0292 01       		.byte	0x1
 2350 0293 3F       		.uleb128 0x3f
 2351 0294 19       		.uleb128 0x19
 2352 0295 03       		.uleb128 0x3
 2353 0296 0E       		.uleb128 0xe
 2354 0297 3A       		.uleb128 0x3a
 2355 0298 0B       		.uleb128 0xb
 2356 0299 3B       		.uleb128 0x3b
 2357 029a 0B       		.uleb128 0xb
 2358 029b 27       		.uleb128 0x27
 2359 029c 19       		.uleb128 0x19
 2360 029d 49       		.uleb128 0x49
 2361 029e 13       		.uleb128 0x13
 2362 029f 3C       		.uleb128 0x3c
 2363 02a0 19       		.uleb128 0x19
 2364 02a1 01       		.uleb128 0x1
 2365 02a2 13       		.uleb128 0x13
 2366 02a3 00       		.byte	0
 2367 02a4 00       		.byte	0
 2368 02a5 2F       		.uleb128 0x2f
 2369 02a6 2E       		.uleb128 0x2e
 2370 02a7 01       		.byte	0x1
 2371 02a8 3F       		.uleb128 0x3f
 2372 02a9 19       		.uleb128 0x19
 2373 02aa 03       		.uleb128 0x3
 2374 02ab 0E       		.uleb128 0xe
 2375 02ac 3A       		.uleb128 0x3a
 2376 02ad 0B       		.uleb128 0xb
 2377 02ae 3B       		.uleb128 0x3b
 2378 02af 05       		.uleb128 0x5
 2379 02b0 27       		.uleb128 0x27
ARM GAS  /tmp/ccX5VwdU.s 			page 43


 2380 02b1 19       		.uleb128 0x19
 2381 02b2 3C       		.uleb128 0x3c
 2382 02b3 19       		.uleb128 0x19
 2383 02b4 01       		.uleb128 0x1
 2384 02b5 13       		.uleb128 0x13
 2385 02b6 00       		.byte	0
 2386 02b7 00       		.byte	0
 2387 02b8 30       		.uleb128 0x30
 2388 02b9 2E       		.uleb128 0x2e
 2389 02ba 01       		.byte	0x1
 2390 02bb 3F       		.uleb128 0x3f
 2391 02bc 19       		.uleb128 0x19
 2392 02bd 03       		.uleb128 0x3
 2393 02be 0E       		.uleb128 0xe
 2394 02bf 3A       		.uleb128 0x3a
 2395 02c0 0B       		.uleb128 0xb
 2396 02c1 3B       		.uleb128 0x3b
 2397 02c2 0B       		.uleb128 0xb
 2398 02c3 27       		.uleb128 0x27
 2399 02c4 19       		.uleb128 0x19
 2400 02c5 3C       		.uleb128 0x3c
 2401 02c6 19       		.uleb128 0x19
 2402 02c7 01       		.uleb128 0x1
 2403 02c8 13       		.uleb128 0x13
 2404 02c9 00       		.byte	0
 2405 02ca 00       		.byte	0
 2406 02cb 31       		.uleb128 0x31
 2407 02cc 2E       		.uleb128 0x2e
 2408 02cd 01       		.byte	0x1
 2409 02ce 3F       		.uleb128 0x3f
 2410 02cf 19       		.uleb128 0x19
 2411 02d0 03       		.uleb128 0x3
 2412 02d1 0E       		.uleb128 0xe
 2413 02d2 3A       		.uleb128 0x3a
 2414 02d3 0B       		.uleb128 0xb
 2415 02d4 3B       		.uleb128 0x3b
 2416 02d5 0B       		.uleb128 0xb
 2417 02d6 27       		.uleb128 0x27
 2418 02d7 19       		.uleb128 0x19
 2419 02d8 3C       		.uleb128 0x3c
 2420 02d9 19       		.uleb128 0x19
 2421 02da 00       		.byte	0
 2422 02db 00       		.byte	0
 2423 02dc 00       		.byte	0
 2424              		.section	.debug_loc,"",%progbits
 2425              	.Ldebug_loc0:
 2426              	.LLST0:
 2427 0000 00000000 		.4byte	.LVL0
 2428 0004 2A000000 		.4byte	.LVL2
 2429 0008 0100     		.2byte	0x1
 2430 000a 50       		.byte	0x50
 2431 000b 2A000000 		.4byte	.LVL2
 2432 000f 5A000000 		.4byte	.LFE3
 2433 0013 0100     		.2byte	0x1
 2434 0015 54       		.byte	0x54
 2435 0016 00000000 		.4byte	0
 2436 001a 00000000 		.4byte	0
ARM GAS  /tmp/ccX5VwdU.s 			page 44


 2437              	.LLST1:
 2438 001e 04000000 		.4byte	.LVL1
 2439 0022 2A000000 		.4byte	.LVL2
 2440 0026 0100     		.2byte	0x1
 2441 0028 50       		.byte	0x50
 2442 0029 2A000000 		.4byte	.LVL2
 2443 002d 5A000000 		.4byte	.LFE3
 2444 0031 0100     		.2byte	0x1
 2445 0033 54       		.byte	0x54
 2446 0034 00000000 		.4byte	0
 2447 0038 00000000 		.4byte	0
 2448              	.LLST2:
 2449 003c 3C000000 		.4byte	.LVL4
 2450 0040 54000000 		.4byte	.LVL8
 2451 0044 0100     		.2byte	0x1
 2452 0046 54       		.byte	0x54
 2453 0047 00000000 		.4byte	0
 2454 004b 00000000 		.4byte	0
 2455              	.LLST3:
 2456 004f 3E000000 		.4byte	.LVL5
 2457 0053 42000000 		.4byte	.LVL6
 2458 0057 0600     		.2byte	0x6
 2459 0059 03       		.byte	0x3
 2460 005a 00000000 		.4byte	rlist
 2461 005e 9F       		.byte	0x9f
 2462 005f 42000000 		.4byte	.LVL6
 2463 0063 54000000 		.4byte	.LVL8
 2464 0067 0100     		.2byte	0x1
 2465 0069 53       		.byte	0x53
 2466 006a 00000000 		.4byte	0
 2467 006e 00000000 		.4byte	0
 2468              	.LLST4:
 2469 0072 00000000 		.4byte	.LVL9
 2470 0076 20000000 		.4byte	.LVL13
 2471 007a 0100     		.2byte	0x1
 2472 007c 50       		.byte	0x50
 2473 007d 20000000 		.4byte	.LVL13
 2474 0081 2A000000 		.4byte	.LVL14
 2475 0085 0100     		.2byte	0x1
 2476 0087 54       		.byte	0x54
 2477 0088 2A000000 		.4byte	.LVL14
 2478 008c 2C000000 		.4byte	.LFE1
 2479 0090 0100     		.2byte	0x1
 2480 0092 50       		.byte	0x50
 2481 0093 00000000 		.4byte	0
 2482 0097 00000000 		.4byte	0
 2483              	.LLST5:
 2484 009b 0E000000 		.4byte	.LVL10
 2485 009f 12000000 		.4byte	.LVL11
 2486 00a3 0600     		.2byte	0x6
 2487 00a5 03       		.byte	0x3
 2488 00a6 00000000 		.4byte	rlist
 2489 00aa 9F       		.byte	0x9f
 2490 00ab 12000000 		.4byte	.LVL11
 2491 00af 2C000000 		.4byte	.LFE1
 2492 00b3 0100     		.2byte	0x1
 2493 00b5 53       		.byte	0x53
ARM GAS  /tmp/ccX5VwdU.s 			page 45


 2494 00b6 00000000 		.4byte	0
 2495 00ba 00000000 		.4byte	0
 2496              	.LLST6:
 2497 00be 00000000 		.4byte	.LVL15
 2498 00c2 14000000 		.4byte	.LVL17
 2499 00c6 0100     		.2byte	0x1
 2500 00c8 50       		.byte	0x50
 2501 00c9 14000000 		.4byte	.LVL17
 2502 00cd 17000000 		.4byte	.LVL18-1
 2503 00d1 0200     		.2byte	0x2
 2504 00d3 75       		.byte	0x75
 2505 00d4 10       		.sleb128 16
 2506 00d5 17000000 		.4byte	.LVL18-1
 2507 00d9 2A000000 		.4byte	.LFE2
 2508 00dd 0400     		.2byte	0x4
 2509 00df F3       		.byte	0xf3
 2510 00e0 01       		.uleb128 0x1
 2511 00e1 50       		.byte	0x50
 2512 00e2 9F       		.byte	0x9f
 2513 00e3 00000000 		.4byte	0
 2514 00e7 00000000 		.4byte	0
 2515              	.LLST7:
 2516 00eb 0C000000 		.4byte	.LVL16
 2517 00ef 26000000 		.4byte	.LVL19
 2518 00f3 0100     		.2byte	0x1
 2519 00f5 55       		.byte	0x55
 2520 00f6 26000000 		.4byte	.LVL19
 2521 00fa 29000000 		.4byte	.LVL20-1
 2522 00fe 0100     		.2byte	0x1
 2523 0100 51       		.byte	0x51
 2524 0101 00000000 		.4byte	0
 2525 0105 00000000 		.4byte	0
 2526              	.LLST8:
 2527 0109 00000000 		.4byte	.LVL21
 2528 010d 1A000000 		.4byte	.LVL22
 2529 0111 0100     		.2byte	0x1
 2530 0113 50       		.byte	0x50
 2531 0114 1A000000 		.4byte	.LVL22
 2532 0118 3A000000 		.4byte	.LVL26
 2533 011c 0400     		.2byte	0x4
 2534 011e F3       		.byte	0xf3
 2535 011f 01       		.uleb128 0x1
 2536 0120 50       		.byte	0x50
 2537 0121 9F       		.byte	0x9f
 2538 0122 3A000000 		.4byte	.LVL26
 2539 0126 3D000000 		.4byte	.LVL27-1
 2540 012a 0100     		.2byte	0x1
 2541 012c 50       		.byte	0x50
 2542 012d 3D000000 		.4byte	.LVL27-1
 2543 0131 4E000000 		.4byte	.LFE4
 2544 0135 0400     		.2byte	0x4
 2545 0137 F3       		.byte	0xf3
 2546 0138 01       		.uleb128 0x1
 2547 0139 50       		.byte	0x50
 2548 013a 9F       		.byte	0x9f
 2549 013b 00000000 		.4byte	0
 2550 013f 00000000 		.4byte	0
ARM GAS  /tmp/ccX5VwdU.s 			page 46


 2551              	.LLST9:
 2552 0143 00000000 		.4byte	.LVL21
 2553 0147 21000000 		.4byte	.LVL23-1
 2554 014b 0100     		.2byte	0x1
 2555 014d 51       		.byte	0x51
 2556 014e 21000000 		.4byte	.LVL23-1
 2557 0152 3A000000 		.4byte	.LVL26
 2558 0156 0400     		.2byte	0x4
 2559 0158 F3       		.byte	0xf3
 2560 0159 01       		.uleb128 0x1
 2561 015a 51       		.byte	0x51
 2562 015b 9F       		.byte	0x9f
 2563 015c 3A000000 		.4byte	.LVL26
 2564 0160 3D000000 		.4byte	.LVL27-1
 2565 0164 0100     		.2byte	0x1
 2566 0166 51       		.byte	0x51
 2567 0167 3D000000 		.4byte	.LVL27-1
 2568 016b 4E000000 		.4byte	.LFE4
 2569 016f 0400     		.2byte	0x4
 2570 0171 F3       		.byte	0xf3
 2571 0172 01       		.uleb128 0x1
 2572 0173 51       		.byte	0x51
 2573 0174 9F       		.byte	0x9f
 2574 0175 00000000 		.4byte	0
 2575 0179 00000000 		.4byte	0
 2576              	.LLST10:
 2577 017d 00000000 		.4byte	.LVL28
 2578 0181 62000000 		.4byte	.LVL36
 2579 0185 0100     		.2byte	0x1
 2580 0187 50       		.byte	0x50
 2581 0188 62000000 		.4byte	.LVL36
 2582 018c 66000000 		.4byte	.LVL38
 2583 0190 0100     		.2byte	0x1
 2584 0192 56       		.byte	0x56
 2585 0193 66000000 		.4byte	.LVL38
 2586 0197 69000000 		.4byte	.LVL39-1
 2587 019b 0100     		.2byte	0x1
 2588 019d 50       		.byte	0x50
 2589 019e 69000000 		.4byte	.LVL39-1
 2590 01a2 6A000000 		.4byte	.LFE5
 2591 01a6 0400     		.2byte	0x4
 2592 01a8 F3       		.byte	0xf3
 2593 01a9 01       		.uleb128 0x1
 2594 01aa 50       		.byte	0x50
 2595 01ab 9F       		.byte	0x9f
 2596 01ac 00000000 		.4byte	0
 2597 01b0 00000000 		.4byte	0
 2598              	.LLST11:
 2599 01b4 00000000 		.4byte	.LVL28
 2600 01b8 64000000 		.4byte	.LVL37
 2601 01bc 0100     		.2byte	0x1
 2602 01be 51       		.byte	0x51
 2603 01bf 64000000 		.4byte	.LVL37
 2604 01c3 6A000000 		.4byte	.LFE5
 2605 01c7 0400     		.2byte	0x4
 2606 01c9 F3       		.byte	0xf3
 2607 01ca 01       		.uleb128 0x1
ARM GAS  /tmp/ccX5VwdU.s 			page 47


 2608 01cb 51       		.byte	0x51
 2609 01cc 9F       		.byte	0x9f
 2610 01cd 00000000 		.4byte	0
 2611 01d1 00000000 		.4byte	0
 2612              	.LLST12:
 2613 01d5 1C000000 		.4byte	.LVL29
 2614 01d9 38000000 		.4byte	.LVL32
 2615 01dd 0100     		.2byte	0x1
 2616 01df 50       		.byte	0x50
 2617 01e0 00000000 		.4byte	0
 2618 01e4 00000000 		.4byte	0
 2619              	.LLST13:
 2620 01e8 22000000 		.4byte	.LVL30
 2621 01ec 38000000 		.4byte	.LVL32
 2622 01f0 0100     		.2byte	0x1
 2623 01f2 53       		.byte	0x53
 2624 01f3 00000000 		.4byte	0
 2625 01f7 00000000 		.4byte	0
 2626              	.LLST14:
 2627 01fb 38000000 		.4byte	.LVL32
 2628 01ff 69000000 		.4byte	.LVL39-1
 2629 0203 0100     		.2byte	0x1
 2630 0205 5C       		.byte	0x5c
 2631 0206 00000000 		.4byte	0
 2632 020a 00000000 		.4byte	0
 2633              	.LLST15:
 2634 020e 3E000000 		.4byte	.LVL33
 2635 0212 40000000 		.4byte	.LVL34
 2636 0216 0600     		.2byte	0x6
 2637 0218 03       		.byte	0x3
 2638 0219 00000000 		.4byte	rlist
 2639 021d 9F       		.byte	0x9f
 2640 021e 40000000 		.4byte	.LVL34
 2641 0222 69000000 		.4byte	.LVL39-1
 2642 0226 0100     		.2byte	0x1
 2643 0228 53       		.byte	0x53
 2644 0229 00000000 		.4byte	0
 2645 022d 00000000 		.4byte	0
 2646              	.LLST16:
 2647 0231 0E000000 		.4byte	.LVL40
 2648 0235 40000000 		.4byte	.LVL45
 2649 0239 0100     		.2byte	0x1
 2650 023b 55       		.byte	0x55
 2651 023c 40000000 		.4byte	.LVL45
 2652 0240 43000000 		.4byte	.LVL46-1
 2653 0244 0100     		.2byte	0x1
 2654 0246 51       		.byte	0x51
 2655 0247 00000000 		.4byte	0
 2656 024b 00000000 		.4byte	0
 2657              	.LLST17:
 2658 024f 24000000 		.4byte	.LVL42
 2659 0253 40000000 		.4byte	.LVL45
 2660 0257 0100     		.2byte	0x1
 2661 0259 55       		.byte	0x55
 2662 025a 40000000 		.4byte	.LVL45
 2663 025e 43000000 		.4byte	.LVL46-1
 2664 0262 0100     		.2byte	0x1
ARM GAS  /tmp/ccX5VwdU.s 			page 48


 2665 0264 51       		.byte	0x51
 2666 0265 00000000 		.4byte	0
 2667 0269 00000000 		.4byte	0
 2668              	.LLST18:
 2669 026d 24000000 		.4byte	.LVL42
 2670 0271 26000000 		.4byte	.LVL43
 2671 0275 0600     		.2byte	0x6
 2672 0277 03       		.byte	0x3
 2673 0278 00000000 		.4byte	rlist
 2674 027c 9F       		.byte	0x9f
 2675 027d 26000000 		.4byte	.LVL43
 2676 0281 40000000 		.4byte	.LVL45
 2677 0285 0100     		.2byte	0x1
 2678 0287 53       		.byte	0x53
 2679 0288 00000000 		.4byte	0
 2680 028c 00000000 		.4byte	0
 2681              	.LLST19:
 2682 0290 0E000000 		.4byte	.LVL47
 2683 0294 3C000000 		.4byte	.LVL52
 2684 0298 0100     		.2byte	0x1
 2685 029a 55       		.byte	0x55
 2686 029b 3C000000 		.4byte	.LVL52
 2687 029f 3F000000 		.4byte	.LVL53-1
 2688 02a3 0100     		.2byte	0x1
 2689 02a5 51       		.byte	0x51
 2690 02a6 00000000 		.4byte	0
 2691 02aa 00000000 		.4byte	0
 2692              	.LLST20:
 2693 02ae 20000000 		.4byte	.LVL49
 2694 02b2 22000000 		.4byte	.LVL50
 2695 02b6 0600     		.2byte	0x6
 2696 02b8 03       		.byte	0x3
 2697 02b9 00000000 		.4byte	rlist
 2698 02bd 9F       		.byte	0x9f
 2699 02be 22000000 		.4byte	.LVL50
 2700 02c2 3C000000 		.4byte	.LVL52
 2701 02c6 0100     		.2byte	0x1
 2702 02c8 53       		.byte	0x53
 2703 02c9 00000000 		.4byte	0
 2704 02cd 00000000 		.4byte	0
 2705              		.section	.debug_aranges,"",%progbits
 2706 0000 64000000 		.4byte	0x64
 2707 0004 0200     		.2byte	0x2
 2708 0006 00000000 		.4byte	.Ldebug_info0
 2709 000a 04       		.byte	0x4
 2710 000b 00       		.byte	0
 2711 000c 0000     		.2byte	0
 2712 000e 0000     		.2byte	0
 2713 0010 00000000 		.4byte	.LFB3
 2714 0014 5A000000 		.4byte	.LFE3-.LFB3
 2715 0018 00000000 		.4byte	.LFB0
 2716 001c 12000000 		.4byte	.LFE0-.LFB0
 2717 0020 00000000 		.4byte	.LFB1
 2718 0024 2C000000 		.4byte	.LFE1-.LFB1
 2719 0028 00000000 		.4byte	.LFB2
 2720 002c 2A000000 		.4byte	.LFE2-.LFB2
 2721 0030 00000000 		.4byte	.LFB4
ARM GAS  /tmp/ccX5VwdU.s 			page 49


 2722 0034 4E000000 		.4byte	.LFE4-.LFB4
 2723 0038 00000000 		.4byte	.LFB5
 2724 003c 6A000000 		.4byte	.LFE5-.LFB5
 2725 0040 00000000 		.4byte	.LFB7
 2726 0044 44000000 		.4byte	.LFE7-.LFB7
 2727 0048 00000000 		.4byte	.LFB8
 2728 004c 40000000 		.4byte	.LFE8-.LFB8
 2729 0050 00000000 		.4byte	.LFB6
 2730 0054 1A000000 		.4byte	.LFE6-.LFB6
 2731 0058 00000000 		.4byte	.LFB9
 2732 005c 16000000 		.4byte	.LFE9-.LFB9
 2733 0060 00000000 		.4byte	0
 2734 0064 00000000 		.4byte	0
 2735              		.section	.debug_ranges,"",%progbits
 2736              	.Ldebug_ranges0:
 2737 0000 32000000 		.4byte	.LBB11
 2738 0004 3A000000 		.4byte	.LBE11
 2739 0008 3C000000 		.4byte	.LBB14
 2740 000c 54000000 		.4byte	.LBE14
 2741 0010 00000000 		.4byte	0
 2742 0014 00000000 		.4byte	0
 2743 0018 38000000 		.4byte	.LBB18
 2744 001c 64000000 		.4byte	.LBE18
 2745 0020 66000000 		.4byte	.LBB23
 2746 0024 6A000000 		.4byte	.LBE23
 2747 0028 00000000 		.4byte	0
 2748 002c 00000000 		.4byte	0
 2749 0030 38000000 		.4byte	.LBB19
 2750 0034 4E000000 		.4byte	.LBE19
 2751 0038 50000000 		.4byte	.LBB22
 2752 003c 5C000000 		.4byte	.LBE22
 2753 0040 00000000 		.4byte	0
 2754 0044 00000000 		.4byte	0
 2755 0048 1A000000 		.4byte	.LBB24
 2756 004c 22000000 		.4byte	.LBE24
 2757 0050 24000000 		.4byte	.LBB28
 2758 0054 32000000 		.4byte	.LBE28
 2759 0058 34000000 		.4byte	.LBB29
 2760 005c 3A000000 		.4byte	.LBE29
 2761 0060 00000000 		.4byte	0
 2762 0064 00000000 		.4byte	0
 2763 0068 00000000 		.4byte	.LFB3
 2764 006c 5A000000 		.4byte	.LFE3
 2765 0070 00000000 		.4byte	.LFB0
 2766 0074 12000000 		.4byte	.LFE0
 2767 0078 00000000 		.4byte	.LFB1
 2768 007c 2C000000 		.4byte	.LFE1
 2769 0080 00000000 		.4byte	.LFB2
 2770 0084 2A000000 		.4byte	.LFE2
 2771 0088 00000000 		.4byte	.LFB4
 2772 008c 4E000000 		.4byte	.LFE4
 2773 0090 00000000 		.4byte	.LFB5
 2774 0094 6A000000 		.4byte	.LFE5
 2775 0098 00000000 		.4byte	.LFB7
 2776 009c 44000000 		.4byte	.LFE7
 2777 00a0 00000000 		.4byte	.LFB8
 2778 00a4 40000000 		.4byte	.LFE8
ARM GAS  /tmp/ccX5VwdU.s 			page 50


 2779 00a8 00000000 		.4byte	.LFB6
 2780 00ac 1A000000 		.4byte	.LFE6
 2781 00b0 00000000 		.4byte	.LFB9
 2782 00b4 16000000 		.4byte	.LFE9
 2783 00b8 00000000 		.4byte	0
 2784 00bc 00000000 		.4byte	0
 2785              		.section	.debug_line,"",%progbits
 2786              	.Ldebug_line0:
 2787 0000 8B020000 		.section	.debug_str,"MS",%progbits,1
 2787      02001101 
 2787      00000201 
 2787      FB0E0D00 
 2787      01010101 
 2788              	.LASF34:
 2789 0000 705F6D73 		.ascii	"p_msg\000"
 2789      6700
 2790              	.LASF63:
 2791 0006 7264796D 		.ascii	"rdymsg\000"
 2791      736700
 2792              	.LASF72:
 2793 000d 63685363 		.ascii	"chSchDoRescheduleAhead\000"
 2793      68446F52 
 2793      65736368 
 2793      6564756C 
 2793      65416865 
 2794              	.LASF5:
 2795 0024 5F5F7569 		.ascii	"__uint8_t\000"
 2795      6E74385F 
 2795      7400
 2796              	.LASF80:
 2797 002e 474E5520 		.ascii	"GNU C 4.8.2 -mcpu=cortex-m3 -mno-thumb-interwork -m"
 2797      4320342E 
 2797      382E3220 
 2797      2D6D6370 
 2797      753D636F 
 2798 0061 7468756D 		.ascii	"thumb -ggdb -O2 -fomit-frame-pointer -falign-functi"
 2798      62202D67 
 2798      67646220 
 2798      2D4F3220 
 2798      2D666F6D 
 2799 0094 6F6E733D 		.ascii	"ons=16 -ffunction-sections -fdata-sections -fno-com"
 2799      3136202D 
 2799      6666756E 
 2799      6374696F 
 2799      6E2D7365 
 2800 00c7 6D6F6E20 		.ascii	"mon -fno-strict-aliasing\000"
 2800      2D666E6F 
 2800      2D737472 
 2800      6963742D 
 2800      616C6961 
 2801              	.LASF11:
 2802 00e0 6C6F6E67 		.ascii	"long long unsigned int\000"
 2802      206C6F6E 
 2802      6720756E 
 2802      7369676E 
 2802      65642069 
 2803              	.LASF64:
ARM GAS  /tmp/ccX5VwdU.s 			page 51


 2804 00f7 65786974 		.ascii	"exitcode\000"
 2804      636F6465 
 2804      00
 2805              	.LASF27:
 2806 0100 705F7072 		.ascii	"p_prio\000"
 2806      696F00
 2807              	.LASF84:
 2808 0107 5F736368 		.ascii	"_scheduler_init\000"
 2808      6564756C 
 2808      65725F69 
 2808      6E697400 
 2809              	.LASF10:
 2810 0117 6C6F6E67 		.ascii	"long long int\000"
 2810      206C6F6E 
 2810      6720696E 
 2810      7400
 2811              	.LASF1:
 2812 0125 7369676E 		.ascii	"signed char\000"
 2812      65642063 
 2812      68617200 
 2813              	.LASF60:
 2814 0131 6D5F7175 		.ascii	"m_queue\000"
 2814      65756500 
 2815              	.LASF18:
 2816 0139 74736C69 		.ascii	"tslices_t\000"
 2816      6365735F 
 2816      7400
 2817              	.LASF7:
 2818 0143 6C6F6E67 		.ascii	"long int\000"
 2818      20696E74 
 2818      00
 2819              	.LASF17:
 2820 014c 74737461 		.ascii	"tstate_t\000"
 2820      74655F74 
 2820      00
 2821              	.LASF57:
 2822 0155 735F7175 		.ascii	"s_queue\000"
 2822      65756500 
 2823              	.LASF73:
 2824 015d 63685363 		.ascii	"chSchRescheduleS\000"
 2824      68526573 
 2824      63686564 
 2824      756C6553 
 2824      00
 2825              	.LASF8:
 2826 016e 5F5F7569 		.ascii	"__uint32_t\000"
 2826      6E743332 
 2826      5F7400
 2827              	.LASF40:
 2828 0179 72656761 		.ascii	"regarm_t\000"
 2828      726D5F74 
 2828      00
 2829              	.LASF47:
 2830 0182 76745F70 		.ascii	"vt_prev\000"
 2830      72657600 
 2831              	.LASF74:
 2832 018a 63685363 		.ascii	"chSchDoReschedule\000"
ARM GAS  /tmp/ccX5VwdU.s 			page 52


 2832      68446F52 
 2832      65736368 
 2832      6564756C 
 2832      6500
 2833              	.LASF23:
 2834 019c 636E745F 		.ascii	"cnt_t\000"
 2834      7400
 2835              	.LASF0:
 2836 01a2 756E7369 		.ascii	"unsigned int\000"
 2836      676E6564 
 2836      20696E74 
 2836      00
 2837              	.LASF83:
 2838 01af 77616B65 		.ascii	"wakeup\000"
 2838      757000
 2839              	.LASF46:
 2840 01b6 76745F6E 		.ascii	"vt_next\000"
 2840      65787400 
 2841              	.LASF78:
 2842 01be 5F706F72 		.ascii	"_port_switch\000"
 2842      745F7377 
 2842      69746368 
 2842      00
 2843              	.LASF9:
 2844 01cb 6C6F6E67 		.ascii	"long unsigned int\000"
 2844      20756E73 
 2844      69676E65 
 2844      6420696E 
 2844      7400
 2845              	.LASF44:
 2846 01dd 76746675 		.ascii	"vtfunc_t\000"
 2846      6E635F74 
 2846      00
 2847              	.LASF58:
 2848 01e6 735F636E 		.ascii	"s_cnt\000"
 2848      7400
 2849              	.LASF4:
 2850 01ec 73686F72 		.ascii	"short unsigned int\000"
 2850      7420756E 
 2850      7369676E 
 2850      65642069 
 2850      6E7400
 2851              	.LASF70:
 2852 01ff 63685363 		.ascii	"chSchWakeupS\000"
 2852      6857616B 
 2852      65757053 
 2852      00
 2853              	.LASF20:
 2854 020c 6D73675F 		.ascii	"msg_t\000"
 2854      7400
 2855              	.LASF16:
 2856 0212 746D6F64 		.ascii	"tmode_t\000"
 2856      655F7400 
 2857              	.LASF39:
 2858 021a 54687265 		.ascii	"ThreadsList\000"
 2858      6164734C 
 2858      69737400 
ARM GAS  /tmp/ccX5VwdU.s 			page 53


 2859              	.LASF21:
 2860 0226 6576656E 		.ascii	"eventmask_t\000"
 2860      746D6173 
 2860      6B5F7400 
 2861              	.LASF59:
 2862 0232 4D757465 		.ascii	"Mutex\000"
 2862      7800
 2863              	.LASF48:
 2864 0238 76745F74 		.ascii	"vt_time\000"
 2864      696D6500 
 2865              	.LASF43:
 2866 0240 73697A65 		.ascii	"sizetype\000"
 2866      74797065 
 2866      00
 2867              	.LASF49:
 2868 0249 76745F66 		.ascii	"vt_func\000"
 2868      756E6300 
 2869              	.LASF76:
 2870 0251 64657175 		.ascii	"dequeue\000"
 2870      65756500 
 2871              	.LASF71:
 2872 0259 63685363 		.ascii	"chSchDoRescheduleBehind\000"
 2872      68446F52 
 2872      65736368 
 2872      6564756C 
 2872      65426568 
 2873              	.LASF79:
 2874 0271 63685654 		.ascii	"chVTSetI\000"
 2874      53657449 
 2874      00
 2875              	.LASF77:
 2876 027a 6669666F 		.ascii	"fifo_remove\000"
 2876      5F72656D 
 2876      6F766500 
 2877              	.LASF53:
 2878 0286 725F6374 		.ascii	"r_ctx\000"
 2878      7800
 2879              	.LASF38:
 2880 028c 54687265 		.ascii	"ThreadsQueue\000"
 2880      61647351 
 2880      75657565 
 2880      00
 2881              	.LASF68:
 2882 0299 74696D65 		.ascii	"time\000"
 2882      00
 2883              	.LASF54:
 2884 029e 725F6375 		.ascii	"r_current\000"
 2884      7272656E 
 2884      7400
 2885              	.LASF26:
 2886 02a8 705F7072 		.ascii	"p_prev\000"
 2886      657600
 2887              	.LASF19:
 2888 02af 74707269 		.ascii	"tprio_t\000"
 2888      6F5F7400 
 2889              	.LASF15:
 2890 02b7 5F426F6F 		.ascii	"_Bool\000"
ARM GAS  /tmp/ccX5VwdU.s 			page 54


 2890      6C00
 2891              	.LASF13:
 2892 02bd 696E7433 		.ascii	"int32_t\000"
 2892      325F7400 
 2893              	.LASF2:
 2894 02c5 756E7369 		.ascii	"unsigned char\000"
 2894      676E6564 
 2894      20636861 
 2894      7200
 2895              	.LASF67:
 2896 02d3 6E657773 		.ascii	"newstate\000"
 2896      74617465 
 2896      00
 2897              	.LASF36:
 2898 02dc 705F6D74 		.ascii	"p_mtxlist\000"
 2898      786C6973 
 2898      7400
 2899              	.LASF3:
 2900 02e6 73686F72 		.ascii	"short int\000"
 2900      7420696E 
 2900      7400
 2901              	.LASF29:
 2902 02f0 705F7374 		.ascii	"p_state\000"
 2902      61746500 
 2903              	.LASF31:
 2904 02f8 705F7072 		.ascii	"p_preempt\000"
 2904      65656D70 
 2904      7400
 2905              	.LASF52:
 2906 0302 725F7072 		.ascii	"r_prio\000"
 2906      696F00
 2907              	.LASF66:
 2908 0309 65776D61 		.ascii	"ewmask\000"
 2908      736B00
 2909              	.LASF25:
 2910 0310 705F6E65 		.ascii	"p_next\000"
 2910      787400
 2911              	.LASF30:
 2912 0317 705F666C 		.ascii	"p_flags\000"
 2912      61677300 
 2913              	.LASF24:
 2914 031f 54687265 		.ascii	"Thread\000"
 2914      616400
 2915              	.LASF87:
 2916 0326 63685654 		.ascii	"chVTResetI\000"
 2916      52657365 
 2916      744900
 2917              	.LASF81:
 2918 0331 2E2E2F6F 		.ascii	"../os/kernel/src/chschd.c\000"
 2918      732F6B65 
 2918      726E656C 
 2918      2F737263 
 2918      2F636873 
 2919              	.LASF69:
 2920 034b 63685363 		.ascii	"chSchGoSleepS\000"
 2920      68476F53 
 2920      6C656570 
ARM GAS  /tmp/ccX5VwdU.s 			page 55


 2920      5300
 2921              	.LASF35:
 2922 0359 705F6570 		.ascii	"p_epending\000"
 2922      656E6469 
 2922      6E6700
 2923              	.LASF14:
 2924 0364 75696E74 		.ascii	"uint32_t\000"
 2924      33325F74 
 2924      00
 2925              	.LASF51:
 2926 036d 725F7175 		.ascii	"r_queue\000"
 2926      65756500 
 2927              	.LASF45:
 2928 0375 56697274 		.ascii	"VirtualTimer\000"
 2928      75616C54 
 2928      696D6572 
 2928      00
 2929              	.LASF75:
 2930 0382 63685363 		.ascii	"chSchReadyI\000"
 2930      68526561 
 2930      64794900 
 2931              	.LASF82:
 2932 038e 2F686F6D 		.ascii	"/home/dltech/gdrive/Projects/RFM_to_Modbus_TCP/Chib"
 2932      652F646C 
 2932      74656368 
 2932      2F676472 
 2932      6976652F 
 2933 03c1 694F532F 		.ascii	"iOS/F103_ChibiOS_ENC60J28/main\000"
 2933      46313033 
 2933      5F436869 
 2933      62694F53 
 2933      5F454E43 
 2934              	.LASF62:
 2935 03e0 6D5F6E65 		.ascii	"m_next\000"
 2935      787400
 2936              	.LASF22:
 2937 03e7 73797374 		.ascii	"systime_t\000"
 2937      696D655F 
 2937      7400
 2938              	.LASF37:
 2939 03f1 705F7265 		.ascii	"p_realprio\000"
 2939      616C7072 
 2939      696F00
 2940              	.LASF6:
 2941 03fc 5F5F696E 		.ascii	"__int32_t\000"
 2941      7433325F 
 2941      7400
 2942              	.LASF42:
 2943 0406 636F6E74 		.ascii	"context\000"
 2943      65787400 
 2944              	.LASF41:
 2945 040e 696E7463 		.ascii	"intctx\000"
 2945      747800
 2946              	.LASF33:
 2947 0415 705F6D73 		.ascii	"p_msgqueue\000"
 2947      67717565 
 2947      756500
ARM GAS  /tmp/ccX5VwdU.s 			page 56


 2948              	.LASF50:
 2949 0420 76745F70 		.ascii	"vt_par\000"
 2949      617200
 2950              	.LASF56:
 2951 0427 53656D61 		.ascii	"Semaphore\000"
 2951      70686F72 
 2951      6500
 2952              	.LASF55:
 2953 0431 52656164 		.ascii	"ReadyList\000"
 2953      794C6973 
 2953      7400
 2954              	.LASF86:
 2955 043b 726C6973 		.ascii	"rlist\000"
 2955      7400
 2956              	.LASF12:
 2957 0441 75696E74 		.ascii	"uint8_t\000"
 2957      385F7400 
 2958              	.LASF65:
 2959 0449 77746F62 		.ascii	"wtobjp\000"
 2959      6A7000
 2960              	.LASF85:
 2961 0450 63685363 		.ascii	"chSchGoSleepTimeoutS\000"
 2961      68476F53 
 2961      6C656570 
 2961      54696D65 
 2961      6F757453 
 2962              	.LASF61:
 2963 0465 6D5F6F77 		.ascii	"m_owner\000"
 2963      6E657200 
 2964              	.LASF28:
 2965 046d 705F6374 		.ascii	"p_ctx\000"
 2965      7800
 2966              	.LASF32:
 2967 0473 705F7761 		.ascii	"p_waiting\000"
 2967      6974696E 
 2967      6700
 2968              		.ident	"GCC: (4.8.2-14ubuntu1+6) 4.8.2"
ARM GAS  /tmp/ccX5VwdU.s 			page 57


DEFINED SYMBOLS
                            *ABS*:0000000000000000 chschd.c
     /tmp/ccX5VwdU.s:19     .text.wakeup:0000000000000000 $t
     /tmp/ccX5VwdU.s:24     .text.wakeup:0000000000000000 wakeup
     /tmp/ccX5VwdU.s:50     .text.wakeup:0000000000000012 $d
     /tmp/ccX5VwdU.s:64     .text.wakeup:0000000000000020 $t
     /tmp/ccX5VwdU.s:701    .bss.rlist:0000000000000000 .LANCHOR0
     /tmp/ccX5VwdU.s:130    .text._scheduler_init:0000000000000000 $t
     /tmp/ccX5VwdU.s:136    .text._scheduler_init:0000000000000000 _scheduler_init
     /tmp/ccX5VwdU.s:158    .text.chSchReadyI:0000000000000000 $t
     /tmp/ccX5VwdU.s:164    .text.chSchReadyI:0000000000000000 chSchReadyI
     /tmp/ccX5VwdU.s:216    .text.chSchGoSleepS:0000000000000000 $t
     /tmp/ccX5VwdU.s:222    .text.chSchGoSleepS:0000000000000000 chSchGoSleepS
     /tmp/ccX5VwdU.s:270    .text.chSchGoSleepTimeoutS:0000000000000000 $t
     /tmp/ccX5VwdU.s:276    .text.chSchGoSleepTimeoutS:0000000000000000 chSchGoSleepTimeoutS
     /tmp/ccX5VwdU.s:346    .text.chSchWakeupS:0000000000000000 $t
     /tmp/ccX5VwdU.s:352    .text.chSchWakeupS:0000000000000000 chSchWakeupS
     /tmp/ccX5VwdU.s:470    .text.chSchDoRescheduleBehind:0000000000000000 $t
     /tmp/ccX5VwdU.s:476    .text.chSchDoRescheduleBehind:0000000000000000 chSchDoRescheduleBehind
     /tmp/ccX5VwdU.s:562    .text.chSchDoRescheduleAhead:0000000000000000 $t
     /tmp/ccX5VwdU.s:568    .text.chSchDoRescheduleAhead:0000000000000000 chSchDoRescheduleAhead
     /tmp/ccX5VwdU.s:638    .text.chSchRescheduleS:0000000000000000 $t
     /tmp/ccX5VwdU.s:644    .text.chSchRescheduleS:0000000000000000 chSchRescheduleS
     /tmp/ccX5VwdU.s:669    .text.chSchDoReschedule:0000000000000000 $t
     /tmp/ccX5VwdU.s:675    .text.chSchDoReschedule:0000000000000000 chSchDoReschedule
     /tmp/ccX5VwdU.s:704    .bss.rlist:0000000000000000 rlist
     /tmp/ccX5VwdU.s:700    .bss.rlist:0000000000000000 $d
                     .debug_frame:0000000000000010 $d

UNDEFINED SYMBOLS
_port_lock
dequeue
_port_unlock
fifo_remove
_port_switch
chVTSetI
chVTResetI
