ARM GAS  /tmp/ccX5VwdU.s 			page 1


   1              		.syntax unified
   2              		.cpu cortex-m3
   3              		.fpu softvfp
   4              		.eabi_attribute 20, 1
   5              		.eabi_attribute 21, 1
   6              		.eabi_attribute 23, 3
   7              		.eabi_attribute 24, 1
   8              		.eabi_attribute 25, 1
   9              		.eabi_attribute 26, 1
  10              		.eabi_attribute 30, 2
  11              		.eabi_attribute 34, 1
  12              		.eabi_attribute 18, 4
  13              		.thumb
  14              		.file	"chschd.c"
  15              		.text
  16              	.Ltext0:
  17              		.cfi_sections	.debug_frame
  18              		.section	.text.wakeup,"ax",%progbits
  19              		.align	2
  20              		.p2align 4,,15
  21              		.thumb
  22              		.thumb_func
  23              		.type	wakeup, %function
  24              	wakeup:
  25              	.LFB3:
  26              		.file 1 "../os/kernel/src/chschd.c"
  27              		.loc 1 136 0
  28              		.cfi_startproc
  29              		@ args = 0, pretend = 0, frame = 0
  30              		@ frame_needed = 0, uses_anonymous_args = 0
  31              	.LVL0:
  32 0000 10B5     		push	{r4, lr}
  33              		.cfi_def_cfa_offset 8
  34              		.cfi_offset 4, -8
  35              		.cfi_offset 14, -4
  36              		.loc 1 136 0
  37 0002 0446     		mov	r4, r0
  38              	.LVL1:
  39              		.loc 1 139 0
  40              	@ 139 "../os/kernel/src/chschd.c" 1
  41 0004 FFF7FEFF 		bl      _port_lock
  42              	@ 0 "" 2
  43              		.loc 1 140 0
  44              		.thumb
  45 0008 037C     		ldrb	r3, [r0, #16]	@ zero_extendqisi2
  46 000a 0D2B     		cmp	r3, #13
  47 000c 0FD8     		bhi	.L2
  48 000e DFE803F0 		tbb	[pc, r3]
  49              	.L4:
  50 0012 21       		.byte	(.L10-.L4)/2
  51 0013 0E       		.byte	(.L2-.L4)/2
  52 0014 0E       		.byte	(.L2-.L4)/2
  53 0015 07       		.byte	(.L5-.L4)/2
  54 0016 0E       		.byte	(.L2-.L4)/2
  55 0017 0B       		.byte	(.L6-.L4)/2
  56 0018 0E       		.byte	(.L2-.L4)/2
  57 0019 0E       		.byte	(.L2-.L4)/2
ARM GAS  /tmp/ccX5VwdU.s 			page 2


  58 001a 0E       		.byte	(.L2-.L4)/2
  59 001b 0E       		.byte	(.L2-.L4)/2
  60 001c 0E       		.byte	(.L2-.L4)/2
  61 001d 0E       		.byte	(.L2-.L4)/2
  62 001e 0E       		.byte	(.L2-.L4)/2
  63 001f 0B       		.byte	(.L6-.L4)/2
  64              		.align	1
  65              	.L5:
  66              		.loc 1 150 0
  67 0020 4369     		ldr	r3, [r0, #20]
  68 0022 9A68     		ldr	r2, [r3, #8]
  69 0024 0132     		adds	r2, r2, #1
  70 0026 9A60     		str	r2, [r3, #8]
  71              	.L6:
  72              		.loc 1 160 0
  73 0028 2046     		mov	r0, r4
  74              	.LVL2:
  75 002a FFF7FEFF 		bl	dequeue
  76              	.LVL3:
  77              	.L2:
  78              		.loc 1 163 0
  79 002e 4FF0FF30 		mov	r0, #-1
  80              	.LBB11:
  81              	.LBB12:
  82              		.loc 1 92 0
  83 0032 0022     		movs	r2, #0
  84              		.loc 1 93 0
  85 0034 40F20003 		movw	r3, #:lower16:.LANCHOR0
  86 0038 A168     		ldr	r1, [r4, #8]
  87              	.LBE12:
  88              	.LBE11:
  89              		.loc 1 163 0
  90 003a 6061     		str	r0, [r4, #20]
  91              	.LVL4:
  92              	.LBB14:
  93              	.LBB13:
  94              		.loc 1 92 0
  95 003c 2274     		strb	r2, [r4, #16]
  96              	.LVL5:
  97              		.loc 1 93 0
  98 003e C0F20003 		movt	r3, #:upper16:.LANCHOR0
  99              	.LVL6:
 100              	.L9:
 101              		.loc 1 95 0
 102 0042 1B68     		ldr	r3, [r3]
 103              	.LVL7:
 104              		.loc 1 96 0
 105 0044 9A68     		ldr	r2, [r3, #8]
 106 0046 8A42     		cmp	r2, r1
 107 0048 FBD2     		bcs	.L9
 108              		.loc 1 98 0
 109 004a 2360     		str	r3, [r4]
 110              		.loc 1 99 0
 111 004c 5A68     		ldr	r2, [r3, #4]
 112 004e 6260     		str	r2, [r4, #4]
 113              		.loc 1 100 0
 114 0050 5C60     		str	r4, [r3, #4]
ARM GAS  /tmp/ccX5VwdU.s 			page 3


 115 0052 1460     		str	r4, [r2]
 116              	.LVL8:
 117              	.L10:
 118              	.LBE13:
 119              	.LBE14:
 120              		.loc 1 165 0
 121              	@ 165 "../os/kernel/src/chschd.c" 1
 122 0054 FFF7FEFF 		bl      _port_unlock
 123              	@ 0 "" 2
 124              		.thumb
 125 0058 10BD     		pop	{r4, pc}
 126              		.cfi_endproc
 127              	.LFE3:
 128              		.size	wakeup, .-wakeup
 129 005a 00BFAFF3 		.section	.text._scheduler_init,"ax",%progbits
 129      0080
 130              		.align	2
 131              		.p2align 4,,15
 132              		.global	_scheduler_init
 133              		.thumb
 134              		.thumb_func
 135              		.type	_scheduler_init, %function
 136              	_scheduler_init:
 137              	.LFB0:
 138              		.loc 1 55 0
 139              		.cfi_startproc
 140              		@ args = 0, pretend = 0, frame = 0
 141              		@ frame_needed = 0, uses_anonymous_args = 0
 142              		@ link register save eliminated.
 143              		.loc 1 57 0
 144 0000 40F20003 		movw	r3, #:lower16:.LANCHOR0
 145 0004 C0F20003 		movt	r3, #:upper16:.LANCHOR0
 146              		.loc 1 58 0
 147 0008 0022     		movs	r2, #0
 148              		.loc 1 57 0
 149 000a 5B60     		str	r3, [r3, #4]
 150 000c 1B60     		str	r3, [r3]
 151              		.loc 1 58 0
 152 000e 9A60     		str	r2, [r3, #8]
 153 0010 7047     		bx	lr
 154              		.cfi_endproc
 155              	.LFE0:
 156              		.size	_scheduler_init, .-_scheduler_init
 157 0012 00BFAFF3 		.section	.text.chSchReadyI,"ax",%progbits
 157      0080AFF3 
 157      0080AFF3 
 157      0080
 158              		.align	2
 159              		.p2align 4,,15
 160              		.global	chSchReadyI
 161              		.thumb
 162              		.thumb_func
 163              		.type	chSchReadyI, %function
 164              	chSchReadyI:
 165              	.LFB1:
 166              		.loc 1 81 0
 167              		.cfi_startproc
ARM GAS  /tmp/ccX5VwdU.s 			page 4


 168              		@ args = 0, pretend = 0, frame = 0
 169              		@ frame_needed = 0, uses_anonymous_args = 0
 170              		@ link register save eliminated.
 171              	.LVL9:
 172 0000 10B4     		push	{r4}
 173              		.cfi_def_cfa_offset 4
 174              		.cfi_offset 4, -4
 175              		.loc 1 92 0
 176 0002 0022     		movs	r2, #0
 177              		.loc 1 93 0
 178 0004 40F20003 		movw	r3, #:lower16:.LANCHOR0
 179 0008 8168     		ldr	r1, [r0, #8]
 180              		.loc 1 81 0
 181 000a 0446     		mov	r4, r0
 182              		.loc 1 92 0
 183 000c 0274     		strb	r2, [r0, #16]
 184              	.LVL10:
 185              		.loc 1 93 0
 186 000e C0F20003 		movt	r3, #:upper16:.LANCHOR0
 187              	.LVL11:
 188              	.L15:
 189              		.loc 1 95 0 discriminator 1
 190 0012 1B68     		ldr	r3, [r3]
 191              	.LVL12:
 192              		.loc 1 96 0 discriminator 1
 193 0014 9A68     		ldr	r2, [r3, #8]
 194 0016 8A42     		cmp	r2, r1
 195 0018 FBD2     		bcs	.L15
 196              		.loc 1 98 0
 197 001a 2360     		str	r3, [r4]
 198              		.loc 1 99 0
 199 001c 5A68     		ldr	r2, [r3, #4]
 200              		.loc 1 102 0
 201 001e 2046     		mov	r0, r4
 202              	.LVL13:
 203              		.loc 1 99 0
 204 0020 6260     		str	r2, [r4, #4]
 205              		.loc 1 100 0
 206 0022 5C60     		str	r4, [r3, #4]
 207 0024 1460     		str	r4, [r2]
 208              		.loc 1 102 0
 209 0026 5DF8044B 		ldr	r4, [sp], #4
 210              	.LVL14:
 211 002a 7047     		bx	lr
 212              		.cfi_endproc
 213              	.LFE1:
 214              		.size	chSchReadyI, .-chSchReadyI
 215 002c AFF30080 		.section	.text.chSchGoSleepS,"ax",%progbits
 216              		.align	2
 217              		.p2align 4,,15
 218              		.global	chSchGoSleepS
 219              		.thumb
 220              		.thumb_func
 221              		.type	chSchGoSleepS, %function
 222              	chSchGoSleepS:
 223              	.LFB2:
 224              		.loc 1 115 0
ARM GAS  /tmp/ccX5VwdU.s 			page 5


 225              		.cfi_startproc
 226              		@ args = 0, pretend = 0, frame = 0
 227              		@ frame_needed = 0, uses_anonymous_args = 0
 228              	.LVL15:
 229 0000 38B5     		push	{r3, r4, r5, lr}
 230              		.cfi_def_cfa_offset 16
 231              		.cfi_offset 3, -16
 232              		.cfi_offset 4, -12
 233              		.cfi_offset 5, -8
 234              		.cfi_offset 14, -4
 235              		.loc 1 120 0
 236 0002 40F20004 		movw	r4, #:lower16:.LANCHOR0
 237 0006 C0F20004 		movt	r4, #:upper16:.LANCHOR0
 238 000a 2569     		ldr	r5, [r4, #16]
 239              	.LVL16:
 240              		.loc 1 124 0
 241 000c 1423     		movs	r3, #20
 242              		.loc 1 120 0
 243 000e 2874     		strb	r0, [r5, #16]
 244              		.loc 1 124 0
 245 0010 AB74     		strb	r3, [r5, #18]
 246              		.loc 1 126 0
 247 0012 2046     		mov	r0, r4
 248              	.LVL17:
 249 0014 FFF7FEFF 		bl	fifo_remove
 250              	.LVL18:
 251              		.loc 1 127 0
 252 0018 0123     		movs	r3, #1
 253              		.loc 1 126 0
 254 001a 2061     		str	r0, [r4, #16]
 255              		.loc 1 127 0
 256 001c 0374     		strb	r3, [r0, #16]
 257              		.loc 1 128 0
 258 001e 2946     		mov	r1, r5
 259 0020 2069     		ldr	r0, [r4, #16]
 260              		.loc 1 129 0
 261 0022 BDE83840 		pop	{r3, r4, r5, lr}
 262              	.LVL19:
 263              		.loc 1 128 0
 264 0026 FFF7FEBF 		b	_port_switch
 265              	.LVL20:
 266              		.cfi_endproc
 267              	.LFE2:
 268              		.size	chSchGoSleepS, .-chSchGoSleepS
 269 002a 00BFAFF3 		.section	.text.chSchGoSleepTimeoutS,"ax",%progbits
 269      0080
 270              		.align	2
 271              		.p2align 4,,15
 272              		.global	chSchGoSleepTimeoutS
 273              		.thumb
 274              		.thumb_func
 275              		.type	chSchGoSleepTimeoutS, %function
 276              	chSchGoSleepTimeoutS:
 277              	.LFB4:
 278              		.loc 1 189 0
 279              		.cfi_startproc
 280              		@ args = 0, pretend = 0, frame = 24
ARM GAS  /tmp/ccX5VwdU.s 			page 6


 281              		@ frame_needed = 0, uses_anonymous_args = 0
 282              	.LVL21:
 283 0000 30B5     		push	{r4, r5, lr}
 284              		.cfi_def_cfa_offset 12
 285              		.cfi_offset 4, -12
 286              		.cfi_offset 5, -8
 287              		.cfi_offset 14, -4
 288              		.loc 1 193 0
 289 0002 4B1C     		adds	r3, r1, #1
 290              		.loc 1 189 0
 291 0004 87B0     		sub	sp, sp, #28
 292              		.cfi_def_cfa_offset 40
 293              		.loc 1 189 0
 294 0006 0546     		mov	r5, r0
 295              		.loc 1 193 0
 296 0008 17D0     		beq	.L18
 297              	.LBB15:
 298              		.loc 1 196 0
 299 000a 40F20004 		movw	r4, #:lower16:.LANCHOR0
 300 000e C0F20004 		movt	r4, #:upper16:.LANCHOR0
 301 0012 40F20002 		movw	r2, #:lower16:wakeup
 302 0016 2369     		ldr	r3, [r4, #16]
 303 0018 01A8     		add	r0, sp, #4
 304              	.LVL22:
 305 001a C0F20002 		movt	r2, #:upper16:wakeup
 306 001e FFF7FEFF 		bl	chVTSetI
 307              	.LVL23:
 308              		.loc 1 197 0
 309 0022 2846     		mov	r0, r5
 310 0024 FFF7FEFF 		bl	chSchGoSleepS
 311              	.LVL24:
 312              		.loc 1 198 0
 313 0028 049B     		ldr	r3, [sp, #16]
 314 002a 13B1     		cbz	r3, .L20
 315              		.loc 1 199 0
 316 002c 01A8     		add	r0, sp, #4
 317 002e FFF7FEFF 		bl	chVTResetI
 318              	.LVL25:
 319              	.L20:
 320              	.LBE15:
 321              		.loc 1 203 0
 322 0032 2369     		ldr	r3, [r4, #16]
 323              		.loc 1 204 0
 324 0034 5869     		ldr	r0, [r3, #20]
 325 0036 07B0     		add	sp, sp, #28
 326              		@ sp needed
 327 0038 30BD     		pop	{r4, r5, pc}
 328              	.LVL26:
 329              	.L18:
 330              		.loc 1 202 0
 331 003a FFF7FEFF 		bl	chSchGoSleepS
 332              	.LVL27:
 333 003e 40F20004 		movw	r4, #:lower16:.LANCHOR0
 334 0042 C0F20004 		movt	r4, #:upper16:.LANCHOR0
 335              		.loc 1 203 0
 336 0046 2369     		ldr	r3, [r4, #16]
 337              		.loc 1 204 0
ARM GAS  /tmp/ccX5VwdU.s 			page 7


 338 0048 5869     		ldr	r0, [r3, #20]
 339 004a 07B0     		add	sp, sp, #28
 340              		@ sp needed
 341 004c 30BD     		pop	{r4, r5, pc}
 342              		.cfi_endproc
 343              	.LFE4:
 344              		.size	chSchGoSleepTimeoutS, .-chSchGoSleepTimeoutS
 345 004e 00BF     		.section	.text.chSchWakeupS,"ax",%progbits
 346              		.align	2
 347              		.p2align 4,,15
 348              		.global	chSchWakeupS
 349              		.thumb
 350              		.thumb_func
 351              		.type	chSchWakeupS, %function
 352              	chSchWakeupS:
 353              	.LFB5:
 354              		.loc 1 225 0
 355              		.cfi_startproc
 356              		@ args = 0, pretend = 0, frame = 0
 357              		@ frame_needed = 0, uses_anonymous_args = 0
 358              		@ link register save eliminated.
 359              	.LVL28:
 360 0000 F0B4     		push	{r4, r5, r6, r7}
 361              		.cfi_def_cfa_offset 16
 362              		.cfi_offset 4, -16
 363              		.cfi_offset 5, -12
 364              		.cfi_offset 6, -8
 365              		.cfi_offset 7, -4
 366              		.loc 1 234 0
 367 0002 40F20007 		movw	r7, #:lower16:.LANCHOR0
 368 0006 C0F20007 		movt	r7, #:upper16:.LANCHOR0
 369 000a D7F810C0 		ldr	ip, [r7, #16]
 370              		.loc 1 229 0
 371 000e 4161     		str	r1, [r0, #20]
 372              		.loc 1 234 0
 373 0010 DCF80840 		ldr	r4, [ip, #8]
 374 0014 8568     		ldr	r5, [r0, #8]
 375              		.loc 1 225 0
 376 0016 0646     		mov	r6, r0
 377              		.loc 1 234 0
 378 0018 A542     		cmp	r5, r4
 379 001a 0DD8     		bhi	.L25
 380              	.LVL29:
 381              	.LBB16:
 382              	.LBB17:
 383              		.loc 1 92 0
 384 001c 0022     		movs	r2, #0
 385              		.loc 1 93 0
 386 001e 3B46     		mov	r3, r7
 387              		.loc 1 92 0
 388 0020 0274     		strb	r2, [r0, #16]
 389              	.LVL30:
 390              	.L27:
 391              		.loc 1 95 0
 392 0022 1B68     		ldr	r3, [r3]
 393              	.LVL31:
 394              		.loc 1 96 0
ARM GAS  /tmp/ccX5VwdU.s 			page 8


 395 0024 9A68     		ldr	r2, [r3, #8]
 396 0026 9542     		cmp	r5, r2
 397 0028 FBD9     		bls	.L27
 398              		.loc 1 98 0
 399 002a 3360     		str	r3, [r6]
 400              		.loc 1 99 0
 401 002c 5A68     		ldr	r2, [r3, #4]
 402 002e 7260     		str	r2, [r6, #4]
 403              		.loc 1 100 0
 404 0030 5E60     		str	r6, [r3, #4]
 405 0032 1660     		str	r6, [r2]
 406              	.LBE17:
 407              	.LBE16:
 408              		.loc 1 242 0
 409 0034 F0BC     		pop	{r4, r5, r6, r7}
 410 0036 7047     		bx	lr
 411              	.LVL32:
 412              	.L25:
 413              	.LBB18:
 414              	.LBB19:
 415              	.LBB20:
 416              		.loc 1 92 0
 417 0038 0023     		movs	r3, #0
 418 003a 8CF81030 		strb	r3, [ip, #16]
 419              	.LVL33:
 420              		.loc 1 93 0
 421 003e 3B46     		mov	r3, r7
 422              	.LVL34:
 423              	.L30:
 424              		.loc 1 95 0
 425 0040 1B68     		ldr	r3, [r3]
 426              	.LVL35:
 427              		.loc 1 96 0
 428 0042 9A68     		ldr	r2, [r3, #8]
 429 0044 9442     		cmp	r4, r2
 430 0046 FBD9     		bls	.L30
 431              		.loc 1 98 0
 432 0048 CCF80030 		str	r3, [ip]
 433              		.loc 1 99 0
 434 004c 5A68     		ldr	r2, [r3, #4]
 435              	.LBE20:
 436              	.LBE19:
 437              		.loc 1 239 0
 438 004e 0124     		movs	r4, #1
 439              	.LBB22:
 440              	.LBB21:
 441              		.loc 1 99 0
 442 0050 CCF80420 		str	r2, [ip, #4]
 443              		.loc 1 100 0
 444 0054 C3F804C0 		str	ip, [r3, #4]
 445 0058 C2F800C0 		str	ip, [r2]
 446              	.LBE21:
 447              	.LBE22:
 448              		.loc 1 238 0
 449 005c 3E61     		str	r6, [r7, #16]
 450              		.loc 1 239 0
 451 005e 3474     		strb	r4, [r6, #16]
ARM GAS  /tmp/ccX5VwdU.s 			page 9


 452              		.loc 1 240 0
 453 0060 3046     		mov	r0, r6
 454              	.LVL36:
 455 0062 6146     		mov	r1, ip
 456              	.LVL37:
 457              	.LBE18:
 458              		.loc 1 242 0
 459 0064 F0BC     		pop	{r4, r5, r6, r7}
 460              	.LVL38:
 461              	.LBB23:
 462              		.loc 1 240 0
 463 0066 FFF7FEBF 		b	_port_switch
 464              	.LVL39:
 465              	.LBE23:
 466              		.cfi_endproc
 467              	.LFE5:
 468              		.size	chSchWakeupS, .-chSchWakeupS
 469 006a 00BFAFF3 		.section	.text.chSchDoRescheduleBehind,"ax",%progbits
 469      0080
 470              		.align	2
 471              		.p2align 4,,15
 472              		.global	chSchDoRescheduleBehind
 473              		.thumb
 474              		.thumb_func
 475              		.type	chSchDoRescheduleBehind, %function
 476              	chSchDoRescheduleBehind:
 477              	.LFB7:
 478              		.loc 1 304 0
 479              		.cfi_startproc
 480              		@ args = 0, pretend = 0, frame = 0
 481              		@ frame_needed = 0, uses_anonymous_args = 0
 482 0000 38B5     		push	{r3, r4, r5, lr}
 483              		.cfi_def_cfa_offset 16
 484              		.cfi_offset 3, -16
 485              		.cfi_offset 4, -12
 486              		.cfi_offset 5, -8
 487              		.cfi_offset 14, -4
 488              		.loc 1 307 0
 489 0002 40F20004 		movw	r4, #:lower16:.LANCHOR0
 490 0006 C0F20004 		movt	r4, #:upper16:.LANCHOR0
 491              		.loc 1 309 0
 492 000a 2046     		mov	r0, r4
 493              		.loc 1 307 0
 494 000c 2569     		ldr	r5, [r4, #16]
 495              	.LVL40:
 496              		.loc 1 309 0
 497 000e FFF7FEFF 		bl	fifo_remove
 498              	.LVL41:
 499              		.loc 1 310 0
 500 0012 0123     		movs	r3, #1
 501              		.loc 1 309 0
 502 0014 2061     		str	r0, [r4, #16]
 503              		.loc 1 310 0
 504 0016 0374     		strb	r3, [r0, #16]
 505              		.loc 1 312 0
 506 0018 1422     		movs	r2, #20
 507              	.LBB24:
ARM GAS  /tmp/ccX5VwdU.s 			page 10


 508              	.LBB25:
 509              		.loc 1 93 0
 510 001a 2046     		mov	r0, r4
 511              		.loc 1 92 0
 512 001c 0023     		movs	r3, #0
 513 001e AC68     		ldr	r4, [r5, #8]
 514 0020 2B74     		strb	r3, [r5, #16]
 515              	.LBE25:
 516              	.LBE24:
 517              		.loc 1 312 0
 518 0022 AA74     		strb	r2, [r5, #18]
 519              	.LVL42:
 520              	.LBB28:
 521              	.LBB26:
 522              		.loc 1 93 0
 523 0024 0346     		mov	r3, r0
 524              	.LVL43:
 525              	.L34:
 526              		.loc 1 95 0
 527 0026 1B68     		ldr	r3, [r3]
 528              	.LVL44:
 529              		.loc 1 96 0
 530 0028 9A68     		ldr	r2, [r3, #8]
 531 002a A242     		cmp	r2, r4
 532 002c FBD2     		bcs	.L34
 533              		.loc 1 98 0
 534 002e 2B60     		str	r3, [r5]
 535              		.loc 1 99 0
 536 0030 5A68     		ldr	r2, [r3, #4]
 537              	.LBE26:
 538              	.LBE28:
 539              		.loc 1 315 0
 540 0032 2946     		mov	r1, r5
 541              	.LBB29:
 542              	.LBB27:
 543              		.loc 1 99 0
 544 0034 6A60     		str	r2, [r5, #4]
 545              		.loc 1 100 0
 546 0036 5D60     		str	r5, [r3, #4]
 547 0038 1560     		str	r5, [r2]
 548              	.LBE27:
 549              	.LBE29:
 550              		.loc 1 315 0
 551 003a 0069     		ldr	r0, [r0, #16]
 552              		.loc 1 316 0
 553 003c BDE83840 		pop	{r3, r4, r5, lr}
 554              	.LVL45:
 555              		.loc 1 315 0
 556 0040 FFF7FEBF 		b	_port_switch
 557              	.LVL46:
 558              		.cfi_endproc
 559              	.LFE7:
 560              		.size	chSchDoRescheduleBehind, .-chSchDoRescheduleBehind
 561 0044 AFF30080 		.section	.text.chSchDoRescheduleAhead,"ax",%progbits
 561      AFF30080 
 561      AFF30080 
 562              		.align	2
ARM GAS  /tmp/ccX5VwdU.s 			page 11


 563              		.p2align 4,,15
 564              		.global	chSchDoRescheduleAhead
 565              		.thumb
 566              		.thumb_func
 567              		.type	chSchDoRescheduleAhead, %function
 568              	chSchDoRescheduleAhead:
 569              	.LFB8:
 570              		.loc 1 329 0
 571              		.cfi_startproc
 572              		@ args = 0, pretend = 0, frame = 0
 573              		@ frame_needed = 0, uses_anonymous_args = 0
 574 0000 38B5     		push	{r3, r4, r5, lr}
 575              		.cfi_def_cfa_offset 16
 576              		.cfi_offset 3, -16
 577              		.cfi_offset 4, -12
 578              		.cfi_offset 5, -8
 579              		.cfi_offset 14, -4
 580              		.loc 1 332 0
 581 0002 40F20004 		movw	r4, #:lower16:.LANCHOR0
 582 0006 C0F20004 		movt	r4, #:upper16:.LANCHOR0
 583              		.loc 1 334 0
 584 000a 2046     		mov	r0, r4
 585              		.loc 1 332 0
 586 000c 2569     		ldr	r5, [r4, #16]
 587              	.LVL47:
 588              		.loc 1 334 0
 589 000e FFF7FEFF 		bl	fifo_remove
 590              	.LVL48:
 591              		.loc 1 335 0
 592 0012 0123     		movs	r3, #1
 593              		.loc 1 334 0
 594 0014 2061     		str	r0, [r4, #16]
 595              		.loc 1 335 0
 596 0016 0374     		strb	r3, [r0, #16]
 597              		.loc 1 338 0
 598 0018 2046     		mov	r0, r4
 599              		.loc 1 337 0
 600 001a 0023     		movs	r3, #0
 601 001c AC68     		ldr	r4, [r5, #8]
 602 001e 2B74     		strb	r3, [r5, #16]
 603              	.LVL49:
 604              		.loc 1 338 0
 605 0020 0346     		mov	r3, r0
 606              	.LVL50:
 607              	.L37:
 608              		.loc 1 340 0 discriminator 1
 609 0022 1B68     		ldr	r3, [r3]
 610              	.LVL51:
 611              		.loc 1 341 0 discriminator 1
 612 0024 9A68     		ldr	r2, [r3, #8]
 613 0026 A242     		cmp	r2, r4
 614 0028 FBD8     		bhi	.L37
 615              		.loc 1 343 0
 616 002a 2B60     		str	r3, [r5]
 617              		.loc 1 344 0
 618 002c 5A68     		ldr	r2, [r3, #4]
 619              		.loc 1 347 0
ARM GAS  /tmp/ccX5VwdU.s 			page 12


 620 002e 2946     		mov	r1, r5
 621              		.loc 1 344 0
 622 0030 6A60     		str	r2, [r5, #4]
 623              		.loc 1 345 0
 624 0032 5D60     		str	r5, [r3, #4]
 625 0034 1560     		str	r5, [r2]
 626              		.loc 1 347 0
 627 0036 0069     		ldr	r0, [r0, #16]
 628              		.loc 1 348 0
 629 0038 BDE83840 		pop	{r3, r4, r5, lr}
 630              	.LVL52:
 631              		.loc 1 347 0
 632 003c FFF7FEBF 		b	_port_switch
 633              	.LVL53:
 634              		.cfi_endproc
 635              	.LFE8:
 636              		.size	chSchDoRescheduleAhead, .-chSchDoRescheduleAhead
 637              		.section	.text.chSchRescheduleS,"ax",%progbits
 638              		.align	2
 639              		.p2align 4,,15
 640              		.global	chSchRescheduleS
 641              		.thumb
 642              		.thumb_func
 643              		.type	chSchRescheduleS, %function
 644              	chSchRescheduleS:
 645              	.LFB6:
 646              		.loc 1 253 0
 647              		.cfi_startproc
 648              		@ args = 0, pretend = 0, frame = 0
 649              		@ frame_needed = 0, uses_anonymous_args = 0
 650              		@ link register save eliminated.
 651              		.loc 1 257 0
 652 0000 40F20003 		movw	r3, #:lower16:.LANCHOR0
 653 0004 C0F20003 		movt	r3, #:upper16:.LANCHOR0
 654 0008 1A68     		ldr	r2, [r3]
 655 000a 1B69     		ldr	r3, [r3, #16]
 656 000c 9268     		ldr	r2, [r2, #8]
 657 000e 9B68     		ldr	r3, [r3, #8]
 658 0010 9A42     		cmp	r2, r3
 659 0012 00D8     		bhi	.L40
 660 0014 7047     		bx	lr
 661              	.L40:
 662              		.loc 1 258 0
 663 0016 FFF7FEBF 		b	chSchDoRescheduleAhead
 664              	.LVL54:
 665              		.cfi_endproc
 666              	.LFE6:
 667              		.size	chSchRescheduleS, .-chSchRescheduleS
 668 001a 00BFAFF3 		.section	.text.chSchDoReschedule,"ax",%progbits
 668      0080
 669              		.align	2
 670              		.p2align 4,,15
 671              		.global	chSchDoReschedule
 672              		.thumb
 673              		.thumb_func
 674              		.type	chSchDoReschedule, %function
 675              	chSchDoReschedule:
ARM GAS  /tmp/ccX5VwdU.s 			page 13


 676              	.LFB9:
 677              		.loc 1 362 0
 678              		.cfi_startproc
 679              		@ args = 0, pretend = 0, frame = 0
 680              		@ frame_needed = 0, uses_anonymous_args = 0
 681              		@ link register save eliminated.
 682              		.loc 1 367 0
 683 0000 40F20003 		movw	r3, #:lower16:.LANCHOR0
 684 0004 C0F20003 		movt	r3, #:upper16:.LANCHOR0
 685 0008 1B69     		ldr	r3, [r3, #16]
 686 000a 9B7C     		ldrb	r3, [r3, #18]	@ zero_extendqisi2
 687 000c 0BB1     		cbz	r3, .L43
 688              		.loc 1 375 0
 689 000e FFF7FEBF 		b	chSchDoRescheduleAhead
 690              	.LVL55:
 691              	.L43:
 692              		.loc 1 370 0
 693 0012 FFF7FEBF 		b	chSchDoRescheduleBehind
 694              	.LVL56:
 695              		.cfi_endproc
 696              	.LFE9:
 697              		.size	chSchDoReschedule, .-chSchDoReschedule
 698              		.global	rlist
 699 0016 00BFAFF3 		.section	.bss.rlist,"aw",%nobits
 699      0080AFF3 
 699      0080
 700              		.align	2
 701              		.set	.LANCHOR0,. + 0
 702              		.type	rlist, %object
 703              		.size	rlist, 20
 704              	rlist:
 705 0000 00000000 		.space	20
 705      00000000 
 705      00000000 
 705      00000000 
 705      00000000 
 706              		.text
 707              	.Letext0:
 708              		.file 2 "/usr/include/newlib/machine/_default_types.h"
 709              		.file 3 "/usr/include/newlib/stdint.h"
 710              		.file 4 "../os/ports/GCC/ARMCMx/chtypes.h"
 711              		.file 5 "../os/kernel/include/chlists.h"
 712              		.file 6 "../os/kernel/include/chthreads.h"
 713              		.file 7 "../os/ports/GCC/ARMCMx/chcore_v7m.h"
 714              		.file 8 "../os/kernel/include/chvt.h"
 715              		.file 9 "../os/kernel/include/chschd.h"
 716              		.file 10 "../os/kernel/include/chsem.h"
 717              		.file 11 "../os/kernel/include/chmtx.h"