ARM GAS  /tmp/ccnhRAl5.s 			page 1


   1              		.syntax unified
   2              		.cpu cortex-m3
   3              		.fpu softvfp
   4              		.eabi_attribute 20, 1
   5              		.eabi_attribute 21, 1
   6              		.eabi_attribute 23, 3
   7              		.eabi_attribute 24, 1
   8              		.eabi_attribute 25, 1
   9              		.eabi_attribute 26, 1
  10              		.eabi_attribute 30, 2
  11              		.eabi_attribute 34, 1
  12              		.eabi_attribute 18, 4
  13              		.thumb
  14              		.file	"chthreads.c"
  15              		.text
  16              	.Ltext0:
  17              		.cfi_sections	.debug_frame
  18              		.section	.text._thread_init,"ax",%progbits
  19              		.align	2
  20              		.p2align 4,,15
  21              		.global	_thread_init
  22              		.thumb
  23              		.thumb_func
  24              		.type	_thread_init, %function
  25              	_thread_init:
  26              	.LFB0:
  27              		.file 1 "../os/kernel/src/chthreads.c"
  28              		.loc 1 76 0
  29              		.cfi_startproc
  30              		@ args = 0, pretend = 0, frame = 0
  31              		@ frame_needed = 0, uses_anonymous_args = 0
  32              		@ link register save eliminated.
  33              	.LVL0:
  34 0000 F0B4     		push	{r4, r5, r6, r7}
  35              		.cfi_def_cfa_offset 16
  36              		.cfi_offset 4, -16
  37              		.cfi_offset 5, -12
  38              		.cfi_offset 6, -8
  39              		.cfi_offset 7, -4
  40              		.loc 1 105 0
  41 0002 00F11C04 		add	r4, r0, #28
  42              		.loc 1 80 0
  43 0006 0022     		movs	r2, #0
  44              		.loc 1 79 0
  45 0008 0227     		movs	r7, #2
  46              		.loc 1 82 0
  47 000a 1426     		movs	r6, #20
  48              		.loc 1 102 0
  49 000c 00F11805 		add	r5, r0, #24
  50              		.loc 1 79 0
  51 0010 0774     		strb	r7, [r0, #16]
  52              		.loc 1 82 0
  53 0012 8674     		strb	r6, [r0, #18]
  54              		.loc 1 102 0
  55 0014 8561     		str	r5, [r0, #24]
  56              		.loc 1 105 0
  57 0016 0462     		str	r4, [r0, #32]
ARM GAS  /tmp/ccnhRAl5.s 			page 2


  58 0018 C461     		str	r4, [r0, #28]
  59              		.loc 1 78 0
  60 001a 8160     		str	r1, [r0, #8]
  61              		.loc 1 85 0
  62 001c 0163     		str	r1, [r0, #48]
  63              		.loc 1 80 0
  64 001e 4274     		strb	r2, [r0, #17]
  65              		.loc 1 86 0
  66 0020 C262     		str	r2, [r0, #44]
  67              		.loc 1 89 0
  68 0022 8262     		str	r2, [r0, #40]
  69              		.loc 1 114 0
  70 0024 F0BC     		pop	{r4, r5, r6, r7}
  71 0026 7047     		bx	lr
  72              		.cfi_endproc
  73              	.LFE0:
  74              		.size	_thread_init, .-_thread_init
  75 0028 AFF30080 		.section	.text.chThdCreateI,"ax",%progbits
  75      AFF30080 
  76              		.align	2
  77              		.p2align 4,,15
  78              		.global	chThdCreateI
  79              		.thumb
  80              		.thumb_func
  81              		.type	chThdCreateI, %function
  82              	chThdCreateI:
  83              	.LFB1:
  84              		.loc 1 158 0
  85              		.cfi_startproc
  86              		@ args = 4, pretend = 0, frame = 0
  87              		@ frame_needed = 0, uses_anonymous_args = 0
  88              		@ link register save eliminated.
  89              	.LVL1:
  90              		.loc 1 167 0
  91 0000 2439     		subs	r1, r1, #36
  92              	.LVL2:
  93              		.loc 1 158 0
  94 0002 2DE9F001 		push	{r4, r5, r6, r7, r8}
  95              		.cfi_def_cfa_offset 20
  96              		.cfi_offset 4, -20
  97              		.cfi_offset 5, -16
  98              		.cfi_offset 6, -12
  99              		.cfi_offset 7, -8
 100              		.cfi_offset 8, -4
 101              		.loc 1 167 0
 102 0006 4518     		adds	r5, r0, r1
 103 0008 C560     		str	r5, [r0, #12]
 104 000a 4350     		str	r3, [r0, r1]
 105 000c C168     		ldr	r1, [r0, #12]
 106              	.LVL3:
 107              		.loc 1 158 0
 108 000e 059D     		ldr	r5, [sp, #20]
 109              		.loc 1 167 0
 110 0010 40F20003 		movw	r3, #:lower16:_port_thread_start
 111              	.LVL4:
 112 0014 4D60     		str	r5, [r1, #4]
 113              	.LVL5:
ARM GAS  /tmp/ccnhRAl5.s 			page 3


 114 0016 C668     		ldr	r6, [r0, #12]
 115 0018 C0F20003 		movt	r3, #:upper16:_port_thread_start
 116 001c 3362     		str	r3, [r6, #32]
 117              	.LVL6:
 118              	.LBB8:
 119              	.LBB9:
 120              		.loc 1 105 0
 121 001e 00F11C05 		add	r5, r0, #28
 122              		.loc 1 80 0
 123 0022 0021     		movs	r1, #0
 124              		.loc 1 79 0
 125 0024 4FF00208 		mov	r8, #2
 126              		.loc 1 102 0
 127 0028 00F11807 		add	r7, r0, #24
 128              		.loc 1 82 0
 129 002c 4FF0140C 		mov	ip, #20
 130              		.loc 1 79 0
 131 0030 80F81080 		strb	r8, [r0, #16]
 132              		.loc 1 102 0
 133 0034 8761     		str	r7, [r0, #24]
 134              		.loc 1 105 0
 135 0036 0562     		str	r5, [r0, #32]
 136 0038 C561     		str	r5, [r0, #28]
 137              		.loc 1 78 0
 138 003a 8260     		str	r2, [r0, #8]
 139              		.loc 1 85 0
 140 003c 0263     		str	r2, [r0, #48]
 141              		.loc 1 82 0
 142 003e 80F812C0 		strb	ip, [r0, #18]
 143              		.loc 1 80 0
 144 0042 4174     		strb	r1, [r0, #17]
 145              		.loc 1 86 0
 146 0044 C162     		str	r1, [r0, #44]
 147              		.loc 1 89 0
 148 0046 8162     		str	r1, [r0, #40]
 149              	.LBE9:
 150              	.LBE8:
 151              		.loc 1 169 0
 152 0048 BDE8F001 		pop	{r4, r5, r6, r7, r8}
 153              	.LVL7:
 154 004c 7047     		bx	lr
 155              		.cfi_endproc
 156              	.LFE1:
 157              		.size	chThdCreateI, .-chThdCreateI
 158 004e 00BF     		.section	.text.chThdCreateStatic,"ax",%progbits
 159              		.align	2
 160              		.p2align 4,,15
 161              		.global	chThdCreateStatic
 162              		.thumb
 163              		.thumb_func
 164              		.type	chThdCreateStatic, %function
 165              	chThdCreateStatic:
 166              	.LFB2:
 167              		.loc 1 188 0
 168              		.cfi_startproc
 169              		@ args = 4, pretend = 0, frame = 0
 170              		@ frame_needed = 0, uses_anonymous_args = 0
ARM GAS  /tmp/ccnhRAl5.s 			page 4


 171              	.LVL8:
 172 0000 F8B5     		push	{r3, r4, r5, r6, r7, lr}
 173              		.cfi_def_cfa_offset 24
 174              		.cfi_offset 3, -24
 175              		.cfi_offset 4, -20
 176              		.cfi_offset 5, -16
 177              		.cfi_offset 6, -12
 178              		.cfi_offset 7, -8
 179              		.cfi_offset 14, -4
 180              		.loc 1 188 0
 181 0002 0446     		mov	r4, r0
 182 0004 1D46     		mov	r5, r3
 183 0006 0698     		ldr	r0, [sp, #24]
 184              	.LVL9:
 185              		.loc 1 199 0
 186              	@ 199 "../os/kernel/src/chthreads.c" 1
 187 0008 FFF7FEFF 		bl      _port_lock
 188              	@ 0 "" 2
 189              	.LVL10:
 190              		.thumb
 191              	.LBB10:
 192              	.LBB11:
 193              		.loc 1 167 0
 194 000c 2439     		subs	r1, r1, #36
 195              	.LVL11:
 196 000e 6318     		adds	r3, r4, r1
 197 0010 E360     		str	r3, [r4, #12]
 198 0012 6550     		str	r5, [r4, r1]
 199 0014 E368     		ldr	r3, [r4, #12]
 200 0016 40F20001 		movw	r1, #:lower16:_port_thread_start
 201              	.LVL12:
 202 001a 5860     		str	r0, [r3, #4]
 203 001c E568     		ldr	r5, [r4, #12]
 204              	.LVL13:
 205              	.LBB12:
 206              	.LBB13:
 207              		.loc 1 80 0
 208 001e 0023     		movs	r3, #0
 209              		.loc 1 105 0
 210 0020 04F11C00 		add	r0, r4, #28
 211              	.LVL14:
 212              		.loc 1 79 0
 213 0024 4FF0020E 		mov	lr, #2
 214              	.LBE13:
 215              	.LBE12:
 216              		.loc 1 167 0
 217 0028 C0F20001 		movt	r1, #:upper16:_port_thread_start
 218              	.LBB17:
 219              	.LBB14:
 220              		.loc 1 82 0
 221 002c 1427     		movs	r7, #20
 222              		.loc 1 102 0
 223 002e 04F11806 		add	r6, r4, #24
 224              	.LBE14:
 225              	.LBE17:
 226              		.loc 1 167 0
 227 0032 2962     		str	r1, [r5, #32]
ARM GAS  /tmp/ccnhRAl5.s 			page 5


 228              	.LVL15:
 229              	.LBB18:
 230              	.LBB15:
 231              		.loc 1 105 0
 232 0034 2062     		str	r0, [r4, #32]
 233 0036 E061     		str	r0, [r4, #28]
 234              	.LBE15:
 235              	.LBE18:
 236              	.LBE11:
 237              	.LBE10:
 238              		.loc 1 200 0
 239 0038 1946     		mov	r1, r3
 240              	.LBB21:
 241              	.LBB20:
 242              	.LBB19:
 243              	.LBB16:
 244              		.loc 1 78 0
 245 003a A260     		str	r2, [r4, #8]
 246              		.loc 1 85 0
 247 003c 2263     		str	r2, [r4, #48]
 248              		.loc 1 79 0
 249 003e 84F810E0 		strb	lr, [r4, #16]
 250              		.loc 1 82 0
 251 0042 A774     		strb	r7, [r4, #18]
 252              		.loc 1 102 0
 253 0044 A661     		str	r6, [r4, #24]
 254              		.loc 1 80 0
 255 0046 6374     		strb	r3, [r4, #17]
 256              		.loc 1 86 0
 257 0048 E362     		str	r3, [r4, #44]
 258              		.loc 1 89 0
 259 004a A362     		str	r3, [r4, #40]
 260              	.LBE16:
 261              	.LBE19:
 262              	.LBE20:
 263              	.LBE21:
 264              		.loc 1 200 0
 265 004c 2046     		mov	r0, r4
 266 004e FFF7FEFF 		bl	chSchWakeupS
 267              	.LVL16:
 268              		.loc 1 201 0
 269              	@ 201 "../os/kernel/src/chthreads.c" 1
 270 0052 FFF7FEFF 		bl      _port_unlock
 271              	@ 0 "" 2
 272              		.loc 1 203 0
 273              		.thumb
 274 0056 2046     		mov	r0, r4
 275 0058 F8BD     		pop	{r3, r4, r5, r6, r7, pc}
 276              		.cfi_endproc
 277              	.LFE2:
 278              		.size	chThdCreateStatic, .-chThdCreateStatic
 279 005a 00BFAFF3 		.section	.text.chThdSetPriority,"ax",%progbits
 279      0080
 280              		.align	2
 281              		.p2align 4,,15
 282              		.global	chThdSetPriority
 283              		.thumb
ARM GAS  /tmp/ccnhRAl5.s 			page 6


 284              		.thumb_func
 285              		.type	chThdSetPriority, %function
 286              	chThdSetPriority:
 287              	.LFB3:
 288              		.loc 1 217 0
 289              		.cfi_startproc
 290              		@ args = 0, pretend = 0, frame = 0
 291              		@ frame_needed = 0, uses_anonymous_args = 0
 292              	.LVL17:
 293 0000 10B5     		push	{r4, lr}
 294              		.cfi_def_cfa_offset 8
 295              		.cfi_offset 4, -8
 296              		.cfi_offset 14, -4
 297              		.loc 1 217 0
 298 0002 0146     		mov	r1, r0
 299              		.loc 1 222 0
 300              	@ 222 "../os/kernel/src/chthreads.c" 1
 301 0004 FFF7FEFF 		bl      _port_lock
 302              	@ 0 "" 2
 303              		.loc 1 224 0
 304              		.thumb
 305 0008 40F20002 		movw	r2, #:lower16:rlist
 306 000c C0F20002 		movt	r2, #:upper16:rlist
 307 0010 1369     		ldr	r3, [r2, #16]
 308 0012 1C6B     		ldr	r4, [r3, #48]
 309              	.LVL18:
 310              		.loc 1 225 0
 311 0014 9868     		ldr	r0, [r3, #8]
 312              	.LVL19:
 313 0016 8442     		cmp	r4, r0
 314 0018 01D0     		beq	.L5
 315              		.loc 1 225 0 is_stmt 0 discriminator 1
 316 001a 8842     		cmp	r0, r1
 317 001c 01D2     		bcs	.L6
 318              	.L5:
 319              		.loc 1 226 0 is_stmt 1
 320 001e 9960     		str	r1, [r3, #8]
 321 0020 1369     		ldr	r3, [r2, #16]
 322              	.L6:
 323              		.loc 1 227 0
 324 0022 1963     		str	r1, [r3, #48]
 325              		.loc 1 232 0
 326 0024 FFF7FEFF 		bl	chSchRescheduleS
 327              	.LVL20:
 328              		.loc 1 233 0
 329              	@ 233 "../os/kernel/src/chthreads.c" 1
 330 0028 FFF7FEFF 		bl      _port_unlock
 331              	@ 0 "" 2
 332              		.loc 1 235 0
 333              		.thumb
 334 002c 2046     		mov	r0, r4
 335 002e 10BD     		pop	{r4, pc}
 336              		.cfi_endproc
 337              	.LFE3:
 338              		.size	chThdSetPriority, .-chThdSetPriority
 339              		.section	.text.chThdResume,"ax",%progbits
 340              		.align	2
ARM GAS  /tmp/ccnhRAl5.s 			page 7


 341              		.p2align 4,,15
 342              		.global	chThdResume
 343              		.thumb
 344              		.thumb_func
 345              		.type	chThdResume, %function
 346              	chThdResume:
 347              	.LFB4:
 348              		.loc 1 250 0
 349              		.cfi_startproc
 350              		@ args = 0, pretend = 0, frame = 0
 351              		@ frame_needed = 0, uses_anonymous_args = 0
 352              	.LVL21:
 353 0000 10B5     		push	{r4, lr}
 354              		.cfi_def_cfa_offset 8
 355              		.cfi_offset 4, -8
 356              		.cfi_offset 14, -4
 357              		.loc 1 250 0
 358 0002 0446     		mov	r4, r0
 359              		.loc 1 252 0
 360              	@ 252 "../os/kernel/src/chthreads.c" 1
 361 0004 FFF7FEFF 		bl      _port_lock
 362              	@ 0 "" 2
 363              		.loc 1 256 0
 364              		.thumb
 365 0008 0021     		movs	r1, #0
 366 000a FFF7FEFF 		bl	chSchWakeupS
 367              	.LVL22:
 368              		.loc 1 257 0
 369              	@ 257 "../os/kernel/src/chthreads.c" 1
 370 000e FFF7FEFF 		bl      _port_unlock
 371              	@ 0 "" 2
 372              		.loc 1 259 0
 373              		.thumb
 374 0012 2046     		mov	r0, r4
 375 0014 10BD     		pop	{r4, pc}
 376              		.cfi_endproc
 377              	.LFE4:
 378              		.size	chThdResume, .-chThdResume
 379 0016 00BFAFF3 		.section	.text.chThdTerminate,"ax",%progbits
 379      0080AFF3 
 379      0080
 380              		.align	2
 381              		.p2align 4,,15
 382              		.global	chThdTerminate
 383              		.thumb
 384              		.thumb_func
 385              		.type	chThdTerminate, %function
 386              	chThdTerminate:
 387              	.LFB5:
 388              		.loc 1 273 0
 389              		.cfi_startproc
 390              		@ args = 0, pretend = 0, frame = 0
 391              		@ frame_needed = 0, uses_anonymous_args = 0
 392              	.LVL23:
 393 0000 00B5     		push	{lr}
 394              		.cfi_def_cfa_offset 4
 395              		.cfi_offset 14, -4
ARM GAS  /tmp/ccnhRAl5.s 			page 8


 396              		.loc 1 275 0
 397              	@ 275 "../os/kernel/src/chthreads.c" 1
 398 0002 FFF7FEFF 		bl      _port_lock
 399              	@ 0 "" 2
 400              		.loc 1 276 0
 401              		.thumb
 402 0006 437C     		ldrb	r3, [r0, #17]	@ zero_extendqisi2
 403 0008 43F00403 		orr	r3, r3, #4
 404 000c 4374     		strb	r3, [r0, #17]
 405              		.loc 1 277 0
 406              	@ 277 "../os/kernel/src/chthreads.c" 1
 407 000e FFF7FEFF 		bl      _port_unlock
 408              	@ 0 "" 2
 409              		.thumb
 410 0012 5DF804FB 		ldr	pc, [sp], #4
 411              		.cfi_endproc
 412              	.LFE5:
 413              		.size	chThdTerminate, .-chThdTerminate
 414 0016 00BFAFF3 		.section	.text.chThdSleep,"ax",%progbits
 414      0080AFF3 
 414      0080
 415              		.align	2
 416              		.p2align 4,,15
 417              		.global	chThdSleep
 418              		.thumb
 419              		.thumb_func
 420              		.type	chThdSleep, %function
 421              	chThdSleep:
 422              	.LFB6:
 423              		.loc 1 292 0
 424              		.cfi_startproc
 425              		@ args = 0, pretend = 0, frame = 0
 426              		@ frame_needed = 0, uses_anonymous_args = 0
 427              	.LVL24:
 428 0000 08B5     		push	{r3, lr}
 429              		.cfi_def_cfa_offset 8
 430              		.cfi_offset 3, -8
 431              		.cfi_offset 14, -4
 432              		.loc 1 292 0
 433 0002 0146     		mov	r1, r0
 434              		.loc 1 296 0
 435              	@ 296 "../os/kernel/src/chthreads.c" 1
 436 0004 FFF7FEFF 		bl      _port_lock
 437              	@ 0 "" 2
 438              		.loc 1 297 0
 439              		.thumb
 440 0008 0620     		movs	r0, #6
 441              	.LVL25:
 442 000a FFF7FEFF 		bl	chSchGoSleepTimeoutS
 443              	.LVL26:
 444              		.loc 1 298 0
 445              	@ 298 "../os/kernel/src/chthreads.c" 1
 446 000e FFF7FEFF 		bl      _port_unlock
 447              	@ 0 "" 2
 448              		.thumb
 449 0012 08BD     		pop	{r3, pc}
 450              		.cfi_endproc
ARM GAS  /tmp/ccnhRAl5.s 			page 9


 451              	.LFE6:
 452              		.size	chThdSleep, .-chThdSleep
 453              		.section	.text.chThdSleepUntil,"ax",%progbits
 454              		.align	2
 455              		.p2align 4,,15
 456              		.global	chThdSleepUntil
 457              		.thumb
 458              		.thumb_func
 459              		.type	chThdSleepUntil, %function
 460              	chThdSleepUntil:
 461              	.LFB7:
 462              		.loc 1 309 0
 463              		.cfi_startproc
 464              		@ args = 0, pretend = 0, frame = 0
 465              		@ frame_needed = 0, uses_anonymous_args = 0
 466              	.LVL27:
 467 0000 08B5     		push	{r3, lr}
 468              		.cfi_def_cfa_offset 8
 469              		.cfi_offset 3, -8
 470              		.cfi_offset 14, -4
 471              		.loc 1 311 0
 472              	@ 311 "../os/kernel/src/chthreads.c" 1
 473 0002 FFF7FEFF 		bl      _port_lock
 474              	@ 0 "" 2
 475              		.loc 1 312 0
 476              		.thumb
 477 0006 40F20003 		movw	r3, #:lower16:vtlist
 478 000a C0F20003 		movt	r3, #:upper16:vtlist
 479 000e D968     		ldr	r1, [r3, #12]
 480              	.LVL28:
 481 0010 411A     		subs	r1, r0, r1
 482              	.LVL29:
 483 0012 02D0     		beq	.L12
 484              		.loc 1 313 0
 485 0014 0620     		movs	r0, #6
 486 0016 FFF7FEFF 		bl	chSchGoSleepTimeoutS
 487              	.LVL30:
 488              	.L12:
 489              		.loc 1 314 0
 490              	@ 314 "../os/kernel/src/chthreads.c" 1
 491 001a FFF7FEFF 		bl      _port_unlock
 492              	@ 0 "" 2
 493              		.thumb
 494 001e 08BD     		pop	{r3, pc}
 495              		.cfi_endproc
 496              	.LFE7:
 497              		.size	chThdSleepUntil, .-chThdSleepUntil
 498              		.section	.text.chThdYield,"ax",%progbits
 499              		.align	2
 500              		.p2align 4,,15
 501              		.global	chThdYield
 502              		.thumb
 503              		.thumb_func
 504              		.type	chThdYield, %function
 505              	chThdYield:
 506              	.LFB8:
 507              		.loc 1 324 0
ARM GAS  /tmp/ccnhRAl5.s 			page 10


 508              		.cfi_startproc
 509              		@ args = 0, pretend = 0, frame = 0
 510              		@ frame_needed = 0, uses_anonymous_args = 0
 511 0000 08B5     		push	{r3, lr}
 512              		.cfi_def_cfa_offset 8
 513              		.cfi_offset 3, -8
 514              		.cfi_offset 14, -4
 515              		.loc 1 326 0
 516              	@ 326 "../os/kernel/src/chthreads.c" 1
 517 0002 FFF7FEFF 		bl      _port_lock
 518              	@ 0 "" 2
 519              		.loc 1 327 0
 520              		.thumb
 521 0006 40F20003 		movw	r3, #:lower16:rlist
 522 000a C0F20003 		movt	r3, #:upper16:rlist
 523 000e 1A68     		ldr	r2, [r3]
 524 0010 1B69     		ldr	r3, [r3, #16]
 525 0012 9268     		ldr	r2, [r2, #8]
 526 0014 9B68     		ldr	r3, [r3, #8]
 527 0016 9A42     		cmp	r2, r3
 528 0018 01D3     		bcc	.L17
 529              		.loc 1 327 0 is_stmt 0 discriminator 1
 530 001a FFF7FEFF 		bl	chSchDoRescheduleBehind
 531              	.LVL31:
 532              	.L17:
 533              		.loc 1 328 0 is_stmt 1
 534              	@ 328 "../os/kernel/src/chthreads.c" 1
 535 001e FFF7FEFF 		bl      _port_unlock
 536              	@ 0 "" 2
 537              		.thumb
 538 0022 08BD     		pop	{r3, pc}
 539              		.cfi_endproc
 540              	.LFE8:
 541              		.size	chThdYield, .-chThdYield
 542 0024 AFF30080 		.section	.text.chThdExitS,"ax",%progbits
 542      AFF30080 
 542      AFF30080 
 543              		.align	2
 544              		.p2align 4,,15
 545              		.global	chThdExitS
 546              		.thumb
 547              		.thumb_func
 548              		.type	chThdExitS, %function
 549              	chThdExitS:
 550              	.LFB10:
 551              		.loc 1 366 0
 552              		.cfi_startproc
 553              		@ args = 0, pretend = 0, frame = 0
 554              		@ frame_needed = 0, uses_anonymous_args = 0
 555              	.LVL32:
 556 0000 38B5     		push	{r3, r4, r5, lr}
 557              		.cfi_def_cfa_offset 16
 558              		.cfi_offset 3, -16
 559              		.cfi_offset 4, -12
 560              		.cfi_offset 5, -8
 561              		.cfi_offset 14, -4
 562              		.loc 1 367 0
ARM GAS  /tmp/ccnhRAl5.s 			page 11


 563 0002 40F20003 		movw	r3, #:lower16:rlist
 564 0006 C0F20003 		movt	r3, #:upper16:rlist
 565 000a 1D69     		ldr	r5, [r3, #16]
 566              	.LVL33:
 567              		.loc 1 374 0
 568 000c AB69     		ldr	r3, [r5, #24]
 569 000e 05F11804 		add	r4, r5, #24
 570 0012 A342     		cmp	r3, r4
 571              		.loc 1 369 0
 572 0014 6861     		str	r0, [r5, #20]
 573              		.loc 1 374 0
 574 0016 07D0     		beq	.L20
 575              	.LVL34:
 576              	.L21:
 577              		.loc 1 375 0
 578 0018 2046     		mov	r0, r4
 579 001a FFF7FEFF 		bl	list_remove
 580              	.LVL35:
 581 001e FFF7FEFF 		bl	chSchReadyI
 582              	.LVL36:
 583              		.loc 1 374 0
 584 0022 AB69     		ldr	r3, [r5, #24]
 585 0024 A342     		cmp	r3, r4
 586 0026 F7D1     		bne	.L21
 587              	.L20:
 588              		.loc 1 383 0
 589 0028 0E20     		movs	r0, #14
 590              		.loc 1 386 0
 591 002a BDE83840 		pop	{r3, r4, r5, lr}
 592              	.LVL37:
 593              		.loc 1 383 0
 594 002e FFF7FEBF 		b	chSchGoSleepS
 595              	.LVL38:
 596              		.cfi_endproc
 597              	.LFE10:
 598              		.size	chThdExitS, .-chThdExitS
 599 0032 00BFAFF3 		.section	.text.chThdExit,"ax",%progbits
 599      0080AFF3 
 599      0080AFF3 
 599      0080
 600              		.align	2
 601              		.p2align 4,,15
 602              		.global	chThdExit
 603              		.thumb
 604              		.thumb_func
 605              		.type	chThdExit, %function
 606              	chThdExit:
 607              	.LFB9:
 608              		.loc 1 345 0
 609              		.cfi_startproc
 610              		@ args = 0, pretend = 0, frame = 0
 611              		@ frame_needed = 0, uses_anonymous_args = 0
 612              	.LVL39:
 613 0000 00B5     		push	{lr}
 614              		.cfi_def_cfa_offset 4
 615              		.cfi_offset 14, -4
 616              		.loc 1 347 0
ARM GAS  /tmp/ccnhRAl5.s 			page 12


 617              	@ 347 "../os/kernel/src/chthreads.c" 1
 618 0002 FFF7FEFF 		bl      _port_lock
 619              	@ 0 "" 2
 620              		.loc 1 350 0
 621              		.thumb
 622 0006 5DF804EB 		ldr	lr, [sp], #4
 623              		.loc 1 348 0
 624 000a FFF7FEBF 		b	chThdExitS
 625              	.LVL40:
 626              		.cfi_endproc
 627              	.LFE9:
 628              		.size	chThdExit, .-chThdExit
 629 000e 00BF     		.section	.text.chThdWait,"ax",%progbits
 630              		.align	2
 631              		.p2align 4,,15
 632              		.global	chThdWait
 633              		.thumb
 634              		.thumb_func
 635              		.type	chThdWait, %function
 636              	chThdWait:
 637              	.LFB11:
 638              		.loc 1 420 0
 639              		.cfi_startproc
 640              		@ args = 0, pretend = 0, frame = 0
 641              		@ frame_needed = 0, uses_anonymous_args = 0
 642              	.LVL41:
 643 0000 10B5     		push	{r4, lr}
 644              		.cfi_def_cfa_offset 8
 645              		.cfi_offset 4, -8
 646              		.cfi_offset 14, -4
 647              		.loc 1 420 0
 648 0002 0446     		mov	r4, r0
 649              		.loc 1 425 0
 650              	@ 425 "../os/kernel/src/chthreads.c" 1
 651 0004 FFF7FEFF 		bl      _port_lock
 652              	@ 0 "" 2
 653              		.loc 1 430 0
 654              		.thumb
 655 0008 037C     		ldrb	r3, [r0, #16]	@ zero_extendqisi2
 656 000a 0E2B     		cmp	r3, #14
 657 000c 0BD0     		beq	.L24
 658              		.loc 1 431 0
 659 000e 40F20003 		movw	r3, #:lower16:rlist
 660 0012 C0F20003 		movt	r3, #:upper16:rlist
 661 0016 1869     		ldr	r0, [r3, #16]
 662              	.LVL42:
 663 0018 04F11801 		add	r1, r4, #24
 664 001c FFF7FEFF 		bl	list_insert
 665              	.LVL43:
 666              		.loc 1 432 0
 667 0020 0720     		movs	r0, #7
 668 0022 FFF7FEFF 		bl	chSchGoSleepS
 669              	.LVL44:
 670              	.L24:
 671              		.loc 1 434 0
 672 0026 6069     		ldr	r0, [r4, #20]
 673              	.LVL45:
ARM GAS  /tmp/ccnhRAl5.s 			page 13


 674              		.loc 1 435 0
 675              	@ 435 "../os/kernel/src/chthreads.c" 1
 676 0028 FFF7FEFF 		bl      _port_unlock
 677              	@ 0 "" 2
 678              		.loc 1 440 0
 679              		.thumb
 680 002c 10BD     		pop	{r4, pc}
 681              		.cfi_endproc
 682              	.LFE11:
 683              		.size	chThdWait, .-chThdWait
 684 002e 00BF     		.text
 685              	.Letext0:
 686              		.file 2 "/usr/lib/gcc/arm-none-eabi/4.8.2/include/stddef.h"
 687              		.file 3 "/usr/include/newlib/machine/_default_types.h"
 688              		.file 4 "/usr/include/newlib/stdint.h"
 689              		.file 5 "../os/ports/GCC/ARMCMx/chtypes.h"
 690              		.file 6 "../os/kernel/include/chlists.h"
 691              		.file 7 "../os/kernel/include/chthreads.h"
 692              		.file 8 "../os/ports/GCC/ARMCMx/chcore_v7m.h"
 693              		.file 9 "../os/kernel/include/chvt.h"
 694              		.file 10 "../os/kernel/include/chschd.h"
 695              		.file 11 "../os/kernel/include/chmtx.h"
 696              		.section	.debug_info,"",%progbits
 697              	.Ldebug_info0:
 698 0000 24090000 		.4byte	0x924
 699 0004 0400     		.2byte	0x4
 700 0006 00000000 		.4byte	.Ldebug_abbrev0
 701 000a 04       		.byte	0x4
 702 000b 01       		.uleb128 0x1
 703 000c 2B000000 		.4byte	.LASF93
 704 0010 01       		.byte	0x1
 705 0011 F0020000 		.4byte	.LASF94
 706 0015 CB030000 		.4byte	.LASF95
 707 0019 40000000 		.4byte	.Ldebug_ranges0+0x40
 708 001d 00000000 		.4byte	0
 709 0021 00000000 		.4byte	.Ldebug_line0
 710 0025 02       		.uleb128 0x2
 711 0026 04       		.byte	0x4
 712 0027 05       		.byte	0x5
 713 0028 696E7400 		.ascii	"int\000"
 714 002c 03       		.uleb128 0x3
 715 002d 0E000000 		.4byte	.LASF2
 716 0031 02       		.byte	0x2
 717 0032 D4       		.byte	0xd4
 718 0033 37000000 		.4byte	0x37
 719 0037 04       		.uleb128 0x4
 720 0038 04       		.byte	0x4
 721 0039 07       		.byte	0x7
 722 003a B5010000 		.4byte	.LASF0
 723 003e 04       		.uleb128 0x4
 724 003f 01       		.byte	0x1
 725 0040 06       		.byte	0x6
 726 0041 24010000 		.4byte	.LASF1
 727 0045 03       		.uleb128 0x3
 728 0046 21000000 		.4byte	.LASF3
 729 004a 03       		.byte	0x3
 730 004b 1C       		.byte	0x1c
ARM GAS  /tmp/ccnhRAl5.s 			page 14


 731 004c 50000000 		.4byte	0x50
 732 0050 04       		.uleb128 0x4
 733 0051 01       		.byte	0x1
 734 0052 08       		.byte	0x8
 735 0053 23030000 		.4byte	.LASF4
 736 0057 04       		.uleb128 0x4
 737 0058 02       		.byte	0x2
 738 0059 05       		.byte	0x5
 739 005a 3B030000 		.4byte	.LASF5
 740 005e 04       		.uleb128 0x4
 741 005f 02       		.byte	0x2
 742 0060 07       		.byte	0x7
 743 0061 EA010000 		.4byte	.LASF6
 744 0065 03       		.uleb128 0x3
 745 0066 39040000 		.4byte	.LASF7
 746 006a 03       		.byte	0x3
 747 006b 37       		.byte	0x37
 748 006c 70000000 		.4byte	0x70
 749 0070 04       		.uleb128 0x4
 750 0071 04       		.byte	0x4
 751 0072 05       		.byte	0x5
 752 0073 59010000 		.4byte	.LASF8
 753 0077 03       		.uleb128 0x3
 754 0078 88010000 		.4byte	.LASF9
 755 007c 03       		.byte	0x3
 756 007d 38       		.byte	0x38
 757 007e 82000000 		.4byte	0x82
 758 0082 04       		.uleb128 0x4
 759 0083 04       		.byte	0x4
 760 0084 07       		.byte	0x7
 761 0085 CA010000 		.4byte	.LASF10
 762 0089 04       		.uleb128 0x4
 763 008a 08       		.byte	0x8
 764 008b 05       		.byte	0x5
 765 008c 16010000 		.4byte	.LASF11
 766 0090 04       		.uleb128 0x4
 767 0091 08       		.byte	0x8
 768 0092 07       		.byte	0x7
 769 0093 EF000000 		.4byte	.LASF12
 770 0097 03       		.uleb128 0x3
 771 0098 89040000 		.4byte	.LASF13
 772 009c 04       		.byte	0x4
 773 009d 2A       		.byte	0x2a
 774 009e 45000000 		.4byte	0x45
 775 00a2 03       		.uleb128 0x3
 776 00a3 1B030000 		.4byte	.LASF14
 777 00a7 04       		.byte	0x4
 778 00a8 41       		.byte	0x41
 779 00a9 65000000 		.4byte	0x65
 780 00ad 03       		.uleb128 0x3
 781 00ae 94030000 		.4byte	.LASF15
 782 00b2 04       		.byte	0x4
 783 00b3 42       		.byte	0x42
 784 00b4 77000000 		.4byte	0x77
 785 00b8 04       		.uleb128 0x4
 786 00b9 01       		.byte	0x1
 787 00ba 02       		.byte	0x2
ARM GAS  /tmp/ccnhRAl5.s 			page 15


 788 00bb 15030000 		.4byte	.LASF16
 789 00bf 03       		.uleb128 0x3
 790 00c0 18020000 		.4byte	.LASF17
 791 00c4 05       		.byte	0x5
 792 00c5 2C       		.byte	0x2c
 793 00c6 97000000 		.4byte	0x97
 794 00ca 03       		.uleb128 0x3
 795 00cb 62010000 		.4byte	.LASF18
 796 00cf 05       		.byte	0x5
 797 00d0 2D       		.byte	0x2d
 798 00d1 97000000 		.4byte	0x97
 799 00d5 03       		.uleb128 0x3
 800 00d6 42010000 		.4byte	.LASF19
 801 00da 05       		.byte	0x5
 802 00db 2F       		.byte	0x2f
 803 00dc 97000000 		.4byte	0x97
 804 00e0 03       		.uleb128 0x3
 805 00e1 0D030000 		.4byte	.LASF20
 806 00e5 05       		.byte	0x5
 807 00e6 30       		.byte	0x30
 808 00e7 AD000000 		.4byte	0xad
 809 00eb 03       		.uleb128 0x3
 810 00ec 0A020000 		.4byte	.LASF21
 811 00f0 05       		.byte	0x5
 812 00f1 31       		.byte	0x31
 813 00f2 A2000000 		.4byte	0xa2
 814 00f6 03       		.uleb128 0x3
 815 00f7 3B020000 		.4byte	.LASF22
 816 00fb 05       		.byte	0x5
 817 00fc 33       		.byte	0x33
 818 00fd AD000000 		.4byte	0xad
 819 0101 03       		.uleb128 0x3
 820 0102 24040000 		.4byte	.LASF23
 821 0106 05       		.byte	0x5
 822 0107 35       		.byte	0x35
 823 0108 AD000000 		.4byte	0xad
 824 010c 03       		.uleb128 0x3
 825 010d 74030000 		.4byte	.LASF24
 826 0111 06       		.byte	0x6
 827 0112 2A       		.byte	0x2a
 828 0113 17010000 		.4byte	0x117
 829 0117 05       		.uleb128 0x5
 830 0118 74030000 		.4byte	.LASF24
 831 011c 34       		.byte	0x34
 832 011d 07       		.byte	0x7
 833 011e 5E       		.byte	0x5e
 834 011f CC010000 		.4byte	0x1cc
 835 0123 06       		.uleb128 0x6
 836 0124 65030000 		.4byte	.LASF25
 837 0128 07       		.byte	0x7
 838 0129 5F       		.byte	0x5f
 839 012a ED010000 		.4byte	0x1ed
 840 012e 00       		.byte	0
 841 012f 06       		.uleb128 0x6
 842 0130 E9020000 		.4byte	.LASF26
 843 0134 07       		.byte	0x7
 844 0135 61       		.byte	0x61
ARM GAS  /tmp/ccnhRAl5.s 			page 16


 845 0136 ED010000 		.4byte	0x1ed
 846 013a 04       		.byte	0x4
 847 013b 06       		.uleb128 0x6
 848 013c 0F010000 		.4byte	.LASF27
 849 0140 07       		.byte	0x7
 850 0141 63       		.byte	0x63
 851 0142 E0000000 		.4byte	0xe0
 852 0146 08       		.byte	0x8
 853 0147 06       		.uleb128 0x6
 854 0148 CB040000 		.4byte	.LASF28
 855 014c 07       		.byte	0x7
 856 014d 64       		.byte	0x64
 857 014e A7020000 		.4byte	0x2a7
 858 0152 0C       		.byte	0xc
 859 0153 06       		.uleb128 0x6
 860 0154 45030000 		.4byte	.LASF29
 861 0158 07       		.byte	0x7
 862 0159 79       		.byte	0x79
 863 015a CA000000 		.4byte	0xca
 864 015e 10       		.byte	0x10
 865 015f 06       		.uleb128 0x6
 866 0160 6C030000 		.4byte	.LASF30
 867 0164 07       		.byte	0x7
 868 0165 7D       		.byte	0x7d
 869 0166 BF000000 		.4byte	0xbf
 870 016a 11       		.byte	0x11
 871 016b 06       		.uleb128 0x6
 872 016c 4D030000 		.4byte	.LASF31
 873 0170 07       		.byte	0x7
 874 0171 88       		.byte	0x88
 875 0172 D5000000 		.4byte	0xd5
 876 0176 12       		.byte	0x12
 877 0177 07       		.uleb128 0x7
 878 0178 705F7500 		.ascii	"p_u\000"
 879 017c 07       		.byte	0x7
 880 017d B4       		.byte	0xb4
 881 017e 14040000 		.4byte	0x414
 882 0182 14       		.byte	0x14
 883 0183 06       		.uleb128 0x6
 884 0184 D1040000 		.4byte	.LASF32
 885 0188 07       		.byte	0x7
 886 0189 B9       		.byte	0xb9
 887 018a 13020000 		.4byte	0x213
 888 018e 18       		.byte	0x18
 889 018f 06       		.uleb128 0x6
 890 0190 52040000 		.4byte	.LASF33
 891 0194 07       		.byte	0x7
 892 0195 BF       		.byte	0xbf
 893 0196 F3010000 		.4byte	0x1f3
 894 019a 1C       		.byte	0x1c
 895 019b 06       		.uleb128 0x6
 896 019c 08000000 		.4byte	.LASF34
 897 01a0 07       		.byte	0x7
 898 01a1 C3       		.byte	0xc3
 899 01a2 EB000000 		.4byte	0xeb
 900 01a6 24       		.byte	0x24
 901 01a7 06       		.uleb128 0x6
ARM GAS  /tmp/ccnhRAl5.s 			page 17


 902 01a8 89030000 		.4byte	.LASF35
 903 01ac 07       		.byte	0x7
 904 01ad C9       		.byte	0xc9
 905 01ae F6000000 		.4byte	0xf6
 906 01b2 28       		.byte	0x28
 907 01b3 06       		.uleb128 0x6
 908 01b4 31030000 		.4byte	.LASF36
 909 01b8 07       		.byte	0x7
 910 01b9 D0       		.byte	0xd0
 911 01ba 49040000 		.4byte	0x449
 912 01be 2C       		.byte	0x2c
 913 01bf 06       		.uleb128 0x6
 914 01c0 2E040000 		.4byte	.LASF37
 915 01c4 07       		.byte	0x7
 916 01c5 D4       		.byte	0xd4
 917 01c6 E0000000 		.4byte	0xe0
 918 01ca 30       		.byte	0x30
 919 01cb 00       		.byte	0
 920 01cc 08       		.uleb128 0x8
 921 01cd 08       		.byte	0x8
 922 01ce 06       		.byte	0x6
 923 01cf 61       		.byte	0x61
 924 01d0 ED010000 		.4byte	0x1ed
 925 01d4 06       		.uleb128 0x6
 926 01d5 65030000 		.4byte	.LASF25
 927 01d9 06       		.byte	0x6
 928 01da 62       		.byte	0x62
 929 01db ED010000 		.4byte	0x1ed
 930 01df 00       		.byte	0
 931 01e0 06       		.uleb128 0x6
 932 01e1 E9020000 		.4byte	.LASF26
 933 01e5 06       		.byte	0x6
 934 01e6 64       		.byte	0x64
 935 01e7 ED010000 		.4byte	0x1ed
 936 01eb 04       		.byte	0x4
 937 01ec 00       		.byte	0
 938 01ed 09       		.uleb128 0x9
 939 01ee 04       		.byte	0x4
 940 01ef 0C010000 		.4byte	0x10c
 941 01f3 03       		.uleb128 0x3
 942 01f4 B1020000 		.4byte	.LASF38
 943 01f8 06       		.byte	0x6
 944 01f9 66       		.byte	0x66
 945 01fa CC010000 		.4byte	0x1cc
 946 01fe 08       		.uleb128 0x8
 947 01ff 04       		.byte	0x4
 948 0200 06       		.byte	0x6
 949 0201 6B       		.byte	0x6b
 950 0202 13020000 		.4byte	0x213
 951 0206 06       		.uleb128 0x6
 952 0207 65030000 		.4byte	.LASF25
 953 020b 06       		.byte	0x6
 954 020c 6D       		.byte	0x6d
 955 020d ED010000 		.4byte	0x1ed
 956 0211 00       		.byte	0
 957 0212 00       		.byte	0
 958 0213 03       		.uleb128 0x3
ARM GAS  /tmp/ccnhRAl5.s 			page 18


 959 0214 2F020000 		.4byte	.LASF39
 960 0218 06       		.byte	0x6
 961 0219 70       		.byte	0x70
 962 021a FE010000 		.4byte	0x1fe
 963 021e 03       		.uleb128 0x3
 964 021f 93010000 		.4byte	.LASF40
 965 0223 08       		.byte	0x8
 966 0224 E5       		.byte	0xe5
 967 0225 29020000 		.4byte	0x229
 968 0229 0A       		.uleb128 0xa
 969 022a 04       		.byte	0x4
 970 022b 0B       		.uleb128 0xb
 971 022c 4B040000 		.4byte	.LASF41
 972 0230 24       		.byte	0x24
 973 0231 08       		.byte	0x8
 974 0232 0C01     		.2byte	0x10c
 975 0234 A7020000 		.4byte	0x2a7
 976 0238 0C       		.uleb128 0xc
 977 0239 723400   		.ascii	"r4\000"
 978 023c 08       		.byte	0x8
 979 023d 1F01     		.2byte	0x11f
 980 023f 1E020000 		.4byte	0x21e
 981 0243 00       		.byte	0
 982 0244 0C       		.uleb128 0xc
 983 0245 723500   		.ascii	"r5\000"
 984 0248 08       		.byte	0x8
 985 0249 2001     		.2byte	0x120
 986 024b 1E020000 		.4byte	0x21e
 987 024f 04       		.byte	0x4
 988 0250 0C       		.uleb128 0xc
 989 0251 723600   		.ascii	"r6\000"
 990 0254 08       		.byte	0x8
 991 0255 2101     		.2byte	0x121
 992 0257 1E020000 		.4byte	0x21e
 993 025b 08       		.byte	0x8
 994 025c 0C       		.uleb128 0xc
 995 025d 723700   		.ascii	"r7\000"
 996 0260 08       		.byte	0x8
 997 0261 2201     		.2byte	0x122
 998 0263 1E020000 		.4byte	0x21e
 999 0267 0C       		.byte	0xc
 1000 0268 0C       		.uleb128 0xc
 1001 0269 723800   		.ascii	"r8\000"
 1002 026c 08       		.byte	0x8
 1003 026d 2301     		.2byte	0x123
 1004 026f 1E020000 		.4byte	0x21e
 1005 0273 10       		.byte	0x10
 1006 0274 0C       		.uleb128 0xc
 1007 0275 723900   		.ascii	"r9\000"
 1008 0278 08       		.byte	0x8
 1009 0279 2401     		.2byte	0x124
 1010 027b 1E020000 		.4byte	0x21e
 1011 027f 14       		.byte	0x14
 1012 0280 0C       		.uleb128 0xc
 1013 0281 72313000 		.ascii	"r10\000"
 1014 0285 08       		.byte	0x8
 1015 0286 2501     		.2byte	0x125
ARM GAS  /tmp/ccnhRAl5.s 			page 19


 1016 0288 1E020000 		.4byte	0x21e
 1017 028c 18       		.byte	0x18
 1018 028d 0C       		.uleb128 0xc
 1019 028e 72313100 		.ascii	"r11\000"
 1020 0292 08       		.byte	0x8
 1021 0293 2601     		.2byte	0x126
 1022 0295 1E020000 		.4byte	0x21e
 1023 0299 1C       		.byte	0x1c
 1024 029a 0C       		.uleb128 0xc
 1025 029b 6C7200   		.ascii	"lr\000"
 1026 029e 08       		.byte	0x8
 1027 029f 2701     		.2byte	0x127
 1028 02a1 1E020000 		.4byte	0x21e
 1029 02a5 20       		.byte	0x20
 1030 02a6 00       		.byte	0
 1031 02a7 0B       		.uleb128 0xb
 1032 02a8 43040000 		.4byte	.LASF42
 1033 02ac 04       		.byte	0x4
 1034 02ad 08       		.byte	0x8
 1035 02ae 3101     		.2byte	0x131
 1036 02b0 C2020000 		.4byte	0x2c2
 1037 02b4 0C       		.uleb128 0xc
 1038 02b5 72313300 		.ascii	"r13\000"
 1039 02b9 08       		.byte	0x8
 1040 02ba 3201     		.2byte	0x132
 1041 02bc C2020000 		.4byte	0x2c2
 1042 02c0 00       		.byte	0
 1043 02c1 00       		.byte	0
 1044 02c2 09       		.uleb128 0x9
 1045 02c3 04       		.byte	0x4
 1046 02c4 2B020000 		.4byte	0x22b
 1047 02c8 04       		.uleb128 0x4
 1048 02c9 04       		.byte	0x4
 1049 02ca 07       		.byte	0x7
 1050 02cb 6F020000 		.4byte	.LASF43
 1051 02cf 03       		.uleb128 0x3
 1052 02d0 DC010000 		.4byte	.LASF44
 1053 02d4 09       		.byte	0x9
 1054 02d5 58       		.byte	0x58
 1055 02d6 DA020000 		.4byte	0x2da
 1056 02da 09       		.uleb128 0x9
 1057 02db 04       		.byte	0x4
 1058 02dc E0020000 		.4byte	0x2e0
 1059 02e0 0D       		.uleb128 0xd
 1060 02e1 EB020000 		.4byte	0x2eb
 1061 02e5 0E       		.uleb128 0xe
 1062 02e6 29020000 		.4byte	0x229
 1063 02ea 00       		.byte	0
 1064 02eb 03       		.uleb128 0x3
 1065 02ec B2030000 		.4byte	.LASF45
 1066 02f0 09       		.byte	0x9
 1067 02f1 5D       		.byte	0x5d
 1068 02f2 F6020000 		.4byte	0x2f6
 1069 02f6 05       		.uleb128 0x5
 1070 02f7 B2030000 		.4byte	.LASF45
 1071 02fb 14       		.byte	0x14
 1072 02fc 09       		.byte	0x9
ARM GAS  /tmp/ccnhRAl5.s 			page 20


 1073 02fd 64       		.byte	0x64
 1074 02fe 3F030000 		.4byte	0x33f
 1075 0302 06       		.uleb128 0x6
 1076 0303 C2010000 		.4byte	.LASF46
 1077 0307 09       		.byte	0x9
 1078 0308 65       		.byte	0x65
 1079 0309 3F030000 		.4byte	0x33f
 1080 030d 00       		.byte	0
 1081 030e 06       		.uleb128 0x6
 1082 030f 9C010000 		.4byte	.LASF47
 1083 0313 09       		.byte	0x9
 1084 0314 67       		.byte	0x67
 1085 0315 3F030000 		.4byte	0x33f
 1086 0319 04       		.byte	0x4
 1087 031a 06       		.uleb128 0x6
 1088 031b 67020000 		.4byte	.LASF48
 1089 031f 09       		.byte	0x9
 1090 0320 69       		.byte	0x69
 1091 0321 01010000 		.4byte	0x101
 1092 0325 08       		.byte	0x8
 1093 0326 06       		.uleb128 0x6
 1094 0327 78020000 		.4byte	.LASF49
 1095 032b 09       		.byte	0x9
 1096 032c 6A       		.byte	0x6a
 1097 032d CF020000 		.4byte	0x2cf
 1098 0331 0C       		.byte	0xc
 1099 0332 06       		.uleb128 0x6
 1100 0333 67040000 		.4byte	.LASF50
 1101 0337 09       		.byte	0x9
 1102 0338 6C       		.byte	0x6c
 1103 0339 29020000 		.4byte	0x229
 1104 033d 10       		.byte	0x10
 1105 033e 00       		.byte	0
 1106 033f 09       		.uleb128 0x9
 1107 0340 04       		.byte	0x4
 1108 0341 EB020000 		.4byte	0x2eb
 1109 0345 08       		.uleb128 0x8
 1110 0346 10       		.byte	0x10
 1111 0347 09       		.byte	0x9
 1112 0348 76       		.byte	0x76
 1113 0349 7E030000 		.4byte	0x37e
 1114 034d 06       		.uleb128 0x6
 1115 034e C2010000 		.4byte	.LASF46
 1116 0352 09       		.byte	0x9
 1117 0353 77       		.byte	0x77
 1118 0354 3F030000 		.4byte	0x33f
 1119 0358 00       		.byte	0
 1120 0359 06       		.uleb128 0x6
 1121 035a 9C010000 		.4byte	.LASF47
 1122 035e 09       		.byte	0x9
 1123 035f 79       		.byte	0x79
 1124 0360 3F030000 		.4byte	0x33f
 1125 0364 04       		.byte	0x4
 1126 0365 06       		.uleb128 0x6
 1127 0366 67020000 		.4byte	.LASF48
 1128 036a 09       		.byte	0x9
 1129 036b 7B       		.byte	0x7b
ARM GAS  /tmp/ccnhRAl5.s 			page 21


 1130 036c 01010000 		.4byte	0x101
 1131 0370 08       		.byte	0x8
 1132 0371 06       		.uleb128 0x6
 1133 0372 A3040000 		.4byte	.LASF51
 1134 0376 09       		.byte	0x9
 1135 0377 7C       		.byte	0x7c
 1136 0378 7E030000 		.4byte	0x37e
 1137 037c 0C       		.byte	0xc
 1138 037d 00       		.byte	0
 1139 037e 0F       		.uleb128 0xf
 1140 037f 01010000 		.4byte	0x101
 1141 0383 03       		.uleb128 0x3
 1142 0384 A4020000 		.4byte	.LASF52
 1143 0388 09       		.byte	0x9
 1144 0389 7D       		.byte	0x7d
 1145 038a 45030000 		.4byte	0x345
 1146 038e 08       		.uleb128 0x8
 1147 038f 14       		.byte	0x14
 1148 0390 0A       		.byte	0xa
 1149 0391 5E       		.byte	0x5e
 1150 0392 C7030000 		.4byte	0x3c7
 1151 0396 06       		.uleb128 0x6
 1152 0397 AA030000 		.4byte	.LASF53
 1153 039b 0A       		.byte	0xa
 1154 039c 5F       		.byte	0x5f
 1155 039d F3010000 		.4byte	0x1f3
 1156 03a1 00       		.byte	0
 1157 03a2 06       		.uleb128 0x6
 1158 03a3 57030000 		.4byte	.LASF54
 1159 03a7 0A       		.byte	0xa
 1160 03a8 60       		.byte	0x60
 1161 03a9 E0000000 		.4byte	0xe0
 1162 03ad 08       		.byte	0x8
 1163 03ae 06       		.uleb128 0x6
 1164 03af AB020000 		.4byte	.LASF55
 1165 03b3 0A       		.byte	0xa
 1166 03b4 62       		.byte	0x62
 1167 03b5 A7020000 		.4byte	0x2a7
 1168 03b9 0C       		.byte	0xc
 1169 03ba 06       		.uleb128 0x6
 1170 03bb CF020000 		.4byte	.LASF56
 1171 03bf 0A       		.byte	0xa
 1172 03c0 69       		.byte	0x69
 1173 03c1 ED010000 		.4byte	0x1ed
 1174 03c5 10       		.byte	0x10
 1175 03c6 00       		.byte	0
 1176 03c7 03       		.uleb128 0x3
 1177 03c8 79040000 		.4byte	.LASF57
 1178 03cc 0A       		.byte	0xa
 1179 03cd 6B       		.byte	0x6b
 1180 03ce 8E030000 		.4byte	0x38e
 1181 03d2 05       		.uleb128 0x5
 1182 03d3 47020000 		.4byte	.LASF58
 1183 03d7 10       		.byte	0x10
 1184 03d8 0B       		.byte	0xb
 1185 03d9 2C       		.byte	0x2c
 1186 03da 03040000 		.4byte	0x403
ARM GAS  /tmp/ccnhRAl5.s 			page 22


 1187 03de 06       		.uleb128 0x6
 1188 03df 3A010000 		.4byte	.LASF59
 1189 03e3 0B       		.byte	0xb
 1190 03e4 2D       		.byte	0x2d
 1191 03e5 F3010000 		.4byte	0x1f3
 1192 03e9 00       		.byte	0
 1193 03ea 06       		.uleb128 0x6
 1194 03eb C3040000 		.4byte	.LASF60
 1195 03ef 0B       		.byte	0xb
 1196 03f0 2F       		.byte	0x2f
 1197 03f1 ED010000 		.4byte	0x1ed
 1198 03f5 08       		.byte	0x8
 1199 03f6 06       		.uleb128 0x6
 1200 03f7 1D040000 		.4byte	.LASF61
 1201 03fb 0B       		.byte	0xb
 1202 03fc 31       		.byte	0x31
 1203 03fd 03040000 		.4byte	0x403
 1204 0401 0C       		.byte	0xc
 1205 0402 00       		.byte	0
 1206 0403 09       		.uleb128 0x9
 1207 0404 04       		.byte	0x4
 1208 0405 D2030000 		.4byte	0x3d2
 1209 0409 03       		.uleb128 0x3
 1210 040a 47020000 		.4byte	.LASF58
 1211 040e 0B       		.byte	0xb
 1212 040f 33       		.byte	0x33
 1213 0410 D2030000 		.4byte	0x3d2
 1214 0414 10       		.uleb128 0x10
 1215 0415 04       		.byte	0x4
 1216 0416 07       		.byte	0x7
 1217 0417 96       		.byte	0x96
 1218 0418 49040000 		.4byte	0x449
 1219 041c 11       		.uleb128 0x11
 1220 041d 1A000000 		.4byte	.LASF62
 1221 0421 07       		.byte	0x7
 1222 0422 9D       		.byte	0x9d
 1223 0423 EB000000 		.4byte	0xeb
 1224 0427 11       		.uleb128 0x11
 1225 0428 06010000 		.4byte	.LASF63
 1226 042c 07       		.byte	0x7
 1227 042d A4       		.byte	0xa4
 1228 042e EB000000 		.4byte	0xeb
 1229 0432 11       		.uleb128 0x11
 1230 0433 9C040000 		.4byte	.LASF64
 1231 0437 07       		.byte	0x7
 1232 0438 AB       		.byte	0xab
 1233 0439 29020000 		.4byte	0x229
 1234 043d 11       		.uleb128 0x11
 1235 043e 5E030000 		.4byte	.LASF65
 1236 0442 07       		.byte	0x7
 1237 0443 B2       		.byte	0xb2
 1238 0444 F6000000 		.4byte	0xf6
 1239 0448 00       		.byte	0
 1240 0449 09       		.uleb128 0x9
 1241 044a 04       		.byte	0x4
 1242 044b 09040000 		.4byte	0x409
 1243 044f 03       		.uleb128 0x3
ARM GAS  /tmp/ccnhRAl5.s 			page 23


 1244 0450 00000000 		.4byte	.LASF66
 1245 0454 07       		.byte	0x7
 1246 0455 E5       		.byte	0xe5
 1247 0456 5A040000 		.4byte	0x45a
 1248 045a 09       		.uleb128 0x9
 1249 045b 04       		.byte	0x4
 1250 045c 60040000 		.4byte	0x460
 1251 0460 12       		.uleb128 0x12
 1252 0461 EB000000 		.4byte	0xeb
 1253 0465 6F040000 		.4byte	0x46f
 1254 0469 0E       		.uleb128 0xe
 1255 046a 29020000 		.4byte	0x229
 1256 046e 00       		.byte	0
 1257 046f 13       		.uleb128 0x13
 1258 0470 9D030000 		.4byte	.LASF68
 1259 0474 01       		.byte	0x1
 1260 0475 4C       		.byte	0x4c
 1261 0476 ED010000 		.4byte	0x1ed
 1262 047a 01       		.byte	0x1
 1263 047b 95040000 		.4byte	0x495
 1264 047f 14       		.uleb128 0x14
 1265 0480 747000   		.ascii	"tp\000"
 1266 0483 01       		.byte	0x1
 1267 0484 4C       		.byte	0x4c
 1268 0485 ED010000 		.4byte	0x1ed
 1269 0489 15       		.uleb128 0x15
 1270 048a 15000000 		.4byte	.LASF67
 1271 048e 01       		.byte	0x1
 1272 048f 4C       		.byte	0x4c
 1273 0490 E0000000 		.4byte	0xe0
 1274 0494 00       		.byte	0
 1275 0495 13       		.uleb128 0x13
 1276 0496 4C010000 		.4byte	.LASF69
 1277 049a 01       		.byte	0x1
 1278 049b 9D       		.byte	0x9d
 1279 049c ED010000 		.4byte	0x1ed
 1280 04a0 01       		.byte	0x1
 1281 04a1 E6040000 		.4byte	0x4e6
 1282 04a5 14       		.uleb128 0x14
 1283 04a6 77737000 		.ascii	"wsp\000"
 1284 04aa 01       		.byte	0x1
 1285 04ab 9D       		.byte	0x9d
 1286 04ac 29020000 		.4byte	0x229
 1287 04b0 15       		.uleb128 0x15
 1288 04b1 E5010000 		.4byte	.LASF70
 1289 04b5 01       		.byte	0x1
 1290 04b6 9D       		.byte	0x9d
 1291 04b7 2C000000 		.4byte	0x2c
 1292 04bb 15       		.uleb128 0x15
 1293 04bc 15000000 		.4byte	.LASF67
 1294 04c0 01       		.byte	0x1
 1295 04c1 9E       		.byte	0x9e
 1296 04c2 E0000000 		.4byte	0xe0
 1297 04c6 14       		.uleb128 0x14
 1298 04c7 706600   		.ascii	"pf\000"
 1299 04ca 01       		.byte	0x1
 1300 04cb 9E       		.byte	0x9e
ARM GAS  /tmp/ccnhRAl5.s 			page 24


 1301 04cc 4F040000 		.4byte	0x44f
 1302 04d0 14       		.uleb128 0x14
 1303 04d1 61726700 		.ascii	"arg\000"
 1304 04d5 01       		.byte	0x1
 1305 04d6 9E       		.byte	0x9e
 1306 04d7 29020000 		.4byte	0x229
 1307 04db 16       		.uleb128 0x16
 1308 04dc 747000   		.ascii	"tp\000"
 1309 04df 01       		.byte	0x1
 1310 04e0 A0       		.byte	0xa0
 1311 04e1 ED010000 		.4byte	0x1ed
 1312 04e5 00       		.byte	0
 1313 04e6 17       		.uleb128 0x17
 1314 04e7 6F040000 		.4byte	0x46f
 1315 04eb 00000000 		.4byte	.LFB0
 1316 04ef 28000000 		.4byte	.LFE0-.LFB0
 1317 04f3 01       		.uleb128 0x1
 1318 04f4 9C       		.byte	0x9c
 1319 04f5 08050000 		.4byte	0x508
 1320 04f9 18       		.uleb128 0x18
 1321 04fa 7F040000 		.4byte	0x47f
 1322 04fe 01       		.uleb128 0x1
 1323 04ff 50       		.byte	0x50
 1324 0500 18       		.uleb128 0x18
 1325 0501 89040000 		.4byte	0x489
 1326 0505 01       		.uleb128 0x1
 1327 0506 51       		.byte	0x51
 1328 0507 00       		.byte	0
 1329 0508 17       		.uleb128 0x17
 1330 0509 95040000 		.4byte	0x495
 1331 050d 00000000 		.4byte	.LFB1
 1332 0511 4E000000 		.4byte	.LFE1-.LFB1
 1333 0515 01       		.uleb128 0x1
 1334 0516 9C       		.byte	0x9c
 1335 0517 6A050000 		.4byte	0x56a
 1336 051b 18       		.uleb128 0x18
 1337 051c A5040000 		.4byte	0x4a5
 1338 0520 01       		.uleb128 0x1
 1339 0521 50       		.byte	0x50
 1340 0522 19       		.uleb128 0x19
 1341 0523 B0040000 		.4byte	0x4b0
 1342 0527 00000000 		.4byte	.LLST0
 1343 052b 18       		.uleb128 0x18
 1344 052c BB040000 		.4byte	0x4bb
 1345 0530 01       		.uleb128 0x1
 1346 0531 52       		.byte	0x52
 1347 0532 19       		.uleb128 0x19
 1348 0533 C6040000 		.4byte	0x4c6
 1349 0537 2E000000 		.4byte	.LLST1
 1350 053b 19       		.uleb128 0x19
 1351 053c D0040000 		.4byte	0x4d0
 1352 0540 62000000 		.4byte	.LLST2
 1353 0544 1A       		.uleb128 0x1a
 1354 0545 DB040000 		.4byte	0x4db
 1355 0549 01       		.uleb128 0x1
 1356 054a 50       		.byte	0x50
 1357 054b 1B       		.uleb128 0x1b
ARM GAS  /tmp/ccnhRAl5.s 			page 25


 1358 054c 6F040000 		.4byte	0x46f
 1359 0550 1E000000 		.4byte	.LBB8
 1360 0554 2A000000 		.4byte	.LBE8-.LBB8
 1361 0558 01       		.byte	0x1
 1362 0559 A8       		.byte	0xa8
 1363 055a 18       		.uleb128 0x18
 1364 055b 89040000 		.4byte	0x489
 1365 055f 01       		.uleb128 0x1
 1366 0560 52       		.byte	0x52
 1367 0561 18       		.uleb128 0x18
 1368 0562 7F040000 		.4byte	0x47f
 1369 0566 01       		.uleb128 0x1
 1370 0567 50       		.byte	0x50
 1371 0568 00       		.byte	0
 1372 0569 00       		.byte	0
 1373 056a 1C       		.uleb128 0x1c
 1374 056b 55020000 		.4byte	.LASF71
 1375 056f 01       		.byte	0x1
 1376 0570 BB       		.byte	0xbb
 1377 0571 ED010000 		.4byte	0x1ed
 1378 0575 00000000 		.4byte	.LFB2
 1379 0579 5A000000 		.4byte	.LFE2-.LFB2
 1380 057d 01       		.uleb128 0x1
 1381 057e 9C       		.byte	0x9c
 1382 057f 58060000 		.4byte	0x658
 1383 0583 1D       		.uleb128 0x1d
 1384 0584 77737000 		.ascii	"wsp\000"
 1385 0588 01       		.byte	0x1
 1386 0589 BB       		.byte	0xbb
 1387 058a 29020000 		.4byte	0x229
 1388 058e 82000000 		.4byte	.LLST3
 1389 0592 1E       		.uleb128 0x1e
 1390 0593 E5010000 		.4byte	.LASF70
 1391 0597 01       		.byte	0x1
 1392 0598 BB       		.byte	0xbb
 1393 0599 2C000000 		.4byte	0x2c
 1394 059d A0000000 		.4byte	.LLST4
 1395 05a1 1E       		.uleb128 0x1e
 1396 05a2 15000000 		.4byte	.LASF67
 1397 05a6 01       		.byte	0x1
 1398 05a7 BC       		.byte	0xbc
 1399 05a8 E0000000 		.4byte	0xe0
 1400 05ac CE000000 		.4byte	.LLST5
 1401 05b0 1D       		.uleb128 0x1d
 1402 05b1 706600   		.ascii	"pf\000"
 1403 05b4 01       		.byte	0x1
 1404 05b5 BC       		.byte	0xbc
 1405 05b6 4F040000 		.4byte	0x44f
 1406 05ba EF000000 		.4byte	.LLST6
 1407 05be 1F       		.uleb128 0x1f
 1408 05bf 61726700 		.ascii	"arg\000"
 1409 05c3 01       		.byte	0x1
 1410 05c4 BC       		.byte	0xbc
 1411 05c5 29020000 		.4byte	0x229
 1412 05c9 02       		.uleb128 0x2
 1413 05ca 91       		.byte	0x91
 1414 05cb 00       		.sleb128 0
ARM GAS  /tmp/ccnhRAl5.s 			page 26


 1415 05cc 16       		.uleb128 0x16
 1416 05cd 747000   		.ascii	"tp\000"
 1417 05d0 01       		.byte	0x1
 1418 05d1 BD       		.byte	0xbd
 1419 05d2 ED010000 		.4byte	0x1ed
 1420 05d6 20       		.uleb128 0x20
 1421 05d7 95040000 		.4byte	0x495
 1422 05db 0C000000 		.4byte	.LBB10
 1423 05df 00000000 		.4byte	.Ldebug_ranges0+0
 1424 05e3 01       		.byte	0x1
 1425 05e4 C8       		.byte	0xc8
 1426 05e5 42060000 		.4byte	0x642
 1427 05e9 19       		.uleb128 0x19
 1428 05ea D0040000 		.4byte	0x4d0
 1429 05ee 1B010000 		.4byte	.LLST7
 1430 05f2 19       		.uleb128 0x19
 1431 05f3 C6040000 		.4byte	0x4c6
 1432 05f7 3A010000 		.4byte	.LLST8
 1433 05fb 19       		.uleb128 0x19
 1434 05fc BB040000 		.4byte	0x4bb
 1435 0600 5B010000 		.4byte	.LLST9
 1436 0604 19       		.uleb128 0x19
 1437 0605 B0040000 		.4byte	0x4b0
 1438 0609 7C010000 		.4byte	.LLST10
 1439 060d 18       		.uleb128 0x18
 1440 060e A5040000 		.4byte	0x4a5
 1441 0612 01       		.uleb128 0x1
 1442 0613 54       		.byte	0x54
 1443 0614 21       		.uleb128 0x21
 1444 0615 00000000 		.4byte	.Ldebug_ranges0+0
 1445 0619 1A       		.uleb128 0x1a
 1446 061a DB040000 		.4byte	0x4db
 1447 061e 01       		.uleb128 0x1
 1448 061f 54       		.byte	0x54
 1449 0620 22       		.uleb128 0x22
 1450 0621 6F040000 		.4byte	0x46f
 1451 0625 1E000000 		.4byte	.LBB12
 1452 0629 18000000 		.4byte	.Ldebug_ranges0+0x18
 1453 062d 01       		.byte	0x1
 1454 062e A8       		.byte	0xa8
 1455 062f 19       		.uleb128 0x19
 1456 0630 89040000 		.4byte	0x489
 1457 0634 AA010000 		.4byte	.LLST11
 1458 0638 18       		.uleb128 0x18
 1459 0639 7F040000 		.4byte	0x47f
 1460 063d 01       		.uleb128 0x1
 1461 063e 54       		.byte	0x54
 1462 063f 00       		.byte	0
 1463 0640 00       		.byte	0
 1464 0641 00       		.byte	0
 1465 0642 23       		.uleb128 0x23
 1466 0643 52000000 		.4byte	.LVL16
 1467 0647 96080000 		.4byte	0x896
 1468 064b 24       		.uleb128 0x24
 1469 064c 01       		.uleb128 0x1
 1470 064d 51       		.byte	0x51
 1471 064e 01       		.uleb128 0x1
ARM GAS  /tmp/ccnhRAl5.s 			page 27


 1472 064f 30       		.byte	0x30
 1473 0650 24       		.uleb128 0x24
 1474 0651 01       		.uleb128 0x1
 1475 0652 50       		.byte	0x50
 1476 0653 02       		.uleb128 0x2
 1477 0654 74       		.byte	0x74
 1478 0655 00       		.sleb128 0
 1479 0656 00       		.byte	0
 1480 0657 00       		.byte	0
 1481 0658 1C       		.uleb128 0x1c
 1482 0659 A4010000 		.4byte	.LASF72
 1483 065d 01       		.byte	0x1
 1484 065e D9       		.byte	0xd9
 1485 065f E0000000 		.4byte	0xe0
 1486 0663 00000000 		.4byte	.LFB3
 1487 0667 30000000 		.4byte	.LFE3-.LFB3
 1488 066b 01       		.uleb128 0x1
 1489 066c 9C       		.byte	0x9c
 1490 066d 97060000 		.4byte	0x697
 1491 0671 1E       		.uleb128 0x1e
 1492 0672 10020000 		.4byte	.LASF73
 1493 0676 01       		.byte	0x1
 1494 0677 D9       		.byte	0xd9
 1495 0678 E0000000 		.4byte	0xe0
 1496 067c CB010000 		.4byte	.LLST12
 1497 0680 25       		.uleb128 0x25
 1498 0681 4D020000 		.4byte	.LASF81
 1499 0685 01       		.byte	0x1
 1500 0686 DA       		.byte	0xda
 1501 0687 E0000000 		.4byte	0xe0
 1502 068b 01       		.uleb128 0x1
 1503 068c 54       		.byte	0x54
 1504 068d 26       		.uleb128 0x26
 1505 068e 28000000 		.4byte	.LVL20
 1506 0692 AC080000 		.4byte	0x8ac
 1507 0696 00       		.byte	0
 1508 0697 1C       		.uleb128 0x1c
 1509 0698 80020000 		.4byte	.LASF74
 1510 069c 01       		.byte	0x1
 1511 069d FA       		.byte	0xfa
 1512 069e ED010000 		.4byte	0x1ed
 1513 06a2 00000000 		.4byte	.LFB4
 1514 06a6 16000000 		.4byte	.LFE4-.LFB4
 1515 06aa 01       		.uleb128 0x1
 1516 06ab 9C       		.byte	0x9c
 1517 06ac D4060000 		.4byte	0x6d4
 1518 06b0 1D       		.uleb128 0x1d
 1519 06b1 747000   		.ascii	"tp\000"
 1520 06b4 01       		.byte	0x1
 1521 06b5 FA       		.byte	0xfa
 1522 06b6 ED010000 		.4byte	0x1ed
 1523 06ba F7010000 		.4byte	.LLST13
 1524 06be 23       		.uleb128 0x23
 1525 06bf 0E000000 		.4byte	.LVL22
 1526 06c3 96080000 		.4byte	0x896
 1527 06c7 24       		.uleb128 0x24
 1528 06c8 01       		.uleb128 0x1
ARM GAS  /tmp/ccnhRAl5.s 			page 28


 1529 06c9 51       		.byte	0x51
 1530 06ca 01       		.uleb128 0x1
 1531 06cb 30       		.byte	0x30
 1532 06cc 24       		.uleb128 0x24
 1533 06cd 01       		.uleb128 0x1
 1534 06ce 50       		.byte	0x50
 1535 06cf 02       		.uleb128 0x2
 1536 06d0 74       		.byte	0x74
 1537 06d1 00       		.sleb128 0
 1538 06d2 00       		.byte	0
 1539 06d3 00       		.byte	0
 1540 06d4 27       		.uleb128 0x27
 1541 06d5 20020000 		.4byte	.LASF75
 1542 06d9 01       		.byte	0x1
 1543 06da 1101     		.2byte	0x111
 1544 06dc 00000000 		.4byte	.LFB5
 1545 06e0 16000000 		.4byte	.LFE5-.LFB5
 1546 06e4 01       		.uleb128 0x1
 1547 06e5 9C       		.byte	0x9c
 1548 06e6 F8060000 		.4byte	0x6f8
 1549 06ea 28       		.uleb128 0x28
 1550 06eb 747000   		.ascii	"tp\000"
 1551 06ee 01       		.byte	0x1
 1552 06ef 1101     		.2byte	0x111
 1553 06f1 ED010000 		.4byte	0x1ed
 1554 06f5 01       		.uleb128 0x1
 1555 06f6 50       		.byte	0x50
 1556 06f7 00       		.byte	0
 1557 06f8 27       		.uleb128 0x27
 1558 06f9 6E040000 		.4byte	.LASF76
 1559 06fd 01       		.byte	0x1
 1560 06fe 2401     		.2byte	0x124
 1561 0700 00000000 		.4byte	.LFB6
 1562 0704 14000000 		.4byte	.LFE6-.LFB6
 1563 0708 01       		.uleb128 0x1
 1564 0709 9C       		.byte	0x9c
 1565 070a 35070000 		.4byte	0x735
 1566 070e 29       		.uleb128 0x29
 1567 070f BE020000 		.4byte	.LASF77
 1568 0713 01       		.byte	0x1
 1569 0714 2401     		.2byte	0x124
 1570 0716 01010000 		.4byte	0x101
 1571 071a 15020000 		.4byte	.LLST14
 1572 071e 23       		.uleb128 0x23
 1573 071f 0E000000 		.4byte	.LVL26
 1574 0723 B3080000 		.4byte	0x8b3
 1575 0727 24       		.uleb128 0x24
 1576 0728 01       		.uleb128 0x1
 1577 0729 51       		.byte	0x51
 1578 072a 03       		.uleb128 0x3
 1579 072b F3       		.byte	0xf3
 1580 072c 01       		.uleb128 0x1
 1581 072d 50       		.byte	0x50
 1582 072e 24       		.uleb128 0x24
 1583 072f 01       		.uleb128 0x1
 1584 0730 50       		.byte	0x50
 1585 0731 01       		.uleb128 0x1
ARM GAS  /tmp/ccnhRAl5.s 			page 29


 1586 0732 36       		.byte	0x36
 1587 0733 00       		.byte	0
 1588 0734 00       		.byte	0
 1589 0735 27       		.uleb128 0x27
 1590 0736 D9020000 		.4byte	.LASF78
 1591 073a 01       		.byte	0x1
 1592 073b 3501     		.2byte	0x135
 1593 073d 00000000 		.4byte	.LFB7
 1594 0741 20000000 		.4byte	.LFE7-.LFB7
 1595 0745 01       		.uleb128 0x1
 1596 0746 9C       		.byte	0x9c
 1597 0747 6B070000 		.4byte	0x76b
 1598 074b 29       		.uleb128 0x29
 1599 074c BE020000 		.4byte	.LASF77
 1600 0750 01       		.byte	0x1
 1601 0751 3501     		.2byte	0x135
 1602 0753 01010000 		.4byte	0x101
 1603 0757 41020000 		.4byte	.LLST15
 1604 075b 23       		.uleb128 0x23
 1605 075c 1A000000 		.4byte	.LVL30
 1606 0760 B3080000 		.4byte	0x8b3
 1607 0764 24       		.uleb128 0x24
 1608 0765 01       		.uleb128 0x1
 1609 0766 50       		.byte	0x50
 1610 0767 01       		.uleb128 0x1
 1611 0768 36       		.byte	0x36
 1612 0769 00       		.byte	0
 1613 076a 00       		.byte	0
 1614 076b 27       		.uleb128 0x27
 1615 076c 91040000 		.4byte	.LASF79
 1616 0770 01       		.byte	0x1
 1617 0771 4401     		.2byte	0x144
 1618 0773 00000000 		.4byte	.LFB8
 1619 0777 24000000 		.4byte	.LFE8-.LFB8
 1620 077b 01       		.uleb128 0x1
 1621 077c 9C       		.byte	0x9c
 1622 077d 8B070000 		.4byte	0x78b
 1623 0781 26       		.uleb128 0x26
 1624 0782 1E000000 		.4byte	.LVL31
 1625 0786 CD080000 		.4byte	0x8cd
 1626 078a 00       		.byte	0
 1627 078b 27       		.uleb128 0x27
 1628 078c E4000000 		.4byte	.LASF80
 1629 0790 01       		.byte	0x1
 1630 0791 6E01     		.2byte	0x16e
 1631 0793 00000000 		.4byte	.LFB10
 1632 0797 32000000 		.4byte	.LFE10-.LFB10
 1633 079b 01       		.uleb128 0x1
 1634 079c 9C       		.byte	0x9c
 1635 079d ED070000 		.4byte	0x7ed
 1636 07a1 2A       		.uleb128 0x2a
 1637 07a2 6D736700 		.ascii	"msg\000"
 1638 07a6 01       		.byte	0x1
 1639 07a7 6E01     		.2byte	0x16e
 1640 07a9 EB000000 		.4byte	0xeb
 1641 07ad 6F020000 		.4byte	.LLST16
 1642 07b1 2B       		.uleb128 0x2b
ARM GAS  /tmp/ccnhRAl5.s 			page 30


 1643 07b2 747000   		.ascii	"tp\000"
 1644 07b5 01       		.byte	0x1
 1645 07b6 6F01     		.2byte	0x16f
 1646 07b8 ED010000 		.4byte	0x1ed
 1647 07bc 90020000 		.4byte	.LLST17
 1648 07c0 2C       		.uleb128 0x2c
 1649 07c1 1E000000 		.4byte	.LVL35
 1650 07c5 D4080000 		.4byte	0x8d4
 1651 07c9 D4070000 		.4byte	0x7d4
 1652 07cd 24       		.uleb128 0x24
 1653 07ce 01       		.uleb128 0x1
 1654 07cf 50       		.byte	0x50
 1655 07d0 02       		.uleb128 0x2
 1656 07d1 74       		.byte	0x74
 1657 07d2 00       		.sleb128 0
 1658 07d3 00       		.byte	0
 1659 07d4 26       		.uleb128 0x26
 1660 07d5 22000000 		.4byte	.LVL36
 1661 07d9 EF080000 		.4byte	0x8ef
 1662 07dd 2D       		.uleb128 0x2d
 1663 07de 32000000 		.4byte	.LVL38
 1664 07e2 04090000 		.4byte	0x904
 1665 07e6 24       		.uleb128 0x24
 1666 07e7 01       		.uleb128 0x1
 1667 07e8 50       		.byte	0x50
 1668 07e9 01       		.uleb128 0x1
 1669 07ea 3E       		.byte	0x3e
 1670 07eb 00       		.byte	0
 1671 07ec 00       		.byte	0
 1672 07ed 27       		.uleb128 0x27
 1673 07ee 30010000 		.4byte	.LASF82
 1674 07f2 01       		.byte	0x1
 1675 07f3 5901     		.2byte	0x159
 1676 07f5 00000000 		.4byte	.LFB9
 1677 07f9 0E000000 		.4byte	.LFE9-.LFB9
 1678 07fd 01       		.uleb128 0x1
 1679 07fe 9C       		.byte	0x9c
 1680 07ff 25080000 		.4byte	0x825
 1681 0803 2A       		.uleb128 0x2a
 1682 0804 6D736700 		.ascii	"msg\000"
 1683 0808 01       		.byte	0x1
 1684 0809 5901     		.2byte	0x159
 1685 080b EB000000 		.4byte	0xeb
 1686 080f A3020000 		.4byte	.LLST18
 1687 0813 2D       		.uleb128 0x2d
 1688 0814 0E000000 		.4byte	.LVL40
 1689 0818 8B070000 		.4byte	0x78b
 1690 081c 24       		.uleb128 0x24
 1691 081d 01       		.uleb128 0x1
 1692 081e 50       		.byte	0x50
 1693 081f 03       		.uleb128 0x3
 1694 0820 F3       		.byte	0xf3
 1695 0821 01       		.uleb128 0x1
 1696 0822 50       		.byte	0x50
 1697 0823 00       		.byte	0
 1698 0824 00       		.byte	0
 1699 0825 2E       		.uleb128 0x2e
ARM GAS  /tmp/ccnhRAl5.s 			page 31


 1700 0826 5D040000 		.4byte	.LASF83
 1701 082a 01       		.byte	0x1
 1702 082b A401     		.2byte	0x1a4
 1703 082d EB000000 		.4byte	0xeb
 1704 0831 00000000 		.4byte	.LFB11
 1705 0835 2E000000 		.4byte	.LFE11-.LFB11
 1706 0839 01       		.uleb128 0x1
 1707 083a 9C       		.byte	0x9c
 1708 083b 80080000 		.4byte	0x880
 1709 083f 2A       		.uleb128 0x2a
 1710 0840 747000   		.ascii	"tp\000"
 1711 0843 01       		.byte	0x1
 1712 0844 A401     		.2byte	0x1a4
 1713 0846 ED010000 		.4byte	0x1ed
 1714 084a C4020000 		.4byte	.LLST19
 1715 084e 2F       		.uleb128 0x2f
 1716 084f 6D736700 		.ascii	"msg\000"
 1717 0853 01       		.byte	0x1
 1718 0854 A501     		.2byte	0x1a5
 1719 0856 EB000000 		.4byte	0xeb
 1720 085a 01       		.uleb128 0x1
 1721 085b 50       		.byte	0x50
 1722 085c 2C       		.uleb128 0x2c
 1723 085d 20000000 		.4byte	.LVL43
 1724 0861 15090000 		.4byte	0x915
 1725 0865 70080000 		.4byte	0x870
 1726 0869 24       		.uleb128 0x24
 1727 086a 01       		.uleb128 0x1
 1728 086b 51       		.byte	0x51
 1729 086c 02       		.uleb128 0x2
 1730 086d 74       		.byte	0x74
 1731 086e 18       		.sleb128 24
 1732 086f 00       		.byte	0
 1733 0870 23       		.uleb128 0x23
 1734 0871 26000000 		.4byte	.LVL44
 1735 0875 04090000 		.4byte	0x904
 1736 0879 24       		.uleb128 0x24
 1737 087a 01       		.uleb128 0x1
 1738 087b 50       		.byte	0x50
 1739 087c 01       		.uleb128 0x1
 1740 087d 37       		.byte	0x37
 1741 087e 00       		.byte	0
 1742 087f 00       		.byte	0
 1743 0880 30       		.uleb128 0x30
 1744 0881 DD000000 		.4byte	.LASF84
 1745 0885 09       		.byte	0x9
 1746 0886 F5       		.byte	0xf5
 1747 0887 83030000 		.4byte	0x383
 1748 088b 30       		.uleb128 0x30
 1749 088c 83040000 		.4byte	.LASF85
 1750 0890 0A       		.byte	0xa
 1751 0891 6F       		.byte	0x6f
 1752 0892 C7030000 		.4byte	0x3c7
 1753 0896 31       		.uleb128 0x31
 1754 0897 FD010000 		.4byte	.LASF91
 1755 089b 0A       		.byte	0xa
 1756 089c 99       		.byte	0x99
ARM GAS  /tmp/ccnhRAl5.s 			page 32


 1757 089d AC080000 		.4byte	0x8ac
 1758 08a1 0E       		.uleb128 0xe
 1759 08a2 ED010000 		.4byte	0x1ed
 1760 08a6 0E       		.uleb128 0xe
 1761 08a7 EB000000 		.4byte	0xeb
 1762 08ab 00       		.byte	0
 1763 08ac 32       		.uleb128 0x32
 1764 08ad 77010000 		.4byte	.LASF87
 1765 08b1 0A       		.byte	0xa
 1766 08b2 9C       		.byte	0x9c
 1767 08b3 33       		.uleb128 0x33
 1768 08b4 AE040000 		.4byte	.LASF86
 1769 08b8 0A       		.byte	0xa
 1770 08b9 96       		.byte	0x96
 1771 08ba EB000000 		.4byte	0xeb
 1772 08be CD080000 		.4byte	0x8cd
 1773 08c2 0E       		.uleb128 0xe
 1774 08c3 CA000000 		.4byte	0xca
 1775 08c7 0E       		.uleb128 0xe
 1776 08c8 01010000 		.4byte	0x101
 1777 08cc 00       		.byte	0
 1778 08cd 32       		.uleb128 0x32
 1779 08ce 8C020000 		.4byte	.LASF88
 1780 08d2 0A       		.byte	0xa
 1781 08d3 A2       		.byte	0xa2
 1782 08d4 33       		.uleb128 0x33
 1783 08d5 6B010000 		.4byte	.LASF89
 1784 08d9 06       		.byte	0x6
 1785 08da 7D       		.byte	0x7d
 1786 08db ED010000 		.4byte	0x1ed
 1787 08df E9080000 		.4byte	0x8e9
 1788 08e3 0E       		.uleb128 0xe
 1789 08e4 E9080000 		.4byte	0x8e9
 1790 08e8 00       		.byte	0
 1791 08e9 09       		.uleb128 0x9
 1792 08ea 04       		.byte	0x4
 1793 08eb 13020000 		.4byte	0x213
 1794 08ef 33       		.uleb128 0x33
 1795 08f0 BF030000 		.4byte	.LASF90
 1796 08f4 0A       		.byte	0xa
 1797 08f5 90       		.byte	0x90
 1798 08f6 ED010000 		.4byte	0x1ed
 1799 08fa 04090000 		.4byte	0x904
 1800 08fe 0E       		.uleb128 0xe
 1801 08ff ED010000 		.4byte	0x1ed
 1802 0903 00       		.byte	0
 1803 0904 31       		.uleb128 0x31
 1804 0905 7B030000 		.4byte	.LASF92
 1805 0909 0A       		.byte	0xa
 1806 090a 93       		.byte	0x93
 1807 090b 15090000 		.4byte	0x915
 1808 090f 0E       		.uleb128 0xe
 1809 0910 CA000000 		.4byte	0xca
 1810 0914 00       		.byte	0
 1811 0915 34       		.uleb128 0x34
 1812 0916 C3020000 		.4byte	.LASF96
 1813 091a 06       		.byte	0x6
ARM GAS  /tmp/ccnhRAl5.s 			page 33


 1814 091b 7C       		.byte	0x7c
 1815 091c 0E       		.uleb128 0xe
 1816 091d ED010000 		.4byte	0x1ed
 1817 0921 0E       		.uleb128 0xe
 1818 0922 E9080000 		.4byte	0x8e9
 1819 0926 00       		.byte	0
 1820 0927 00       		.byte	0
 1821              		.section	.debug_abbrev,"",%progbits
 1822              	.Ldebug_abbrev0:
 1823 0000 01       		.uleb128 0x1
 1824 0001 11       		.uleb128 0x11
 1825 0002 01       		.byte	0x1
 1826 0003 25       		.uleb128 0x25
 1827 0004 0E       		.uleb128 0xe
 1828 0005 13       		.uleb128 0x13
 1829 0006 0B       		.uleb128 0xb
 1830 0007 03       		.uleb128 0x3
 1831 0008 0E       		.uleb128 0xe
 1832 0009 1B       		.uleb128 0x1b
 1833 000a 0E       		.uleb128 0xe
 1834 000b 55       		.uleb128 0x55
 1835 000c 17       		.uleb128 0x17
 1836 000d 11       		.uleb128 0x11
 1837 000e 01       		.uleb128 0x1
 1838 000f 10       		.uleb128 0x10
 1839 0010 17       		.uleb128 0x17
 1840 0011 00       		.byte	0
 1841 0012 00       		.byte	0
 1842 0013 02       		.uleb128 0x2
 1843 0014 24       		.uleb128 0x24
 1844 0015 00       		.byte	0
 1845 0016 0B       		.uleb128 0xb
 1846 0017 0B       		.uleb128 0xb
 1847 0018 3E       		.uleb128 0x3e
 1848 0019 0B       		.uleb128 0xb
 1849 001a 03       		.uleb128 0x3
 1850 001b 08       		.uleb128 0x8
 1851 001c 00       		.byte	0
 1852 001d 00       		.byte	0
 1853 001e 03       		.uleb128 0x3
 1854 001f 16       		.uleb128 0x16
 1855 0020 00       		.byte	0
 1856 0021 03       		.uleb128 0x3
 1857 0022 0E       		.uleb128 0xe
 1858 0023 3A       		.uleb128 0x3a
 1859 0024 0B       		.uleb128 0xb
 1860 0025 3B       		.uleb128 0x3b
 1861 0026 0B       		.uleb128 0xb
 1862 0027 49       		.uleb128 0x49
 1863 0028 13       		.uleb128 0x13
 1864 0029 00       		.byte	0
 1865 002a 00       		.byte	0
 1866 002b 04       		.uleb128 0x4
 1867 002c 24       		.uleb128 0x24
 1868 002d 00       		.byte	0
 1869 002e 0B       		.uleb128 0xb
 1870 002f 0B       		.uleb128 0xb
ARM GAS  /tmp/ccnhRAl5.s 			page 34


 1871 0030 3E       		.uleb128 0x3e
 1872 0031 0B       		.uleb128 0xb
 1873 0032 03       		.uleb128 0x3
 1874 0033 0E       		.uleb128 0xe
 1875 0034 00       		.byte	0
 1876 0035 00       		.byte	0
 1877 0036 05       		.uleb128 0x5
 1878 0037 13       		.uleb128 0x13
 1879 0038 01       		.byte	0x1
 1880 0039 03       		.uleb128 0x3
 1881 003a 0E       		.uleb128 0xe
 1882 003b 0B       		.uleb128 0xb
 1883 003c 0B       		.uleb128 0xb
 1884 003d 3A       		.uleb128 0x3a
 1885 003e 0B       		.uleb128 0xb
 1886 003f 3B       		.uleb128 0x3b
 1887 0040 0B       		.uleb128 0xb
 1888 0041 01       		.uleb128 0x1
 1889 0042 13       		.uleb128 0x13
 1890 0043 00       		.byte	0
 1891 0044 00       		.byte	0
 1892 0045 06       		.uleb128 0x6
 1893 0046 0D       		.uleb128 0xd
 1894 0047 00       		.byte	0
 1895 0048 03       		.uleb128 0x3
 1896 0049 0E       		.uleb128 0xe
 1897 004a 3A       		.uleb128 0x3a
 1898 004b 0B       		.uleb128 0xb
 1899 004c 3B       		.uleb128 0x3b
 1900 004d 0B       		.uleb128 0xb
 1901 004e 49       		.uleb128 0x49
 1902 004f 13       		.uleb128 0x13
 1903 0050 38       		.uleb128 0x38
 1904 0051 0B       		.uleb128 0xb
 1905 0052 00       		.byte	0
 1906 0053 00       		.byte	0
 1907 0054 07       		.uleb128 0x7
 1908 0055 0D       		.uleb128 0xd
 1909 0056 00       		.byte	0
 1910 0057 03       		.uleb128 0x3
 1911 0058 08       		.uleb128 0x8
 1912 0059 3A       		.uleb128 0x3a
 1913 005a 0B       		.uleb128 0xb
 1914 005b 3B       		.uleb128 0x3b
 1915 005c 0B       		.uleb128 0xb
 1916 005d 49       		.uleb128 0x49
 1917 005e 13       		.uleb128 0x13
 1918 005f 38       		.uleb128 0x38
 1919 0060 0B       		.uleb128 0xb
 1920 0061 00       		.byte	0
 1921 0062 00       		.byte	0
 1922 0063 08       		.uleb128 0x8
 1923 0064 13       		.uleb128 0x13
 1924 0065 01       		.byte	0x1
 1925 0066 0B       		.uleb128 0xb
 1926 0067 0B       		.uleb128 0xb
 1927 0068 3A       		.uleb128 0x3a
ARM GAS  /tmp/ccnhRAl5.s 			page 35


 1928 0069 0B       		.uleb128 0xb
 1929 006a 3B       		.uleb128 0x3b
 1930 006b 0B       		.uleb128 0xb
 1931 006c 01       		.uleb128 0x1
 1932 006d 13       		.uleb128 0x13
 1933 006e 00       		.byte	0
 1934 006f 00       		.byte	0
 1935 0070 09       		.uleb128 0x9
 1936 0071 0F       		.uleb128 0xf
 1937 0072 00       		.byte	0
 1938 0073 0B       		.uleb128 0xb
 1939 0074 0B       		.uleb128 0xb
 1940 0075 49       		.uleb128 0x49
 1941 0076 13       		.uleb128 0x13
 1942 0077 00       		.byte	0
 1943 0078 00       		.byte	0
 1944 0079 0A       		.uleb128 0xa
 1945 007a 0F       		.uleb128 0xf
 1946 007b 00       		.byte	0
 1947 007c 0B       		.uleb128 0xb
 1948 007d 0B       		.uleb128 0xb
 1949 007e 00       		.byte	0
 1950 007f 00       		.byte	0
 1951 0080 0B       		.uleb128 0xb
 1952 0081 13       		.uleb128 0x13
 1953 0082 01       		.byte	0x1
 1954 0083 03       		.uleb128 0x3
 1955 0084 0E       		.uleb128 0xe
 1956 0085 0B       		.uleb128 0xb
 1957 0086 0B       		.uleb128 0xb
 1958 0087 3A       		.uleb128 0x3a
 1959 0088 0B       		.uleb128 0xb
 1960 0089 3B       		.uleb128 0x3b
 1961 008a 05       		.uleb128 0x5
 1962 008b 01       		.uleb128 0x1
 1963 008c 13       		.uleb128 0x13
 1964 008d 00       		.byte	0
 1965 008e 00       		.byte	0
 1966 008f 0C       		.uleb128 0xc
 1967 0090 0D       		.uleb128 0xd
 1968 0091 00       		.byte	0
 1969 0092 03       		.uleb128 0x3
 1970 0093 08       		.uleb128 0x8
 1971 0094 3A       		.uleb128 0x3a
 1972 0095 0B       		.uleb128 0xb
 1973 0096 3B       		.uleb128 0x3b
 1974 0097 05       		.uleb128 0x5
 1975 0098 49       		.uleb128 0x49
 1976 0099 13       		.uleb128 0x13
 1977 009a 38       		.uleb128 0x38
 1978 009b 0B       		.uleb128 0xb
 1979 009c 00       		.byte	0
 1980 009d 00       		.byte	0
 1981 009e 0D       		.uleb128 0xd
 1982 009f 15       		.uleb128 0x15
 1983 00a0 01       		.byte	0x1
 1984 00a1 27       		.uleb128 0x27
ARM GAS  /tmp/ccnhRAl5.s 			page 36


 1985 00a2 19       		.uleb128 0x19
 1986 00a3 01       		.uleb128 0x1
 1987 00a4 13       		.uleb128 0x13
 1988 00a5 00       		.byte	0
 1989 00a6 00       		.byte	0
 1990 00a7 0E       		.uleb128 0xe
 1991 00a8 05       		.uleb128 0x5
 1992 00a9 00       		.byte	0
 1993 00aa 49       		.uleb128 0x49
 1994 00ab 13       		.uleb128 0x13
 1995 00ac 00       		.byte	0
 1996 00ad 00       		.byte	0
 1997 00ae 0F       		.uleb128 0xf
 1998 00af 35       		.uleb128 0x35
 1999 00b0 00       		.byte	0
 2000 00b1 49       		.uleb128 0x49
 2001 00b2 13       		.uleb128 0x13
 2002 00b3 00       		.byte	0
 2003 00b4 00       		.byte	0
 2004 00b5 10       		.uleb128 0x10
 2005 00b6 17       		.uleb128 0x17
 2006 00b7 01       		.byte	0x1
 2007 00b8 0B       		.uleb128 0xb
 2008 00b9 0B       		.uleb128 0xb
 2009 00ba 3A       		.uleb128 0x3a
 2010 00bb 0B       		.uleb128 0xb
 2011 00bc 3B       		.uleb128 0x3b
 2012 00bd 0B       		.uleb128 0xb
 2013 00be 01       		.uleb128 0x1
 2014 00bf 13       		.uleb128 0x13
 2015 00c0 00       		.byte	0
 2016 00c1 00       		.byte	0
 2017 00c2 11       		.uleb128 0x11
 2018 00c3 0D       		.uleb128 0xd
 2019 00c4 00       		.byte	0
 2020 00c5 03       		.uleb128 0x3
 2021 00c6 0E       		.uleb128 0xe
 2022 00c7 3A       		.uleb128 0x3a
 2023 00c8 0B       		.uleb128 0xb
 2024 00c9 3B       		.uleb128 0x3b
 2025 00ca 0B       		.uleb128 0xb
 2026 00cb 49       		.uleb128 0x49
 2027 00cc 13       		.uleb128 0x13
 2028 00cd 00       		.byte	0
 2029 00ce 00       		.byte	0
 2030 00cf 12       		.uleb128 0x12
 2031 00d0 15       		.uleb128 0x15
 2032 00d1 01       		.byte	0x1
 2033 00d2 27       		.uleb128 0x27
 2034 00d3 19       		.uleb128 0x19
 2035 00d4 49       		.uleb128 0x49
 2036 00d5 13       		.uleb128 0x13
 2037 00d6 01       		.uleb128 0x1
 2038 00d7 13       		.uleb128 0x13
 2039 00d8 00       		.byte	0
 2040 00d9 00       		.byte	0
 2041 00da 13       		.uleb128 0x13
ARM GAS  /tmp/ccnhRAl5.s 			page 37


 2042 00db 2E       		.uleb128 0x2e
 2043 00dc 01       		.byte	0x1
 2044 00dd 3F       		.uleb128 0x3f
 2045 00de 19       		.uleb128 0x19
 2046 00df 03       		.uleb128 0x3
 2047 00e0 0E       		.uleb128 0xe
 2048 00e1 3A       		.uleb128 0x3a
 2049 00e2 0B       		.uleb128 0xb
 2050 00e3 3B       		.uleb128 0x3b
 2051 00e4 0B       		.uleb128 0xb
 2052 00e5 27       		.uleb128 0x27
 2053 00e6 19       		.uleb128 0x19
 2054 00e7 49       		.uleb128 0x49
 2055 00e8 13       		.uleb128 0x13
 2056 00e9 20       		.uleb128 0x20
 2057 00ea 0B       		.uleb128 0xb
 2058 00eb 01       		.uleb128 0x1
 2059 00ec 13       		.uleb128 0x13
 2060 00ed 00       		.byte	0
 2061 00ee 00       		.byte	0
 2062 00ef 14       		.uleb128 0x14
 2063 00f0 05       		.uleb128 0x5
 2064 00f1 00       		.byte	0
 2065 00f2 03       		.uleb128 0x3
 2066 00f3 08       		.uleb128 0x8
 2067 00f4 3A       		.uleb128 0x3a
 2068 00f5 0B       		.uleb128 0xb
 2069 00f6 3B       		.uleb128 0x3b
 2070 00f7 0B       		.uleb128 0xb
 2071 00f8 49       		.uleb128 0x49
 2072 00f9 13       		.uleb128 0x13
 2073 00fa 00       		.byte	0
 2074 00fb 00       		.byte	0
 2075 00fc 15       		.uleb128 0x15
 2076 00fd 05       		.uleb128 0x5
 2077 00fe 00       		.byte	0
 2078 00ff 03       		.uleb128 0x3
 2079 0100 0E       		.uleb128 0xe
 2080 0101 3A       		.uleb128 0x3a
 2081 0102 0B       		.uleb128 0xb
 2082 0103 3B       		.uleb128 0x3b
 2083 0104 0B       		.uleb128 0xb
 2084 0105 49       		.uleb128 0x49
 2085 0106 13       		.uleb128 0x13
 2086 0107 00       		.byte	0
 2087 0108 00       		.byte	0
 2088 0109 16       		.uleb128 0x16
 2089 010a 34       		.uleb128 0x34
 2090 010b 00       		.byte	0
 2091 010c 03       		.uleb128 0x3
 2092 010d 08       		.uleb128 0x8
 2093 010e 3A       		.uleb128 0x3a
 2094 010f 0B       		.uleb128 0xb
 2095 0110 3B       		.uleb128 0x3b
 2096 0111 0B       		.uleb128 0xb
 2097 0112 49       		.uleb128 0x49
 2098 0113 13       		.uleb128 0x13
ARM GAS  /tmp/ccnhRAl5.s 			page 38


 2099 0114 00       		.byte	0
 2100 0115 00       		.byte	0
 2101 0116 17       		.uleb128 0x17
 2102 0117 2E       		.uleb128 0x2e
 2103 0118 01       		.byte	0x1
 2104 0119 31       		.uleb128 0x31
 2105 011a 13       		.uleb128 0x13
 2106 011b 11       		.uleb128 0x11
 2107 011c 01       		.uleb128 0x1
 2108 011d 12       		.uleb128 0x12
 2109 011e 06       		.uleb128 0x6
 2110 011f 40       		.uleb128 0x40
 2111 0120 18       		.uleb128 0x18
 2112 0121 9742     		.uleb128 0x2117
 2113 0123 19       		.uleb128 0x19
 2114 0124 01       		.uleb128 0x1
 2115 0125 13       		.uleb128 0x13
 2116 0126 00       		.byte	0
 2117 0127 00       		.byte	0
 2118 0128 18       		.uleb128 0x18
 2119 0129 05       		.uleb128 0x5
 2120 012a 00       		.byte	0
 2121 012b 31       		.uleb128 0x31
 2122 012c 13       		.uleb128 0x13
 2123 012d 02       		.uleb128 0x2
 2124 012e 18       		.uleb128 0x18
 2125 012f 00       		.byte	0
 2126 0130 00       		.byte	0
 2127 0131 19       		.uleb128 0x19
 2128 0132 05       		.uleb128 0x5
 2129 0133 00       		.byte	0
 2130 0134 31       		.uleb128 0x31
 2131 0135 13       		.uleb128 0x13
 2132 0136 02       		.uleb128 0x2
 2133 0137 17       		.uleb128 0x17
 2134 0138 00       		.byte	0
 2135 0139 00       		.byte	0
 2136 013a 1A       		.uleb128 0x1a
 2137 013b 34       		.uleb128 0x34
 2138 013c 00       		.byte	0
 2139 013d 31       		.uleb128 0x31
 2140 013e 13       		.uleb128 0x13
 2141 013f 02       		.uleb128 0x2
 2142 0140 18       		.uleb128 0x18
 2143 0141 00       		.byte	0
 2144 0142 00       		.byte	0
 2145 0143 1B       		.uleb128 0x1b
 2146 0144 1D       		.uleb128 0x1d
 2147 0145 01       		.byte	0x1
 2148 0146 31       		.uleb128 0x31
 2149 0147 13       		.uleb128 0x13
 2150 0148 11       		.uleb128 0x11
 2151 0149 01       		.uleb128 0x1
 2152 014a 12       		.uleb128 0x12
 2153 014b 06       		.uleb128 0x6
 2154 014c 58       		.uleb128 0x58
 2155 014d 0B       		.uleb128 0xb
ARM GAS  /tmp/ccnhRAl5.s 			page 39


 2156 014e 59       		.uleb128 0x59
 2157 014f 0B       		.uleb128 0xb
 2158 0150 00       		.byte	0
 2159 0151 00       		.byte	0
 2160 0152 1C       		.uleb128 0x1c
 2161 0153 2E       		.uleb128 0x2e
 2162 0154 01       		.byte	0x1
 2163 0155 3F       		.uleb128 0x3f
 2164 0156 19       		.uleb128 0x19
 2165 0157 03       		.uleb128 0x3
 2166 0158 0E       		.uleb128 0xe
 2167 0159 3A       		.uleb128 0x3a
 2168 015a 0B       		.uleb128 0xb
 2169 015b 3B       		.uleb128 0x3b
 2170 015c 0B       		.uleb128 0xb
 2171 015d 27       		.uleb128 0x27
 2172 015e 19       		.uleb128 0x19
 2173 015f 49       		.uleb128 0x49
 2174 0160 13       		.uleb128 0x13
 2175 0161 11       		.uleb128 0x11
 2176 0162 01       		.uleb128 0x1
 2177 0163 12       		.uleb128 0x12
 2178 0164 06       		.uleb128 0x6
 2179 0165 40       		.uleb128 0x40
 2180 0166 18       		.uleb128 0x18
 2181 0167 9742     		.uleb128 0x2117
 2182 0169 19       		.uleb128 0x19
 2183 016a 01       		.uleb128 0x1
 2184 016b 13       		.uleb128 0x13
 2185 016c 00       		.byte	0
 2186 016d 00       		.byte	0
 2187 016e 1D       		.uleb128 0x1d
 2188 016f 05       		.uleb128 0x5
 2189 0170 00       		.byte	0
 2190 0171 03       		.uleb128 0x3
 2191 0172 08       		.uleb128 0x8
 2192 0173 3A       		.uleb128 0x3a
 2193 0174 0B       		.uleb128 0xb
 2194 0175 3B       		.uleb128 0x3b
 2195 0176 0B       		.uleb128 0xb
 2196 0177 49       		.uleb128 0x49
 2197 0178 13       		.uleb128 0x13
 2198 0179 02       		.uleb128 0x2
 2199 017a 17       		.uleb128 0x17
 2200 017b 00       		.byte	0
 2201 017c 00       		.byte	0
 2202 017d 1E       		.uleb128 0x1e
 2203 017e 05       		.uleb128 0x5
 2204 017f 00       		.byte	0
 2205 0180 03       		.uleb128 0x3
 2206 0181 0E       		.uleb128 0xe
 2207 0182 3A       		.uleb128 0x3a
 2208 0183 0B       		.uleb128 0xb
 2209 0184 3B       		.uleb128 0x3b
 2210 0185 0B       		.uleb128 0xb
 2211 0186 49       		.uleb128 0x49
 2212 0187 13       		.uleb128 0x13
ARM GAS  /tmp/ccnhRAl5.s 			page 40


 2213 0188 02       		.uleb128 0x2
 2214 0189 17       		.uleb128 0x17
 2215 018a 00       		.byte	0
 2216 018b 00       		.byte	0
 2217 018c 1F       		.uleb128 0x1f
 2218 018d 05       		.uleb128 0x5
 2219 018e 00       		.byte	0
 2220 018f 03       		.uleb128 0x3
 2221 0190 08       		.uleb128 0x8
 2222 0191 3A       		.uleb128 0x3a
 2223 0192 0B       		.uleb128 0xb
 2224 0193 3B       		.uleb128 0x3b
 2225 0194 0B       		.uleb128 0xb
 2226 0195 49       		.uleb128 0x49
 2227 0196 13       		.uleb128 0x13
 2228 0197 02       		.uleb128 0x2
 2229 0198 18       		.uleb128 0x18
 2230 0199 00       		.byte	0
 2231 019a 00       		.byte	0
 2232 019b 20       		.uleb128 0x20
 2233 019c 1D       		.uleb128 0x1d
 2234 019d 01       		.byte	0x1
 2235 019e 31       		.uleb128 0x31
 2236 019f 13       		.uleb128 0x13
 2237 01a0 52       		.uleb128 0x52
 2238 01a1 01       		.uleb128 0x1
 2239 01a2 55       		.uleb128 0x55
 2240 01a3 17       		.uleb128 0x17
 2241 01a4 58       		.uleb128 0x58
 2242 01a5 0B       		.uleb128 0xb
 2243 01a6 59       		.uleb128 0x59
 2244 01a7 0B       		.uleb128 0xb
 2245 01a8 01       		.uleb128 0x1
 2246 01a9 13       		.uleb128 0x13
 2247 01aa 00       		.byte	0
 2248 01ab 00       		.byte	0
 2249 01ac 21       		.uleb128 0x21
 2250 01ad 0B       		.uleb128 0xb
 2251 01ae 01       		.byte	0x1
 2252 01af 55       		.uleb128 0x55
 2253 01b0 17       		.uleb128 0x17
 2254 01b1 00       		.byte	0
 2255 01b2 00       		.byte	0
 2256 01b3 22       		.uleb128 0x22
 2257 01b4 1D       		.uleb128 0x1d
 2258 01b5 01       		.byte	0x1
 2259 01b6 31       		.uleb128 0x31
 2260 01b7 13       		.uleb128 0x13
 2261 01b8 52       		.uleb128 0x52
 2262 01b9 01       		.uleb128 0x1
 2263 01ba 55       		.uleb128 0x55
 2264 01bb 17       		.uleb128 0x17
 2265 01bc 58       		.uleb128 0x58
 2266 01bd 0B       		.uleb128 0xb
 2267 01be 59       		.uleb128 0x59
 2268 01bf 0B       		.uleb128 0xb
 2269 01c0 00       		.byte	0
ARM GAS  /tmp/ccnhRAl5.s 			page 41


 2270 01c1 00       		.byte	0
 2271 01c2 23       		.uleb128 0x23
 2272 01c3 898201   		.uleb128 0x4109
 2273 01c6 01       		.byte	0x1
 2274 01c7 11       		.uleb128 0x11
 2275 01c8 01       		.uleb128 0x1
 2276 01c9 31       		.uleb128 0x31
 2277 01ca 13       		.uleb128 0x13
 2278 01cb 00       		.byte	0
 2279 01cc 00       		.byte	0
 2280 01cd 24       		.uleb128 0x24
 2281 01ce 8A8201   		.uleb128 0x410a
 2282 01d1 00       		.byte	0
 2283 01d2 02       		.uleb128 0x2
 2284 01d3 18       		.uleb128 0x18
 2285 01d4 9142     		.uleb128 0x2111
 2286 01d6 18       		.uleb128 0x18
 2287 01d7 00       		.byte	0
 2288 01d8 00       		.byte	0
 2289 01d9 25       		.uleb128 0x25
 2290 01da 34       		.uleb128 0x34
 2291 01db 00       		.byte	0
 2292 01dc 03       		.uleb128 0x3
 2293 01dd 0E       		.uleb128 0xe
 2294 01de 3A       		.uleb128 0x3a
 2295 01df 0B       		.uleb128 0xb
 2296 01e0 3B       		.uleb128 0x3b
 2297 01e1 0B       		.uleb128 0xb
 2298 01e2 49       		.uleb128 0x49
 2299 01e3 13       		.uleb128 0x13
 2300 01e4 02       		.uleb128 0x2
 2301 01e5 18       		.uleb128 0x18
 2302 01e6 00       		.byte	0
 2303 01e7 00       		.byte	0
 2304 01e8 26       		.uleb128 0x26
 2305 01e9 898201   		.uleb128 0x4109
 2306 01ec 00       		.byte	0
 2307 01ed 11       		.uleb128 0x11
 2308 01ee 01       		.uleb128 0x1
 2309 01ef 31       		.uleb128 0x31
 2310 01f0 13       		.uleb128 0x13
 2311 01f1 00       		.byte	0
 2312 01f2 00       		.byte	0
 2313 01f3 27       		.uleb128 0x27
 2314 01f4 2E       		.uleb128 0x2e
 2315 01f5 01       		.byte	0x1
 2316 01f6 3F       		.uleb128 0x3f
 2317 01f7 19       		.uleb128 0x19
 2318 01f8 03       		.uleb128 0x3
 2319 01f9 0E       		.uleb128 0xe
 2320 01fa 3A       		.uleb128 0x3a
 2321 01fb 0B       		.uleb128 0xb
 2322 01fc 3B       		.uleb128 0x3b
 2323 01fd 05       		.uleb128 0x5
 2324 01fe 27       		.uleb128 0x27
 2325 01ff 19       		.uleb128 0x19
 2326 0200 11       		.uleb128 0x11
ARM GAS  /tmp/ccnhRAl5.s 			page 42


 2327 0201 01       		.uleb128 0x1
 2328 0202 12       		.uleb128 0x12
 2329 0203 06       		.uleb128 0x6
 2330 0204 40       		.uleb128 0x40
 2331 0205 18       		.uleb128 0x18
 2332 0206 9742     		.uleb128 0x2117
 2333 0208 19       		.uleb128 0x19
 2334 0209 01       		.uleb128 0x1
 2335 020a 13       		.uleb128 0x13
 2336 020b 00       		.byte	0
 2337 020c 00       		.byte	0
 2338 020d 28       		.uleb128 0x28
 2339 020e 05       		.uleb128 0x5
 2340 020f 00       		.byte	0
 2341 0210 03       		.uleb128 0x3
 2342 0211 08       		.uleb128 0x8
 2343 0212 3A       		.uleb128 0x3a
 2344 0213 0B       		.uleb128 0xb
 2345 0214 3B       		.uleb128 0x3b
 2346 0215 05       		.uleb128 0x5
 2347 0216 49       		.uleb128 0x49
 2348 0217 13       		.uleb128 0x13
 2349 0218 02       		.uleb128 0x2
 2350 0219 18       		.uleb128 0x18
 2351 021a 00       		.byte	0
 2352 021b 00       		.byte	0
 2353 021c 29       		.uleb128 0x29
 2354 021d 05       		.uleb128 0x5
 2355 021e 00       		.byte	0
 2356 021f 03       		.uleb128 0x3
 2357 0220 0E       		.uleb128 0xe
 2358 0221 3A       		.uleb128 0x3a
 2359 0222 0B       		.uleb128 0xb
 2360 0223 3B       		.uleb128 0x3b
 2361 0224 05       		.uleb128 0x5
 2362 0225 49       		.uleb128 0x49
 2363 0226 13       		.uleb128 0x13
 2364 0227 02       		.uleb128 0x2
 2365 0228 17       		.uleb128 0x17
 2366 0229 00       		.byte	0
 2367 022a 00       		.byte	0
 2368 022b 2A       		.uleb128 0x2a
 2369 022c 05       		.uleb128 0x5
 2370 022d 00       		.byte	0
 2371 022e 03       		.uleb128 0x3
 2372 022f 08       		.uleb128 0x8
 2373 0230 3A       		.uleb128 0x3a
 2374 0231 0B       		.uleb128 0xb
 2375 0232 3B       		.uleb128 0x3b
 2376 0233 05       		.uleb128 0x5
 2377 0234 49       		.uleb128 0x49
 2378 0235 13       		.uleb128 0x13
 2379 0236 02       		.uleb128 0x2
 2380 0237 17       		.uleb128 0x17
 2381 0238 00       		.byte	0
 2382 0239 00       		.byte	0
 2383 023a 2B       		.uleb128 0x2b
ARM GAS  /tmp/ccnhRAl5.s 			page 43


 2384 023b 34       		.uleb128 0x34
 2385 023c 00       		.byte	0
 2386 023d 03       		.uleb128 0x3
 2387 023e 08       		.uleb128 0x8
 2388 023f 3A       		.uleb128 0x3a
 2389 0240 0B       		.uleb128 0xb
 2390 0241 3B       		.uleb128 0x3b
 2391 0242 05       		.uleb128 0x5
 2392 0243 49       		.uleb128 0x49
 2393 0244 13       		.uleb128 0x13
 2394 0245 02       		.uleb128 0x2
 2395 0246 17       		.uleb128 0x17
 2396 0247 00       		.byte	0
 2397 0248 00       		.byte	0
 2398 0249 2C       		.uleb128 0x2c
 2399 024a 898201   		.uleb128 0x4109
 2400 024d 01       		.byte	0x1
 2401 024e 11       		.uleb128 0x11
 2402 024f 01       		.uleb128 0x1
 2403 0250 31       		.uleb128 0x31
 2404 0251 13       		.uleb128 0x13
 2405 0252 01       		.uleb128 0x1
 2406 0253 13       		.uleb128 0x13
 2407 0254 00       		.byte	0
 2408 0255 00       		.byte	0
 2409 0256 2D       		.uleb128 0x2d
 2410 0257 898201   		.uleb128 0x4109
 2411 025a 01       		.byte	0x1
 2412 025b 11       		.uleb128 0x11
 2413 025c 01       		.uleb128 0x1
 2414 025d 9542     		.uleb128 0x2115
 2415 025f 19       		.uleb128 0x19
 2416 0260 31       		.uleb128 0x31
 2417 0261 13       		.uleb128 0x13
 2418 0262 00       		.byte	0
 2419 0263 00       		.byte	0
 2420 0264 2E       		.uleb128 0x2e
 2421 0265 2E       		.uleb128 0x2e
 2422 0266 01       		.byte	0x1
 2423 0267 3F       		.uleb128 0x3f
 2424 0268 19       		.uleb128 0x19
 2425 0269 03       		.uleb128 0x3
 2426 026a 0E       		.uleb128 0xe
 2427 026b 3A       		.uleb128 0x3a
 2428 026c 0B       		.uleb128 0xb
 2429 026d 3B       		.uleb128 0x3b
 2430 026e 05       		.uleb128 0x5
 2431 026f 27       		.uleb128 0x27
 2432 0270 19       		.uleb128 0x19
 2433 0271 49       		.uleb128 0x49
 2434 0272 13       		.uleb128 0x13
 2435 0273 11       		.uleb128 0x11
 2436 0274 01       		.uleb128 0x1
 2437 0275 12       		.uleb128 0x12
 2438 0276 06       		.uleb128 0x6
 2439 0277 40       		.uleb128 0x40
 2440 0278 18       		.uleb128 0x18
ARM GAS  /tmp/ccnhRAl5.s 			page 44


 2441 0279 9742     		.uleb128 0x2117
 2442 027b 19       		.uleb128 0x19
 2443 027c 01       		.uleb128 0x1
 2444 027d 13       		.uleb128 0x13
 2445 027e 00       		.byte	0
 2446 027f 00       		.byte	0
 2447 0280 2F       		.uleb128 0x2f
 2448 0281 34       		.uleb128 0x34
 2449 0282 00       		.byte	0
 2450 0283 03       		.uleb128 0x3
 2451 0284 08       		.uleb128 0x8
 2452 0285 3A       		.uleb128 0x3a
 2453 0286 0B       		.uleb128 0xb
 2454 0287 3B       		.uleb128 0x3b
 2455 0288 05       		.uleb128 0x5
 2456 0289 49       		.uleb128 0x49
 2457 028a 13       		.uleb128 0x13
 2458 028b 02       		.uleb128 0x2
 2459 028c 18       		.uleb128 0x18
 2460 028d 00       		.byte	0
 2461 028e 00       		.byte	0
 2462 028f 30       		.uleb128 0x30
 2463 0290 34       		.uleb128 0x34
 2464 0291 00       		.byte	0
 2465 0292 03       		.uleb128 0x3
 2466 0293 0E       		.uleb128 0xe
 2467 0294 3A       		.uleb128 0x3a
 2468 0295 0B       		.uleb128 0xb
 2469 0296 3B       		.uleb128 0x3b
 2470 0297 0B       		.uleb128 0xb
 2471 0298 49       		.uleb128 0x49
 2472 0299 13       		.uleb128 0x13
 2473 029a 3F       		.uleb128 0x3f
 2474 029b 19       		.uleb128 0x19
 2475 029c 3C       		.uleb128 0x3c
 2476 029d 19       		.uleb128 0x19
 2477 029e 00       		.byte	0
 2478 029f 00       		.byte	0
 2479 02a0 31       		.uleb128 0x31
 2480 02a1 2E       		.uleb128 0x2e
 2481 02a2 01       		.byte	0x1
 2482 02a3 3F       		.uleb128 0x3f
 2483 02a4 19       		.uleb128 0x19
 2484 02a5 03       		.uleb128 0x3
 2485 02a6 0E       		.uleb128 0xe
 2486 02a7 3A       		.uleb128 0x3a
 2487 02a8 0B       		.uleb128 0xb
 2488 02a9 3B       		.uleb128 0x3b
 2489 02aa 0B       		.uleb128 0xb
 2490 02ab 27       		.uleb128 0x27
 2491 02ac 19       		.uleb128 0x19
 2492 02ad 3C       		.uleb128 0x3c
 2493 02ae 19       		.uleb128 0x19
 2494 02af 01       		.uleb128 0x1
 2495 02b0 13       		.uleb128 0x13
 2496 02b1 00       		.byte	0
 2497 02b2 00       		.byte	0
ARM GAS  /tmp/ccnhRAl5.s 			page 45


 2498 02b3 32       		.uleb128 0x32
 2499 02b4 2E       		.uleb128 0x2e
 2500 02b5 00       		.byte	0
 2501 02b6 3F       		.uleb128 0x3f
 2502 02b7 19       		.uleb128 0x19
 2503 02b8 03       		.uleb128 0x3
 2504 02b9 0E       		.uleb128 0xe
 2505 02ba 3A       		.uleb128 0x3a
 2506 02bb 0B       		.uleb128 0xb
 2507 02bc 3B       		.uleb128 0x3b
 2508 02bd 0B       		.uleb128 0xb
 2509 02be 27       		.uleb128 0x27
 2510 02bf 19       		.uleb128 0x19
 2511 02c0 3C       		.uleb128 0x3c
 2512 02c1 19       		.uleb128 0x19
 2513 02c2 00       		.byte	0
 2514 02c3 00       		.byte	0
 2515 02c4 33       		.uleb128 0x33
 2516 02c5 2E       		.uleb128 0x2e
 2517 02c6 01       		.byte	0x1
 2518 02c7 3F       		.uleb128 0x3f
 2519 02c8 19       		.uleb128 0x19
 2520 02c9 03       		.uleb128 0x3
 2521 02ca 0E       		.uleb128 0xe
 2522 02cb 3A       		.uleb128 0x3a
 2523 02cc 0B       		.uleb128 0xb
 2524 02cd 3B       		.uleb128 0x3b
 2525 02ce 0B       		.uleb128 0xb
 2526 02cf 27       		.uleb128 0x27
 2527 02d0 19       		.uleb128 0x19
 2528 02d1 49       		.uleb128 0x49
 2529 02d2 13       		.uleb128 0x13
 2530 02d3 3C       		.uleb128 0x3c
 2531 02d4 19       		.uleb128 0x19
 2532 02d5 01       		.uleb128 0x1
 2533 02d6 13       		.uleb128 0x13
 2534 02d7 00       		.byte	0
 2535 02d8 00       		.byte	0
 2536 02d9 34       		.uleb128 0x34
 2537 02da 2E       		.uleb128 0x2e
 2538 02db 01       		.byte	0x1
 2539 02dc 3F       		.uleb128 0x3f
 2540 02dd 19       		.uleb128 0x19
 2541 02de 03       		.uleb128 0x3
 2542 02df 0E       		.uleb128 0xe
 2543 02e0 3A       		.uleb128 0x3a
 2544 02e1 0B       		.uleb128 0xb
 2545 02e2 3B       		.uleb128 0x3b
 2546 02e3 0B       		.uleb128 0xb
 2547 02e4 27       		.uleb128 0x27
 2548 02e5 19       		.uleb128 0x19
 2549 02e6 3C       		.uleb128 0x3c
 2550 02e7 19       		.uleb128 0x19
 2551 02e8 00       		.byte	0
 2552 02e9 00       		.byte	0
 2553 02ea 00       		.byte	0
 2554              		.section	.debug_loc,"",%progbits
ARM GAS  /tmp/ccnhRAl5.s 			page 46


 2555              	.Ldebug_loc0:
 2556              	.LLST0:
 2557 0000 00000000 		.4byte	.LVL1
 2558 0004 02000000 		.4byte	.LVL2
 2559 0008 0100     		.2byte	0x1
 2560 000a 51       		.byte	0x51
 2561 000b 02000000 		.4byte	.LVL2
 2562 000f 0E000000 		.4byte	.LVL3
 2563 0013 0300     		.2byte	0x3
 2564 0015 71       		.byte	0x71
 2565 0016 24       		.sleb128 36
 2566 0017 9F       		.byte	0x9f
 2567 0018 0E000000 		.4byte	.LVL3
 2568 001c 4E000000 		.4byte	.LFE1
 2569 0020 0400     		.2byte	0x4
 2570 0022 F3       		.byte	0xf3
 2571 0023 01       		.uleb128 0x1
 2572 0024 51       		.byte	0x51
 2573 0025 9F       		.byte	0x9f
 2574 0026 00000000 		.4byte	0
 2575 002a 00000000 		.4byte	0
 2576              	.LLST1:
 2577 002e 00000000 		.4byte	.LVL1
 2578 0032 14000000 		.4byte	.LVL4
 2579 0036 0100     		.2byte	0x1
 2580 0038 53       		.byte	0x53
 2581 0039 14000000 		.4byte	.LVL4
 2582 003d 16000000 		.4byte	.LVL5
 2583 0041 0900     		.2byte	0x9
 2584 0043 F3       		.byte	0xf3
 2585 0044 01       		.uleb128 0x1
 2586 0045 51       		.byte	0x51
 2587 0046 70       		.byte	0x70
 2588 0047 00       		.sleb128 0
 2589 0048 22       		.byte	0x22
 2590 0049 08       		.byte	0x8
 2591 004a 24       		.byte	0x24
 2592 004b 1C       		.byte	0x1c
 2593 004c 16000000 		.4byte	.LVL5
 2594 0050 4E000000 		.4byte	.LFE1
 2595 0054 0400     		.2byte	0x4
 2596 0056 F3       		.byte	0xf3
 2597 0057 01       		.uleb128 0x1
 2598 0058 53       		.byte	0x53
 2599 0059 9F       		.byte	0x9f
 2600 005a 00000000 		.4byte	0
 2601 005e 00000000 		.4byte	0
 2602              	.LLST2:
 2603 0062 00000000 		.4byte	.LVL1
 2604 0066 4C000000 		.4byte	.LVL7
 2605 006a 0200     		.2byte	0x2
 2606 006c 91       		.byte	0x91
 2607 006d 00       		.sleb128 0
 2608 006e 4C000000 		.4byte	.LVL7
 2609 0072 4E000000 		.4byte	.LFE1
 2610 0076 0200     		.2byte	0x2
 2611 0078 7D       		.byte	0x7d
ARM GAS  /tmp/ccnhRAl5.s 			page 47


 2612 0079 00       		.sleb128 0
 2613 007a 00000000 		.4byte	0
 2614 007e 00000000 		.4byte	0
 2615              	.LLST3:
 2616 0082 00000000 		.4byte	.LVL8
 2617 0086 08000000 		.4byte	.LVL9
 2618 008a 0100     		.2byte	0x1
 2619 008c 50       		.byte	0x50
 2620 008d 08000000 		.4byte	.LVL9
 2621 0091 5A000000 		.4byte	.LFE2
 2622 0095 0100     		.2byte	0x1
 2623 0097 54       		.byte	0x54
 2624 0098 00000000 		.4byte	0
 2625 009c 00000000 		.4byte	0
 2626              	.LLST4:
 2627 00a0 00000000 		.4byte	.LVL8
 2628 00a4 0E000000 		.4byte	.LVL11
 2629 00a8 0100     		.2byte	0x1
 2630 00aa 51       		.byte	0x51
 2631 00ab 0E000000 		.4byte	.LVL11
 2632 00af 1A000000 		.4byte	.LVL12
 2633 00b3 0300     		.2byte	0x3
 2634 00b5 71       		.byte	0x71
 2635 00b6 24       		.sleb128 36
 2636 00b7 9F       		.byte	0x9f
 2637 00b8 1A000000 		.4byte	.LVL12
 2638 00bc 5A000000 		.4byte	.LFE2
 2639 00c0 0400     		.2byte	0x4
 2640 00c2 F3       		.byte	0xf3
 2641 00c3 01       		.uleb128 0x1
 2642 00c4 51       		.byte	0x51
 2643 00c5 9F       		.byte	0x9f
 2644 00c6 00000000 		.4byte	0
 2645 00ca 00000000 		.4byte	0
 2646              	.LLST5:
 2647 00ce 00000000 		.4byte	.LVL8
 2648 00d2 51000000 		.4byte	.LVL16-1
 2649 00d6 0100     		.2byte	0x1
 2650 00d8 52       		.byte	0x52
 2651 00d9 51000000 		.4byte	.LVL16-1
 2652 00dd 5A000000 		.4byte	.LFE2
 2653 00e1 0400     		.2byte	0x4
 2654 00e3 F3       		.byte	0xf3
 2655 00e4 01       		.uleb128 0x1
 2656 00e5 52       		.byte	0x52
 2657 00e6 9F       		.byte	0x9f
 2658 00e7 00000000 		.4byte	0
 2659 00eb 00000000 		.4byte	0
 2660              	.LLST6:
 2661 00ef 00000000 		.4byte	.LVL8
 2662 00f3 0C000000 		.4byte	.LVL10
 2663 00f7 0100     		.2byte	0x1
 2664 00f9 53       		.byte	0x53
 2665 00fa 0C000000 		.4byte	.LVL10
 2666 00fe 1E000000 		.4byte	.LVL13
 2667 0102 0100     		.2byte	0x1
 2668 0104 55       		.byte	0x55
ARM GAS  /tmp/ccnhRAl5.s 			page 48


 2669 0105 1E000000 		.4byte	.LVL13
 2670 0109 5A000000 		.4byte	.LFE2
 2671 010d 0400     		.2byte	0x4
 2672 010f F3       		.byte	0xf3
 2673 0110 01       		.uleb128 0x1
 2674 0111 53       		.byte	0x53
 2675 0112 9F       		.byte	0x9f
 2676 0113 00000000 		.4byte	0
 2677 0117 00000000 		.4byte	0
 2678              	.LLST7:
 2679 011b 0C000000 		.4byte	.LVL10
 2680 011f 24000000 		.4byte	.LVL14
 2681 0123 0100     		.2byte	0x1
 2682 0125 50       		.byte	0x50
 2683 0126 24000000 		.4byte	.LVL14
 2684 012a 5A000000 		.4byte	.LFE2
 2685 012e 0200     		.2byte	0x2
 2686 0130 91       		.byte	0x91
 2687 0131 00       		.sleb128 0
 2688 0132 00000000 		.4byte	0
 2689 0136 00000000 		.4byte	0
 2690              	.LLST8:
 2691 013a 0C000000 		.4byte	.LVL10
 2692 013e 1E000000 		.4byte	.LVL13
 2693 0142 0100     		.2byte	0x1
 2694 0144 55       		.byte	0x55
 2695 0145 1E000000 		.4byte	.LVL13
 2696 0149 5A000000 		.4byte	.LFE2
 2697 014d 0400     		.2byte	0x4
 2698 014f F3       		.byte	0xf3
 2699 0150 01       		.uleb128 0x1
 2700 0151 53       		.byte	0x53
 2701 0152 9F       		.byte	0x9f
 2702 0153 00000000 		.4byte	0
 2703 0157 00000000 		.4byte	0
 2704              	.LLST9:
 2705 015b 0C000000 		.4byte	.LVL10
 2706 015f 51000000 		.4byte	.LVL16-1
 2707 0163 0100     		.2byte	0x1
 2708 0165 52       		.byte	0x52
 2709 0166 51000000 		.4byte	.LVL16-1
 2710 016a 5A000000 		.4byte	.LFE2
 2711 016e 0400     		.2byte	0x4
 2712 0170 F3       		.byte	0xf3
 2713 0171 01       		.uleb128 0x1
 2714 0172 52       		.byte	0x52
 2715 0173 9F       		.byte	0x9f
 2716 0174 00000000 		.4byte	0
 2717 0178 00000000 		.4byte	0
 2718              	.LLST10:
 2719 017c 0C000000 		.4byte	.LVL10
 2720 0180 0E000000 		.4byte	.LVL11
 2721 0184 0100     		.2byte	0x1
 2722 0186 51       		.byte	0x51
 2723 0187 0E000000 		.4byte	.LVL11
 2724 018b 1A000000 		.4byte	.LVL12
 2725 018f 0300     		.2byte	0x3
ARM GAS  /tmp/ccnhRAl5.s 			page 49


 2726 0191 71       		.byte	0x71
 2727 0192 24       		.sleb128 36
 2728 0193 9F       		.byte	0x9f
 2729 0194 1A000000 		.4byte	.LVL12
 2730 0198 5A000000 		.4byte	.LFE2
 2731 019c 0400     		.2byte	0x4
 2732 019e F3       		.byte	0xf3
 2733 019f 01       		.uleb128 0x1
 2734 01a0 51       		.byte	0x51
 2735 01a1 9F       		.byte	0x9f
 2736 01a2 00000000 		.4byte	0
 2737 01a6 00000000 		.4byte	0
 2738              	.LLST11:
 2739 01aa 34000000 		.4byte	.LVL15
 2740 01ae 51000000 		.4byte	.LVL16-1
 2741 01b2 0100     		.2byte	0x1
 2742 01b4 52       		.byte	0x52
 2743 01b5 51000000 		.4byte	.LVL16-1
 2744 01b9 5A000000 		.4byte	.LFE2
 2745 01bd 0400     		.2byte	0x4
 2746 01bf F3       		.byte	0xf3
 2747 01c0 01       		.uleb128 0x1
 2748 01c1 52       		.byte	0x52
 2749 01c2 9F       		.byte	0x9f
 2750 01c3 00000000 		.4byte	0
 2751 01c7 00000000 		.4byte	0
 2752              	.LLST12:
 2753 01cb 00000000 		.4byte	.LVL17
 2754 01cf 16000000 		.4byte	.LVL19
 2755 01d3 0100     		.2byte	0x1
 2756 01d5 50       		.byte	0x50
 2757 01d6 16000000 		.4byte	.LVL19
 2758 01da 27000000 		.4byte	.LVL20-1
 2759 01de 0100     		.2byte	0x1
 2760 01e0 51       		.byte	0x51
 2761 01e1 27000000 		.4byte	.LVL20-1
 2762 01e5 30000000 		.4byte	.LFE3
 2763 01e9 0400     		.2byte	0x4
 2764 01eb F3       		.byte	0xf3
 2765 01ec 01       		.uleb128 0x1
 2766 01ed 50       		.byte	0x50
 2767 01ee 9F       		.byte	0x9f
 2768 01ef 00000000 		.4byte	0
 2769 01f3 00000000 		.4byte	0
 2770              	.LLST13:
 2771 01f7 00000000 		.4byte	.LVL21
 2772 01fb 0D000000 		.4byte	.LVL22-1
 2773 01ff 0100     		.2byte	0x1
 2774 0201 50       		.byte	0x50
 2775 0202 0D000000 		.4byte	.LVL22-1
 2776 0206 16000000 		.4byte	.LFE4
 2777 020a 0100     		.2byte	0x1
 2778 020c 54       		.byte	0x54
 2779 020d 00000000 		.4byte	0
 2780 0211 00000000 		.4byte	0
 2781              	.LLST14:
 2782 0215 00000000 		.4byte	.LVL24
ARM GAS  /tmp/ccnhRAl5.s 			page 50


 2783 0219 0A000000 		.4byte	.LVL25
 2784 021d 0100     		.2byte	0x1
 2785 021f 50       		.byte	0x50
 2786 0220 0A000000 		.4byte	.LVL25
 2787 0224 0D000000 		.4byte	.LVL26-1
 2788 0228 0100     		.2byte	0x1
 2789 022a 51       		.byte	0x51
 2790 022b 0D000000 		.4byte	.LVL26-1
 2791 022f 14000000 		.4byte	.LFE6
 2792 0233 0400     		.2byte	0x4
 2793 0235 F3       		.byte	0xf3
 2794 0236 01       		.uleb128 0x1
 2795 0237 50       		.byte	0x50
 2796 0238 9F       		.byte	0x9f
 2797 0239 00000000 		.4byte	0
 2798 023d 00000000 		.4byte	0
 2799              	.LLST15:
 2800 0241 00000000 		.4byte	.LVL27
 2801 0245 10000000 		.4byte	.LVL28
 2802 0249 0100     		.2byte	0x1
 2803 024b 50       		.byte	0x50
 2804 024c 10000000 		.4byte	.LVL28
 2805 0250 12000000 		.4byte	.LVL29
 2806 0254 0600     		.2byte	0x6
 2807 0256 70       		.byte	0x70
 2808 0257 00       		.sleb128 0
 2809 0258 71       		.byte	0x71
 2810 0259 00       		.sleb128 0
 2811 025a 1C       		.byte	0x1c
 2812 025b 9F       		.byte	0x9f
 2813 025c 12000000 		.4byte	.LVL29
 2814 0260 19000000 		.4byte	.LVL30-1
 2815 0264 0100     		.2byte	0x1
 2816 0266 51       		.byte	0x51
 2817 0267 00000000 		.4byte	0
 2818 026b 00000000 		.4byte	0
 2819              	.LLST16:
 2820 026f 00000000 		.4byte	.LVL32
 2821 0273 18000000 		.4byte	.LVL34
 2822 0277 0100     		.2byte	0x1
 2823 0279 50       		.byte	0x50
 2824 027a 18000000 		.4byte	.LVL34
 2825 027e 32000000 		.4byte	.LFE10
 2826 0282 0400     		.2byte	0x4
 2827 0284 F3       		.byte	0xf3
 2828 0285 01       		.uleb128 0x1
 2829 0286 50       		.byte	0x50
 2830 0287 9F       		.byte	0x9f
 2831 0288 00000000 		.4byte	0
 2832 028c 00000000 		.4byte	0
 2833              	.LLST17:
 2834 0290 0C000000 		.4byte	.LVL33
 2835 0294 2E000000 		.4byte	.LVL37
 2836 0298 0100     		.2byte	0x1
 2837 029a 55       		.byte	0x55
 2838 029b 00000000 		.4byte	0
 2839 029f 00000000 		.4byte	0
ARM GAS  /tmp/ccnhRAl5.s 			page 51


 2840              	.LLST18:
 2841 02a3 00000000 		.4byte	.LVL39
 2842 02a7 0D000000 		.4byte	.LVL40-1
 2843 02ab 0100     		.2byte	0x1
 2844 02ad 50       		.byte	0x50
 2845 02ae 0D000000 		.4byte	.LVL40-1
 2846 02b2 0E000000 		.4byte	.LFE9
 2847 02b6 0400     		.2byte	0x4
 2848 02b8 F3       		.byte	0xf3
 2849 02b9 01       		.uleb128 0x1
 2850 02ba 50       		.byte	0x50
 2851 02bb 9F       		.byte	0x9f
 2852 02bc 00000000 		.4byte	0
 2853 02c0 00000000 		.4byte	0
 2854              	.LLST19:
 2855 02c4 00000000 		.4byte	.LVL41
 2856 02c8 18000000 		.4byte	.LVL42
 2857 02cc 0100     		.2byte	0x1
 2858 02ce 50       		.byte	0x50
 2859 02cf 18000000 		.4byte	.LVL42
 2860 02d3 2E000000 		.4byte	.LFE11
 2861 02d7 0100     		.2byte	0x1
 2862 02d9 54       		.byte	0x54
 2863 02da 00000000 		.4byte	0
 2864 02de 00000000 		.4byte	0
 2865              		.section	.debug_aranges,"",%progbits
 2866 0000 74000000 		.4byte	0x74
 2867 0004 0200     		.2byte	0x2
 2868 0006 00000000 		.4byte	.Ldebug_info0
 2869 000a 04       		.byte	0x4
 2870 000b 00       		.byte	0
 2871 000c 0000     		.2byte	0
 2872 000e 0000     		.2byte	0
 2873 0010 00000000 		.4byte	.LFB0
 2874 0014 28000000 		.4byte	.LFE0-.LFB0
 2875 0018 00000000 		.4byte	.LFB1
 2876 001c 4E000000 		.4byte	.LFE1-.LFB1
 2877 0020 00000000 		.4byte	.LFB2
 2878 0024 5A000000 		.4byte	.LFE2-.LFB2
 2879 0028 00000000 		.4byte	.LFB3
 2880 002c 30000000 		.4byte	.LFE3-.LFB3
 2881 0030 00000000 		.4byte	.LFB4
 2882 0034 16000000 		.4byte	.LFE4-.LFB4
 2883 0038 00000000 		.4byte	.LFB5
 2884 003c 16000000 		.4byte	.LFE5-.LFB5
 2885 0040 00000000 		.4byte	.LFB6
 2886 0044 14000000 		.4byte	.LFE6-.LFB6
 2887 0048 00000000 		.4byte	.LFB7
 2888 004c 20000000 		.4byte	.LFE7-.LFB7
 2889 0050 00000000 		.4byte	.LFB8
 2890 0054 24000000 		.4byte	.LFE8-.LFB8
 2891 0058 00000000 		.4byte	.LFB10
 2892 005c 32000000 		.4byte	.LFE10-.LFB10
 2893 0060 00000000 		.4byte	.LFB9
 2894 0064 0E000000 		.4byte	.LFE9-.LFB9
 2895 0068 00000000 		.4byte	.LFB11
 2896 006c 2E000000 		.4byte	.LFE11-.LFB11
ARM GAS  /tmp/ccnhRAl5.s 			page 52


 2897 0070 00000000 		.4byte	0
 2898 0074 00000000 		.4byte	0
 2899              		.section	.debug_ranges,"",%progbits
 2900              	.Ldebug_ranges0:
 2901 0000 0C000000 		.4byte	.LBB10
 2902 0004 38000000 		.4byte	.LBE10
 2903 0008 3A000000 		.4byte	.LBB21
 2904 000c 4C000000 		.4byte	.LBE21
 2905 0010 00000000 		.4byte	0
 2906 0014 00000000 		.4byte	0
 2907 0018 1E000000 		.4byte	.LBB12
 2908 001c 28000000 		.4byte	.LBE12
 2909 0020 2C000000 		.4byte	.LBB17
 2910 0024 32000000 		.4byte	.LBE17
 2911 0028 34000000 		.4byte	.LBB18
 2912 002c 38000000 		.4byte	.LBE18
 2913 0030 3A000000 		.4byte	.LBB19
 2914 0034 4C000000 		.4byte	.LBE19
 2915 0038 00000000 		.4byte	0
 2916 003c 00000000 		.4byte	0
 2917 0040 00000000 		.4byte	.LFB0
 2918 0044 28000000 		.4byte	.LFE0
 2919 0048 00000000 		.4byte	.LFB1
 2920 004c 4E000000 		.4byte	.LFE1
 2921 0050 00000000 		.4byte	.LFB2
 2922 0054 5A000000 		.4byte	.LFE2
 2923 0058 00000000 		.4byte	.LFB3
 2924 005c 30000000 		.4byte	.LFE3
 2925 0060 00000000 		.4byte	.LFB4
 2926 0064 16000000 		.4byte	.LFE4
 2927 0068 00000000 		.4byte	.LFB5
 2928 006c 16000000 		.4byte	.LFE5
 2929 0070 00000000 		.4byte	.LFB6
 2930 0074 14000000 		.4byte	.LFE6
 2931 0078 00000000 		.4byte	.LFB7
 2932 007c 20000000 		.4byte	.LFE7
 2933 0080 00000000 		.4byte	.LFB8
 2934 0084 24000000 		.4byte	.LFE8
 2935 0088 00000000 		.4byte	.LFB10
 2936 008c 32000000 		.4byte	.LFE10
 2937 0090 00000000 		.4byte	.LFB9
 2938 0094 0E000000 		.4byte	.LFE9
 2939 0098 00000000 		.4byte	.LFB11
 2940 009c 2E000000 		.4byte	.LFE11
 2941 00a0 00000000 		.4byte	0
 2942 00a4 00000000 		.4byte	0
 2943              		.section	.debug_line,"",%progbits
 2944              	.Ldebug_line0:
 2945 0000 CC020000 		.section	.debug_str,"MS",%progbits,1
 2945      02003E01 
 2945      00000201 
 2945      FB0E0D00 
 2945      01010101 
 2946              	.LASF66:
 2947 0000 7466756E 		.ascii	"tfunc_t\000"
 2947      635F7400 
 2948              	.LASF34:
ARM GAS  /tmp/ccnhRAl5.s 			page 53


 2949 0008 705F6D73 		.ascii	"p_msg\000"
 2949      6700
 2950              	.LASF2:
 2951 000e 73697A65 		.ascii	"size_t\000"
 2951      5F7400
 2952              	.LASF67:
 2953 0015 7072696F 		.ascii	"prio\000"
 2953      00
 2954              	.LASF62:
 2955 001a 7264796D 		.ascii	"rdymsg\000"
 2955      736700
 2956              	.LASF3:
 2957 0021 5F5F7569 		.ascii	"__uint8_t\000"
 2957      6E74385F 
 2957      7400
 2958              	.LASF93:
 2959 002b 474E5520 		.ascii	"GNU C 4.8.2 -mcpu=cortex-m3 -mno-thumb-interwork -m"
 2959      4320342E 
 2959      382E3220 
 2959      2D6D6370 
 2959      753D636F 
 2960 005e 7468756D 		.ascii	"thumb -ggdb -O2 -fomit-frame-pointer -falign-functi"
 2960      62202D67 
 2960      67646220 
 2960      2D4F3220 
 2960      2D666F6D 
 2961 0091 6F6E733D 		.ascii	"ons=16 -ffunction-sections -fdata-sections -fno-com"
 2961      3136202D 
 2961      6666756E 
 2961      6374696F 
 2961      6E2D7365 
 2962 00c4 6D6F6E20 		.ascii	"mon -fno-strict-aliasing\000"
 2962      2D666E6F 
 2962      2D737472 
 2962      6963742D 
 2962      616C6961 
 2963              	.LASF84:
 2964 00dd 76746C69 		.ascii	"vtlist\000"
 2964      737400
 2965              	.LASF80:
 2966 00e4 63685468 		.ascii	"chThdExitS\000"
 2966      64457869 
 2966      745300
 2967              	.LASF12:
 2968 00ef 6C6F6E67 		.ascii	"long long unsigned int\000"
 2968      206C6F6E 
 2968      6720756E 
 2968      7369676E 
 2968      65642069 
 2969              	.LASF63:
 2970 0106 65786974 		.ascii	"exitcode\000"
 2970      636F6465 
 2970      00
 2971              	.LASF27:
 2972 010f 705F7072 		.ascii	"p_prio\000"
 2972      696F00
 2973              	.LASF11:
ARM GAS  /tmp/ccnhRAl5.s 			page 54


 2974 0116 6C6F6E67 		.ascii	"long long int\000"
 2974      206C6F6E 
 2974      6720696E 
 2974      7400
 2975              	.LASF1:
 2976 0124 7369676E 		.ascii	"signed char\000"
 2976      65642063 
 2976      68617200 
 2977              	.LASF82:
 2978 0130 63685468 		.ascii	"chThdExit\000"
 2978      64457869 
 2978      7400
 2979              	.LASF59:
 2980 013a 6D5F7175 		.ascii	"m_queue\000"
 2980      65756500 
 2981              	.LASF19:
 2982 0142 74736C69 		.ascii	"tslices_t\000"
 2982      6365735F 
 2982      7400
 2983              	.LASF69:
 2984 014c 63685468 		.ascii	"chThdCreateI\000"
 2984      64437265 
 2984      61746549 
 2984      00
 2985              	.LASF8:
 2986 0159 6C6F6E67 		.ascii	"long int\000"
 2986      20696E74 
 2986      00
 2987              	.LASF18:
 2988 0162 74737461 		.ascii	"tstate_t\000"
 2988      74655F74 
 2988      00
 2989              	.LASF89:
 2990 016b 6C697374 		.ascii	"list_remove\000"
 2990      5F72656D 
 2990      6F766500 
 2991              	.LASF87:
 2992 0177 63685363 		.ascii	"chSchRescheduleS\000"
 2992      68526573 
 2992      63686564 
 2992      756C6553 
 2992      00
 2993              	.LASF9:
 2994 0188 5F5F7569 		.ascii	"__uint32_t\000"
 2994      6E743332 
 2994      5F7400
 2995              	.LASF40:
 2996 0193 72656761 		.ascii	"regarm_t\000"
 2996      726D5F74 
 2996      00
 2997              	.LASF47:
 2998 019c 76745F70 		.ascii	"vt_prev\000"
 2998      72657600 
 2999              	.LASF72:
 3000 01a4 63685468 		.ascii	"chThdSetPriority\000"
 3000      64536574 
 3000      5072696F 
ARM GAS  /tmp/ccnhRAl5.s 			page 55


 3000      72697479 
 3000      00
 3001              	.LASF0:
 3002 01b5 756E7369 		.ascii	"unsigned int\000"
 3002      676E6564 
 3002      20696E74 
 3002      00
 3003              	.LASF46:
 3004 01c2 76745F6E 		.ascii	"vt_next\000"
 3004      65787400 
 3005              	.LASF10:
 3006 01ca 6C6F6E67 		.ascii	"long unsigned int\000"
 3006      20756E73 
 3006      69676E65 
 3006      6420696E 
 3006      7400
 3007              	.LASF44:
 3008 01dc 76746675 		.ascii	"vtfunc_t\000"
 3008      6E635F74 
 3008      00
 3009              	.LASF70:
 3010 01e5 73697A65 		.ascii	"size\000"
 3010      00
 3011              	.LASF6:
 3012 01ea 73686F72 		.ascii	"short unsigned int\000"
 3012      7420756E 
 3012      7369676E 
 3012      65642069 
 3012      6E7400
 3013              	.LASF91:
 3014 01fd 63685363 		.ascii	"chSchWakeupS\000"
 3014      6857616B 
 3014      65757053 
 3014      00
 3015              	.LASF21:
 3016 020a 6D73675F 		.ascii	"msg_t\000"
 3016      7400
 3017              	.LASF73:
 3018 0210 6E657770 		.ascii	"newprio\000"
 3018      72696F00 
 3019              	.LASF17:
 3020 0218 746D6F64 		.ascii	"tmode_t\000"
 3020      655F7400 
 3021              	.LASF75:
 3022 0220 63685468 		.ascii	"chThdTerminate\000"
 3022      64546572 
 3022      6D696E61 
 3022      746500
 3023              	.LASF39:
 3024 022f 54687265 		.ascii	"ThreadsList\000"
 3024      6164734C 
 3024      69737400 
 3025              	.LASF22:
 3026 023b 6576656E 		.ascii	"eventmask_t\000"
 3026      746D6173 
 3026      6B5F7400 
 3027              	.LASF58:
ARM GAS  /tmp/ccnhRAl5.s 			page 56


 3028 0247 4D757465 		.ascii	"Mutex\000"
 3028      7800
 3029              	.LASF81:
 3030 024d 6F6C6470 		.ascii	"oldprio\000"
 3030      72696F00 
 3031              	.LASF71:
 3032 0255 63685468 		.ascii	"chThdCreateStatic\000"
 3032      64437265 
 3032      61746553 
 3032      74617469 
 3032      6300
 3033              	.LASF48:
 3034 0267 76745F74 		.ascii	"vt_time\000"
 3034      696D6500 
 3035              	.LASF43:
 3036 026f 73697A65 		.ascii	"sizetype\000"
 3036      74797065 
 3036      00
 3037              	.LASF49:
 3038 0278 76745F66 		.ascii	"vt_func\000"
 3038      756E6300 
 3039              	.LASF74:
 3040 0280 63685468 		.ascii	"chThdResume\000"
 3040      64526573 
 3040      756D6500 
 3041              	.LASF88:
 3042 028c 63685363 		.ascii	"chSchDoRescheduleBehind\000"
 3042      68446F52 
 3042      65736368 
 3042      6564756C 
 3042      65426568 
 3043              	.LASF52:
 3044 02a4 56544C69 		.ascii	"VTList\000"
 3044      737400
 3045              	.LASF55:
 3046 02ab 725F6374 		.ascii	"r_ctx\000"
 3046      7800
 3047              	.LASF38:
 3048 02b1 54687265 		.ascii	"ThreadsQueue\000"
 3048      61647351 
 3048      75657565 
 3048      00
 3049              	.LASF77:
 3050 02be 74696D65 		.ascii	"time\000"
 3050      00
 3051              	.LASF96:
 3052 02c3 6C697374 		.ascii	"list_insert\000"
 3052      5F696E73 
 3052      65727400 
 3053              	.LASF56:
 3054 02cf 725F6375 		.ascii	"r_current\000"
 3054      7272656E 
 3054      7400
 3055              	.LASF78:
 3056 02d9 63685468 		.ascii	"chThdSleepUntil\000"
 3056      64536C65 
 3056      6570556E 
ARM GAS  /tmp/ccnhRAl5.s 			page 57


 3056      74696C00 
 3057              	.LASF26:
 3058 02e9 705F7072 		.ascii	"p_prev\000"
 3058      657600
 3059              	.LASF94:
 3060 02f0 2E2E2F6F 		.ascii	"../os/kernel/src/chthreads.c\000"
 3060      732F6B65 
 3060      726E656C 
 3060      2F737263 
 3060      2F636874 
 3061              	.LASF20:
 3062 030d 74707269 		.ascii	"tprio_t\000"
 3062      6F5F7400 
 3063              	.LASF16:
 3064 0315 5F426F6F 		.ascii	"_Bool\000"
 3064      6C00
 3065              	.LASF14:
 3066 031b 696E7433 		.ascii	"int32_t\000"
 3066      325F7400 
 3067              	.LASF4:
 3068 0323 756E7369 		.ascii	"unsigned char\000"
 3068      676E6564 
 3068      20636861 
 3068      7200
 3069              	.LASF36:
 3070 0331 705F6D74 		.ascii	"p_mtxlist\000"
 3070      786C6973 
 3070      7400
 3071              	.LASF5:
 3072 033b 73686F72 		.ascii	"short int\000"
 3072      7420696E 
 3072      7400
 3073              	.LASF29:
 3074 0345 705F7374 		.ascii	"p_state\000"
 3074      61746500 
 3075              	.LASF31:
 3076 034d 705F7072 		.ascii	"p_preempt\000"
 3076      65656D70 
 3076      7400
 3077              	.LASF54:
 3078 0357 725F7072 		.ascii	"r_prio\000"
 3078      696F00
 3079              	.LASF65:
 3080 035e 65776D61 		.ascii	"ewmask\000"
 3080      736B00
 3081              	.LASF25:
 3082 0365 705F6E65 		.ascii	"p_next\000"
 3082      787400
 3083              	.LASF30:
 3084 036c 705F666C 		.ascii	"p_flags\000"
 3084      61677300 
 3085              	.LASF24:
 3086 0374 54687265 		.ascii	"Thread\000"
 3086      616400
 3087              	.LASF92:
 3088 037b 63685363 		.ascii	"chSchGoSleepS\000"
 3088      68476F53 
ARM GAS  /tmp/ccnhRAl5.s 			page 58


 3088      6C656570 
 3088      5300
 3089              	.LASF35:
 3090 0389 705F6570 		.ascii	"p_epending\000"
 3090      656E6469 
 3090      6E6700
 3091              	.LASF15:
 3092 0394 75696E74 		.ascii	"uint32_t\000"
 3092      33325F74 
 3092      00
 3093              	.LASF68:
 3094 039d 5F746872 		.ascii	"_thread_init\000"
 3094      6561645F 
 3094      696E6974 
 3094      00
 3095              	.LASF53:
 3096 03aa 725F7175 		.ascii	"r_queue\000"
 3096      65756500 
 3097              	.LASF45:
 3098 03b2 56697274 		.ascii	"VirtualTimer\000"
 3098      75616C54 
 3098      696D6572 
 3098      00
 3099              	.LASF90:
 3100 03bf 63685363 		.ascii	"chSchReadyI\000"
 3100      68526561 
 3100      64794900 
 3101              	.LASF95:
 3102 03cb 2F686F6D 		.ascii	"/home/dltech/gdrive/Projects/RFM_to_Modbus_TCP/Chib"
 3102      652F646C 
 3102      74656368 
 3102      2F676472 
 3102      6976652F 
 3103 03fe 694F532F 		.ascii	"iOS/F103_ChibiOS_ENC60J28/main\000"
 3103      46313033 
 3103      5F436869 
 3103      62694F53 
 3103      5F454E43 
 3104              	.LASF61:
 3105 041d 6D5F6E65 		.ascii	"m_next\000"
 3105      787400
 3106              	.LASF23:
 3107 0424 73797374 		.ascii	"systime_t\000"
 3107      696D655F 
 3107      7400
 3108              	.LASF37:
 3109 042e 705F7265 		.ascii	"p_realprio\000"
 3109      616C7072 
 3109      696F00
 3110              	.LASF7:
 3111 0439 5F5F696E 		.ascii	"__int32_t\000"
 3111      7433325F 
 3111      7400
 3112              	.LASF42:
 3113 0443 636F6E74 		.ascii	"context\000"
 3113      65787400 
 3114              	.LASF41:
ARM GAS  /tmp/ccnhRAl5.s 			page 59


 3115 044b 696E7463 		.ascii	"intctx\000"
 3115      747800
 3116              	.LASF33:
 3117 0452 705F6D73 		.ascii	"p_msgqueue\000"
 3117      67717565 
 3117      756500
 3118              	.LASF83:
 3119 045d 63685468 		.ascii	"chThdWait\000"
 3119      64576169 
 3119      7400
 3120              	.LASF50:
 3121 0467 76745F70 		.ascii	"vt_par\000"
 3121      617200
 3122              	.LASF76:
 3123 046e 63685468 		.ascii	"chThdSleep\000"
 3123      64536C65 
 3123      657000
 3124              	.LASF57:
 3125 0479 52656164 		.ascii	"ReadyList\000"
 3125      794C6973 
 3125      7400
 3126              	.LASF85:
 3127 0483 726C6973 		.ascii	"rlist\000"
 3127      7400
 3128              	.LASF13:
 3129 0489 75696E74 		.ascii	"uint8_t\000"
 3129      385F7400 
 3130              	.LASF79:
 3131 0491 63685468 		.ascii	"chThdYield\000"
 3131      64596965 
 3131      6C6400
 3132              	.LASF64:
 3133 049c 77746F62 		.ascii	"wtobjp\000"
 3133      6A7000
 3134              	.LASF51:
 3135 04a3 76745F73 		.ascii	"vt_systime\000"
 3135      79737469 
 3135      6D6500
 3136              	.LASF86:
 3137 04ae 63685363 		.ascii	"chSchGoSleepTimeoutS\000"
 3137      68476F53 
 3137      6C656570 
 3137      54696D65 
 3137      6F757453 
 3138              	.LASF60:
 3139 04c3 6D5F6F77 		.ascii	"m_owner\000"
 3139      6E657200 
 3140              	.LASF28:
 3141 04cb 705F6374 		.ascii	"p_ctx\000"
 3141      7800
 3142              	.LASF32:
 3143 04d1 705F7761 		.ascii	"p_waiting\000"
 3143      6974696E 
 3143      6700
 3144              		.ident	"GCC: (4.8.2-14ubuntu1+6) 4.8.2"
ARM GAS  /tmp/ccnhRAl5.s 			page 60


DEFINED SYMBOLS
                            *ABS*:0000000000000000 chthreads.c
     /tmp/ccnhRAl5.s:19     .text._thread_init:0000000000000000 $t
     /tmp/ccnhRAl5.s:25     .text._thread_init:0000000000000000 _thread_init
     /tmp/ccnhRAl5.s:76     .text.chThdCreateI:0000000000000000 $t
     /tmp/ccnhRAl5.s:82     .text.chThdCreateI:0000000000000000 chThdCreateI
     /tmp/ccnhRAl5.s:159    .text.chThdCreateStatic:0000000000000000 $t
     /tmp/ccnhRAl5.s:165    .text.chThdCreateStatic:0000000000000000 chThdCreateStatic
     /tmp/ccnhRAl5.s:280    .text.chThdSetPriority:0000000000000000 $t
     /tmp/ccnhRAl5.s:286    .text.chThdSetPriority:0000000000000000 chThdSetPriority
     /tmp/ccnhRAl5.s:340    .text.chThdResume:0000000000000000 $t
     /tmp/ccnhRAl5.s:346    .text.chThdResume:0000000000000000 chThdResume
     /tmp/ccnhRAl5.s:380    .text.chThdTerminate:0000000000000000 $t
     /tmp/ccnhRAl5.s:386    .text.chThdTerminate:0000000000000000 chThdTerminate
     /tmp/ccnhRAl5.s:415    .text.chThdSleep:0000000000000000 $t
     /tmp/ccnhRAl5.s:421    .text.chThdSleep:0000000000000000 chThdSleep
     /tmp/ccnhRAl5.s:454    .text.chThdSleepUntil:0000000000000000 $t
     /tmp/ccnhRAl5.s:460    .text.chThdSleepUntil:0000000000000000 chThdSleepUntil
     /tmp/ccnhRAl5.s:499    .text.chThdYield:0000000000000000 $t
     /tmp/ccnhRAl5.s:505    .text.chThdYield:0000000000000000 chThdYield
     /tmp/ccnhRAl5.s:543    .text.chThdExitS:0000000000000000 $t
     /tmp/ccnhRAl5.s:549    .text.chThdExitS:0000000000000000 chThdExitS
     /tmp/ccnhRAl5.s:600    .text.chThdExit:0000000000000000 $t
     /tmp/ccnhRAl5.s:606    .text.chThdExit:0000000000000000 chThdExit
     /tmp/ccnhRAl5.s:630    .text.chThdWait:0000000000000000 $t
     /tmp/ccnhRAl5.s:636    .text.chThdWait:0000000000000000 chThdWait
                     .debug_frame:0000000000000010 $d

UNDEFINED SYMBOLS
_port_thread_start
_port_lock
chSchWakeupS
_port_unlock
rlist
chSchRescheduleS
chSchGoSleepTimeoutS
vtlist
chSchDoRescheduleBehind
list_remove
chSchReadyI
chSchGoSleepS
list_insert
