ARM GAS  /tmp/ccnhRAl5.s 			page 1


   1              		.syntax unified
   2              		.cpu cortex-m3
   3              		.fpu softvfp
   4              		.eabi_attribute 20, 1
   5              		.eabi_attribute 21, 1
   6              		.eabi_attribute 23, 3
   7              		.eabi_attribute 24, 1
   8              		.eabi_attribute 25, 1
   9              		.eabi_attribute 26, 1
  10              		.eabi_attribute 30, 2
  11              		.eabi_attribute 34, 1
  12              		.eabi_attribute 18, 4
  13              		.thumb
  14              		.file	"chthreads.c"
  15              		.text
  16              	.Ltext0:
  17              		.cfi_sections	.debug_frame
  18              		.section	.text._thread_init,"ax",%progbits
  19              		.align	2
  20              		.p2align 4,,15
  21              		.global	_thread_init
  22              		.thumb
  23              		.thumb_func
  24              		.type	_thread_init, %function
  25              	_thread_init:
  26              	.LFB0:
  27              		.file 1 "../os/kernel/src/chthreads.c"
  28              		.loc 1 76 0
  29              		.cfi_startproc
  30              		@ args = 0, pretend = 0, frame = 0
  31              		@ frame_needed = 0, uses_anonymous_args = 0
  32              		@ link register save eliminated.
  33              	.LVL0:
  34 0000 F0B4     		push	{r4, r5, r6, r7}
  35              		.cfi_def_cfa_offset 16
  36              		.cfi_offset 4, -16
  37              		.cfi_offset 5, -12
  38              		.cfi_offset 6, -8
  39              		.cfi_offset 7, -4
  40              		.loc 1 105 0
  41 0002 00F11C04 		add	r4, r0, #28
  42              		.loc 1 80 0
  43 0006 0022     		movs	r2, #0
  44              		.loc 1 79 0
  45 0008 0227     		movs	r7, #2
  46              		.loc 1 82 0
  47 000a 1426     		movs	r6, #20
  48              		.loc 1 102 0
  49 000c 00F11805 		add	r5, r0, #24
  50              		.loc 1 79 0
  51 0010 0774     		strb	r7, [r0, #16]
  52              		.loc 1 82 0
  53 0012 8674     		strb	r6, [r0, #18]
  54              		.loc 1 102 0
  55 0014 8561     		str	r5, [r0, #24]
  56              		.loc 1 105 0
  57 0016 0462     		str	r4, [r0, #32]
ARM GAS  /tmp/ccnhRAl5.s 			page 2


  58 0018 C461     		str	r4, [r0, #28]
  59              		.loc 1 78 0
  60 001a 8160     		str	r1, [r0, #8]
  61              		.loc 1 85 0
  62 001c 0163     		str	r1, [r0, #48]
  63              		.loc 1 80 0
  64 001e 4274     		strb	r2, [r0, #17]
  65              		.loc 1 86 0
  66 0020 C262     		str	r2, [r0, #44]
  67              		.loc 1 89 0
  68 0022 8262     		str	r2, [r0, #40]
  69              		.loc 1 114 0
  70 0024 F0BC     		pop	{r4, r5, r6, r7}
  71 0026 7047     		bx	lr
  72              		.cfi_endproc
  73              	.LFE0:
  74              		.size	_thread_init, .-_thread_init
  75 0028 AFF30080 		.section	.text.chThdCreateI,"ax",%progbits
  75      AFF30080 
  76              		.align	2
  77              		.p2align 4,,15
  78              		.global	chThdCreateI
  79              		.thumb
  80              		.thumb_func
  81              		.type	chThdCreateI, %function
  82              	chThdCreateI:
  83              	.LFB1:
  84              		.loc 1 158 0
  85              		.cfi_startproc
  86              		@ args = 4, pretend = 0, frame = 0
  87              		@ frame_needed = 0, uses_anonymous_args = 0
  88              		@ link register save eliminated.
  89              	.LVL1:
  90              		.loc 1 167 0
  91 0000 2439     		subs	r1, r1, #36
  92              	.LVL2:
  93              		.loc 1 158 0
  94 0002 2DE9F001 		push	{r4, r5, r6, r7, r8}
  95              		.cfi_def_cfa_offset 20
  96              		.cfi_offset 4, -20
  97              		.cfi_offset 5, -16
  98              		.cfi_offset 6, -12
  99              		.cfi_offset 7, -8
 100              		.cfi_offset 8, -4
 101              		.loc 1 167 0
 102 0006 4518     		adds	r5, r0, r1
 103 0008 C560     		str	r5, [r0, #12]
 104 000a 4350     		str	r3, [r0, r1]
 105 000c C168     		ldr	r1, [r0, #12]
 106              	.LVL3:
 107              		.loc 1 158 0
 108 000e 059D     		ldr	r5, [sp, #20]
 109              		.loc 1 167 0
 110 0010 40F20003 		movw	r3, #:lower16:_port_thread_start
 111              	.LVL4:
 112 0014 4D60     		str	r5, [r1, #4]
 113              	.LVL5:
ARM GAS  /tmp/ccnhRAl5.s 			page 3


 114 0016 C668     		ldr	r6, [r0, #12]
 115 0018 C0F20003 		movt	r3, #:upper16:_port_thread_start
 116 001c 3362     		str	r3, [r6, #32]
 117              	.LVL6:
 118              	.LBB8:
 119              	.LBB9:
 120              		.loc 1 105 0
 121 001e 00F11C05 		add	r5, r0, #28
 122              		.loc 1 80 0
 123 0022 0021     		movs	r1, #0
 124              		.loc 1 79 0
 125 0024 4FF00208 		mov	r8, #2
 126              		.loc 1 102 0
 127 0028 00F11807 		add	r7, r0, #24
 128              		.loc 1 82 0
 129 002c 4FF0140C 		mov	ip, #20
 130              		.loc 1 79 0
 131 0030 80F81080 		strb	r8, [r0, #16]
 132              		.loc 1 102 0
 133 0034 8761     		str	r7, [r0, #24]
 134              		.loc 1 105 0
 135 0036 0562     		str	r5, [r0, #32]
 136 0038 C561     		str	r5, [r0, #28]
 137              		.loc 1 78 0
 138 003a 8260     		str	r2, [r0, #8]
 139              		.loc 1 85 0
 140 003c 0263     		str	r2, [r0, #48]
 141              		.loc 1 82 0
 142 003e 80F812C0 		strb	ip, [r0, #18]
 143              		.loc 1 80 0
 144 0042 4174     		strb	r1, [r0, #17]
 145              		.loc 1 86 0
 146 0044 C162     		str	r1, [r0, #44]
 147              		.loc 1 89 0
 148 0046 8162     		str	r1, [r0, #40]
 149              	.LBE9:
 150              	.LBE8:
 151              		.loc 1 169 0
 152 0048 BDE8F001 		pop	{r4, r5, r6, r7, r8}
 153              	.LVL7:
 154 004c 7047     		bx	lr
 155              		.cfi_endproc
 156              	.LFE1:
 157              		.size	chThdCreateI, .-chThdCreateI
 158 004e 00BF     		.section	.text.chThdCreateStatic,"ax",%progbits
 159              		.align	2
 160              		.p2align 4,,15
 161              		.global	chThdCreateStatic
 162              		.thumb
 163              		.thumb_func
 164              		.type	chThdCreateStatic, %function
 165              	chThdCreateStatic:
 166              	.LFB2:
 167              		.loc 1 188 0
 168              		.cfi_startproc
 169              		@ args = 4, pretend = 0, frame = 0
 170              		@ frame_needed = 0, uses_anonymous_args = 0
ARM GAS  /tmp/ccnhRAl5.s 			page 4


 171              	.LVL8:
 172 0000 F8B5     		push	{r3, r4, r5, r6, r7, lr}
 173              		.cfi_def_cfa_offset 24
 174              		.cfi_offset 3, -24
 175              		.cfi_offset 4, -20
 176              		.cfi_offset 5, -16
 177              		.cfi_offset 6, -12
 178              		.cfi_offset 7, -8
 179              		.cfi_offset 14, -4
 180              		.loc 1 188 0
 181 0002 0446     		mov	r4, r0
 182 0004 1D46     		mov	r5, r3
 183 0006 0698     		ldr	r0, [sp, #24]
 184              	.LVL9:
 185              		.loc 1 199 0
 186              	@ 199 "../os/kernel/src/chthreads.c" 1
 187 0008 FFF7FEFF 		bl      _port_lock
 188              	@ 0 "" 2
 189              	.LVL10:
 190              		.thumb
 191              	.LBB10:
 192              	.LBB11:
 193              		.loc 1 167 0
 194 000c 2439     		subs	r1, r1, #36
 195              	.LVL11:
 196 000e 6318     		adds	r3, r4, r1
 197 0010 E360     		str	r3, [r4, #12]
 198 0012 6550     		str	r5, [r4, r1]
 199 0014 E368     		ldr	r3, [r4, #12]
 200 0016 40F20001 		movw	r1, #:lower16:_port_thread_start
 201              	.LVL12:
 202 001a 5860     		str	r0, [r3, #4]
 203 001c E568     		ldr	r5, [r4, #12]
 204              	.LVL13:
 205              	.LBB12:
 206              	.LBB13:
 207              		.loc 1 80 0
 208 001e 0023     		movs	r3, #0
 209              		.loc 1 105 0
 210 0020 04F11C00 		add	r0, r4, #28
 211              	.LVL14:
 212              		.loc 1 79 0
 213 0024 4FF0020E 		mov	lr, #2
 214              	.LBE13:
 215              	.LBE12:
 216              		.loc 1 167 0
 217 0028 C0F20001 		movt	r1, #:upper16:_port_thread_start
 218              	.LBB17:
 219              	.LBB14:
 220              		.loc 1 82 0
 221 002c 1427     		movs	r7, #20
 222              		.loc 1 102 0
 223 002e 04F11806 		add	r6, r4, #24
 224              	.LBE14:
 225              	.LBE17:
 226              		.loc 1 167 0
 227 0032 2962     		str	r1, [r5, #32]
ARM GAS  /tmp/ccnhRAl5.s 			page 5


 228              	.LVL15:
 229              	.LBB18:
 230              	.LBB15:
 231              		.loc 1 105 0
 232 0034 2062     		str	r0, [r4, #32]
 233 0036 E061     		str	r0, [r4, #28]
 234              	.LBE15:
 235              	.LBE18:
 236              	.LBE11:
 237              	.LBE10:
 238              		.loc 1 200 0
 239 0038 1946     		mov	r1, r3
 240              	.LBB21:
 241              	.LBB20:
 242              	.LBB19:
 243              	.LBB16:
 244              		.loc 1 78 0
 245 003a A260     		str	r2, [r4, #8]
 246              		.loc 1 85 0
 247 003c 2263     		str	r2, [r4, #48]
 248              		.loc 1 79 0
 249 003e 84F810E0 		strb	lr, [r4, #16]
 250              		.loc 1 82 0
 251 0042 A774     		strb	r7, [r4, #18]
 252              		.loc 1 102 0
 253 0044 A661     		str	r6, [r4, #24]
 254              		.loc 1 80 0
 255 0046 6374     		strb	r3, [r4, #17]
 256              		.loc 1 86 0
 257 0048 E362     		str	r3, [r4, #44]
 258              		.loc 1 89 0
 259 004a A362     		str	r3, [r4, #40]
 260              	.LBE16:
 261              	.LBE19:
 262              	.LBE20:
 263              	.LBE21:
 264              		.loc 1 200 0
 265 004c 2046     		mov	r0, r4
 266 004e FFF7FEFF 		bl	chSchWakeupS
 267              	.LVL16:
 268              		.loc 1 201 0
 269              	@ 201 "../os/kernel/src/chthreads.c" 1
 270 0052 FFF7FEFF 		bl      _port_unlock
 271              	@ 0 "" 2
 272              		.loc 1 203 0
 273              		.thumb
 274 0056 2046     		mov	r0, r4
 275 0058 F8BD     		pop	{r3, r4, r5, r6, r7, pc}
 276              		.cfi_endproc
 277              	.LFE2:
 278              		.size	chThdCreateStatic, .-chThdCreateStatic
 279 005a 00BFAFF3 		.section	.text.chThdSetPriority,"ax",%progbits
 279      0080
 280              		.align	2
 281              		.p2align 4,,15
 282              		.global	chThdSetPriority
 283              		.thumb
ARM GAS  /tmp/ccnhRAl5.s 			page 6


 284              		.thumb_func
 285              		.type	chThdSetPriority, %function
 286              	chThdSetPriority:
 287              	.LFB3:
 288              		.loc 1 217 0
 289              		.cfi_startproc
 290              		@ args = 0, pretend = 0, frame = 0
 291              		@ frame_needed = 0, uses_anonymous_args = 0
 292              	.LVL17:
 293 0000 10B5     		push	{r4, lr}
 294              		.cfi_def_cfa_offset 8
 295              		.cfi_offset 4, -8
 296              		.cfi_offset 14, -4
 297              		.loc 1 217 0
 298 0002 0146     		mov	r1, r0
 299              		.loc 1 222 0
 300              	@ 222 "../os/kernel/src/chthreads.c" 1
 301 0004 FFF7FEFF 		bl      _port_lock
 302              	@ 0 "" 2
 303              		.loc 1 224 0
 304              		.thumb
 305 0008 40F20002 		movw	r2, #:lower16:rlist
 306 000c C0F20002 		movt	r2, #:upper16:rlist
 307 0010 1369     		ldr	r3, [r2, #16]
 308 0012 1C6B     		ldr	r4, [r3, #48]
 309              	.LVL18:
 310              		.loc 1 225 0
 311 0014 9868     		ldr	r0, [r3, #8]
 312              	.LVL19:
 313 0016 8442     		cmp	r4, r0
 314 0018 01D0     		beq	.L5
 315              		.loc 1 225 0 is_stmt 0 discriminator 1
 316 001a 8842     		cmp	r0, r1
 317 001c 01D2     		bcs	.L6
 318              	.L5:
 319              		.loc 1 226 0 is_stmt 1
 320 001e 9960     		str	r1, [r3, #8]
 321 0020 1369     		ldr	r3, [r2, #16]
 322              	.L6:
 323              		.loc 1 227 0
 324 0022 1963     		str	r1, [r3, #48]
 325              		.loc 1 232 0
 326 0024 FFF7FEFF 		bl	chSchRescheduleS
 327              	.LVL20:
 328              		.loc 1 233 0
 329              	@ 233 "../os/kernel/src/chthreads.c" 1
 330 0028 FFF7FEFF 		bl      _port_unlock
 331              	@ 0 "" 2
 332              		.loc 1 235 0
 333              		.thumb
 334 002c 2046     		mov	r0, r4
 335 002e 10BD     		pop	{r4, pc}
 336              		.cfi_endproc
 337              	.LFE3:
 338              		.size	chThdSetPriority, .-chThdSetPriority
 339              		.section	.text.chThdResume,"ax",%progbits
 340              		.align	2
ARM GAS  /tmp/ccnhRAl5.s 			page 7


 341              		.p2align 4,,15
 342              		.global	chThdResume
 343              		.thumb
 344              		.thumb_func
 345              		.type	chThdResume, %function
 346              	chThdResume:
 347              	.LFB4:
 348              		.loc 1 250 0
 349              		.cfi_startproc
 350              		@ args = 0, pretend = 0, frame = 0
 351              		@ frame_needed = 0, uses_anonymous_args = 0
 352              	.LVL21:
 353 0000 10B5     		push	{r4, lr}
 354              		.cfi_def_cfa_offset 8
 355              		.cfi_offset 4, -8
 356              		.cfi_offset 14, -4
 357              		.loc 1 250 0
 358 0002 0446     		mov	r4, r0
 359              		.loc 1 252 0
 360              	@ 252 "../os/kernel/src/chthreads.c" 1
 361 0004 FFF7FEFF 		bl      _port_lock
 362              	@ 0 "" 2
 363              		.loc 1 256 0
 364              		.thumb
 365 0008 0021     		movs	r1, #0
 366 000a FFF7FEFF 		bl	chSchWakeupS
 367              	.LVL22:
 368              		.loc 1 257 0
 369              	@ 257 "../os/kernel/src/chthreads.c" 1
 370 000e FFF7FEFF 		bl      _port_unlock
 371              	@ 0 "" 2
 372              		.loc 1 259 0
 373              		.thumb
 374 0012 2046     		mov	r0, r4
 375 0014 10BD     		pop	{r4, pc}
 376              		.cfi_endproc
 377              	.LFE4:
 378              		.size	chThdResume, .-chThdResume
 379 0016 00BFAFF3 		.section	.text.chThdTerminate,"ax",%progbits
 379      0080AFF3 
 379      0080
 380              		.align	2
 381              		.p2align 4,,15
 382              		.global	chThdTerminate
 383              		.thumb
 384              		.thumb_func
 385              		.type	chThdTerminate, %function
 386              	chThdTerminate:
 387              	.LFB5:
 388              		.loc 1 273 0
 389              		.cfi_startproc
 390              		@ args = 0, pretend = 0, frame = 0
 391              		@ frame_needed = 0, uses_anonymous_args = 0
 392              	.LVL23:
 393 0000 00B5     		push	{lr}
 394              		.cfi_def_cfa_offset 4
 395              		.cfi_offset 14, -4
ARM GAS  /tmp/ccnhRAl5.s 			page 8


 396              		.loc 1 275 0
 397              	@ 275 "../os/kernel/src/chthreads.c" 1
 398 0002 FFF7FEFF 		bl      _port_lock
 399              	@ 0 "" 2
 400              		.loc 1 276 0
 401              		.thumb
 402 0006 437C     		ldrb	r3, [r0, #17]	@ zero_extendqisi2
 403 0008 43F00403 		orr	r3, r3, #4
 404 000c 4374     		strb	r3, [r0, #17]
 405              		.loc 1 277 0
 406              	@ 277 "../os/kernel/src/chthreads.c" 1
 407 000e FFF7FEFF 		bl      _port_unlock
 408              	@ 0 "" 2
 409              		.thumb
 410 0012 5DF804FB 		ldr	pc, [sp], #4
 411              		.cfi_endproc
 412              	.LFE5:
 413              		.size	chThdTerminate, .-chThdTerminate
 414 0016 00BFAFF3 		.section	.text.chThdSleep,"ax",%progbits
 414      0080AFF3 
 414      0080
 415              		.align	2
 416              		.p2align 4,,15
 417              		.global	chThdSleep
 418              		.thumb
 419              		.thumb_func
 420              		.type	chThdSleep, %function
 421              	chThdSleep:
 422              	.LFB6:
 423              		.loc 1 292 0
 424              		.cfi_startproc
 425              		@ args = 0, pretend = 0, frame = 0
 426              		@ frame_needed = 0, uses_anonymous_args = 0
 427              	.LVL24:
 428 0000 08B5     		push	{r3, lr}
 429              		.cfi_def_cfa_offset 8
 430              		.cfi_offset 3, -8
 431              		.cfi_offset 14, -4
 432              		.loc 1 292 0
 433 0002 0146     		mov	r1, r0
 434              		.loc 1 296 0
 435              	@ 296 "../os/kernel/src/chthreads.c" 1
 436 0004 FFF7FEFF 		bl      _port_lock
 437              	@ 0 "" 2
 438              		.loc 1 297 0
 439              		.thumb
 440 0008 0620     		movs	r0, #6
 441              	.LVL25:
 442 000a FFF7FEFF 		bl	chSchGoSleepTimeoutS
 443              	.LVL26:
 444              		.loc 1 298 0
 445              	@ 298 "../os/kernel/src/chthreads.c" 1
 446 000e FFF7FEFF 		bl      _port_unlock
 447              	@ 0 "" 2
 448              		.thumb
 449 0012 08BD     		pop	{r3, pc}
 450              		.cfi_endproc
ARM GAS  /tmp/ccnhRAl5.s 			page 9


 451              	.LFE6:
 452              		.size	chThdSleep, .-chThdSleep
 453              		.section	.text.chThdSleepUntil,"ax",%progbits
 454              		.align	2
 455              		.p2align 4,,15
 456              		.global	chThdSleepUntil
 457              		.thumb
 458              		.thumb_func
 459              		.type	chThdSleepUntil, %function
 460              	chThdSleepUntil:
 461              	.LFB7:
 462              		.loc 1 309 0
 463              		.cfi_startproc
 464              		@ args = 0, pretend = 0, frame = 0
 465              		@ frame_needed = 0, uses_anonymous_args = 0
 466              	.LVL27:
 467 0000 08B5     		push	{r3, lr}
 468              		.cfi_def_cfa_offset 8
 469              		.cfi_offset 3, -8
 470              		.cfi_offset 14, -4
 471              		.loc 1 311 0
 472              	@ 311 "../os/kernel/src/chthreads.c" 1
 473 0002 FFF7FEFF 		bl      _port_lock
 474              	@ 0 "" 2
 475              		.loc 1 312 0
 476              		.thumb
 477 0006 40F20003 		movw	r3, #:lower16:vtlist
 478 000a C0F20003 		movt	r3, #:upper16:vtlist
 479 000e D968     		ldr	r1, [r3, #12]
 480              	.LVL28:
 481 0010 411A     		subs	r1, r0, r1
 482              	.LVL29:
 483 0012 02D0     		beq	.L12
 484              		.loc 1 313 0
 485 0014 0620     		movs	r0, #6
 486 0016 FFF7FEFF 		bl	chSchGoSleepTimeoutS
 487              	.LVL30:
 488              	.L12:
 489              		.loc 1 314 0
 490              	@ 314 "../os/kernel/src/chthreads.c" 1
 491 001a FFF7FEFF 		bl      _port_unlock
 492              	@ 0 "" 2
 493              		.thumb
 494 001e 08BD     		pop	{r3, pc}
 495              		.cfi_endproc
 496              	.LFE7:
 497              		.size	chThdSleepUntil, .-chThdSleepUntil
 498              		.section	.text.chThdYield,"ax",%progbits
 499              		.align	2
 500              		.p2align 4,,15
 501              		.global	chThdYield
 502              		.thumb
 503              		.thumb_func
 504              		.type	chThdYield, %function
 505              	chThdYield:
 506              	.LFB8:
 507              		.loc 1 324 0
ARM GAS  /tmp/ccnhRAl5.s 			page 10


 508              		.cfi_startproc
 509              		@ args = 0, pretend = 0, frame = 0
 510              		@ frame_needed = 0, uses_anonymous_args = 0
 511 0000 08B5     		push	{r3, lr}
 512              		.cfi_def_cfa_offset 8
 513              		.cfi_offset 3, -8
 514              		.cfi_offset 14, -4
 515              		.loc 1 326 0
 516              	@ 326 "../os/kernel/src/chthreads.c" 1
 517 0002 FFF7FEFF 		bl      _port_lock
 518              	@ 0 "" 2
 519              		.loc 1 327 0
 520              		.thumb
 521 0006 40F20003 		movw	r3, #:lower16:rlist
 522 000a C0F20003 		movt	r3, #:upper16:rlist
 523 000e 1A68     		ldr	r2, [r3]
 524 0010 1B69     		ldr	r3, [r3, #16]
 525 0012 9268     		ldr	r2, [r2, #8]
 526 0014 9B68     		ldr	r3, [r3, #8]
 527 0016 9A42     		cmp	r2, r3
 528 0018 01D3     		bcc	.L17
 529              		.loc 1 327 0 is_stmt 0 discriminator 1
 530 001a FFF7FEFF 		bl	chSchDoRescheduleBehind
 531              	.LVL31:
 532              	.L17:
 533              		.loc 1 328 0 is_stmt 1
 534              	@ 328 "../os/kernel/src/chthreads.c" 1
 535 001e FFF7FEFF 		bl      _port_unlock
 536              	@ 0 "" 2
 537              		.thumb
 538 0022 08BD     		pop	{r3, pc}
 539              		.cfi_endproc
 540              	.LFE8:
 541              		.size	chThdYield, .-chThdYield
 542 0024 AFF30080 		.section	.text.chThdExitS,"ax",%progbits
 542      AFF30080 
 542      AFF30080 
 543              		.align	2
 544              		.p2align 4,,15
 545              		.global	chThdExitS
 546              		.thumb
 547              		.thumb_func
 548              		.type	chThdExitS, %function
 549              	chThdExitS:
 550              	.LFB10:
 551              		.loc 1 366 0
 552              		.cfi_startproc
 553              		@ args = 0, pretend = 0, frame = 0
 554              		@ frame_needed = 0, uses_anonymous_args = 0
 555              	.LVL32:
 556 0000 38B5     		push	{r3, r4, r5, lr}
 557              		.cfi_def_cfa_offset 16
 558              		.cfi_offset 3, -16
 559              		.cfi_offset 4, -12
 560              		.cfi_offset 5, -8
 561              		.cfi_offset 14, -4
 562              		.loc 1 367 0
ARM GAS  /tmp/ccnhRAl5.s 			page 11


 563 0002 40F20003 		movw	r3, #:lower16:rlist
 564 0006 C0F20003 		movt	r3, #:upper16:rlist
 565 000a 1D69     		ldr	r5, [r3, #16]
 566              	.LVL33:
 567              		.loc 1 374 0
 568 000c AB69     		ldr	r3, [r5, #24]
 569 000e 05F11804 		add	r4, r5, #24
 570 0012 A342     		cmp	r3, r4
 571              		.loc 1 369 0
 572 0014 6861     		str	r0, [r5, #20]
 573              		.loc 1 374 0
 574 0016 07D0     		beq	.L20
 575              	.LVL34:
 576              	.L21:
 577              		.loc 1 375 0
 578 0018 2046     		mov	r0, r4
 579 001a FFF7FEFF 		bl	list_remove
 580              	.LVL35:
 581 001e FFF7FEFF 		bl	chSchReadyI
 582              	.LVL36:
 583              		.loc 1 374 0
 584 0022 AB69     		ldr	r3, [r5, #24]
 585 0024 A342     		cmp	r3, r4
 586 0026 F7D1     		bne	.L21
 587              	.L20:
 588              		.loc 1 383 0
 589 0028 0E20     		movs	r0, #14
 590              		.loc 1 386 0
 591 002a BDE83840 		pop	{r3, r4, r5, lr}
 592              	.LVL37:
 593              		.loc 1 383 0
 594 002e FFF7FEBF 		b	chSchGoSleepS
 595              	.LVL38:
 596              		.cfi_endproc
 597              	.LFE10:
 598              		.size	chThdExitS, .-chThdExitS
 599 0032 00BFAFF3 		.section	.text.chThdExit,"ax",%progbits
 599      0080AFF3 
 599      0080AFF3 
 599      0080
 600              		.align	2
 601              		.p2align 4,,15
 602              		.global	chThdExit
 603              		.thumb
 604              		.thumb_func
 605              		.type	chThdExit, %function
 606              	chThdExit:
 607              	.LFB9:
 608              		.loc 1 345 0
 609              		.cfi_startproc
 610              		@ args = 0, pretend = 0, frame = 0
 611              		@ frame_needed = 0, uses_anonymous_args = 0
 612              	.LVL39:
 613 0000 00B5     		push	{lr}
 614              		.cfi_def_cfa_offset 4
 615              		.cfi_offset 14, -4
 616              		.loc 1 347 0
ARM GAS  /tmp/ccnhRAl5.s 			page 12


 617              	@ 347 "../os/kernel/src/chthreads.c" 1
 618 0002 FFF7FEFF 		bl      _port_lock
 619              	@ 0 "" 2
 620              		.loc 1 350 0
 621              		.thumb
 622 0006 5DF804EB 		ldr	lr, [sp], #4
 623              		.loc 1 348 0
 624 000a FFF7FEBF 		b	chThdExitS
 625              	.LVL40:
 626              		.cfi_endproc
 627              	.LFE9:
 628              		.size	chThdExit, .-chThdExit
 629 000e 00BF     		.section	.text.chThdWait,"ax",%progbits
 630              		.align	2
 631              		.p2align 4,,15
 632              		.global	chThdWait
 633              		.thumb
 634              		.thumb_func
 635              		.type	chThdWait, %function
 636              	chThdWait:
 637              	.LFB11:
 638              		.loc 1 420 0
 639              		.cfi_startproc
 640              		@ args = 0, pretend = 0, frame = 0
 641              		@ frame_needed = 0, uses_anonymous_args = 0
 642              	.LVL41:
 643 0000 10B5     		push	{r4, lr}
 644              		.cfi_def_cfa_offset 8
 645              		.cfi_offset 4, -8
 646              		.cfi_offset 14, -4
 647              		.loc 1 420 0
 648 0002 0446     		mov	r4, r0
 649              		.loc 1 425 0
 650              	@ 425 "../os/kernel/src/chthreads.c" 1
 651 0004 FFF7FEFF 		bl      _port_lock
 652              	@ 0 "" 2
 653              		.loc 1 430 0
 654              		.thumb
 655 0008 037C     		ldrb	r3, [r0, #16]	@ zero_extendqisi2
 656 000a 0E2B     		cmp	r3, #14
 657 000c 0BD0     		beq	.L24
 658              		.loc 1 431 0
 659 000e 40F20003 		movw	r3, #:lower16:rlist
 660 0012 C0F20003 		movt	r3, #:upper16:rlist
 661 0016 1869     		ldr	r0, [r3, #16]
 662              	.LVL42:
 663 0018 04F11801 		add	r1, r4, #24
 664 001c FFF7FEFF 		bl	list_insert
 665              	.LVL43:
 666              		.loc 1 432 0
 667 0020 0720     		movs	r0, #7
 668 0022 FFF7FEFF 		bl	chSchGoSleepS
 669              	.LVL44:
 670              	.L24:
 671              		.loc 1 434 0
 672 0026 6069     		ldr	r0, [r4, #20]
 673              	.LVL45:
ARM GAS  /tmp/ccnhRAl5.s 			page 13


 674              		.loc 1 435 0
 675              	@ 435 "../os/kernel/src/chthreads.c" 1
 676 0028 FFF7FEFF 		bl      _port_unlock
 677              	@ 0 "" 2
 678              		.loc 1 440 0
 679              		.thumb
 680 002c 10BD     		pop	{r4, pc}
 681              		.cfi_endproc
 682              	.LFE11:
 683              		.size	chThdWait, .-chThdWait
 684 002e 00BF     		.text
 685              	.Letext0:
 686              		.file 2 "/usr/lib/gcc/arm-none-eabi/4.8.2/include/stddef.h"
 687              		.file 3 "/usr/include/newlib/machine/_default_types.h"
 688              		.file 4 "/usr/include/newlib/stdint.h"
 689              		.file 5 "../os/ports/GCC/ARMCMx/chtypes.h"
 690              		.file 6 "../os/kernel/include/chlists.h"
 691              		.file 7 "../os/kernel/include/chthreads.h"
 692              		.file 8 "../os/ports/GCC/ARMCMx/chcore_v7m.h"
 693              		.file 9 "../os/kernel/include/chvt.h"
 694              		.file 10 "../os/kernel/include/chschd.h"
 695              		.file 11 "../os/kernel/include/chmtx.h"