ARM GAS  /tmp/ccPUZqXP.s 			page 1


   1              		.syntax unified
   2              		.cpu cortex-m3
   3              		.fpu softvfp
   4              		.eabi_attribute 20, 1
   5              		.eabi_attribute 21, 1
   6              		.eabi_attribute 23, 3
   7              		.eabi_attribute 24, 1
   8              		.eabi_attribute 25, 1
   9              		.eabi_attribute 26, 1
  10              		.eabi_attribute 30, 2
  11              		.eabi_attribute 34, 1
  12              		.eabi_attribute 18, 4
  13              		.thumb
  14              		.file	"chvt.c"
  15              		.text
  16              	.Ltext0:
  17              		.cfi_sections	.debug_frame
  18              		.section	.text._vt_init,"ax",%progbits
  19              		.align	2
  20              		.p2align 4,,15
  21              		.global	_vt_init
  22              		.thumb
  23              		.thumb_func
  24              		.type	_vt_init, %function
  25              	_vt_init:
  26              	.LFB0:
  27              		.file 1 "../os/kernel/src/chvt.c"
  28              		.loc 1 50 0
  29              		.cfi_startproc
  30              		@ args = 0, pretend = 0, frame = 0
  31              		@ frame_needed = 0, uses_anonymous_args = 0
  32              		@ link register save eliminated.
  33              		.loc 1 52 0
  34 0000 40F20003 		movw	r3, #:lower16:.LANCHOR0
  35 0004 C0F20003 		movt	r3, #:upper16:.LANCHOR0
  36              		.loc 1 53 0
  37 0008 4FF0FF31 		mov	r1, #-1
  38              		.loc 1 54 0
  39 000c 0022     		movs	r2, #0
  40              		.loc 1 52 0
  41 000e 5B60     		str	r3, [r3, #4]
  42 0010 1B60     		str	r3, [r3]
  43              		.loc 1 53 0
  44 0012 9960     		str	r1, [r3, #8]
  45              		.loc 1 54 0
  46 0014 DA60     		str	r2, [r3, #12]
  47 0016 7047     		bx	lr
  48              		.cfi_endproc
  49              	.LFE0:
  50              		.size	_vt_init, .-_vt_init
  51 0018 AFF30080 		.section	.text.chVTSetI,"ax",%progbits
  51      AFF30080 
  52              		.align	2
  53              		.p2align 4,,15
  54              		.global	chVTSetI
  55              		.thumb
  56              		.thumb_func
ARM GAS  /tmp/ccPUZqXP.s 			page 2


  57              		.type	chVTSetI, %function
  58              	chVTSetI:
  59              	.LFB1:
  60              		.loc 1 76 0
  61              		.cfi_startproc
  62              		@ args = 0, pretend = 0, frame = 0
  63              		@ frame_needed = 0, uses_anonymous_args = 0
  64              		@ link register save eliminated.
  65              	.LVL0:
  66 0000 30B4     		push	{r4, r5}
  67              		.cfi_def_cfa_offset 8
  68              		.cfi_offset 4, -8
  69              		.cfi_offset 5, -4
  70              		.loc 1 85 0
  71 0002 40F20005 		movw	r5, #:lower16:.LANCHOR0
  72 0006 C0F20005 		movt	r5, #:upper16:.LANCHOR0
  73 000a 2C68     		ldr	r4, [r5]
  74              	.LVL1:
  75              		.loc 1 83 0
  76 000c 0361     		str	r3, [r0, #16]
  77              		.loc 1 84 0
  78 000e C260     		str	r2, [r0, #12]
  79              		.loc 1 86 0
  80 0010 A368     		ldr	r3, [r4, #8]
  81              	.LVL2:
  82 0012 9942     		cmp	r1, r3
  83 0014 04D9     		bls	.L3
  84              	.L4:
  85              		.loc 1 88 0
  86 0016 2468     		ldr	r4, [r4]
  87              	.LVL3:
  88              		.loc 1 87 0
  89 0018 C91A     		subs	r1, r1, r3
  90              	.LVL4:
  91              		.loc 1 86 0
  92 001a A368     		ldr	r3, [r4, #8]
  93 001c 8B42     		cmp	r3, r1
  94 001e FAD3     		bcc	.L4
  95              	.L3:
  96              		.loc 1 91 0
  97 0020 0460     		str	r4, [r0]
  98 0022 6368     		ldr	r3, [r4, #4]
  99              		.loc 1 94 0
 100 0024 AC42     		cmp	r4, r5
 101              		.loc 1 91 0
 102 0026 4360     		str	r3, [r0, #4]
 103              		.loc 1 92 0
 104 0028 6060     		str	r0, [r4, #4]
 105              	.LVL5:
 106 002a 1860     		str	r0, [r3]
 107              		.loc 1 93 0
 108 002c 8160     		str	r1, [r0, #8]
 109              		.loc 1 95 0
 110 002e 1EBF     		ittt	ne
 111 0030 A368     		ldrne	r3, [r4, #8]
 112 0032 C1EB0301 		rsbne	r1, r1, r3
 113              	.LVL6:
ARM GAS  /tmp/ccPUZqXP.s 			page 3


 114 0036 A160     		strne	r1, [r4, #8]
 115              	.LVL7:
 116              		.loc 1 96 0
 117 0038 30BC     		pop	{r4, r5}
 118              	.LVL8:
 119 003a 7047     		bx	lr
 120              		.cfi_endproc
 121              	.LFE1:
 122              		.size	chVTSetI, .-chVTSetI
 123 003c AFF30080 		.section	.text.chVTResetI,"ax",%progbits
 124              		.align	2
 125              		.p2align 4,,15
 126              		.global	chVTResetI
 127              		.thumb
 128              		.thumb_func
 129              		.type	chVTResetI, %function
 130              	chVTResetI:
 131              	.LFB2:
 132              		.loc 1 106 0
 133              		.cfi_startproc
 134              		@ args = 0, pretend = 0, frame = 0
 135              		@ frame_needed = 0, uses_anonymous_args = 0
 136              		@ link register save eliminated.
 137              	.LVL9:
 138              		.loc 1 114 0
 139 0000 0368     		ldr	r3, [r0]
 140 0002 40F20002 		movw	r2, #:lower16:.LANCHOR0
 141 0006 C0F20002 		movt	r2, #:upper16:.LANCHOR0
 142 000a 9342     		cmp	r3, r2
 143              		.loc 1 115 0
 144 000c 1FBF     		itttt	ne
 145 000e 9968     		ldrne	r1, [r3, #8]
 146 0010 8268     		ldrne	r2, [r0, #8]
 147 0012 5218     		addne	r2, r2, r1
 148 0014 9A60     		strne	r2, [r3, #8]
 149 0016 18BF     		it	ne
 150 0018 0368     		ldrne	r3, [r0]
 151              		.loc 1 116 0
 152 001a 4268     		ldr	r2, [r0, #4]
 153              		.loc 1 118 0
 154 001c 0021     		movs	r1, #0
 155              		.loc 1 116 0
 156 001e 1360     		str	r3, [r2]
 157              		.loc 1 117 0
 158 0020 0368     		ldr	r3, [r0]
 159 0022 4268     		ldr	r2, [r0, #4]
 160 0024 5A60     		str	r2, [r3, #4]
 161              		.loc 1 118 0
 162 0026 C160     		str	r1, [r0, #12]
 163 0028 7047     		bx	lr
 164              		.cfi_endproc
 165              	.LFE2:
 166              		.size	chVTResetI, .-chVTResetI
 167              		.global	vtlist
 168 002a 00BFAFF3 		.section	.bss.vtlist,"aw",%nobits
 168      0080
 169              		.align	2
ARM GAS  /tmp/ccPUZqXP.s 			page 4


 170              		.set	.LANCHOR0,. + 0
 171              		.type	vtlist, %object
 172              		.size	vtlist, 16
 173              	vtlist:
 174 0000 00000000 		.space	16
 174      00000000 
 174      00000000 
 174      00000000 
 175              		.text
 176              	.Letext0:
 177              		.file 2 "/usr/include/newlib/machine/_default_types.h"
 178              		.file 3 "/usr/include/newlib/stdint.h"
 179              		.file 4 "../os/ports/GCC/ARMCMx/chtypes.h"
 180              		.file 5 "../os/kernel/include/chvt.h"