ARM GAS  /tmp/cc5A92CL.s 			page 1


   1              		.syntax unified
   2              		.cpu cortex-m3
   3              		.fpu softvfp
   4              		.eabi_attribute 20, 1
   5              		.eabi_attribute 21, 1
   6              		.eabi_attribute 23, 3
   7              		.eabi_attribute 24, 1
   8              		.eabi_attribute 25, 1
   9              		.eabi_attribute 26, 1
  10              		.eabi_attribute 30, 2
  11              		.eabi_attribute 34, 1
  12              		.eabi_attribute 18, 4
  13              		.thumb
  14              		.file	"ext_lld_isr.c"
  15              		.text
  16              	.Ltext0:
  17              		.cfi_sections	.debug_frame
  18              		.section	.text.Vector58,"ax",%progbits
  19              		.align	2
  20              		.p2align 4,,15
  21              		.global	Vector58
  22              		.thumb
  23              		.thumb_func
  24              		.type	Vector58, %function
  25              	Vector58:
  26              	.LFB56:
  27              		.file 1 "../os/hal/platforms/STM32F1xx/ext_lld_isr.c"
  28              		.loc 1 57 0
  29              		.cfi_startproc
  30              		@ args = 0, pretend = 0, frame = 0
  31              		@ frame_needed = 0, uses_anonymous_args = 0
  32 0000 08B5     		push	{r3, lr}
  33              		.cfi_def_cfa_offset 8
  34              		.cfi_offset 3, -8
  35              		.cfi_offset 14, -4
  36              		.loc 1 61 0
  37 0002 4FF48063 		mov	r3, #1024
  38 0006 C4F20103 		movt	r3, 16385
  39 000a 0122     		movs	r2, #1
  40              		.loc 1 62 0
  41 000c 40F20000 		movw	r0, #:lower16:EXTD1
  42              		.loc 1 61 0
  43 0010 5A61     		str	r2, [r3, #20]
  44              		.loc 1 62 0
  45 0012 C0F20000 		movt	r0, #:upper16:EXTD1
  46 0016 4368     		ldr	r3, [r0, #4]
  47 0018 0021     		movs	r1, #0
  48 001a 5B68     		ldr	r3, [r3, #4]
  49 001c 9847     		blx	r3
  50              	.LVL0:
  51              		.loc 1 65 0
  52 001e BDE80840 		pop	{r3, lr}
  53              		.loc 1 64 0
  54 0022 FFF7FEBF 		b	_port_irq_epilogue
  55              	.LVL1:
  56              		.cfi_endproc
  57              	.LFE56:
ARM GAS  /tmp/cc5A92CL.s 			page 2


  58              		.size	Vector58, .-Vector58
  59 0026 00BFAFF3 		.section	.text.Vector5C,"ax",%progbits
  59      0080AFF3 
  59      0080
  60              		.align	2
  61              		.p2align 4,,15
  62              		.global	Vector5C
  63              		.thumb
  64              		.thumb_func
  65              		.type	Vector5C, %function
  66              	Vector5C:
  67              	.LFB57:
  68              		.loc 1 72 0
  69              		.cfi_startproc
  70              		@ args = 0, pretend = 0, frame = 0
  71              		@ frame_needed = 0, uses_anonymous_args = 0
  72 0000 08B5     		push	{r3, lr}
  73              		.cfi_def_cfa_offset 8
  74              		.cfi_offset 3, -8
  75              		.cfi_offset 14, -4
  76              		.loc 1 76 0
  77 0002 4FF48063 		mov	r3, #1024
  78 0006 C4F20103 		movt	r3, 16385
  79 000a 0222     		movs	r2, #2
  80              		.loc 1 77 0
  81 000c 40F20000 		movw	r0, #:lower16:EXTD1
  82              		.loc 1 76 0
  83 0010 5A61     		str	r2, [r3, #20]
  84              		.loc 1 77 0
  85 0012 C0F20000 		movt	r0, #:upper16:EXTD1
  86 0016 4368     		ldr	r3, [r0, #4]
  87 0018 0121     		movs	r1, #1
  88 001a DB68     		ldr	r3, [r3, #12]
  89 001c 9847     		blx	r3
  90              	.LVL2:
  91              		.loc 1 80 0
  92 001e BDE80840 		pop	{r3, lr}
  93              		.loc 1 79 0
  94 0022 FFF7FEBF 		b	_port_irq_epilogue
  95              	.LVL3:
  96              		.cfi_endproc
  97              	.LFE57:
  98              		.size	Vector5C, .-Vector5C
  99 0026 00BFAFF3 		.section	.text.Vector60,"ax",%progbits
  99      0080AFF3 
  99      0080
 100              		.align	2
 101              		.p2align 4,,15
 102              		.global	Vector60
 103              		.thumb
 104              		.thumb_func
 105              		.type	Vector60, %function
 106              	Vector60:
 107              	.LFB58:
 108              		.loc 1 87 0
 109              		.cfi_startproc
 110              		@ args = 0, pretend = 0, frame = 0
ARM GAS  /tmp/cc5A92CL.s 			page 3


 111              		@ frame_needed = 0, uses_anonymous_args = 0
 112 0000 08B5     		push	{r3, lr}
 113              		.cfi_def_cfa_offset 8
 114              		.cfi_offset 3, -8
 115              		.cfi_offset 14, -4
 116              		.loc 1 91 0
 117 0002 4FF48063 		mov	r3, #1024
 118 0006 C4F20103 		movt	r3, 16385
 119 000a 0422     		movs	r2, #4
 120              		.loc 1 92 0
 121 000c 40F20000 		movw	r0, #:lower16:EXTD1
 122              		.loc 1 91 0
 123 0010 5A61     		str	r2, [r3, #20]
 124              		.loc 1 92 0
 125 0012 C0F20000 		movt	r0, #:upper16:EXTD1
 126 0016 4368     		ldr	r3, [r0, #4]
 127 0018 0221     		movs	r1, #2
 128 001a 5B69     		ldr	r3, [r3, #20]
 129 001c 9847     		blx	r3
 130              	.LVL4:
 131              		.loc 1 95 0
 132 001e BDE80840 		pop	{r3, lr}
 133              		.loc 1 94 0
 134 0022 FFF7FEBF 		b	_port_irq_epilogue
 135              	.LVL5:
 136              		.cfi_endproc
 137              	.LFE58:
 138              		.size	Vector60, .-Vector60
 139 0026 00BFAFF3 		.section	.text.Vector64,"ax",%progbits
 139      0080AFF3 
 139      0080
 140              		.align	2
 141              		.p2align 4,,15
 142              		.global	Vector64
 143              		.thumb
 144              		.thumb_func
 145              		.type	Vector64, %function
 146              	Vector64:
 147              	.LFB59:
 148              		.loc 1 102 0
 149              		.cfi_startproc
 150              		@ args = 0, pretend = 0, frame = 0
 151              		@ frame_needed = 0, uses_anonymous_args = 0
 152 0000 08B5     		push	{r3, lr}
 153              		.cfi_def_cfa_offset 8
 154              		.cfi_offset 3, -8
 155              		.cfi_offset 14, -4
 156              		.loc 1 106 0
 157 0002 4FF48063 		mov	r3, #1024
 158 0006 C4F20103 		movt	r3, 16385
 159 000a 0822     		movs	r2, #8
 160              		.loc 1 107 0
 161 000c 40F20000 		movw	r0, #:lower16:EXTD1
 162              		.loc 1 106 0
 163 0010 5A61     		str	r2, [r3, #20]
 164              		.loc 1 107 0
 165 0012 C0F20000 		movt	r0, #:upper16:EXTD1
ARM GAS  /tmp/cc5A92CL.s 			page 4


 166 0016 4368     		ldr	r3, [r0, #4]
 167 0018 0321     		movs	r1, #3
 168 001a DB69     		ldr	r3, [r3, #28]
 169 001c 9847     		blx	r3
 170              	.LVL6:
 171              		.loc 1 110 0
 172 001e BDE80840 		pop	{r3, lr}
 173              		.loc 1 109 0
 174 0022 FFF7FEBF 		b	_port_irq_epilogue
 175              	.LVL7:
 176              		.cfi_endproc
 177              	.LFE59:
 178              		.size	Vector64, .-Vector64
 179 0026 00BFAFF3 		.section	.text.Vector68,"ax",%progbits
 179      0080AFF3 
 179      0080
 180              		.align	2
 181              		.p2align 4,,15
 182              		.global	Vector68
 183              		.thumb
 184              		.thumb_func
 185              		.type	Vector68, %function
 186              	Vector68:
 187              	.LFB60:
 188              		.loc 1 117 0
 189              		.cfi_startproc
 190              		@ args = 0, pretend = 0, frame = 0
 191              		@ frame_needed = 0, uses_anonymous_args = 0
 192 0000 08B5     		push	{r3, lr}
 193              		.cfi_def_cfa_offset 8
 194              		.cfi_offset 3, -8
 195              		.cfi_offset 14, -4
 196              		.loc 1 121 0
 197 0002 4FF48063 		mov	r3, #1024
 198 0006 C4F20103 		movt	r3, 16385
 199 000a 1022     		movs	r2, #16
 200              		.loc 1 122 0
 201 000c 40F20000 		movw	r0, #:lower16:EXTD1
 202              		.loc 1 121 0
 203 0010 5A61     		str	r2, [r3, #20]
 204              		.loc 1 122 0
 205 0012 C0F20000 		movt	r0, #:upper16:EXTD1
 206 0016 4368     		ldr	r3, [r0, #4]
 207 0018 0421     		movs	r1, #4
 208 001a 5B6A     		ldr	r3, [r3, #36]
 209 001c 9847     		blx	r3
 210              	.LVL8:
 211              		.loc 1 125 0
 212 001e BDE80840 		pop	{r3, lr}
 213              		.loc 1 124 0
 214 0022 FFF7FEBF 		b	_port_irq_epilogue
 215              	.LVL9:
 216              		.cfi_endproc
 217              	.LFE60:
 218              		.size	Vector68, .-Vector68
 219 0026 00BFAFF3 		.section	.text.Vector9C,"ax",%progbits
 219      0080AFF3 
ARM GAS  /tmp/cc5A92CL.s 			page 5


 219      0080
 220              		.align	2
 221              		.p2align 4,,15
 222              		.global	Vector9C
 223              		.thumb
 224              		.thumb_func
 225              		.type	Vector9C, %function
 226              	Vector9C:
 227              	.LFB61:
 228              		.loc 1 132 0
 229              		.cfi_startproc
 230              		@ args = 0, pretend = 0, frame = 0
 231              		@ frame_needed = 0, uses_anonymous_args = 0
 232 0000 10B5     		push	{r4, lr}
 233              		.cfi_def_cfa_offset 8
 234              		.cfi_offset 4, -8
 235              		.cfi_offset 14, -4
 236              		.loc 1 137 0
 237 0002 4FF48063 		mov	r3, #1024
 238 0006 C4F20103 		movt	r3, 16385
 239 000a 5C69     		ldr	r4, [r3, #20]
 240 000c 04F47872 		and	r2, r4, #992
 241              	.LVL10:
 242              		.loc 1 138 0
 243 0010 5A61     		str	r2, [r3, #20]
 244              		.loc 1 139 0
 245 0012 A306     		lsls	r3, r4, #26
 246 0014 2ED4     		bmi	.L28
 247              	.LVL11:
 248              	.L7:
 249              		.loc 1 141 0
 250 0016 6006     		lsls	r0, r4, #25
 251 0018 23D4     		bmi	.L29
 252              	.L8:
 253              		.loc 1 143 0
 254 001a 2106     		lsls	r1, r4, #24
 255 001c 18D4     		bmi	.L30
 256              	.L9:
 257              		.loc 1 145 0
 258 001e E205     		lsls	r2, r4, #23
 259 0020 0DD4     		bmi	.L31
 260              	.L10:
 261              		.loc 1 147 0
 262 0022 A305     		lsls	r3, r4, #22
 263 0024 07D5     		bpl	.L11
 264              		.loc 1 148 0
 265 0026 40F20000 		movw	r0, #:lower16:EXTD1
 266 002a C0F20000 		movt	r0, #:upper16:EXTD1
 267 002e 4368     		ldr	r3, [r0, #4]
 268 0030 0921     		movs	r1, #9
 269 0032 DB6C     		ldr	r3, [r3, #76]
 270 0034 9847     		blx	r3
 271              	.LVL12:
 272              	.L11:
 273              		.loc 1 151 0
 274 0036 BDE81040 		pop	{r4, lr}
 275              	.LVL13:
ARM GAS  /tmp/cc5A92CL.s 			page 6


 276              		.loc 1 150 0
 277 003a FFF7FEBF 		b	_port_irq_epilogue
 278              	.LVL14:
 279              	.L31:
 280              		.loc 1 146 0
 281 003e 40F20000 		movw	r0, #:lower16:EXTD1
 282 0042 C0F20000 		movt	r0, #:upper16:EXTD1
 283 0046 4368     		ldr	r3, [r0, #4]
 284 0048 0821     		movs	r1, #8
 285 004a 5B6C     		ldr	r3, [r3, #68]
 286 004c 9847     		blx	r3
 287              	.LVL15:
 288 004e E8E7     		b	.L10
 289              	.L30:
 290              		.loc 1 144 0
 291 0050 40F20000 		movw	r0, #:lower16:EXTD1
 292 0054 C0F20000 		movt	r0, #:upper16:EXTD1
 293 0058 4368     		ldr	r3, [r0, #4]
 294 005a 0721     		movs	r1, #7
 295 005c DB6B     		ldr	r3, [r3, #60]
 296 005e 9847     		blx	r3
 297              	.LVL16:
 298 0060 DDE7     		b	.L9
 299              	.L29:
 300              		.loc 1 142 0
 301 0062 40F20000 		movw	r0, #:lower16:EXTD1
 302 0066 C0F20000 		movt	r0, #:upper16:EXTD1
 303 006a 4368     		ldr	r3, [r0, #4]
 304 006c 0621     		movs	r1, #6
 305 006e 5B6B     		ldr	r3, [r3, #52]
 306 0070 9847     		blx	r3
 307              	.LVL17:
 308 0072 D2E7     		b	.L8
 309              	.LVL18:
 310              	.L28:
 311              		.loc 1 140 0
 312 0074 40F20000 		movw	r0, #:lower16:EXTD1
 313 0078 C0F20000 		movt	r0, #:upper16:EXTD1
 314 007c 4368     		ldr	r3, [r0, #4]
 315 007e 0521     		movs	r1, #5
 316 0080 DB6A     		ldr	r3, [r3, #44]
 317 0082 9847     		blx	r3
 318              	.LVL19:
 319 0084 C7E7     		b	.L7
 320              		.cfi_endproc
 321              	.LFE61:
 322              		.size	Vector9C, .-Vector9C
 323 0086 00BFAFF3 		.section	.text.VectorE0,"ax",%progbits
 323      0080AFF3 
 323      0080
 324              		.align	2
 325              		.p2align 4,,15
 326              		.global	VectorE0
 327              		.thumb
 328              		.thumb_func
 329              		.type	VectorE0, %function
 330              	VectorE0:
ARM GAS  /tmp/cc5A92CL.s 			page 7


 331              	.LFB62:
 332              		.loc 1 158 0
 333              		.cfi_startproc
 334              		@ args = 0, pretend = 0, frame = 0
 335              		@ frame_needed = 0, uses_anonymous_args = 0
 336 0000 10B5     		push	{r4, lr}
 337              		.cfi_def_cfa_offset 8
 338              		.cfi_offset 4, -8
 339              		.cfi_offset 14, -4
 340              		.loc 1 163 0
 341 0002 4FF48063 		mov	r3, #1024
 342 0006 C4F20103 		movt	r3, 16385
 343 000a 5C69     		ldr	r4, [r3, #20]
 344 000c 04F47C42 		and	r2, r4, #64512
 345              	.LVL20:
 346              		.loc 1 166 0
 347 0010 6105     		lsls	r1, r4, #21
 348              		.loc 1 165 0
 349 0012 5A61     		str	r2, [r3, #20]
 350              		.loc 1 166 0
 351 0014 39D4     		bmi	.L57
 352              	.LVL21:
 353              	.L33:
 354              		.loc 1 168 0
 355 0016 2205     		lsls	r2, r4, #20
 356 0018 2ED4     		bmi	.L58
 357              	.L34:
 358              		.loc 1 170 0
 359 001a E304     		lsls	r3, r4, #19
 360 001c 23D4     		bmi	.L59
 361              	.L35:
 362              		.loc 1 172 0
 363 001e A004     		lsls	r0, r4, #18
 364 0020 18D4     		bmi	.L60
 365              	.L36:
 366              		.loc 1 174 0
 367 0022 6104     		lsls	r1, r4, #17
 368 0024 0DD4     		bmi	.L61
 369              	.L37:
 370              		.loc 1 176 0
 371 0026 2204     		lsls	r2, r4, #16
 372 0028 07D5     		bpl	.L38
 373              		.loc 1 177 0
 374 002a 40F20000 		movw	r0, #:lower16:EXTD1
 375 002e C0F20000 		movt	r0, #:upper16:EXTD1
 376 0032 4368     		ldr	r3, [r0, #4]
 377 0034 0F21     		movs	r1, #15
 378 0036 DB6F     		ldr	r3, [r3, #124]
 379 0038 9847     		blx	r3
 380              	.LVL22:
 381              	.L38:
 382              		.loc 1 180 0
 383 003a BDE81040 		pop	{r4, lr}
 384              	.LVL23:
 385              		.loc 1 179 0
 386 003e FFF7FEBF 		b	_port_irq_epilogue
 387              	.LVL24:
ARM GAS  /tmp/cc5A92CL.s 			page 8


 388              	.L61:
 389              		.loc 1 175 0
 390 0042 40F20000 		movw	r0, #:lower16:EXTD1
 391 0046 C0F20000 		movt	r0, #:upper16:EXTD1
 392 004a 4368     		ldr	r3, [r0, #4]
 393 004c 0E21     		movs	r1, #14
 394 004e 5B6F     		ldr	r3, [r3, #116]
 395 0050 9847     		blx	r3
 396              	.LVL25:
 397 0052 E8E7     		b	.L37
 398              	.L60:
 399              		.loc 1 173 0
 400 0054 40F20000 		movw	r0, #:lower16:EXTD1
 401 0058 C0F20000 		movt	r0, #:upper16:EXTD1
 402 005c 4368     		ldr	r3, [r0, #4]
 403 005e 0D21     		movs	r1, #13
 404 0060 DB6E     		ldr	r3, [r3, #108]
 405 0062 9847     		blx	r3
 406              	.LVL26:
 407 0064 DDE7     		b	.L36
 408              	.L59:
 409              		.loc 1 171 0
 410 0066 40F20000 		movw	r0, #:lower16:EXTD1
 411 006a C0F20000 		movt	r0, #:upper16:EXTD1
 412 006e 4368     		ldr	r3, [r0, #4]
 413 0070 0C21     		movs	r1, #12
 414 0072 5B6E     		ldr	r3, [r3, #100]
 415 0074 9847     		blx	r3
 416              	.LVL27:
 417 0076 D2E7     		b	.L35
 418              	.L58:
 419              		.loc 1 169 0
 420 0078 40F20000 		movw	r0, #:lower16:EXTD1
 421 007c C0F20000 		movt	r0, #:upper16:EXTD1
 422 0080 4368     		ldr	r3, [r0, #4]
 423 0082 0B21     		movs	r1, #11
 424 0084 DB6D     		ldr	r3, [r3, #92]
 425 0086 9847     		blx	r3
 426              	.LVL28:
 427 0088 C7E7     		b	.L34
 428              	.LVL29:
 429              	.L57:
 430              		.loc 1 167 0
 431 008a 40F20000 		movw	r0, #:lower16:EXTD1
 432 008e C0F20000 		movt	r0, #:upper16:EXTD1
 433 0092 4368     		ldr	r3, [r0, #4]
 434 0094 0A21     		movs	r1, #10
 435 0096 5B6D     		ldr	r3, [r3, #84]
 436 0098 9847     		blx	r3
 437              	.LVL30:
 438 009a BCE7     		b	.L33
 439              		.cfi_endproc
 440              	.LFE62:
 441              		.size	VectorE0, .-VectorE0
 442              		.section	.text.Vector44,"ax",%progbits
 443              		.align	2
 444              		.p2align 4,,15
ARM GAS  /tmp/cc5A92CL.s 			page 9


 445              		.global	Vector44
 446              		.thumb
 447              		.thumb_func
 448              		.type	Vector44, %function
 449              	Vector44:
 450              	.LFB63:
 451              		.loc 1 187 0
 452              		.cfi_startproc
 453              		@ args = 0, pretend = 0, frame = 0
 454              		@ frame_needed = 0, uses_anonymous_args = 0
 455 0000 08B5     		push	{r3, lr}
 456              		.cfi_def_cfa_offset 8
 457              		.cfi_offset 3, -8
 458              		.cfi_offset 14, -4
 459              		.loc 1 191 0
 460 0002 4FF48063 		mov	r3, #1024
 461 0006 C4F20103 		movt	r3, 16385
 462 000a 4FF48032 		mov	r2, #65536
 463              		.loc 1 192 0
 464 000e 40F20000 		movw	r0, #:lower16:EXTD1
 465              		.loc 1 191 0
 466 0012 5A61     		str	r2, [r3, #20]
 467              		.loc 1 192 0
 468 0014 C0F20000 		movt	r0, #:upper16:EXTD1
 469 0018 4368     		ldr	r3, [r0, #4]
 470 001a 1021     		movs	r1, #16
 471 001c D3F88430 		ldr	r3, [r3, #132]
 472 0020 9847     		blx	r3
 473              	.LVL31:
 474              		.loc 1 195 0
 475 0022 BDE80840 		pop	{r3, lr}
 476              		.loc 1 194 0
 477 0026 FFF7FEBF 		b	_port_irq_epilogue
 478              	.LVL32:
 479              		.cfi_endproc
 480              	.LFE63:
 481              		.size	Vector44, .-Vector44
 482 002a 00BFAFF3 		.section	.text.VectorE4,"ax",%progbits
 482      0080
 483              		.align	2
 484              		.p2align 4,,15
 485              		.global	VectorE4
 486              		.thumb
 487              		.thumb_func
 488              		.type	VectorE4, %function
 489              	VectorE4:
 490              	.LFB64:
 491              		.loc 1 202 0
 492              		.cfi_startproc
 493              		@ args = 0, pretend = 0, frame = 0
 494              		@ frame_needed = 0, uses_anonymous_args = 0
 495 0000 08B5     		push	{r3, lr}
 496              		.cfi_def_cfa_offset 8
 497              		.cfi_offset 3, -8
 498              		.cfi_offset 14, -4
 499              		.loc 1 206 0
 500 0002 4FF48063 		mov	r3, #1024
ARM GAS  /tmp/cc5A92CL.s 			page 10


 501 0006 C4F20103 		movt	r3, 16385
 502 000a 4FF40032 		mov	r2, #131072
 503              		.loc 1 207 0
 504 000e 40F20000 		movw	r0, #:lower16:EXTD1
 505              		.loc 1 206 0
 506 0012 5A61     		str	r2, [r3, #20]
 507              		.loc 1 207 0
 508 0014 C0F20000 		movt	r0, #:upper16:EXTD1
 509 0018 4368     		ldr	r3, [r0, #4]
 510 001a 1121     		movs	r1, #17
 511 001c D3F88C30 		ldr	r3, [r3, #140]
 512 0020 9847     		blx	r3
 513              	.LVL33:
 514              		.loc 1 210 0
 515 0022 BDE80840 		pop	{r3, lr}
 516              		.loc 1 209 0
 517 0026 FFF7FEBF 		b	_port_irq_epilogue
 518              	.LVL34:
 519              		.cfi_endproc
 520              	.LFE64:
 521              		.size	VectorE4, .-VectorE4
 522 002a 00BFAFF3 		.section	.text.VectorE8,"ax",%progbits
 522      0080
 523              		.align	2
 524              		.p2align 4,,15
 525              		.global	VectorE8
 526              		.thumb
 527              		.thumb_func
 528              		.type	VectorE8, %function
 529              	VectorE8:
 530              	.LFB65:
 531              		.loc 1 251 0
 532              		.cfi_startproc
 533              		@ args = 0, pretend = 0, frame = 0
 534              		@ frame_needed = 0, uses_anonymous_args = 0
 535 0000 08B5     		push	{r3, lr}
 536              		.cfi_def_cfa_offset 8
 537              		.cfi_offset 3, -8
 538              		.cfi_offset 14, -4
 539              		.loc 1 255 0
 540 0002 4FF48063 		mov	r3, #1024
 541 0006 C4F20103 		movt	r3, 16385
 542 000a 4FF48022 		mov	r2, #262144
 543              		.loc 1 256 0
 544 000e 40F20000 		movw	r0, #:lower16:EXTD1
 545              		.loc 1 255 0
 546 0012 5A61     		str	r2, [r3, #20]
 547              		.loc 1 256 0
 548 0014 C0F20000 		movt	r0, #:upper16:EXTD1
 549 0018 4368     		ldr	r3, [r0, #4]
 550 001a 1221     		movs	r1, #18
 551 001c D3F89430 		ldr	r3, [r3, #148]
 552 0020 9847     		blx	r3
 553              	.LVL35:
 554              		.loc 1 259 0
 555 0022 BDE80840 		pop	{r3, lr}
 556              		.loc 1 258 0
ARM GAS  /tmp/cc5A92CL.s 			page 11


 557 0026 FFF7FEBF 		b	_port_irq_epilogue
 558              	.LVL36:
 559              		.cfi_endproc
 560              	.LFE65:
 561              		.size	VectorE8, .-VectorE8
 562 002a 00BFAFF3 		.section	.text.ext_lld_exti_irq_enable,"ax",%progbits
 562      0080
 563              		.align	2
 564              		.p2align 4,,15
 565              		.global	ext_lld_exti_irq_enable
 566              		.thumb
 567              		.thumb_func
 568              		.type	ext_lld_exti_irq_enable, %function
 569              	ext_lld_exti_irq_enable:
 570              	.LFB66:
 571              		.loc 1 271 0
 572              		.cfi_startproc
 573              		@ args = 0, pretend = 0, frame = 0
 574              		@ frame_needed = 0, uses_anonymous_args = 0
 575 0000 08B5     		push	{r3, lr}
 576              		.cfi_def_cfa_offset 8
 577              		.cfi_offset 3, -8
 578              		.cfi_offset 14, -4
 579              		.loc 1 273 0
 580 0002 0620     		movs	r0, #6
 581 0004 6021     		movs	r1, #96
 582 0006 FFF7FEFF 		bl	nvicEnableVector
 583              	.LVL37:
 584              		.loc 1 275 0
 585 000a 0720     		movs	r0, #7
 586 000c 6021     		movs	r1, #96
 587 000e FFF7FEFF 		bl	nvicEnableVector
 588              	.LVL38:
 589              		.loc 1 277 0
 590 0012 0820     		movs	r0, #8
 591 0014 6021     		movs	r1, #96
 592 0016 FFF7FEFF 		bl	nvicEnableVector
 593              	.LVL39:
 594              		.loc 1 279 0
 595 001a 0920     		movs	r0, #9
 596 001c 6021     		movs	r1, #96
 597 001e FFF7FEFF 		bl	nvicEnableVector
 598              	.LVL40:
 599              		.loc 1 281 0
 600 0022 0A20     		movs	r0, #10
 601 0024 6021     		movs	r1, #96
 602 0026 FFF7FEFF 		bl	nvicEnableVector
 603              	.LVL41:
 604              		.loc 1 283 0
 605 002a 1720     		movs	r0, #23
 606 002c 6021     		movs	r1, #96
 607 002e FFF7FEFF 		bl	nvicEnableVector
 608              	.LVL42:
 609              		.loc 1 285 0
 610 0032 2820     		movs	r0, #40
 611 0034 6021     		movs	r1, #96
 612 0036 FFF7FEFF 		bl	nvicEnableVector
ARM GAS  /tmp/cc5A92CL.s 			page 12


 613              	.LVL43:
 614              		.loc 1 287 0
 615 003a 0120     		movs	r0, #1
 616 003c 6021     		movs	r1, #96
 617 003e FFF7FEFF 		bl	nvicEnableVector
 618              	.LVL44:
 619              		.loc 1 289 0
 620 0042 2920     		movs	r0, #41
 621 0044 6021     		movs	r1, #96
 622 0046 FFF7FEFF 		bl	nvicEnableVector
 623              	.LVL45:
 624              		.loc 1 305 0
 625 004a BDE80840 		pop	{r3, lr}
 626              		.loc 1 302 0
 627 004e 2A20     		movs	r0, #42
 628 0050 6021     		movs	r1, #96
 629 0052 FFF7FEBF 		b	nvicEnableVector
 630              	.LVL46:
 631              		.cfi_endproc
 632              	.LFE66:
 633              		.size	ext_lld_exti_irq_enable, .-ext_lld_exti_irq_enable
 634 0056 00BFAFF3 		.section	.text.ext_lld_exti_irq_disable,"ax",%progbits
 634      0080AFF3 
 634      0080
 635              		.align	2
 636              		.p2align 4,,15
 637              		.global	ext_lld_exti_irq_disable
 638              		.thumb
 639              		.thumb_func
 640              		.type	ext_lld_exti_irq_disable, %function
 641              	ext_lld_exti_irq_disable:
 642              	.LFB67:
 643              		.loc 1 312 0
 644              		.cfi_startproc
 645              		@ args = 0, pretend = 0, frame = 0
 646              		@ frame_needed = 0, uses_anonymous_args = 0
 647 0000 08B5     		push	{r3, lr}
 648              		.cfi_def_cfa_offset 8
 649              		.cfi_offset 3, -8
 650              		.cfi_offset 14, -4
 651              		.loc 1 314 0
 652 0002 0620     		movs	r0, #6
 653 0004 FFF7FEFF 		bl	nvicDisableVector
 654              	.LVL47:
 655              		.loc 1 315 0
 656 0008 0720     		movs	r0, #7
 657 000a FFF7FEFF 		bl	nvicDisableVector
 658              	.LVL48:
 659              		.loc 1 316 0
 660 000e 0820     		movs	r0, #8
 661 0010 FFF7FEFF 		bl	nvicDisableVector
 662              	.LVL49:
 663              		.loc 1 317 0
 664 0014 0920     		movs	r0, #9
 665 0016 FFF7FEFF 		bl	nvicDisableVector
 666              	.LVL50:
 667              		.loc 1 318 0
ARM GAS  /tmp/cc5A92CL.s 			page 13


 668 001a 0A20     		movs	r0, #10
 669 001c FFF7FEFF 		bl	nvicDisableVector
 670              	.LVL51:
 671              		.loc 1 319 0
 672 0020 1720     		movs	r0, #23
 673 0022 FFF7FEFF 		bl	nvicDisableVector
 674              	.LVL52:
 675              		.loc 1 320 0
 676 0026 2820     		movs	r0, #40
 677 0028 FFF7FEFF 		bl	nvicDisableVector
 678              	.LVL53:
 679              		.loc 1 321 0
 680 002c 0120     		movs	r0, #1
 681 002e FFF7FEFF 		bl	nvicDisableVector
 682              	.LVL54:
 683              		.loc 1 322 0
 684 0032 2920     		movs	r0, #41
 685 0034 FFF7FEFF 		bl	nvicDisableVector
 686              	.LVL55:
 687              		.loc 1 334 0
 688 0038 BDE80840 		pop	{r3, lr}
 689              		.loc 1 332 0
 690 003c 2A20     		movs	r0, #42
 691 003e FFF7FEBF 		b	nvicDisableVector
 692              	.LVL56:
 693              		.cfi_endproc
 694              	.LFE67:
 695              		.size	ext_lld_exti_irq_disable, .-ext_lld_exti_irq_disable
 696 0042 00BFAFF3 		.text
 696      0080AFF3 
 696      0080AFF3 
 696      0080
 697              	.Letext0:
 698              		.file 2 "/usr/include/newlib/machine/_default_types.h"
 699              		.file 3 "/usr/include/newlib/stdint.h"
 700              		.file 4 "../os/hal/platforms/STM32F1xx/stm32f10x.h"
 701              		.file 5 "../os/hal/include/ext.h"
 702              		.file 6 "../os/hal/platforms/STM32/ext_lld.h"
 703              		.file 7 "../os/ports/common/ARMCMx/CMSIS/include/core_cm3.h"
 704              		.file 8 "../os/ports/GCC/ARMCMx/chcore_v7m.h"
 705              		.file 9 "../os/ports/common/ARMCMx/nvic.h"
 706              		.section	.debug_info,"",%progbits
 707              	.Ldebug_info0:
 708 0000 CB070000 		.4byte	0x7cb
 709 0004 0400     		.2byte	0x4
 710 0006 00000000 		.4byte	.Ldebug_abbrev0
 711 000a 04       		.byte	0x4
 712 000b 01       		.uleb128 0x1
 713 000c C9020000 		.4byte	.LASF97
 714 0010 01       		.byte	0x1
 715 0011 A7040000 		.4byte	.LASF98
 716 0015 C8000000 		.4byte	.LASF99
 717 0019 00000000 		.4byte	.Ldebug_ranges0+0
 718 001d 00000000 		.4byte	0
 719 0021 00000000 		.4byte	.Ldebug_line0
 720 0025 02       		.uleb128 0x2
 721 0026 04       		.byte	0x4
ARM GAS  /tmp/cc5A92CL.s 			page 14


 722 0027 05       		.byte	0x5
 723 0028 696E7400 		.ascii	"int\000"
 724 002c 03       		.uleb128 0x3
 725 002d 04       		.byte	0x4
 726 002e 07       		.byte	0x7
 727 002f DB030000 		.4byte	.LASF0
 728 0033 03       		.uleb128 0x3
 729 0034 01       		.byte	0x1
 730 0035 06       		.byte	0x6
 731 0036 A4030000 		.4byte	.LASF1
 732 003a 03       		.uleb128 0x3
 733 003b 01       		.byte	0x1
 734 003c 08       		.byte	0x8
 735 003d A0020000 		.4byte	.LASF2
 736 0041 03       		.uleb128 0x3
 737 0042 02       		.byte	0x2
 738 0043 05       		.byte	0x5
 739 0044 71000000 		.4byte	.LASF3
 740 0048 03       		.uleb128 0x3
 741 0049 02       		.byte	0x2
 742 004a 07       		.byte	0x7
 743 004b 33040000 		.4byte	.LASF4
 744 004f 04       		.uleb128 0x4
 745 0050 8E050000 		.4byte	.LASF6
 746 0054 02       		.byte	0x2
 747 0055 37       		.byte	0x37
 748 0056 5A000000 		.4byte	0x5a
 749 005a 03       		.uleb128 0x3
 750 005b 04       		.byte	0x4
 751 005c 05       		.byte	0x5
 752 005d 3B020000 		.4byte	.LASF5
 753 0061 04       		.uleb128 0x4
 754 0062 66050000 		.4byte	.LASF7
 755 0066 02       		.byte	0x2
 756 0067 38       		.byte	0x38
 757 0068 6C000000 		.4byte	0x6c
 758 006c 03       		.uleb128 0x3
 759 006d 04       		.byte	0x4
 760 006e 07       		.byte	0x7
 761 006f 2A050000 		.4byte	.LASF8
 762 0073 03       		.uleb128 0x3
 763 0074 08       		.byte	0x8
 764 0075 05       		.byte	0x5
 765 0076 F8010000 		.4byte	.LASF9
 766 007a 03       		.uleb128 0x3
 767 007b 08       		.byte	0x8
 768 007c 07       		.byte	0x7
 769 007d B0030000 		.4byte	.LASF10
 770 0081 04       		.uleb128 0x4
 771 0082 77040000 		.4byte	.LASF11
 772 0086 03       		.byte	0x3
 773 0087 41       		.byte	0x41
 774 0088 4F000000 		.4byte	0x4f
 775 008c 04       		.uleb128 0x4
 776 008d C7030000 		.4byte	.LASF12
 777 0091 03       		.byte	0x3
 778 0092 42       		.byte	0x42
ARM GAS  /tmp/cc5A92CL.s 			page 15


 779 0093 61000000 		.4byte	0x61
 780 0097 03       		.uleb128 0x3
 781 0098 01       		.byte	0x1
 782 0099 02       		.byte	0x2
 783 009a D8040000 		.4byte	.LASF13
 784 009e 05       		.uleb128 0x5
 785 009f 8C000000 		.4byte	0x8c
 786 00a3 03       		.uleb128 0x3
 787 00a4 04       		.byte	0x4
 788 00a5 07       		.byte	0x7
 789 00a6 7B000000 		.4byte	.LASF14
 790 00aa 06       		.uleb128 0x6
 791 00ab 1A010000 		.4byte	.LASF100
 792 00af 01       		.byte	0x1
 793 00b0 04       		.byte	0x4
 794 00b1 A9       		.byte	0xa9
 795 00b2 E9010000 		.4byte	0x1e9
 796 00b6 07       		.uleb128 0x7
 797 00b7 71050000 		.4byte	.LASF15
 798 00bb 72       		.sleb128 -14
 799 00bc 07       		.uleb128 0x7
 800 00bd 3C050000 		.4byte	.LASF16
 801 00c1 74       		.sleb128 -12
 802 00c2 07       		.uleb128 0x7
 803 00c3 F3030000 		.4byte	.LASF17
 804 00c7 75       		.sleb128 -11
 805 00c8 07       		.uleb128 0x7
 806 00c9 C9010000 		.4byte	.LASF18
 807 00cd 76       		.sleb128 -10
 808 00ce 07       		.uleb128 0x7
 809 00cf 06040000 		.4byte	.LASF19
 810 00d3 7B       		.sleb128 -5
 811 00d4 07       		.uleb128 0x7
 812 00d5 B6000000 		.4byte	.LASF20
 813 00d9 7C       		.sleb128 -4
 814 00da 07       		.uleb128 0x7
 815 00db F7050000 		.4byte	.LASF21
 816 00df 7E       		.sleb128 -2
 817 00e0 07       		.uleb128 0x7
 818 00e1 1C000000 		.4byte	.LASF22
 819 00e5 7F       		.sleb128 -1
 820 00e6 07       		.uleb128 0x7
 821 00e7 12020000 		.4byte	.LASF23
 822 00eb 00       		.sleb128 0
 823 00ec 07       		.uleb128 0x7
 824 00ed 85050000 		.4byte	.LASF24
 825 00f1 01       		.sleb128 1
 826 00f2 07       		.uleb128 0x7
 827 00f3 65000000 		.4byte	.LASF25
 828 00f7 02       		.sleb128 2
 829 00f8 07       		.uleb128 0x7
 830 00f9 52050000 		.4byte	.LASF26
 831 00fd 03       		.sleb128 3
 832 00fe 07       		.uleb128 0x7
 833 00ff AB010000 		.4byte	.LASF27
 834 0103 04       		.sleb128 4
 835 0104 07       		.uleb128 0x7
ARM GAS  /tmp/cc5A92CL.s 			page 16


 836 0105 37000000 		.4byte	.LASF28
 837 0109 05       		.sleb128 5
 838 010a 07       		.uleb128 0x7
 839 010b E8030000 		.4byte	.LASF29
 840 010f 06       		.sleb128 6
 841 0110 07       		.uleb128 0x7
 842 0111 40000000 		.4byte	.LASF30
 843 0115 07       		.sleb128 7
 844 0116 07       		.uleb128 0x7
 845 0117 D0030000 		.4byte	.LASF31
 846 011b 08       		.sleb128 8
 847 011c 07       		.uleb128 0x7
 848 011d B1050000 		.4byte	.LASF32
 849 0121 09       		.sleb128 9
 850 0122 07       		.uleb128 0x7
 851 0123 54000000 		.4byte	.LASF33
 852 0127 0A       		.sleb128 10
 853 0128 07       		.uleb128 0x7
 854 0129 B6010000 		.4byte	.LASF34
 855 012d 0B       		.sleb128 11
 856 012e 07       		.uleb128 0x7
 857 012f 17050000 		.4byte	.LASF35
 858 0133 0C       		.sleb128 12
 859 0134 07       		.uleb128 0x7
 860 0135 D9010000 		.4byte	.LASF36
 861 0139 0D       		.sleb128 13
 862 013a 07       		.uleb128 0x7
 863 013b 98010000 		.4byte	.LASF37
 864 013f 0E       		.sleb128 14
 865 0140 07       		.uleb128 0x7
 866 0141 04050000 		.4byte	.LASF38
 867 0145 0F       		.sleb128 15
 868 0146 07       		.uleb128 0x7
 869 0147 47010000 		.4byte	.LASF39
 870 014b 10       		.sleb128 16
 871 014c 07       		.uleb128 0x7
 872 014d 73010000 		.4byte	.LASF40
 873 0151 11       		.sleb128 17
 874 0152 07       		.uleb128 0x7
 875 0153 73020000 		.4byte	.LASF41
 876 0157 12       		.sleb128 18
 877 0158 07       		.uleb128 0x7
 878 0159 1F040000 		.4byte	.LASF42
 879 015d 13       		.sleb128 19
 880 015e 07       		.uleb128 0x7
 881 015f 8F000000 		.4byte	.LASF43
 882 0163 14       		.sleb128 20
 883 0164 07       		.uleb128 0x7
 884 0165 F6040000 		.4byte	.LASF44
 885 0169 15       		.sleb128 21
 886 016a 07       		.uleb128 0x7
 887 016b 29000000 		.4byte	.LASF45
 888 016f 16       		.sleb128 22
 889 0170 07       		.uleb128 0x7
 890 0171 12040000 		.4byte	.LASF46
 891 0175 17       		.sleb128 23
 892 0176 07       		.uleb128 0x7
ARM GAS  /tmp/cc5A92CL.s 			page 17


 893 0177 46040000 		.4byte	.LASF47
 894 017b 18       		.sleb128 24
 895 017c 07       		.uleb128 0x7
 896 017d A4050000 		.4byte	.LASF48
 897 0181 19       		.sleb128 25
 898 0182 07       		.uleb128 0x7
 899 0183 1C020000 		.4byte	.LASF49
 900 0187 1A       		.sleb128 26
 901 0188 07       		.uleb128 0x7
 902 0189 AE020000 		.4byte	.LASF50
 903 018d 1B       		.sleb128 27
 904 018e 07       		.uleb128 0x7
 905 018f 89020000 		.4byte	.LASF51
 906 0193 1C       		.sleb128 28
 907 0194 07       		.uleb128 0x7
 908 0195 ED050000 		.4byte	.LASF52
 909 0199 1D       		.sleb128 29
 910 019a 07       		.uleb128 0x7
 911 019b 7F020000 		.4byte	.LASF53
 912 019f 1E       		.sleb128 30
 913 01a0 07       		.uleb128 0x7
 914 01a1 53020000 		.4byte	.LASF54
 915 01a5 1F       		.sleb128 31
 916 01a6 07       		.uleb128 0x7
 917 01a7 E0050000 		.4byte	.LASF55
 918 01ab 20       		.sleb128 32
 919 01ac 07       		.uleb128 0x7
 920 01ad 93020000 		.4byte	.LASF56
 921 01b1 21       		.sleb128 33
 922 01b2 07       		.uleb128 0x7
 923 01b3 7B030000 		.4byte	.LASF57
 924 01b7 22       		.sleb128 34
 925 01b8 07       		.uleb128 0x7
 926 01b9 24010000 		.4byte	.LASF58
 927 01bd 23       		.sleb128 35
 928 01be 07       		.uleb128 0x7
 929 01bf 7F040000 		.4byte	.LASF59
 930 01c3 24       		.sleb128 36
 931 01c4 07       		.uleb128 0x7
 932 01c5 06020000 		.4byte	.LASF60
 933 01c9 25       		.sleb128 37
 934 01ca 07       		.uleb128 0x7
 935 01cb 98050000 		.4byte	.LASF61
 936 01cf 26       		.sleb128 38
 937 01d0 07       		.uleb128 0x7
 938 01d1 EC010000 		.4byte	.LASF62
 939 01d5 27       		.sleb128 39
 940 01d6 07       		.uleb128 0x7
 941 01d7 44020000 		.4byte	.LASF63
 942 01db 28       		.sleb128 40
 943 01dc 07       		.uleb128 0x7
 944 01dd E7040000 		.4byte	.LASF64
 945 01e1 29       		.sleb128 41
 946 01e2 07       		.uleb128 0x7
 947 01e3 03060000 		.4byte	.LASF65
 948 01e7 2A       		.sleb128 42
 949 01e8 00       		.byte	0
ARM GAS  /tmp/cc5A92CL.s 			page 18


 950 01e9 05       		.uleb128 0x5
 951 01ea 81000000 		.4byte	0x81
 952 01ee 08       		.uleb128 0x8
 953 01ef 18       		.byte	0x18
 954 01f0 04       		.byte	0x4
 955 01f1 8603     		.2byte	0x386
 956 01f3 45020000 		.4byte	0x245
 957 01f7 09       		.uleb128 0x9
 958 01f8 494D5200 		.ascii	"IMR\000"
 959 01fc 04       		.byte	0x4
 960 01fd 8803     		.2byte	0x388
 961 01ff 9E000000 		.4byte	0x9e
 962 0203 00       		.byte	0
 963 0204 09       		.uleb128 0x9
 964 0205 454D5200 		.ascii	"EMR\000"
 965 0209 04       		.byte	0x4
 966 020a 8903     		.2byte	0x389
 967 020c 9E000000 		.4byte	0x9e
 968 0210 04       		.byte	0x4
 969 0211 0A       		.uleb128 0xa
 970 0212 D3040000 		.4byte	.LASF66
 971 0216 04       		.byte	0x4
 972 0217 8A03     		.2byte	0x38a
 973 0219 9E000000 		.4byte	0x9e
 974 021d 08       		.byte	0x8
 975 021e 0A       		.uleb128 0xa
 976 021f 01040000 		.4byte	.LASF67
 977 0223 04       		.byte	0x4
 978 0224 8B03     		.2byte	0x38b
 979 0226 9E000000 		.4byte	0x9e
 980 022a 0C       		.byte	0xc
 981 022b 0A       		.uleb128 0xa
 982 022c 1D060000 		.4byte	.LASF68
 983 0230 04       		.byte	0x4
 984 0231 8C03     		.2byte	0x38c
 985 0233 9E000000 		.4byte	0x9e
 986 0237 10       		.byte	0x10
 987 0238 09       		.uleb128 0x9
 988 0239 505200   		.ascii	"PR\000"
 989 023c 04       		.byte	0x4
 990 023d 8D03     		.2byte	0x38d
 991 023f 9E000000 		.4byte	0x9e
 992 0243 14       		.byte	0x14
 993 0244 00       		.byte	0
 994 0245 0B       		.uleb128 0xb
 995 0246 2E020000 		.4byte	.LASF69
 996 024a 04       		.byte	0x4
 997 024b 8E03     		.2byte	0x38e
 998 024d EE010000 		.4byte	0x1ee
 999 0251 0C       		.uleb128 0xc
 1000 0252 01       		.byte	0x1
 1001 0253 05       		.byte	0x5
 1002 0254 4A       		.byte	0x4a
 1003 0255 6C020000 		.4byte	0x26c
 1004 0259 07       		.uleb128 0x7
 1005 025a 88030000 		.4byte	.LASF70
 1006 025e 00       		.sleb128 0
ARM GAS  /tmp/cc5A92CL.s 			page 19


 1007 025f 07       		.uleb128 0x7
 1008 0260 4B000000 		.4byte	.LASF71
 1009 0264 01       		.sleb128 1
 1010 0265 07       		.uleb128 0x7
 1011 0266 84000000 		.4byte	.LASF72
 1012 026a 02       		.sleb128 2
 1013 026b 00       		.byte	0
 1014 026c 04       		.uleb128 0x4
 1015 026d 5B050000 		.4byte	.LASF73
 1016 0271 05       		.byte	0x5
 1017 0272 4E       		.byte	0x4e
 1018 0273 51020000 		.4byte	0x251
 1019 0277 04       		.uleb128 0x4
 1020 0278 C9050000 		.4byte	.LASF74
 1021 027c 05       		.byte	0x5
 1022 027d 53       		.byte	0x53
 1023 027e 82020000 		.4byte	0x282
 1024 0282 0D       		.uleb128 0xd
 1025 0283 C9050000 		.4byte	.LASF74
 1026 0287 08       		.byte	0x8
 1027 0288 06       		.byte	0x6
 1028 0289 71       		.byte	0x71
 1029 028a A7020000 		.4byte	0x2a7
 1030 028e 0E       		.uleb128 0xe
 1031 028f 5F000000 		.4byte	.LASF75
 1032 0293 06       		.byte	0x6
 1033 0294 75       		.byte	0x75
 1034 0295 6C020000 		.4byte	0x26c
 1035 0299 00       		.byte	0
 1036 029a 0E       		.uleb128 0xe
 1037 029b 5A010000 		.4byte	.LASF76
 1038 029f 06       		.byte	0x6
 1039 02a0 79       		.byte	0x79
 1040 02a1 34030000 		.4byte	0x334
 1041 02a5 04       		.byte	0x4
 1042 02a6 00       		.byte	0
 1043 02a7 04       		.uleb128 0x4
 1044 02a8 BC050000 		.4byte	.LASF77
 1045 02ac 06       		.byte	0x6
 1046 02ad 47       		.byte	0x47
 1047 02ae 8C000000 		.4byte	0x8c
 1048 02b2 04       		.uleb128 0x4
 1049 02b3 BB020000 		.4byte	.LASF78
 1050 02b7 06       		.byte	0x6
 1051 02b8 4F       		.byte	0x4f
 1052 02b9 BD020000 		.4byte	0x2bd
 1053 02bd 0F       		.uleb128 0xf
 1054 02be 04       		.byte	0x4
 1055 02bf C3020000 		.4byte	0x2c3
 1056 02c3 10       		.uleb128 0x10
 1057 02c4 D3020000 		.4byte	0x2d3
 1058 02c8 11       		.uleb128 0x11
 1059 02c9 D3020000 		.4byte	0x2d3
 1060 02cd 11       		.uleb128 0x11
 1061 02ce A7020000 		.4byte	0x2a7
 1062 02d2 00       		.byte	0
 1063 02d3 0F       		.uleb128 0xf
ARM GAS  /tmp/cc5A92CL.s 			page 20


 1064 02d4 04       		.byte	0x4
 1065 02d5 77020000 		.4byte	0x277
 1066 02d9 12       		.uleb128 0x12
 1067 02da 08       		.byte	0x8
 1068 02db 06       		.byte	0x6
 1069 02dc 54       		.byte	0x54
 1070 02dd F9020000 		.4byte	0x2f9
 1071 02e1 0E       		.uleb128 0xe
 1072 02e2 1F010000 		.4byte	.LASF79
 1073 02e6 06       		.byte	0x6
 1074 02e7 58       		.byte	0x58
 1075 02e8 8C000000 		.4byte	0x8c
 1076 02ec 00       		.byte	0
 1077 02ed 13       		.uleb128 0x13
 1078 02ee 636200   		.ascii	"cb\000"
 1079 02f1 06       		.byte	0x6
 1080 02f2 5F       		.byte	0x5f
 1081 02f3 B2020000 		.4byte	0x2b2
 1082 02f7 04       		.byte	0x4
 1083 02f8 00       		.byte	0
 1084 02f9 04       		.uleb128 0x4
 1085 02fa 54040000 		.4byte	.LASF80
 1086 02fe 06       		.byte	0x6
 1087 02ff 60       		.byte	0x60
 1088 0300 D9020000 		.4byte	0x2d9
 1089 0304 12       		.uleb128 0x12
 1090 0305 98       		.byte	0x98
 1091 0306 06       		.byte	0x6
 1092 0307 66       		.byte	0x66
 1093 0308 19030000 		.4byte	0x319
 1094 030c 0E       		.uleb128 0xe
 1095 030d 65040000 		.4byte	.LASF81
 1096 0311 06       		.byte	0x6
 1097 0312 6A       		.byte	0x6a
 1098 0313 19030000 		.4byte	0x319
 1099 0317 00       		.byte	0
 1100 0318 00       		.byte	0
 1101 0319 14       		.uleb128 0x14
 1102 031a F9020000 		.4byte	0x2f9
 1103 031e 29030000 		.4byte	0x329
 1104 0322 15       		.uleb128 0x15
 1105 0323 A3000000 		.4byte	0xa3
 1106 0327 12       		.byte	0x12
 1107 0328 00       		.byte	0
 1108 0329 04       		.uleb128 0x4
 1109 032a 12000000 		.4byte	.LASF82
 1110 032e 06       		.byte	0x6
 1111 032f 6C       		.byte	0x6c
 1112 0330 04030000 		.4byte	0x304
 1113 0334 0F       		.uleb128 0xf
 1114 0335 04       		.byte	0x4
 1115 0336 3A030000 		.4byte	0x33a
 1116 033a 16       		.uleb128 0x16
 1117 033b 29030000 		.4byte	0x329
 1118 033f 17       		.uleb128 0x17
 1119 0340 14060000 		.4byte	.LASF83
 1120 0344 01       		.byte	0x1
ARM GAS  /tmp/cc5A92CL.s 			page 21


 1121 0345 39       		.byte	0x39
 1122 0346 00000000 		.4byte	.LFB56
 1123 034a 26000000 		.4byte	.LFE56-.LFB56
 1124 034e 01       		.uleb128 0x1
 1125 034f 9C       		.byte	0x9c
 1126 0350 6D030000 		.4byte	0x36d
 1127 0354 18       		.uleb128 0x18
 1128 0355 1E000000 		.4byte	.LVL0
 1129 0359 63030000 		.4byte	0x363
 1130 035d 19       		.uleb128 0x19
 1131 035e 01       		.uleb128 0x1
 1132 035f 51       		.byte	0x51
 1133 0360 01       		.uleb128 0x1
 1134 0361 30       		.byte	0x30
 1135 0362 00       		.byte	0
 1136 0363 1A       		.uleb128 0x1a
 1137 0364 26000000 		.4byte	.LVL1
 1138 0368 A1070000 		.4byte	0x7a1
 1139 036c 00       		.byte	0
 1140 036d 17       		.uleb128 0x17
 1141 036e 09000000 		.4byte	.LASF84
 1142 0372 01       		.byte	0x1
 1143 0373 48       		.byte	0x48
 1144 0374 00000000 		.4byte	.LFB57
 1145 0378 26000000 		.4byte	.LFE57-.LFB57
 1146 037c 01       		.uleb128 0x1
 1147 037d 9C       		.byte	0x9c
 1148 037e 9B030000 		.4byte	0x39b
 1149 0382 18       		.uleb128 0x18
 1150 0383 1E000000 		.4byte	.LVL2
 1151 0387 91030000 		.4byte	0x391
 1152 038b 19       		.uleb128 0x19
 1153 038c 01       		.uleb128 0x1
 1154 038d 51       		.byte	0x51
 1155 038e 01       		.uleb128 0x1
 1156 038f 31       		.byte	0x31
 1157 0390 00       		.byte	0
 1158 0391 1A       		.uleb128 0x1a
 1159 0392 26000000 		.4byte	.LVL3
 1160 0396 A1070000 		.4byte	0x7a1
 1161 039a 00       		.byte	0
 1162 039b 17       		.uleb128 0x17
 1163 039c 23060000 		.4byte	.LASF85
 1164 03a0 01       		.byte	0x1
 1165 03a1 57       		.byte	0x57
 1166 03a2 00000000 		.4byte	.LFB58
 1167 03a6 26000000 		.4byte	.LFE58-.LFB58
 1168 03aa 01       		.uleb128 0x1
 1169 03ab 9C       		.byte	0x9c
 1170 03ac C9030000 		.4byte	0x3c9
 1171 03b0 18       		.uleb128 0x18
 1172 03b1 1E000000 		.4byte	.LVL4
 1173 03b5 BF030000 		.4byte	0x3bf
 1174 03b9 19       		.uleb128 0x19
 1175 03ba 01       		.uleb128 0x1
 1176 03bb 51       		.byte	0x51
 1177 03bc 01       		.uleb128 0x1
ARM GAS  /tmp/cc5A92CL.s 			page 22


 1178 03bd 32       		.byte	0x32
 1179 03be 00       		.byte	0
 1180 03bf 1A       		.uleb128 0x1a
 1181 03c0 26000000 		.4byte	.LVL5
 1182 03c4 A1070000 		.4byte	0x7a1
 1183 03c8 00       		.byte	0
 1184 03c9 17       		.uleb128 0x17
 1185 03ca 6A010000 		.4byte	.LASF86
 1186 03ce 01       		.byte	0x1
 1187 03cf 66       		.byte	0x66
 1188 03d0 00000000 		.4byte	.LFB59
 1189 03d4 26000000 		.4byte	.LFE59-.LFB59
 1190 03d8 01       		.uleb128 0x1
 1191 03d9 9C       		.byte	0x9c
 1192 03da F7030000 		.4byte	0x3f7
 1193 03de 18       		.uleb128 0x18
 1194 03df 1E000000 		.4byte	.LVL6
 1195 03e3 ED030000 		.4byte	0x3ed
 1196 03e7 19       		.uleb128 0x19
 1197 03e8 01       		.uleb128 0x1
 1198 03e9 51       		.byte	0x51
 1199 03ea 01       		.uleb128 0x1
 1200 03eb 33       		.byte	0x33
 1201 03ec 00       		.byte	0
 1202 03ed 1A       		.uleb128 0x1a
 1203 03ee 26000000 		.4byte	.LVL7
 1204 03f2 A1070000 		.4byte	0x7a1
 1205 03f6 00       		.byte	0
 1206 03f7 17       		.uleb128 0x17
 1207 03f8 86010000 		.4byte	.LASF87
 1208 03fc 01       		.byte	0x1
 1209 03fd 75       		.byte	0x75
 1210 03fe 00000000 		.4byte	.LFB60
 1211 0402 26000000 		.4byte	.LFE60-.LFB60
 1212 0406 01       		.uleb128 0x1
 1213 0407 9C       		.byte	0x9c
 1214 0408 25040000 		.4byte	0x425
 1215 040c 18       		.uleb128 0x18
 1216 040d 1E000000 		.4byte	.LVL8
 1217 0411 1B040000 		.4byte	0x41b
 1218 0415 19       		.uleb128 0x19
 1219 0416 01       		.uleb128 0x1
 1220 0417 51       		.byte	0x51
 1221 0418 01       		.uleb128 0x1
 1222 0419 34       		.byte	0x34
 1223 041a 00       		.byte	0
 1224 041b 1A       		.uleb128 0x1a
 1225 041c 26000000 		.4byte	.LVL9
 1226 0420 A1070000 		.4byte	0x7a1
 1227 0424 00       		.byte	0
 1228 0425 17       		.uleb128 0x17
 1229 0426 6E040000 		.4byte	.LASF88
 1230 042a 01       		.byte	0x1
 1231 042b 84       		.byte	0x84
 1232 042c 00000000 		.4byte	.LFB61
 1233 0430 86000000 		.4byte	.LFE61-.LFB61
 1234 0434 01       		.uleb128 0x1
ARM GAS  /tmp/cc5A92CL.s 			page 23


 1235 0435 9C       		.byte	0x9c
 1236 0436 99040000 		.4byte	0x499
 1237 043a 1B       		.uleb128 0x1b
 1238 043b 707200   		.ascii	"pr\000"
 1239 043e 01       		.byte	0x1
 1240 043f 85       		.byte	0x85
 1241 0440 8C000000 		.4byte	0x8c
 1242 0444 00000000 		.4byte	.LLST0
 1243 0448 18       		.uleb128 0x18
 1244 0449 36000000 		.4byte	.LVL12
 1245 044d 57040000 		.4byte	0x457
 1246 0451 19       		.uleb128 0x19
 1247 0452 01       		.uleb128 0x1
 1248 0453 51       		.byte	0x51
 1249 0454 01       		.uleb128 0x1
 1250 0455 39       		.byte	0x39
 1251 0456 00       		.byte	0
 1252 0457 1A       		.uleb128 0x1a
 1253 0458 3E000000 		.4byte	.LVL14
 1254 045c A1070000 		.4byte	0x7a1
 1255 0460 18       		.uleb128 0x18
 1256 0461 4E000000 		.4byte	.LVL15
 1257 0465 6F040000 		.4byte	0x46f
 1258 0469 19       		.uleb128 0x19
 1259 046a 01       		.uleb128 0x1
 1260 046b 51       		.byte	0x51
 1261 046c 01       		.uleb128 0x1
 1262 046d 38       		.byte	0x38
 1263 046e 00       		.byte	0
 1264 046f 18       		.uleb128 0x18
 1265 0470 60000000 		.4byte	.LVL16
 1266 0474 7E040000 		.4byte	0x47e
 1267 0478 19       		.uleb128 0x19
 1268 0479 01       		.uleb128 0x1
 1269 047a 51       		.byte	0x51
 1270 047b 01       		.uleb128 0x1
 1271 047c 37       		.byte	0x37
 1272 047d 00       		.byte	0
 1273 047e 18       		.uleb128 0x18
 1274 047f 72000000 		.4byte	.LVL17
 1275 0483 8D040000 		.4byte	0x48d
 1276 0487 19       		.uleb128 0x19
 1277 0488 01       		.uleb128 0x1
 1278 0489 51       		.byte	0x51
 1279 048a 01       		.uleb128 0x1
 1280 048b 36       		.byte	0x36
 1281 048c 00       		.byte	0
 1282 048d 1C       		.uleb128 0x1c
 1283 048e 84000000 		.4byte	.LVL19
 1284 0492 19       		.uleb128 0x19
 1285 0493 01       		.uleb128 0x1
 1286 0494 51       		.byte	0x51
 1287 0495 01       		.uleb128 0x1
 1288 0496 35       		.byte	0x35
 1289 0497 00       		.byte	0
 1290 0498 00       		.byte	0
 1291 0499 17       		.uleb128 0x17
ARM GAS  /tmp/cc5A92CL.s 			page 24


 1292 049a 61010000 		.4byte	.LASF89
 1293 049e 01       		.byte	0x1
 1294 049f 9E       		.byte	0x9e
 1295 04a0 00000000 		.4byte	.LFB62
 1296 04a4 9C000000 		.4byte	.LFE62-.LFB62
 1297 04a8 01       		.uleb128 0x1
 1298 04a9 9C       		.byte	0x9c
 1299 04aa 1C050000 		.4byte	0x51c
 1300 04ae 1B       		.uleb128 0x1b
 1301 04af 707200   		.ascii	"pr\000"
 1302 04b2 01       		.byte	0x1
 1303 04b3 9F       		.byte	0x9f
 1304 04b4 8C000000 		.4byte	0x8c
 1305 04b8 51000000 		.4byte	.LLST1
 1306 04bc 18       		.uleb128 0x18
 1307 04bd 3A000000 		.4byte	.LVL22
 1308 04c1 CB040000 		.4byte	0x4cb
 1309 04c5 19       		.uleb128 0x19
 1310 04c6 01       		.uleb128 0x1
 1311 04c7 51       		.byte	0x51
 1312 04c8 01       		.uleb128 0x1
 1313 04c9 3F       		.byte	0x3f
 1314 04ca 00       		.byte	0
 1315 04cb 1A       		.uleb128 0x1a
 1316 04cc 42000000 		.4byte	.LVL24
 1317 04d0 A1070000 		.4byte	0x7a1
 1318 04d4 18       		.uleb128 0x18
 1319 04d5 52000000 		.4byte	.LVL25
 1320 04d9 E3040000 		.4byte	0x4e3
 1321 04dd 19       		.uleb128 0x19
 1322 04de 01       		.uleb128 0x1
 1323 04df 51       		.byte	0x51
 1324 04e0 01       		.uleb128 0x1
 1325 04e1 3E       		.byte	0x3e
 1326 04e2 00       		.byte	0
 1327 04e3 18       		.uleb128 0x18
 1328 04e4 64000000 		.4byte	.LVL26
 1329 04e8 F2040000 		.4byte	0x4f2
 1330 04ec 19       		.uleb128 0x19
 1331 04ed 01       		.uleb128 0x1
 1332 04ee 51       		.byte	0x51
 1333 04ef 01       		.uleb128 0x1
 1334 04f0 3D       		.byte	0x3d
 1335 04f1 00       		.byte	0
 1336 04f2 18       		.uleb128 0x18
 1337 04f3 76000000 		.4byte	.LVL27
 1338 04f7 01050000 		.4byte	0x501
 1339 04fb 19       		.uleb128 0x19
 1340 04fc 01       		.uleb128 0x1
 1341 04fd 51       		.byte	0x51
 1342 04fe 01       		.uleb128 0x1
 1343 04ff 3C       		.byte	0x3c
 1344 0500 00       		.byte	0
 1345 0501 18       		.uleb128 0x18
 1346 0502 88000000 		.4byte	.LVL28
 1347 0506 10050000 		.4byte	0x510
 1348 050a 19       		.uleb128 0x19
ARM GAS  /tmp/cc5A92CL.s 			page 25


 1349 050b 01       		.uleb128 0x1
 1350 050c 51       		.byte	0x51
 1351 050d 01       		.uleb128 0x1
 1352 050e 3B       		.byte	0x3b
 1353 050f 00       		.byte	0
 1354 0510 1C       		.uleb128 0x1c
 1355 0511 9A000000 		.4byte	.LVL30
 1356 0515 19       		.uleb128 0x19
 1357 0516 01       		.uleb128 0x1
 1358 0517 51       		.byte	0x51
 1359 0518 01       		.uleb128 0x1
 1360 0519 3A       		.byte	0x3a
 1361 051a 00       		.byte	0
 1362 051b 00       		.byte	0
 1363 051c 17       		.uleb128 0x17
 1364 051d DE040000 		.4byte	.LASF90
 1365 0521 01       		.byte	0x1
 1366 0522 BB       		.byte	0xbb
 1367 0523 00000000 		.4byte	.LFB63
 1368 0527 2A000000 		.4byte	.LFE63-.LFB63
 1369 052b 01       		.uleb128 0x1
 1370 052c 9C       		.byte	0x9c
 1371 052d 4A050000 		.4byte	0x54a
 1372 0531 18       		.uleb128 0x18
 1373 0532 22000000 		.4byte	.LVL31
 1374 0536 40050000 		.4byte	0x540
 1375 053a 19       		.uleb128 0x19
 1376 053b 01       		.uleb128 0x1
 1377 053c 51       		.byte	0x51
 1378 053d 01       		.uleb128 0x1
 1379 053e 40       		.byte	0x40
 1380 053f 00       		.byte	0
 1381 0540 1A       		.uleb128 0x1a
 1382 0541 2A000000 		.4byte	.LVL32
 1383 0545 A1070000 		.4byte	0x7a1
 1384 0549 00       		.byte	0
 1385 054a 17       		.uleb128 0x17
 1386 054b 00000000 		.4byte	.LASF91
 1387 054f 01       		.byte	0x1
 1388 0550 CA       		.byte	0xca
 1389 0551 00000000 		.4byte	.LFB64
 1390 0555 2A000000 		.4byte	.LFE64-.LFB64
 1391 0559 01       		.uleb128 0x1
 1392 055a 9C       		.byte	0x9c
 1393 055b 78050000 		.4byte	0x578
 1394 055f 18       		.uleb128 0x18
 1395 0560 22000000 		.4byte	.LVL33
 1396 0564 6E050000 		.4byte	0x56e
 1397 0568 19       		.uleb128 0x19
 1398 0569 01       		.uleb128 0x1
 1399 056a 51       		.byte	0x51
 1400 056b 01       		.uleb128 0x1
 1401 056c 41       		.byte	0x41
 1402 056d 00       		.byte	0
 1403 056e 1A       		.uleb128 0x1a
 1404 056f 2A000000 		.4byte	.LVL34
 1405 0573 A1070000 		.4byte	0x7a1
ARM GAS  /tmp/cc5A92CL.s 			page 26


 1406 0577 00       		.byte	0
 1407 0578 17       		.uleb128 0x17
 1408 0579 8F010000 		.4byte	.LASF92
 1409 057d 01       		.byte	0x1
 1410 057e FB       		.byte	0xfb
 1411 057f 00000000 		.4byte	.LFB65
 1412 0583 2A000000 		.4byte	.LFE65-.LFB65
 1413 0587 01       		.uleb128 0x1
 1414 0588 9C       		.byte	0x9c
 1415 0589 A6050000 		.4byte	0x5a6
 1416 058d 18       		.uleb128 0x18
 1417 058e 22000000 		.4byte	.LVL35
 1418 0592 9C050000 		.4byte	0x59c
 1419 0596 19       		.uleb128 0x19
 1420 0597 01       		.uleb128 0x1
 1421 0598 51       		.byte	0x51
 1422 0599 01       		.uleb128 0x1
 1423 059a 42       		.byte	0x42
 1424 059b 00       		.byte	0
 1425 059c 1A       		.uleb128 0x1a
 1426 059d 2A000000 		.4byte	.LVL36
 1427 05a1 A1070000 		.4byte	0x7a1
 1428 05a5 00       		.byte	0
 1429 05a6 1D       		.uleb128 0x1d
 1430 05a7 89040000 		.4byte	.LASF93
 1431 05ab 01       		.byte	0x1
 1432 05ac 0F01     		.2byte	0x10f
 1433 05ae 00000000 		.4byte	.LFB66
 1434 05b2 56000000 		.4byte	.LFE66-.LFB66
 1435 05b6 01       		.uleb128 0x1
 1436 05b7 9C       		.byte	0x9c
 1437 05b8 B6060000 		.4byte	0x6b6
 1438 05bc 1E       		.uleb128 0x1e
 1439 05bd 0A000000 		.4byte	.LVL37
 1440 05c1 A9070000 		.4byte	0x7a9
 1441 05c5 D5050000 		.4byte	0x5d5
 1442 05c9 19       		.uleb128 0x19
 1443 05ca 01       		.uleb128 0x1
 1444 05cb 51       		.byte	0x51
 1445 05cc 02       		.uleb128 0x2
 1446 05cd 08       		.byte	0x8
 1447 05ce 60       		.byte	0x60
 1448 05cf 19       		.uleb128 0x19
 1449 05d0 01       		.uleb128 0x1
 1450 05d1 50       		.byte	0x50
 1451 05d2 01       		.uleb128 0x1
 1452 05d3 36       		.byte	0x36
 1453 05d4 00       		.byte	0
 1454 05d5 1E       		.uleb128 0x1e
 1455 05d6 12000000 		.4byte	.LVL38
 1456 05da A9070000 		.4byte	0x7a9
 1457 05de EE050000 		.4byte	0x5ee
 1458 05e2 19       		.uleb128 0x19
 1459 05e3 01       		.uleb128 0x1
 1460 05e4 51       		.byte	0x51
 1461 05e5 02       		.uleb128 0x2
 1462 05e6 08       		.byte	0x8
ARM GAS  /tmp/cc5A92CL.s 			page 27


 1463 05e7 60       		.byte	0x60
 1464 05e8 19       		.uleb128 0x19
 1465 05e9 01       		.uleb128 0x1
 1466 05ea 50       		.byte	0x50
 1467 05eb 01       		.uleb128 0x1
 1468 05ec 37       		.byte	0x37
 1469 05ed 00       		.byte	0
 1470 05ee 1E       		.uleb128 0x1e
 1471 05ef 1A000000 		.4byte	.LVL39
 1472 05f3 A9070000 		.4byte	0x7a9
 1473 05f7 07060000 		.4byte	0x607
 1474 05fb 19       		.uleb128 0x19
 1475 05fc 01       		.uleb128 0x1
 1476 05fd 51       		.byte	0x51
 1477 05fe 02       		.uleb128 0x2
 1478 05ff 08       		.byte	0x8
 1479 0600 60       		.byte	0x60
 1480 0601 19       		.uleb128 0x19
 1481 0602 01       		.uleb128 0x1
 1482 0603 50       		.byte	0x50
 1483 0604 01       		.uleb128 0x1
 1484 0605 38       		.byte	0x38
 1485 0606 00       		.byte	0
 1486 0607 1E       		.uleb128 0x1e
 1487 0608 22000000 		.4byte	.LVL40
 1488 060c A9070000 		.4byte	0x7a9
 1489 0610 20060000 		.4byte	0x620
 1490 0614 19       		.uleb128 0x19
 1491 0615 01       		.uleb128 0x1
 1492 0616 51       		.byte	0x51
 1493 0617 02       		.uleb128 0x2
 1494 0618 08       		.byte	0x8
 1495 0619 60       		.byte	0x60
 1496 061a 19       		.uleb128 0x19
 1497 061b 01       		.uleb128 0x1
 1498 061c 50       		.byte	0x50
 1499 061d 01       		.uleb128 0x1
 1500 061e 39       		.byte	0x39
 1501 061f 00       		.byte	0
 1502 0620 1E       		.uleb128 0x1e
 1503 0621 2A000000 		.4byte	.LVL41
 1504 0625 A9070000 		.4byte	0x7a9
 1505 0629 39060000 		.4byte	0x639
 1506 062d 19       		.uleb128 0x19
 1507 062e 01       		.uleb128 0x1
 1508 062f 51       		.byte	0x51
 1509 0630 02       		.uleb128 0x2
 1510 0631 08       		.byte	0x8
 1511 0632 60       		.byte	0x60
 1512 0633 19       		.uleb128 0x19
 1513 0634 01       		.uleb128 0x1
 1514 0635 50       		.byte	0x50
 1515 0636 01       		.uleb128 0x1
 1516 0637 3A       		.byte	0x3a
 1517 0638 00       		.byte	0
 1518 0639 1E       		.uleb128 0x1e
 1519 063a 32000000 		.4byte	.LVL42
ARM GAS  /tmp/cc5A92CL.s 			page 28


 1520 063e A9070000 		.4byte	0x7a9
 1521 0642 52060000 		.4byte	0x652
 1522 0646 19       		.uleb128 0x19
 1523 0647 01       		.uleb128 0x1
 1524 0648 51       		.byte	0x51
 1525 0649 02       		.uleb128 0x2
 1526 064a 08       		.byte	0x8
 1527 064b 60       		.byte	0x60
 1528 064c 19       		.uleb128 0x19
 1529 064d 01       		.uleb128 0x1
 1530 064e 50       		.byte	0x50
 1531 064f 01       		.uleb128 0x1
 1532 0650 47       		.byte	0x47
 1533 0651 00       		.byte	0
 1534 0652 1E       		.uleb128 0x1e
 1535 0653 3A000000 		.4byte	.LVL43
 1536 0657 A9070000 		.4byte	0x7a9
 1537 065b 6C060000 		.4byte	0x66c
 1538 065f 19       		.uleb128 0x19
 1539 0660 01       		.uleb128 0x1
 1540 0661 51       		.byte	0x51
 1541 0662 02       		.uleb128 0x2
 1542 0663 08       		.byte	0x8
 1543 0664 60       		.byte	0x60
 1544 0665 19       		.uleb128 0x19
 1545 0666 01       		.uleb128 0x1
 1546 0667 50       		.byte	0x50
 1547 0668 02       		.uleb128 0x2
 1548 0669 08       		.byte	0x8
 1549 066a 28       		.byte	0x28
 1550 066b 00       		.byte	0
 1551 066c 1E       		.uleb128 0x1e
 1552 066d 42000000 		.4byte	.LVL44
 1553 0671 A9070000 		.4byte	0x7a9
 1554 0675 85060000 		.4byte	0x685
 1555 0679 19       		.uleb128 0x19
 1556 067a 01       		.uleb128 0x1
 1557 067b 51       		.byte	0x51
 1558 067c 02       		.uleb128 0x2
 1559 067d 08       		.byte	0x8
 1560 067e 60       		.byte	0x60
 1561 067f 19       		.uleb128 0x19
 1562 0680 01       		.uleb128 0x1
 1563 0681 50       		.byte	0x50
 1564 0682 01       		.uleb128 0x1
 1565 0683 31       		.byte	0x31
 1566 0684 00       		.byte	0
 1567 0685 1E       		.uleb128 0x1e
 1568 0686 4A000000 		.4byte	.LVL45
 1569 068a A9070000 		.4byte	0x7a9
 1570 068e 9F060000 		.4byte	0x69f
 1571 0692 19       		.uleb128 0x19
 1572 0693 01       		.uleb128 0x1
 1573 0694 51       		.byte	0x51
 1574 0695 02       		.uleb128 0x2
 1575 0696 08       		.byte	0x8
 1576 0697 60       		.byte	0x60
ARM GAS  /tmp/cc5A92CL.s 			page 29


 1577 0698 19       		.uleb128 0x19
 1578 0699 01       		.uleb128 0x1
 1579 069a 50       		.byte	0x50
 1580 069b 02       		.uleb128 0x2
 1581 069c 08       		.byte	0x8
 1582 069d 29       		.byte	0x29
 1583 069e 00       		.byte	0
 1584 069f 1F       		.uleb128 0x1f
 1585 06a0 56000000 		.4byte	.LVL46
 1586 06a4 A9070000 		.4byte	0x7a9
 1587 06a8 19       		.uleb128 0x19
 1588 06a9 01       		.uleb128 0x1
 1589 06aa 51       		.byte	0x51
 1590 06ab 02       		.uleb128 0x2
 1591 06ac 08       		.byte	0x8
 1592 06ad 60       		.byte	0x60
 1593 06ae 19       		.uleb128 0x19
 1594 06af 01       		.uleb128 0x1
 1595 06b0 50       		.byte	0x50
 1596 06b1 02       		.uleb128 0x2
 1597 06b2 08       		.byte	0x8
 1598 06b3 2A       		.byte	0x2a
 1599 06b4 00       		.byte	0
 1600 06b5 00       		.byte	0
 1601 06b6 1D       		.uleb128 0x1d
 1602 06b7 2E010000 		.4byte	.LASF94
 1603 06bb 01       		.byte	0x1
 1604 06bc 3801     		.2byte	0x138
 1605 06be 00000000 		.4byte	.LFB67
 1606 06c2 42000000 		.4byte	.LFE67-.LFB67
 1607 06c6 01       		.uleb128 0x1
 1608 06c7 9C       		.byte	0x9c
 1609 06c8 8A070000 		.4byte	0x78a
 1610 06cc 1E       		.uleb128 0x1e
 1611 06cd 08000000 		.4byte	.LVL47
 1612 06d1 C0070000 		.4byte	0x7c0
 1613 06d5 DF060000 		.4byte	0x6df
 1614 06d9 19       		.uleb128 0x19
 1615 06da 01       		.uleb128 0x1
 1616 06db 50       		.byte	0x50
 1617 06dc 01       		.uleb128 0x1
 1618 06dd 36       		.byte	0x36
 1619 06de 00       		.byte	0
 1620 06df 1E       		.uleb128 0x1e
 1621 06e0 0E000000 		.4byte	.LVL48
 1622 06e4 C0070000 		.4byte	0x7c0
 1623 06e8 F2060000 		.4byte	0x6f2
 1624 06ec 19       		.uleb128 0x19
 1625 06ed 01       		.uleb128 0x1
 1626 06ee 50       		.byte	0x50
 1627 06ef 01       		.uleb128 0x1
 1628 06f0 37       		.byte	0x37
 1629 06f1 00       		.byte	0
 1630 06f2 1E       		.uleb128 0x1e
 1631 06f3 14000000 		.4byte	.LVL49
 1632 06f7 C0070000 		.4byte	0x7c0
 1633 06fb 05070000 		.4byte	0x705
ARM GAS  /tmp/cc5A92CL.s 			page 30


 1634 06ff 19       		.uleb128 0x19
 1635 0700 01       		.uleb128 0x1
 1636 0701 50       		.byte	0x50
 1637 0702 01       		.uleb128 0x1
 1638 0703 38       		.byte	0x38
 1639 0704 00       		.byte	0
 1640 0705 1E       		.uleb128 0x1e
 1641 0706 1A000000 		.4byte	.LVL50
 1642 070a C0070000 		.4byte	0x7c0
 1643 070e 18070000 		.4byte	0x718
 1644 0712 19       		.uleb128 0x19
 1645 0713 01       		.uleb128 0x1
 1646 0714 50       		.byte	0x50
 1647 0715 01       		.uleb128 0x1
 1648 0716 39       		.byte	0x39
 1649 0717 00       		.byte	0
 1650 0718 1E       		.uleb128 0x1e
 1651 0719 20000000 		.4byte	.LVL51
 1652 071d C0070000 		.4byte	0x7c0
 1653 0721 2B070000 		.4byte	0x72b
 1654 0725 19       		.uleb128 0x19
 1655 0726 01       		.uleb128 0x1
 1656 0727 50       		.byte	0x50
 1657 0728 01       		.uleb128 0x1
 1658 0729 3A       		.byte	0x3a
 1659 072a 00       		.byte	0
 1660 072b 1E       		.uleb128 0x1e
 1661 072c 26000000 		.4byte	.LVL52
 1662 0730 C0070000 		.4byte	0x7c0
 1663 0734 3E070000 		.4byte	0x73e
 1664 0738 19       		.uleb128 0x19
 1665 0739 01       		.uleb128 0x1
 1666 073a 50       		.byte	0x50
 1667 073b 01       		.uleb128 0x1
 1668 073c 47       		.byte	0x47
 1669 073d 00       		.byte	0
 1670 073e 1E       		.uleb128 0x1e
 1671 073f 2C000000 		.4byte	.LVL53
 1672 0743 C0070000 		.4byte	0x7c0
 1673 0747 52070000 		.4byte	0x752
 1674 074b 19       		.uleb128 0x19
 1675 074c 01       		.uleb128 0x1
 1676 074d 50       		.byte	0x50
 1677 074e 02       		.uleb128 0x2
 1678 074f 08       		.byte	0x8
 1679 0750 28       		.byte	0x28
 1680 0751 00       		.byte	0
 1681 0752 1E       		.uleb128 0x1e
 1682 0753 32000000 		.4byte	.LVL54
 1683 0757 C0070000 		.4byte	0x7c0
 1684 075b 65070000 		.4byte	0x765
 1685 075f 19       		.uleb128 0x19
 1686 0760 01       		.uleb128 0x1
 1687 0761 50       		.byte	0x50
 1688 0762 01       		.uleb128 0x1
 1689 0763 31       		.byte	0x31
 1690 0764 00       		.byte	0
ARM GAS  /tmp/cc5A92CL.s 			page 31


 1691 0765 1E       		.uleb128 0x1e
 1692 0766 38000000 		.4byte	.LVL55
 1693 076a C0070000 		.4byte	0x7c0
 1694 076e 79070000 		.4byte	0x779
 1695 0772 19       		.uleb128 0x19
 1696 0773 01       		.uleb128 0x1
 1697 0774 50       		.byte	0x50
 1698 0775 02       		.uleb128 0x2
 1699 0776 08       		.byte	0x8
 1700 0777 29       		.byte	0x29
 1701 0778 00       		.byte	0
 1702 0779 1F       		.uleb128 0x1f
 1703 077a 42000000 		.4byte	.LVL56
 1704 077e C0070000 		.4byte	0x7c0
 1705 0782 19       		.uleb128 0x19
 1706 0783 01       		.uleb128 0x1
 1707 0784 50       		.byte	0x50
 1708 0785 02       		.uleb128 0x2
 1709 0786 08       		.byte	0x8
 1710 0787 2A       		.byte	0x2a
 1711 0788 00       		.byte	0
 1712 0789 00       		.byte	0
 1713 078a 20       		.uleb128 0x20
 1714 078b D3050000 		.4byte	.LASF95
 1715 078f 07       		.byte	0x7
 1716 0790 0706     		.2byte	0x607
 1717 0792 E9010000 		.4byte	0x1e9
 1718 0796 21       		.uleb128 0x21
 1719 0797 A1040000 		.4byte	.LASF96
 1720 079b 06       		.byte	0x6
 1721 079c 86       		.byte	0x86
 1722 079d 77020000 		.4byte	0x277
 1723 07a1 22       		.uleb128 0x22
 1724 07a2 60020000 		.4byte	.LASF101
 1725 07a6 08       		.byte	0x8
 1726 07a7 0302     		.2byte	0x203
 1727 07a9 23       		.uleb128 0x23
 1728 07aa 93030000 		.4byte	.LASF102
 1729 07ae 09       		.byte	0x9
 1730 07af 2301     		.2byte	0x123
 1731 07b1 C0070000 		.4byte	0x7c0
 1732 07b5 11       		.uleb128 0x11
 1733 07b6 8C000000 		.4byte	0x8c
 1734 07ba 11       		.uleb128 0x11
 1735 07bb 8C000000 		.4byte	0x8c
 1736 07bf 00       		.byte	0
 1737 07c0 24       		.uleb128 0x24
 1738 07c1 A4000000 		.4byte	.LASF103
 1739 07c5 09       		.byte	0x9
 1740 07c6 2401     		.2byte	0x124
 1741 07c8 11       		.uleb128 0x11
 1742 07c9 8C000000 		.4byte	0x8c
 1743 07cd 00       		.byte	0
 1744 07ce 00       		.byte	0
 1745              		.section	.debug_abbrev,"",%progbits
 1746              	.Ldebug_abbrev0:
 1747 0000 01       		.uleb128 0x1
ARM GAS  /tmp/cc5A92CL.s 			page 32


 1748 0001 11       		.uleb128 0x11
 1749 0002 01       		.byte	0x1
 1750 0003 25       		.uleb128 0x25
 1751 0004 0E       		.uleb128 0xe
 1752 0005 13       		.uleb128 0x13
 1753 0006 0B       		.uleb128 0xb
 1754 0007 03       		.uleb128 0x3
 1755 0008 0E       		.uleb128 0xe
 1756 0009 1B       		.uleb128 0x1b
 1757 000a 0E       		.uleb128 0xe
 1758 000b 55       		.uleb128 0x55
 1759 000c 17       		.uleb128 0x17
 1760 000d 11       		.uleb128 0x11
 1761 000e 01       		.uleb128 0x1
 1762 000f 10       		.uleb128 0x10
 1763 0010 17       		.uleb128 0x17
 1764 0011 00       		.byte	0
 1765 0012 00       		.byte	0
 1766 0013 02       		.uleb128 0x2
 1767 0014 24       		.uleb128 0x24
 1768 0015 00       		.byte	0
 1769 0016 0B       		.uleb128 0xb
 1770 0017 0B       		.uleb128 0xb
 1771 0018 3E       		.uleb128 0x3e
 1772 0019 0B       		.uleb128 0xb
 1773 001a 03       		.uleb128 0x3
 1774 001b 08       		.uleb128 0x8
 1775 001c 00       		.byte	0
 1776 001d 00       		.byte	0
 1777 001e 03       		.uleb128 0x3
 1778 001f 24       		.uleb128 0x24
 1779 0020 00       		.byte	0
 1780 0021 0B       		.uleb128 0xb
 1781 0022 0B       		.uleb128 0xb
 1782 0023 3E       		.uleb128 0x3e
 1783 0024 0B       		.uleb128 0xb
 1784 0025 03       		.uleb128 0x3
 1785 0026 0E       		.uleb128 0xe
 1786 0027 00       		.byte	0
 1787 0028 00       		.byte	0
 1788 0029 04       		.uleb128 0x4
 1789 002a 16       		.uleb128 0x16
 1790 002b 00       		.byte	0
 1791 002c 03       		.uleb128 0x3
 1792 002d 0E       		.uleb128 0xe
 1793 002e 3A       		.uleb128 0x3a
 1794 002f 0B       		.uleb128 0xb
 1795 0030 3B       		.uleb128 0x3b
 1796 0031 0B       		.uleb128 0xb
 1797 0032 49       		.uleb128 0x49
 1798 0033 13       		.uleb128 0x13
 1799 0034 00       		.byte	0
 1800 0035 00       		.byte	0
 1801 0036 05       		.uleb128 0x5
 1802 0037 35       		.uleb128 0x35
 1803 0038 00       		.byte	0
 1804 0039 49       		.uleb128 0x49
ARM GAS  /tmp/cc5A92CL.s 			page 33


 1805 003a 13       		.uleb128 0x13
 1806 003b 00       		.byte	0
 1807 003c 00       		.byte	0
 1808 003d 06       		.uleb128 0x6
 1809 003e 04       		.uleb128 0x4
 1810 003f 01       		.byte	0x1
 1811 0040 03       		.uleb128 0x3
 1812 0041 0E       		.uleb128 0xe
 1813 0042 0B       		.uleb128 0xb
 1814 0043 0B       		.uleb128 0xb
 1815 0044 3A       		.uleb128 0x3a
 1816 0045 0B       		.uleb128 0xb
 1817 0046 3B       		.uleb128 0x3b
 1818 0047 0B       		.uleb128 0xb
 1819 0048 01       		.uleb128 0x1
 1820 0049 13       		.uleb128 0x13
 1821 004a 00       		.byte	0
 1822 004b 00       		.byte	0
 1823 004c 07       		.uleb128 0x7
 1824 004d 28       		.uleb128 0x28
 1825 004e 00       		.byte	0
 1826 004f 03       		.uleb128 0x3
 1827 0050 0E       		.uleb128 0xe
 1828 0051 1C       		.uleb128 0x1c
 1829 0052 0D       		.uleb128 0xd
 1830 0053 00       		.byte	0
 1831 0054 00       		.byte	0
 1832 0055 08       		.uleb128 0x8
 1833 0056 13       		.uleb128 0x13
 1834 0057 01       		.byte	0x1
 1835 0058 0B       		.uleb128 0xb
 1836 0059 0B       		.uleb128 0xb
 1837 005a 3A       		.uleb128 0x3a
 1838 005b 0B       		.uleb128 0xb
 1839 005c 3B       		.uleb128 0x3b
 1840 005d 05       		.uleb128 0x5
 1841 005e 01       		.uleb128 0x1
 1842 005f 13       		.uleb128 0x13
 1843 0060 00       		.byte	0
 1844 0061 00       		.byte	0
 1845 0062 09       		.uleb128 0x9
 1846 0063 0D       		.uleb128 0xd
 1847 0064 00       		.byte	0
 1848 0065 03       		.uleb128 0x3
 1849 0066 08       		.uleb128 0x8
 1850 0067 3A       		.uleb128 0x3a
 1851 0068 0B       		.uleb128 0xb
 1852 0069 3B       		.uleb128 0x3b
 1853 006a 05       		.uleb128 0x5
 1854 006b 49       		.uleb128 0x49
 1855 006c 13       		.uleb128 0x13
 1856 006d 38       		.uleb128 0x38
 1857 006e 0B       		.uleb128 0xb
 1858 006f 00       		.byte	0
 1859 0070 00       		.byte	0
 1860 0071 0A       		.uleb128 0xa
 1861 0072 0D       		.uleb128 0xd
ARM GAS  /tmp/cc5A92CL.s 			page 34


 1862 0073 00       		.byte	0
 1863 0074 03       		.uleb128 0x3
 1864 0075 0E       		.uleb128 0xe
 1865 0076 3A       		.uleb128 0x3a
 1866 0077 0B       		.uleb128 0xb
 1867 0078 3B       		.uleb128 0x3b
 1868 0079 05       		.uleb128 0x5
 1869 007a 49       		.uleb128 0x49
 1870 007b 13       		.uleb128 0x13
 1871 007c 38       		.uleb128 0x38
 1872 007d 0B       		.uleb128 0xb
 1873 007e 00       		.byte	0
 1874 007f 00       		.byte	0
 1875 0080 0B       		.uleb128 0xb
 1876 0081 16       		.uleb128 0x16
 1877 0082 00       		.byte	0
 1878 0083 03       		.uleb128 0x3
 1879 0084 0E       		.uleb128 0xe
 1880 0085 3A       		.uleb128 0x3a
 1881 0086 0B       		.uleb128 0xb
 1882 0087 3B       		.uleb128 0x3b
 1883 0088 05       		.uleb128 0x5
 1884 0089 49       		.uleb128 0x49
 1885 008a 13       		.uleb128 0x13
 1886 008b 00       		.byte	0
 1887 008c 00       		.byte	0
 1888 008d 0C       		.uleb128 0xc
 1889 008e 04       		.uleb128 0x4
 1890 008f 01       		.byte	0x1
 1891 0090 0B       		.uleb128 0xb
 1892 0091 0B       		.uleb128 0xb
 1893 0092 3A       		.uleb128 0x3a
 1894 0093 0B       		.uleb128 0xb
 1895 0094 3B       		.uleb128 0x3b
 1896 0095 0B       		.uleb128 0xb
 1897 0096 01       		.uleb128 0x1
 1898 0097 13       		.uleb128 0x13
 1899 0098 00       		.byte	0
 1900 0099 00       		.byte	0
 1901 009a 0D       		.uleb128 0xd
 1902 009b 13       		.uleb128 0x13
 1903 009c 01       		.byte	0x1
 1904 009d 03       		.uleb128 0x3
 1905 009e 0E       		.uleb128 0xe
 1906 009f 0B       		.uleb128 0xb
 1907 00a0 0B       		.uleb128 0xb
 1908 00a1 3A       		.uleb128 0x3a
 1909 00a2 0B       		.uleb128 0xb
 1910 00a3 3B       		.uleb128 0x3b
 1911 00a4 0B       		.uleb128 0xb
 1912 00a5 01       		.uleb128 0x1
 1913 00a6 13       		.uleb128 0x13
 1914 00a7 00       		.byte	0
 1915 00a8 00       		.byte	0
 1916 00a9 0E       		.uleb128 0xe
 1917 00aa 0D       		.uleb128 0xd
 1918 00ab 00       		.byte	0
ARM GAS  /tmp/cc5A92CL.s 			page 35


 1919 00ac 03       		.uleb128 0x3
 1920 00ad 0E       		.uleb128 0xe
 1921 00ae 3A       		.uleb128 0x3a
 1922 00af 0B       		.uleb128 0xb
 1923 00b0 3B       		.uleb128 0x3b
 1924 00b1 0B       		.uleb128 0xb
 1925 00b2 49       		.uleb128 0x49
 1926 00b3 13       		.uleb128 0x13
 1927 00b4 38       		.uleb128 0x38
 1928 00b5 0B       		.uleb128 0xb
 1929 00b6 00       		.byte	0
 1930 00b7 00       		.byte	0
 1931 00b8 0F       		.uleb128 0xf
 1932 00b9 0F       		.uleb128 0xf
 1933 00ba 00       		.byte	0
 1934 00bb 0B       		.uleb128 0xb
 1935 00bc 0B       		.uleb128 0xb
 1936 00bd 49       		.uleb128 0x49
 1937 00be 13       		.uleb128 0x13
 1938 00bf 00       		.byte	0
 1939 00c0 00       		.byte	0
 1940 00c1 10       		.uleb128 0x10
 1941 00c2 15       		.uleb128 0x15
 1942 00c3 01       		.byte	0x1
 1943 00c4 27       		.uleb128 0x27
 1944 00c5 19       		.uleb128 0x19
 1945 00c6 01       		.uleb128 0x1
 1946 00c7 13       		.uleb128 0x13
 1947 00c8 00       		.byte	0
 1948 00c9 00       		.byte	0
 1949 00ca 11       		.uleb128 0x11
 1950 00cb 05       		.uleb128 0x5
 1951 00cc 00       		.byte	0
 1952 00cd 49       		.uleb128 0x49
 1953 00ce 13       		.uleb128 0x13
 1954 00cf 00       		.byte	0
 1955 00d0 00       		.byte	0
 1956 00d1 12       		.uleb128 0x12
 1957 00d2 13       		.uleb128 0x13
 1958 00d3 01       		.byte	0x1
 1959 00d4 0B       		.uleb128 0xb
 1960 00d5 0B       		.uleb128 0xb
 1961 00d6 3A       		.uleb128 0x3a
 1962 00d7 0B       		.uleb128 0xb
 1963 00d8 3B       		.uleb128 0x3b
 1964 00d9 0B       		.uleb128 0xb
 1965 00da 01       		.uleb128 0x1
 1966 00db 13       		.uleb128 0x13
 1967 00dc 00       		.byte	0
 1968 00dd 00       		.byte	0
 1969 00de 13       		.uleb128 0x13
 1970 00df 0D       		.uleb128 0xd
 1971 00e0 00       		.byte	0
 1972 00e1 03       		.uleb128 0x3
 1973 00e2 08       		.uleb128 0x8
 1974 00e3 3A       		.uleb128 0x3a
 1975 00e4 0B       		.uleb128 0xb
ARM GAS  /tmp/cc5A92CL.s 			page 36


 1976 00e5 3B       		.uleb128 0x3b
 1977 00e6 0B       		.uleb128 0xb
 1978 00e7 49       		.uleb128 0x49
 1979 00e8 13       		.uleb128 0x13
 1980 00e9 38       		.uleb128 0x38
 1981 00ea 0B       		.uleb128 0xb
 1982 00eb 00       		.byte	0
 1983 00ec 00       		.byte	0
 1984 00ed 14       		.uleb128 0x14
 1985 00ee 01       		.uleb128 0x1
 1986 00ef 01       		.byte	0x1
 1987 00f0 49       		.uleb128 0x49
 1988 00f1 13       		.uleb128 0x13
 1989 00f2 01       		.uleb128 0x1
 1990 00f3 13       		.uleb128 0x13
 1991 00f4 00       		.byte	0
 1992 00f5 00       		.byte	0
 1993 00f6 15       		.uleb128 0x15
 1994 00f7 21       		.uleb128 0x21
 1995 00f8 00       		.byte	0
 1996 00f9 49       		.uleb128 0x49
 1997 00fa 13       		.uleb128 0x13
 1998 00fb 2F       		.uleb128 0x2f
 1999 00fc 0B       		.uleb128 0xb
 2000 00fd 00       		.byte	0
 2001 00fe 00       		.byte	0
 2002 00ff 16       		.uleb128 0x16
 2003 0100 26       		.uleb128 0x26
 2004 0101 00       		.byte	0
 2005 0102 49       		.uleb128 0x49
 2006 0103 13       		.uleb128 0x13
 2007 0104 00       		.byte	0
 2008 0105 00       		.byte	0
 2009 0106 17       		.uleb128 0x17
 2010 0107 2E       		.uleb128 0x2e
 2011 0108 01       		.byte	0x1
 2012 0109 3F       		.uleb128 0x3f
 2013 010a 19       		.uleb128 0x19
 2014 010b 03       		.uleb128 0x3
 2015 010c 0E       		.uleb128 0xe
 2016 010d 3A       		.uleb128 0x3a
 2017 010e 0B       		.uleb128 0xb
 2018 010f 3B       		.uleb128 0x3b
 2019 0110 0B       		.uleb128 0xb
 2020 0111 27       		.uleb128 0x27
 2021 0112 19       		.uleb128 0x19
 2022 0113 11       		.uleb128 0x11
 2023 0114 01       		.uleb128 0x1
 2024 0115 12       		.uleb128 0x12
 2025 0116 06       		.uleb128 0x6
 2026 0117 40       		.uleb128 0x40
 2027 0118 18       		.uleb128 0x18
 2028 0119 9742     		.uleb128 0x2117
 2029 011b 19       		.uleb128 0x19
 2030 011c 01       		.uleb128 0x1
 2031 011d 13       		.uleb128 0x13
 2032 011e 00       		.byte	0
ARM GAS  /tmp/cc5A92CL.s 			page 37


 2033 011f 00       		.byte	0
 2034 0120 18       		.uleb128 0x18
 2035 0121 898201   		.uleb128 0x4109
 2036 0124 01       		.byte	0x1
 2037 0125 11       		.uleb128 0x11
 2038 0126 01       		.uleb128 0x1
 2039 0127 01       		.uleb128 0x1
 2040 0128 13       		.uleb128 0x13
 2041 0129 00       		.byte	0
 2042 012a 00       		.byte	0
 2043 012b 19       		.uleb128 0x19
 2044 012c 8A8201   		.uleb128 0x410a
 2045 012f 00       		.byte	0
 2046 0130 02       		.uleb128 0x2
 2047 0131 18       		.uleb128 0x18
 2048 0132 9142     		.uleb128 0x2111
 2049 0134 18       		.uleb128 0x18
 2050 0135 00       		.byte	0
 2051 0136 00       		.byte	0
 2052 0137 1A       		.uleb128 0x1a
 2053 0138 898201   		.uleb128 0x4109
 2054 013b 00       		.byte	0
 2055 013c 11       		.uleb128 0x11
 2056 013d 01       		.uleb128 0x1
 2057 013e 9542     		.uleb128 0x2115
 2058 0140 19       		.uleb128 0x19
 2059 0141 31       		.uleb128 0x31
 2060 0142 13       		.uleb128 0x13
 2061 0143 00       		.byte	0
 2062 0144 00       		.byte	0
 2063 0145 1B       		.uleb128 0x1b
 2064 0146 34       		.uleb128 0x34
 2065 0147 00       		.byte	0
 2066 0148 03       		.uleb128 0x3
 2067 0149 08       		.uleb128 0x8
 2068 014a 3A       		.uleb128 0x3a
 2069 014b 0B       		.uleb128 0xb
 2070 014c 3B       		.uleb128 0x3b
 2071 014d 0B       		.uleb128 0xb
 2072 014e 49       		.uleb128 0x49
 2073 014f 13       		.uleb128 0x13
 2074 0150 02       		.uleb128 0x2
 2075 0151 17       		.uleb128 0x17
 2076 0152 00       		.byte	0
 2077 0153 00       		.byte	0
 2078 0154 1C       		.uleb128 0x1c
 2079 0155 898201   		.uleb128 0x4109
 2080 0158 01       		.byte	0x1
 2081 0159 11       		.uleb128 0x11
 2082 015a 01       		.uleb128 0x1
 2083 015b 00       		.byte	0
 2084 015c 00       		.byte	0
 2085 015d 1D       		.uleb128 0x1d
 2086 015e 2E       		.uleb128 0x2e
 2087 015f 01       		.byte	0x1
 2088 0160 3F       		.uleb128 0x3f
 2089 0161 19       		.uleb128 0x19
ARM GAS  /tmp/cc5A92CL.s 			page 38


 2090 0162 03       		.uleb128 0x3
 2091 0163 0E       		.uleb128 0xe
 2092 0164 3A       		.uleb128 0x3a
 2093 0165 0B       		.uleb128 0xb
 2094 0166 3B       		.uleb128 0x3b
 2095 0167 05       		.uleb128 0x5
 2096 0168 27       		.uleb128 0x27
 2097 0169 19       		.uleb128 0x19
 2098 016a 11       		.uleb128 0x11
 2099 016b 01       		.uleb128 0x1
 2100 016c 12       		.uleb128 0x12
 2101 016d 06       		.uleb128 0x6
 2102 016e 40       		.uleb128 0x40
 2103 016f 18       		.uleb128 0x18
 2104 0170 9742     		.uleb128 0x2117
 2105 0172 19       		.uleb128 0x19
 2106 0173 01       		.uleb128 0x1
 2107 0174 13       		.uleb128 0x13
 2108 0175 00       		.byte	0
 2109 0176 00       		.byte	0
 2110 0177 1E       		.uleb128 0x1e
 2111 0178 898201   		.uleb128 0x4109
 2112 017b 01       		.byte	0x1
 2113 017c 11       		.uleb128 0x11
 2114 017d 01       		.uleb128 0x1
 2115 017e 31       		.uleb128 0x31
 2116 017f 13       		.uleb128 0x13
 2117 0180 01       		.uleb128 0x1
 2118 0181 13       		.uleb128 0x13
 2119 0182 00       		.byte	0
 2120 0183 00       		.byte	0
 2121 0184 1F       		.uleb128 0x1f
 2122 0185 898201   		.uleb128 0x4109
 2123 0188 01       		.byte	0x1
 2124 0189 11       		.uleb128 0x11
 2125 018a 01       		.uleb128 0x1
 2126 018b 9542     		.uleb128 0x2115
 2127 018d 19       		.uleb128 0x19
 2128 018e 31       		.uleb128 0x31
 2129 018f 13       		.uleb128 0x13
 2130 0190 00       		.byte	0
 2131 0191 00       		.byte	0
 2132 0192 20       		.uleb128 0x20
 2133 0193 34       		.uleb128 0x34
 2134 0194 00       		.byte	0
 2135 0195 03       		.uleb128 0x3
 2136 0196 0E       		.uleb128 0xe
 2137 0197 3A       		.uleb128 0x3a
 2138 0198 0B       		.uleb128 0xb
 2139 0199 3B       		.uleb128 0x3b
 2140 019a 05       		.uleb128 0x5
 2141 019b 49       		.uleb128 0x49
 2142 019c 13       		.uleb128 0x13
 2143 019d 3F       		.uleb128 0x3f
 2144 019e 19       		.uleb128 0x19
 2145 019f 3C       		.uleb128 0x3c
 2146 01a0 19       		.uleb128 0x19
ARM GAS  /tmp/cc5A92CL.s 			page 39


 2147 01a1 00       		.byte	0
 2148 01a2 00       		.byte	0
 2149 01a3 21       		.uleb128 0x21
 2150 01a4 34       		.uleb128 0x34
 2151 01a5 00       		.byte	0
 2152 01a6 03       		.uleb128 0x3
 2153 01a7 0E       		.uleb128 0xe
 2154 01a8 3A       		.uleb128 0x3a
 2155 01a9 0B       		.uleb128 0xb
 2156 01aa 3B       		.uleb128 0x3b
 2157 01ab 0B       		.uleb128 0xb
 2158 01ac 49       		.uleb128 0x49
 2159 01ad 13       		.uleb128 0x13
 2160 01ae 3F       		.uleb128 0x3f
 2161 01af 19       		.uleb128 0x19
 2162 01b0 3C       		.uleb128 0x3c
 2163 01b1 19       		.uleb128 0x19
 2164 01b2 00       		.byte	0
 2165 01b3 00       		.byte	0
 2166 01b4 22       		.uleb128 0x22
 2167 01b5 2E       		.uleb128 0x2e
 2168 01b6 00       		.byte	0
 2169 01b7 3F       		.uleb128 0x3f
 2170 01b8 19       		.uleb128 0x19
 2171 01b9 03       		.uleb128 0x3
 2172 01ba 0E       		.uleb128 0xe
 2173 01bb 3A       		.uleb128 0x3a
 2174 01bc 0B       		.uleb128 0xb
 2175 01bd 3B       		.uleb128 0x3b
 2176 01be 05       		.uleb128 0x5
 2177 01bf 27       		.uleb128 0x27
 2178 01c0 19       		.uleb128 0x19
 2179 01c1 3C       		.uleb128 0x3c
 2180 01c2 19       		.uleb128 0x19
 2181 01c3 00       		.byte	0
 2182 01c4 00       		.byte	0
 2183 01c5 23       		.uleb128 0x23
 2184 01c6 2E       		.uleb128 0x2e
 2185 01c7 01       		.byte	0x1
 2186 01c8 3F       		.uleb128 0x3f
 2187 01c9 19       		.uleb128 0x19
 2188 01ca 03       		.uleb128 0x3
 2189 01cb 0E       		.uleb128 0xe
 2190 01cc 3A       		.uleb128 0x3a
 2191 01cd 0B       		.uleb128 0xb
 2192 01ce 3B       		.uleb128 0x3b
 2193 01cf 05       		.uleb128 0x5
 2194 01d0 27       		.uleb128 0x27
 2195 01d1 19       		.uleb128 0x19
 2196 01d2 3C       		.uleb128 0x3c
 2197 01d3 19       		.uleb128 0x19
 2198 01d4 01       		.uleb128 0x1
 2199 01d5 13       		.uleb128 0x13
 2200 01d6 00       		.byte	0
 2201 01d7 00       		.byte	0
 2202 01d8 24       		.uleb128 0x24
 2203 01d9 2E       		.uleb128 0x2e
ARM GAS  /tmp/cc5A92CL.s 			page 40


 2204 01da 01       		.byte	0x1
 2205 01db 3F       		.uleb128 0x3f
 2206 01dc 19       		.uleb128 0x19
 2207 01dd 03       		.uleb128 0x3
 2208 01de 0E       		.uleb128 0xe
 2209 01df 3A       		.uleb128 0x3a
 2210 01e0 0B       		.uleb128 0xb
 2211 01e1 3B       		.uleb128 0x3b
 2212 01e2 05       		.uleb128 0x5
 2213 01e3 27       		.uleb128 0x27
 2214 01e4 19       		.uleb128 0x19
 2215 01e5 3C       		.uleb128 0x3c
 2216 01e6 19       		.uleb128 0x19
 2217 01e7 00       		.byte	0
 2218 01e8 00       		.byte	0
 2219 01e9 00       		.byte	0
 2220              		.section	.debug_loc,"",%progbits
 2221              	.Ldebug_loc0:
 2222              	.LLST0:
 2223 0000 10000000 		.4byte	.LVL10
 2224 0004 16000000 		.4byte	.LVL11
 2225 0008 0100     		.2byte	0x1
 2226 000a 52       		.byte	0x52
 2227 000b 16000000 		.4byte	.LVL11
 2228 000f 3A000000 		.4byte	.LVL13
 2229 0013 0700     		.2byte	0x7
 2230 0015 74       		.byte	0x74
 2231 0016 00       		.sleb128 0
 2232 0017 0A       		.byte	0xa
 2233 0018 E003     		.2byte	0x3e0
 2234 001a 1A       		.byte	0x1a
 2235 001b 9F       		.byte	0x9f
 2236 001c 3E000000 		.4byte	.LVL14
 2237 0020 74000000 		.4byte	.LVL18
 2238 0024 0700     		.2byte	0x7
 2239 0026 74       		.byte	0x74
 2240 0027 00       		.sleb128 0
 2241 0028 0A       		.byte	0xa
 2242 0029 E003     		.2byte	0x3e0
 2243 002b 1A       		.byte	0x1a
 2244 002c 9F       		.byte	0x9f
 2245 002d 74000000 		.4byte	.LVL18
 2246 0031 83000000 		.4byte	.LVL19-1
 2247 0035 0100     		.2byte	0x1
 2248 0037 52       		.byte	0x52
 2249 0038 83000000 		.4byte	.LVL19-1
 2250 003c 86000000 		.4byte	.LFE61
 2251 0040 0700     		.2byte	0x7
 2252 0042 74       		.byte	0x74
 2253 0043 00       		.sleb128 0
 2254 0044 0A       		.byte	0xa
 2255 0045 E003     		.2byte	0x3e0
 2256 0047 1A       		.byte	0x1a
 2257 0048 9F       		.byte	0x9f
 2258 0049 00000000 		.4byte	0
 2259 004d 00000000 		.4byte	0
 2260              	.LLST1:
ARM GAS  /tmp/cc5A92CL.s 			page 41


 2261 0051 10000000 		.4byte	.LVL20
 2262 0055 16000000 		.4byte	.LVL21
 2263 0059 0100     		.2byte	0x1
 2264 005b 52       		.byte	0x52
 2265 005c 16000000 		.4byte	.LVL21
 2266 0060 3E000000 		.4byte	.LVL23
 2267 0064 0700     		.2byte	0x7
 2268 0066 74       		.byte	0x74
 2269 0067 00       		.sleb128 0
 2270 0068 0A       		.byte	0xa
 2271 0069 00FC     		.2byte	0xfc00
 2272 006b 1A       		.byte	0x1a
 2273 006c 9F       		.byte	0x9f
 2274 006d 42000000 		.4byte	.LVL24
 2275 0071 8A000000 		.4byte	.LVL29
 2276 0075 0700     		.2byte	0x7
 2277 0077 74       		.byte	0x74
 2278 0078 00       		.sleb128 0
 2279 0079 0A       		.byte	0xa
 2280 007a 00FC     		.2byte	0xfc00
 2281 007c 1A       		.byte	0x1a
 2282 007d 9F       		.byte	0x9f
 2283 007e 8A000000 		.4byte	.LVL29
 2284 0082 99000000 		.4byte	.LVL30-1
 2285 0086 0100     		.2byte	0x1
 2286 0088 52       		.byte	0x52
 2287 0089 99000000 		.4byte	.LVL30-1
 2288 008d 9C000000 		.4byte	.LFE62
 2289 0091 0700     		.2byte	0x7
 2290 0093 74       		.byte	0x74
 2291 0094 00       		.sleb128 0
 2292 0095 0A       		.byte	0xa
 2293 0096 00FC     		.2byte	0xfc00
 2294 0098 1A       		.byte	0x1a
 2295 0099 9F       		.byte	0x9f
 2296 009a 00000000 		.4byte	0
 2297 009e 00000000 		.4byte	0
 2298              		.section	.debug_aranges,"",%progbits
 2299 0000 74000000 		.4byte	0x74
 2300 0004 0200     		.2byte	0x2
 2301 0006 00000000 		.4byte	.Ldebug_info0
 2302 000a 04       		.byte	0x4
 2303 000b 00       		.byte	0
 2304 000c 0000     		.2byte	0
 2305 000e 0000     		.2byte	0
 2306 0010 00000000 		.4byte	.LFB56
 2307 0014 26000000 		.4byte	.LFE56-.LFB56
 2308 0018 00000000 		.4byte	.LFB57
 2309 001c 26000000 		.4byte	.LFE57-.LFB57
 2310 0020 00000000 		.4byte	.LFB58
 2311 0024 26000000 		.4byte	.LFE58-.LFB58
 2312 0028 00000000 		.4byte	.LFB59
 2313 002c 26000000 		.4byte	.LFE59-.LFB59
 2314 0030 00000000 		.4byte	.LFB60
 2315 0034 26000000 		.4byte	.LFE60-.LFB60
 2316 0038 00000000 		.4byte	.LFB61
 2317 003c 86000000 		.4byte	.LFE61-.LFB61
ARM GAS  /tmp/cc5A92CL.s 			page 42


 2318 0040 00000000 		.4byte	.LFB62
 2319 0044 9C000000 		.4byte	.LFE62-.LFB62
 2320 0048 00000000 		.4byte	.LFB63
 2321 004c 2A000000 		.4byte	.LFE63-.LFB63
 2322 0050 00000000 		.4byte	.LFB64
 2323 0054 2A000000 		.4byte	.LFE64-.LFB64
 2324 0058 00000000 		.4byte	.LFB65
 2325 005c 2A000000 		.4byte	.LFE65-.LFB65
 2326 0060 00000000 		.4byte	.LFB66
 2327 0064 56000000 		.4byte	.LFE66-.LFB66
 2328 0068 00000000 		.4byte	.LFB67
 2329 006c 42000000 		.4byte	.LFE67-.LFB67
 2330 0070 00000000 		.4byte	0
 2331 0074 00000000 		.4byte	0
 2332              		.section	.debug_ranges,"",%progbits
 2333              	.Ldebug_ranges0:
 2334 0000 00000000 		.4byte	.LFB56
 2335 0004 26000000 		.4byte	.LFE56
 2336 0008 00000000 		.4byte	.LFB57
 2337 000c 26000000 		.4byte	.LFE57
 2338 0010 00000000 		.4byte	.LFB58
 2339 0014 26000000 		.4byte	.LFE58
 2340 0018 00000000 		.4byte	.LFB59
 2341 001c 26000000 		.4byte	.LFE59
 2342 0020 00000000 		.4byte	.LFB60
 2343 0024 26000000 		.4byte	.LFE60
 2344 0028 00000000 		.4byte	.LFB61
 2345 002c 86000000 		.4byte	.LFE61
 2346 0030 00000000 		.4byte	.LFB62
 2347 0034 9C000000 		.4byte	.LFE62
 2348 0038 00000000 		.4byte	.LFB63
 2349 003c 2A000000 		.4byte	.LFE63
 2350 0040 00000000 		.4byte	.LFB64
 2351 0044 2A000000 		.4byte	.LFE64
 2352 0048 00000000 		.4byte	.LFB65
 2353 004c 2A000000 		.4byte	.LFE65
 2354 0050 00000000 		.4byte	.LFB66
 2355 0054 56000000 		.4byte	.LFE66
 2356 0058 00000000 		.4byte	.LFB67
 2357 005c 42000000 		.4byte	.LFE67
 2358 0060 00000000 		.4byte	0
 2359 0064 00000000 		.4byte	0
 2360              		.section	.debug_line,"",%progbits
 2361              	.Ldebug_line0:
 2362 0000 92020000 		.section	.debug_str,"MS",%progbits,1
 2362      02006401 
 2362      00000201 
 2362      FB0E0D00 
 2362      01010101 
 2363              	.LASF91:
 2364 0000 56656374 		.ascii	"VectorE4\000"
 2364      6F724534 
 2364      00
 2365              	.LASF84:
 2366 0009 56656374 		.ascii	"Vector5C\000"
 2366      6F723543 
 2366      00
ARM GAS  /tmp/cc5A92CL.s 			page 43


 2367              	.LASF82:
 2368 0012 45585443 		.ascii	"EXTConfig\000"
 2368      6F6E6669 
 2368      6700
 2369              	.LASF22:
 2370 001c 53797354 		.ascii	"SysTick_IRQn\000"
 2370      69636B5F 
 2370      4952516E 
 2370      00
 2371              	.LASF45:
 2372 0029 43414E31 		.ascii	"CAN1_SCE_IRQn\000"
 2372      5F534345 
 2372      5F495251 
 2372      6E00
 2373              	.LASF28:
 2374 0037 5243435F 		.ascii	"RCC_IRQn\000"
 2374      4952516E 
 2374      00
 2375              	.LASF30:
 2376 0040 45585449 		.ascii	"EXTI1_IRQn\000"
 2376      315F4952 
 2376      516E00
 2377              	.LASF71:
 2378 004b 4558545F 		.ascii	"EXT_STOP\000"
 2378      53544F50 
 2378      00
 2379              	.LASF33:
 2380 0054 45585449 		.ascii	"EXTI4_IRQn\000"
 2380      345F4952 
 2380      516E00
 2381              	.LASF75:
 2382 005f 73746174 		.ascii	"state\000"
 2382      6500
 2383              	.LASF25:
 2384 0065 54414D50 		.ascii	"TAMPER_IRQn\000"
 2384      45525F49 
 2384      52516E00 
 2385              	.LASF3:
 2386 0071 73686F72 		.ascii	"short int\000"
 2386      7420696E 
 2386      7400
 2387              	.LASF14:
 2388 007b 73697A65 		.ascii	"sizetype\000"
 2388      74797065 
 2388      00
 2389              	.LASF72:
 2390 0084 4558545F 		.ascii	"EXT_ACTIVE\000"
 2390      41435449 
 2390      564500
 2391              	.LASF43:
 2392 008f 5553425F 		.ascii	"USB_LP_CAN1_RX0_IRQn\000"
 2392      4C505F43 
 2392      414E315F 
 2392      5258305F 
 2392      4952516E 
 2393              	.LASF103:
 2394 00a4 6E766963 		.ascii	"nvicDisableVector\000"
ARM GAS  /tmp/cc5A92CL.s 			page 44


 2394      44697361 
 2394      626C6556 
 2394      6563746F 
 2394      7200
 2395              	.LASF20:
 2396 00b6 44656275 		.ascii	"DebugMonitor_IRQn\000"
 2396      674D6F6E 
 2396      69746F72 
 2396      5F495251 
 2396      6E00
 2397              	.LASF99:
 2398 00c8 2F686F6D 		.ascii	"/home/dltech/gdrive/Projects/RFM_to_Modbus_TCP/Chib"
 2398      652F646C 
 2398      74656368 
 2398      2F676472 
 2398      6976652F 
 2399 00fb 694F532F 		.ascii	"iOS/F103_ChibiOS_ENC60J28/main\000"
 2399      46313033 
 2399      5F436869 
 2399      62694F53 
 2399      5F454E43 
 2400              	.LASF100:
 2401 011a 4952516E 		.ascii	"IRQn\000"
 2401      00
 2402              	.LASF79:
 2403 011f 6D6F6465 		.ascii	"mode\000"
 2403      00
 2404              	.LASF58:
 2405 0124 53504931 		.ascii	"SPI1_IRQn\000"
 2405      5F495251 
 2405      6E00
 2406              	.LASF94:
 2407 012e 6578745F 		.ascii	"ext_lld_exti_irq_disable\000"
 2407      6C6C645F 
 2407      65787469 
 2407      5F697271 
 2407      5F646973 
 2408              	.LASF39:
 2409 0147 444D4131 		.ascii	"DMA1_Channel6_IRQn\000"
 2409      5F436861 
 2409      6E6E656C 
 2409      365F4952 
 2409      516E00
 2410              	.LASF76:
 2411 015a 636F6E66 		.ascii	"config\000"
 2411      696700
 2412              	.LASF89:
 2413 0161 56656374 		.ascii	"VectorE0\000"
 2413      6F724530 
 2413      00
 2414              	.LASF86:
 2415 016a 56656374 		.ascii	"Vector64\000"
 2415      6F723634 
 2415      00
 2416              	.LASF40:
 2417 0173 444D4131 		.ascii	"DMA1_Channel7_IRQn\000"
 2417      5F436861 
ARM GAS  /tmp/cc5A92CL.s 			page 45


 2417      6E6E656C 
 2417      375F4952 
 2417      516E00
 2418              	.LASF87:
 2419 0186 56656374 		.ascii	"Vector68\000"
 2419      6F723638 
 2419      00
 2420              	.LASF92:
 2421 018f 56656374 		.ascii	"VectorE8\000"
 2421      6F724538 
 2421      00
 2422              	.LASF37:
 2423 0198 444D4131 		.ascii	"DMA1_Channel4_IRQn\000"
 2423      5F436861 
 2423      6E6E656C 
 2423      345F4952 
 2423      516E00
 2424              	.LASF27:
 2425 01ab 464C4153 		.ascii	"FLASH_IRQn\000"
 2425      485F4952 
 2425      516E00
 2426              	.LASF34:
 2427 01b6 444D4131 		.ascii	"DMA1_Channel1_IRQn\000"
 2427      5F436861 
 2427      6E6E656C 
 2427      315F4952 
 2427      516E00
 2428              	.LASF18:
 2429 01c9 55736167 		.ascii	"UsageFault_IRQn\000"
 2429      65466175 
 2429      6C745F49 
 2429      52516E00 
 2430              	.LASF36:
 2431 01d9 444D4131 		.ascii	"DMA1_Channel3_IRQn\000"
 2431      5F436861 
 2431      6E6E656C 
 2431      335F4952 
 2431      516E00
 2432              	.LASF62:
 2433 01ec 55534152 		.ascii	"USART3_IRQn\000"
 2433      54335F49 
 2433      52516E00 
 2434              	.LASF9:
 2435 01f8 6C6F6E67 		.ascii	"long long int\000"
 2435      206C6F6E 
 2435      6720696E 
 2435      7400
 2436              	.LASF60:
 2437 0206 55534152 		.ascii	"USART1_IRQn\000"
 2437      54315F49 
 2437      52516E00 
 2438              	.LASF23:
 2439 0212 57574447 		.ascii	"WWDG_IRQn\000"
 2439      5F495251 
 2439      6E00
 2440              	.LASF49:
 2441 021c 54494D31 		.ascii	"TIM1_TRG_COM_IRQn\000"
ARM GAS  /tmp/cc5A92CL.s 			page 46


 2441      5F545247 
 2441      5F434F4D 
 2441      5F495251 
 2441      6E00
 2442              	.LASF69:
 2443 022e 45585449 		.ascii	"EXTI_TypeDef\000"
 2443      5F547970 
 2443      65446566 
 2443      00
 2444              	.LASF5:
 2445 023b 6C6F6E67 		.ascii	"long int\000"
 2445      20696E74 
 2445      00
 2446              	.LASF63:
 2447 0244 45585449 		.ascii	"EXTI15_10_IRQn\000"
 2447      31355F31 
 2447      305F4952 
 2447      516E00
 2448              	.LASF54:
 2449 0253 49324331 		.ascii	"I2C1_EV_IRQn\000"
 2449      5F45565F 
 2449      4952516E 
 2449      00
 2450              	.LASF101:
 2451 0260 5F706F72 		.ascii	"_port_irq_epilogue\000"
 2451      745F6972 
 2451      715F6570 
 2451      696C6F67 
 2451      756500
 2452              	.LASF41:
 2453 0273 41444331 		.ascii	"ADC1_2_IRQn\000"
 2453      5F325F49 
 2453      52516E00 
 2454              	.LASF53:
 2455 027f 54494D34 		.ascii	"TIM4_IRQn\000"
 2455      5F495251 
 2455      6E00
 2456              	.LASF51:
 2457 0289 54494D32 		.ascii	"TIM2_IRQn\000"
 2457      5F495251 
 2457      6E00
 2458              	.LASF56:
 2459 0293 49324332 		.ascii	"I2C2_EV_IRQn\000"
 2459      5F45565F 
 2459      4952516E 
 2459      00
 2460              	.LASF2:
 2461 02a0 756E7369 		.ascii	"unsigned char\000"
 2461      676E6564 
 2461      20636861 
 2461      7200
 2462              	.LASF50:
 2463 02ae 54494D31 		.ascii	"TIM1_CC_IRQn\000"
 2463      5F43435F 
 2463      4952516E 
 2463      00
 2464              	.LASF78:
ARM GAS  /tmp/cc5A92CL.s 			page 47


 2465 02bb 65787463 		.ascii	"extcallback_t\000"
 2465      616C6C62 
 2465      61636B5F 
 2465      7400
 2466              	.LASF97:
 2467 02c9 474E5520 		.ascii	"GNU C 4.8.2 -mcpu=cortex-m3 -mno-thumb-interwork -m"
 2467      4320342E 
 2467      382E3220 
 2467      2D6D6370 
 2467      753D636F 
 2468 02fc 7468756D 		.ascii	"thumb -ggdb -O2 -fomit-frame-pointer -falign-functi"
 2468      62202D67 
 2468      67646220 
 2468      2D4F3220 
 2468      2D666F6D 
 2469 032f 6F6E733D 		.ascii	"ons=16 -ffunction-sections -fdata-sections -fno-com"
 2469      3136202D 
 2469      6666756E 
 2469      6374696F 
 2469      6E2D7365 
 2470 0362 6D6F6E20 		.ascii	"mon -fno-strict-aliasing\000"
 2470      2D666E6F 
 2470      2D737472 
 2470      6963742D 
 2470      616C6961 
 2471              	.LASF57:
 2472 037b 49324332 		.ascii	"I2C2_ER_IRQn\000"
 2472      5F45525F 
 2472      4952516E 
 2472      00
 2473              	.LASF70:
 2474 0388 4558545F 		.ascii	"EXT_UNINIT\000"
 2474      554E494E 
 2474      495400
 2475              	.LASF102:
 2476 0393 6E766963 		.ascii	"nvicEnableVector\000"
 2476      456E6162 
 2476      6C655665 
 2476      63746F72 
 2476      00
 2477              	.LASF1:
 2478 03a4 7369676E 		.ascii	"signed char\000"
 2478      65642063 
 2478      68617200 
 2479              	.LASF10:
 2480 03b0 6C6F6E67 		.ascii	"long long unsigned int\000"
 2480      206C6F6E 
 2480      6720756E 
 2480      7369676E 
 2480      65642069 
 2481              	.LASF12:
 2482 03c7 75696E74 		.ascii	"uint32_t\000"
 2482      33325F74 
 2482      00
 2483              	.LASF31:
 2484 03d0 45585449 		.ascii	"EXTI2_IRQn\000"
 2484      325F4952 
ARM GAS  /tmp/cc5A92CL.s 			page 48


 2484      516E00
 2485              	.LASF0:
 2486 03db 756E7369 		.ascii	"unsigned int\000"
 2486      676E6564 
 2486      20696E74 
 2486      00
 2487              	.LASF29:
 2488 03e8 45585449 		.ascii	"EXTI0_IRQn\000"
 2488      305F4952 
 2488      516E00
 2489              	.LASF17:
 2490 03f3 42757346 		.ascii	"BusFault_IRQn\000"
 2490      61756C74 
 2490      5F495251 
 2490      6E00
 2491              	.LASF67:
 2492 0401 46545352 		.ascii	"FTSR\000"
 2492      00
 2493              	.LASF19:
 2494 0406 53564361 		.ascii	"SVCall_IRQn\000"
 2494      6C6C5F49 
 2494      52516E00 
 2495              	.LASF46:
 2496 0412 45585449 		.ascii	"EXTI9_5_IRQn\000"
 2496      395F355F 
 2496      4952516E 
 2496      00
 2497              	.LASF42:
 2498 041f 5553425F 		.ascii	"USB_HP_CAN1_TX_IRQn\000"
 2498      48505F43 
 2498      414E315F 
 2498      54585F49 
 2498      52516E00 
 2499              	.LASF4:
 2500 0433 73686F72 		.ascii	"short unsigned int\000"
 2500      7420756E 
 2500      7369676E 
 2500      65642069 
 2500      6E7400
 2501              	.LASF47:
 2502 0446 54494D31 		.ascii	"TIM1_BRK_IRQn\000"
 2502      5F42524B 
 2502      5F495251 
 2502      6E00
 2503              	.LASF80:
 2504 0454 45585443 		.ascii	"EXTChannelConfig\000"
 2504      68616E6E 
 2504      656C436F 
 2504      6E666967 
 2504      00
 2505              	.LASF81:
 2506 0465 6368616E 		.ascii	"channels\000"
 2506      6E656C73 
 2506      00
 2507              	.LASF88:
 2508 046e 56656374 		.ascii	"Vector9C\000"
 2508      6F723943 
ARM GAS  /tmp/cc5A92CL.s 			page 49


 2508      00
 2509              	.LASF11:
 2510 0477 696E7433 		.ascii	"int32_t\000"
 2510      325F7400 
 2511              	.LASF59:
 2512 047f 53504932 		.ascii	"SPI2_IRQn\000"
 2512      5F495251 
 2512      6E00
 2513              	.LASF93:
 2514 0489 6578745F 		.ascii	"ext_lld_exti_irq_enable\000"
 2514      6C6C645F 
 2514      65787469 
 2514      5F697271 
 2514      5F656E61 
 2515              	.LASF96:
 2516 04a1 45585444 		.ascii	"EXTD1\000"
 2516      3100
 2517              	.LASF98:
 2518 04a7 2E2E2F6F 		.ascii	"../os/hal/platforms/STM32F1xx/ext_lld_isr.c\000"
 2518      732F6861 
 2518      6C2F706C 
 2518      6174666F 
 2518      726D732F 
 2519              	.LASF66:
 2520 04d3 52545352 		.ascii	"RTSR\000"
 2520      00
 2521              	.LASF13:
 2522 04d8 5F426F6F 		.ascii	"_Bool\000"
 2522      6C00
 2523              	.LASF90:
 2524 04de 56656374 		.ascii	"Vector44\000"
 2524      6F723434 
 2524      00
 2525              	.LASF64:
 2526 04e7 5254435F 		.ascii	"RTC_Alarm_IRQn\000"
 2526      416C6172 
 2526      6D5F4952 
 2526      516E00
 2527              	.LASF44:
 2528 04f6 43414E31 		.ascii	"CAN1_RX1_IRQn\000"
 2528      5F525831 
 2528      5F495251 
 2528      6E00
 2529              	.LASF38:
 2530 0504 444D4131 		.ascii	"DMA1_Channel5_IRQn\000"
 2530      5F436861 
 2530      6E6E656C 
 2530      355F4952 
 2530      516E00
 2531              	.LASF35:
 2532 0517 444D4131 		.ascii	"DMA1_Channel2_IRQn\000"
 2532      5F436861 
 2532      6E6E656C 
 2532      325F4952 
 2532      516E00
 2533              	.LASF8:
 2534 052a 6C6F6E67 		.ascii	"long unsigned int\000"
ARM GAS  /tmp/cc5A92CL.s 			page 50


 2534      20756E73 
 2534      69676E65 
 2534      6420696E 
 2534      7400
 2535              	.LASF16:
 2536 053c 4D656D6F 		.ascii	"MemoryManagement_IRQn\000"
 2536      72794D61 
 2536      6E616765 
 2536      6D656E74 
 2536      5F495251 
 2537              	.LASF26:
 2538 0552 5254435F 		.ascii	"RTC_IRQn\000"
 2538      4952516E 
 2538      00
 2539              	.LASF73:
 2540 055b 65787473 		.ascii	"extstate_t\000"
 2540      74617465 
 2540      5F7400
 2541              	.LASF7:
 2542 0566 5F5F7569 		.ascii	"__uint32_t\000"
 2542      6E743332 
 2542      5F7400
 2543              	.LASF15:
 2544 0571 4E6F6E4D 		.ascii	"NonMaskableInt_IRQn\000"
 2544      61736B61 
 2544      626C6549 
 2544      6E745F49 
 2544      52516E00 
 2545              	.LASF24:
 2546 0585 5056445F 		.ascii	"PVD_IRQn\000"
 2546      4952516E 
 2546      00
 2547              	.LASF6:
 2548 058e 5F5F696E 		.ascii	"__int32_t\000"
 2548      7433325F 
 2548      7400
 2549              	.LASF61:
 2550 0598 55534152 		.ascii	"USART2_IRQn\000"
 2550      54325F49 
 2550      52516E00 
 2551              	.LASF48:
 2552 05a4 54494D31 		.ascii	"TIM1_UP_IRQn\000"
 2552      5F55505F 
 2552      4952516E 
 2552      00
 2553              	.LASF32:
 2554 05b1 45585449 		.ascii	"EXTI3_IRQn\000"
 2554      335F4952 
 2554      516E00
 2555              	.LASF77:
 2556 05bc 65787063 		.ascii	"expchannel_t\000"
 2556      68616E6E 
 2556      656C5F74 
 2556      00
 2557              	.LASF74:
 2558 05c9 45585444 		.ascii	"EXTDriver\000"
 2558      72697665 
ARM GAS  /tmp/cc5A92CL.s 			page 51


 2558      7200
 2559              	.LASF95:
 2560 05d3 49544D5F 		.ascii	"ITM_RxBuffer\000"
 2560      52784275 
 2560      66666572 
 2560      00
 2561              	.LASF55:
 2562 05e0 49324331 		.ascii	"I2C1_ER_IRQn\000"
 2562      5F45525F 
 2562      4952516E 
 2562      00
 2563              	.LASF52:
 2564 05ed 54494D33 		.ascii	"TIM3_IRQn\000"
 2564      5F495251 
 2564      6E00
 2565              	.LASF21:
 2566 05f7 50656E64 		.ascii	"PendSV_IRQn\000"
 2566      53565F49 
 2566      52516E00 
 2567              	.LASF65:
 2568 0603 5553425F 		.ascii	"USB_FS_WKUP_IRQn\000"
 2568      46535F57 
 2568      4B55505F 
 2568      4952516E 
 2568      00
 2569              	.LASF83:
 2570 0614 56656374 		.ascii	"Vector58\000"
 2570      6F723538 
 2570      00
 2571              	.LASF68:
 2572 061d 53574945 		.ascii	"SWIER\000"
 2572      5200
 2573              	.LASF85:
 2574 0623 56656374 		.ascii	"Vector60\000"
 2574      6F723630 
 2574      00
 2575              		.ident	"GCC: (4.8.2-14ubuntu1+6) 4.8.2"
ARM GAS  /tmp/cc5A92CL.s 			page 52


DEFINED SYMBOLS
                            *ABS*:0000000000000000 ext_lld_isr.c
     /tmp/cc5A92CL.s:19     .text.Vector58:0000000000000000 $t
     /tmp/cc5A92CL.s:25     .text.Vector58:0000000000000000 Vector58
     /tmp/cc5A92CL.s:60     .text.Vector5C:0000000000000000 $t
     /tmp/cc5A92CL.s:66     .text.Vector5C:0000000000000000 Vector5C
     /tmp/cc5A92CL.s:100    .text.Vector60:0000000000000000 $t
     /tmp/cc5A92CL.s:106    .text.Vector60:0000000000000000 Vector60
     /tmp/cc5A92CL.s:140    .text.Vector64:0000000000000000 $t
     /tmp/cc5A92CL.s:146    .text.Vector64:0000000000000000 Vector64
     /tmp/cc5A92CL.s:180    .text.Vector68:0000000000000000 $t
     /tmp/cc5A92CL.s:186    .text.Vector68:0000000000000000 Vector68
     /tmp/cc5A92CL.s:220    .text.Vector9C:0000000000000000 $t
     /tmp/cc5A92CL.s:226    .text.Vector9C:0000000000000000 Vector9C
     /tmp/cc5A92CL.s:324    .text.VectorE0:0000000000000000 $t
     /tmp/cc5A92CL.s:330    .text.VectorE0:0000000000000000 VectorE0
     /tmp/cc5A92CL.s:443    .text.Vector44:0000000000000000 $t
     /tmp/cc5A92CL.s:449    .text.Vector44:0000000000000000 Vector44
     /tmp/cc5A92CL.s:483    .text.VectorE4:0000000000000000 $t
     /tmp/cc5A92CL.s:489    .text.VectorE4:0000000000000000 VectorE4
     /tmp/cc5A92CL.s:523    .text.VectorE8:0000000000000000 $t
     /tmp/cc5A92CL.s:529    .text.VectorE8:0000000000000000 VectorE8
     /tmp/cc5A92CL.s:563    .text.ext_lld_exti_irq_enable:0000000000000000 $t
     /tmp/cc5A92CL.s:569    .text.ext_lld_exti_irq_enable:0000000000000000 ext_lld_exti_irq_enable
     /tmp/cc5A92CL.s:635    .text.ext_lld_exti_irq_disable:0000000000000000 $t
     /tmp/cc5A92CL.s:641    .text.ext_lld_exti_irq_disable:0000000000000000 ext_lld_exti_irq_disable
                     .debug_frame:0000000000000010 $d

UNDEFINED SYMBOLS
EXTD1
_port_irq_epilogue
nvicEnableVector
nvicDisableVector
