ARM GAS  /tmp/cc5A92CL.s 			page 1


   1              		.syntax unified
   2              		.cpu cortex-m3
   3              		.fpu softvfp
   4              		.eabi_attribute 20, 1
   5              		.eabi_attribute 21, 1
   6              		.eabi_attribute 23, 3
   7              		.eabi_attribute 24, 1
   8              		.eabi_attribute 25, 1
   9              		.eabi_attribute 26, 1
  10              		.eabi_attribute 30, 2
  11              		.eabi_attribute 34, 1
  12              		.eabi_attribute 18, 4
  13              		.thumb
  14              		.file	"ext_lld_isr.c"
  15              		.text
  16              	.Ltext0:
  17              		.cfi_sections	.debug_frame
  18              		.section	.text.Vector58,"ax",%progbits
  19              		.align	2
  20              		.p2align 4,,15
  21              		.global	Vector58
  22              		.thumb
  23              		.thumb_func
  24              		.type	Vector58, %function
  25              	Vector58:
  26              	.LFB56:
  27              		.file 1 "../os/hal/platforms/STM32F1xx/ext_lld_isr.c"
  28              		.loc 1 57 0
  29              		.cfi_startproc
  30              		@ args = 0, pretend = 0, frame = 0
  31              		@ frame_needed = 0, uses_anonymous_args = 0
  32 0000 08B5     		push	{r3, lr}
  33              		.cfi_def_cfa_offset 8
  34              		.cfi_offset 3, -8
  35              		.cfi_offset 14, -4
  36              		.loc 1 61 0
  37 0002 4FF48063 		mov	r3, #1024
  38 0006 C4F20103 		movt	r3, 16385
  39 000a 0122     		movs	r2, #1
  40              		.loc 1 62 0
  41 000c 40F20000 		movw	r0, #:lower16:EXTD1
  42              		.loc 1 61 0
  43 0010 5A61     		str	r2, [r3, #20]
  44              		.loc 1 62 0
  45 0012 C0F20000 		movt	r0, #:upper16:EXTD1
  46 0016 4368     		ldr	r3, [r0, #4]
  47 0018 0021     		movs	r1, #0
  48 001a 5B68     		ldr	r3, [r3, #4]
  49 001c 9847     		blx	r3
  50              	.LVL0:
  51              		.loc 1 65 0
  52 001e BDE80840 		pop	{r3, lr}
  53              		.loc 1 64 0
  54 0022 FFF7FEBF 		b	_port_irq_epilogue
  55              	.LVL1:
  56              		.cfi_endproc
  57              	.LFE56:
ARM GAS  /tmp/cc5A92CL.s 			page 2


  58              		.size	Vector58, .-Vector58
  59 0026 00BFAFF3 		.section	.text.Vector5C,"ax",%progbits
  59      0080AFF3 
  59      0080
  60              		.align	2
  61              		.p2align 4,,15
  62              		.global	Vector5C
  63              		.thumb
  64              		.thumb_func
  65              		.type	Vector5C, %function
  66              	Vector5C:
  67              	.LFB57:
  68              		.loc 1 72 0
  69              		.cfi_startproc
  70              		@ args = 0, pretend = 0, frame = 0
  71              		@ frame_needed = 0, uses_anonymous_args = 0
  72 0000 08B5     		push	{r3, lr}
  73              		.cfi_def_cfa_offset 8
  74              		.cfi_offset 3, -8
  75              		.cfi_offset 14, -4
  76              		.loc 1 76 0
  77 0002 4FF48063 		mov	r3, #1024
  78 0006 C4F20103 		movt	r3, 16385
  79 000a 0222     		movs	r2, #2
  80              		.loc 1 77 0
  81 000c 40F20000 		movw	r0, #:lower16:EXTD1
  82              		.loc 1 76 0
  83 0010 5A61     		str	r2, [r3, #20]
  84              		.loc 1 77 0
  85 0012 C0F20000 		movt	r0, #:upper16:EXTD1
  86 0016 4368     		ldr	r3, [r0, #4]
  87 0018 0121     		movs	r1, #1
  88 001a DB68     		ldr	r3, [r3, #12]
  89 001c 9847     		blx	r3
  90              	.LVL2:
  91              		.loc 1 80 0
  92 001e BDE80840 		pop	{r3, lr}
  93              		.loc 1 79 0
  94 0022 FFF7FEBF 		b	_port_irq_epilogue
  95              	.LVL3:
  96              		.cfi_endproc
  97              	.LFE57:
  98              		.size	Vector5C, .-Vector5C
  99 0026 00BFAFF3 		.section	.text.Vector60,"ax",%progbits
  99      0080AFF3 
  99      0080
 100              		.align	2
 101              		.p2align 4,,15
 102              		.global	Vector60
 103              		.thumb
 104              		.thumb_func
 105              		.type	Vector60, %function
 106              	Vector60:
 107              	.LFB58:
 108              		.loc 1 87 0
 109              		.cfi_startproc
 110              		@ args = 0, pretend = 0, frame = 0
ARM GAS  /tmp/cc5A92CL.s 			page 3


 111              		@ frame_needed = 0, uses_anonymous_args = 0
 112 0000 08B5     		push	{r3, lr}
 113              		.cfi_def_cfa_offset 8
 114              		.cfi_offset 3, -8
 115              		.cfi_offset 14, -4
 116              		.loc 1 91 0
 117 0002 4FF48063 		mov	r3, #1024
 118 0006 C4F20103 		movt	r3, 16385
 119 000a 0422     		movs	r2, #4
 120              		.loc 1 92 0
 121 000c 40F20000 		movw	r0, #:lower16:EXTD1
 122              		.loc 1 91 0
 123 0010 5A61     		str	r2, [r3, #20]
 124              		.loc 1 92 0
 125 0012 C0F20000 		movt	r0, #:upper16:EXTD1
 126 0016 4368     		ldr	r3, [r0, #4]
 127 0018 0221     		movs	r1, #2
 128 001a 5B69     		ldr	r3, [r3, #20]
 129 001c 9847     		blx	r3
 130              	.LVL4:
 131              		.loc 1 95 0
 132 001e BDE80840 		pop	{r3, lr}
 133              		.loc 1 94 0
 134 0022 FFF7FEBF 		b	_port_irq_epilogue
 135              	.LVL5:
 136              		.cfi_endproc
 137              	.LFE58:
 138              		.size	Vector60, .-Vector60
 139 0026 00BFAFF3 		.section	.text.Vector64,"ax",%progbits
 139      0080AFF3 
 139      0080
 140              		.align	2
 141              		.p2align 4,,15
 142              		.global	Vector64
 143              		.thumb
 144              		.thumb_func
 145              		.type	Vector64, %function
 146              	Vector64:
 147              	.LFB59:
 148              		.loc 1 102 0
 149              		.cfi_startproc
 150              		@ args = 0, pretend = 0, frame = 0
 151              		@ frame_needed = 0, uses_anonymous_args = 0
 152 0000 08B5     		push	{r3, lr}
 153              		.cfi_def_cfa_offset 8
 154              		.cfi_offset 3, -8
 155              		.cfi_offset 14, -4
 156              		.loc 1 106 0
 157 0002 4FF48063 		mov	r3, #1024
 158 0006 C4F20103 		movt	r3, 16385
 159 000a 0822     		movs	r2, #8
 160              		.loc 1 107 0
 161 000c 40F20000 		movw	r0, #:lower16:EXTD1
 162              		.loc 1 106 0
 163 0010 5A61     		str	r2, [r3, #20]
 164              		.loc 1 107 0
 165 0012 C0F20000 		movt	r0, #:upper16:EXTD1
ARM GAS  /tmp/cc5A92CL.s 			page 4


 166 0016 4368     		ldr	r3, [r0, #4]
 167 0018 0321     		movs	r1, #3
 168 001a DB69     		ldr	r3, [r3, #28]
 169 001c 9847     		blx	r3
 170              	.LVL6:
 171              		.loc 1 110 0
 172 001e BDE80840 		pop	{r3, lr}
 173              		.loc 1 109 0
 174 0022 FFF7FEBF 		b	_port_irq_epilogue
 175              	.LVL7:
 176              		.cfi_endproc
 177              	.LFE59:
 178              		.size	Vector64, .-Vector64
 179 0026 00BFAFF3 		.section	.text.Vector68,"ax",%progbits
 179      0080AFF3 
 179      0080
 180              		.align	2
 181              		.p2align 4,,15
 182              		.global	Vector68
 183              		.thumb
 184              		.thumb_func
 185              		.type	Vector68, %function
 186              	Vector68:
 187              	.LFB60:
 188              		.loc 1 117 0
 189              		.cfi_startproc
 190              		@ args = 0, pretend = 0, frame = 0
 191              		@ frame_needed = 0, uses_anonymous_args = 0
 192 0000 08B5     		push	{r3, lr}
 193              		.cfi_def_cfa_offset 8
 194              		.cfi_offset 3, -8
 195              		.cfi_offset 14, -4
 196              		.loc 1 121 0
 197 0002 4FF48063 		mov	r3, #1024
 198 0006 C4F20103 		movt	r3, 16385
 199 000a 1022     		movs	r2, #16
 200              		.loc 1 122 0
 201 000c 40F20000 		movw	r0, #:lower16:EXTD1
 202              		.loc 1 121 0
 203 0010 5A61     		str	r2, [r3, #20]
 204              		.loc 1 122 0
 205 0012 C0F20000 		movt	r0, #:upper16:EXTD1
 206 0016 4368     		ldr	r3, [r0, #4]
 207 0018 0421     		movs	r1, #4
 208 001a 5B6A     		ldr	r3, [r3, #36]
 209 001c 9847     		blx	r3
 210              	.LVL8:
 211              		.loc 1 125 0
 212 001e BDE80840 		pop	{r3, lr}
 213              		.loc 1 124 0
 214 0022 FFF7FEBF 		b	_port_irq_epilogue
 215              	.LVL9:
 216              		.cfi_endproc
 217              	.LFE60:
 218              		.size	Vector68, .-Vector68
 219 0026 00BFAFF3 		.section	.text.Vector9C,"ax",%progbits
 219      0080AFF3 
ARM GAS  /tmp/cc5A92CL.s 			page 5


 219      0080
 220              		.align	2
 221              		.p2align 4,,15
 222              		.global	Vector9C
 223              		.thumb
 224              		.thumb_func
 225              		.type	Vector9C, %function
 226              	Vector9C:
 227              	.LFB61:
 228              		.loc 1 132 0
 229              		.cfi_startproc
 230              		@ args = 0, pretend = 0, frame = 0
 231              		@ frame_needed = 0, uses_anonymous_args = 0
 232 0000 10B5     		push	{r4, lr}
 233              		.cfi_def_cfa_offset 8
 234              		.cfi_offset 4, -8
 235              		.cfi_offset 14, -4
 236              		.loc 1 137 0
 237 0002 4FF48063 		mov	r3, #1024
 238 0006 C4F20103 		movt	r3, 16385
 239 000a 5C69     		ldr	r4, [r3, #20]
 240 000c 04F47872 		and	r2, r4, #992
 241              	.LVL10:
 242              		.loc 1 138 0
 243 0010 5A61     		str	r2, [r3, #20]
 244              		.loc 1 139 0
 245 0012 A306     		lsls	r3, r4, #26
 246 0014 2ED4     		bmi	.L28
 247              	.LVL11:
 248              	.L7:
 249              		.loc 1 141 0
 250 0016 6006     		lsls	r0, r4, #25
 251 0018 23D4     		bmi	.L29
 252              	.L8:
 253              		.loc 1 143 0
 254 001a 2106     		lsls	r1, r4, #24
 255 001c 18D4     		bmi	.L30
 256              	.L9:
 257              		.loc 1 145 0
 258 001e E205     		lsls	r2, r4, #23
 259 0020 0DD4     		bmi	.L31
 260              	.L10:
 261              		.loc 1 147 0
 262 0022 A305     		lsls	r3, r4, #22
 263 0024 07D5     		bpl	.L11
 264              		.loc 1 148 0
 265 0026 40F20000 		movw	r0, #:lower16:EXTD1
 266 002a C0F20000 		movt	r0, #:upper16:EXTD1
 267 002e 4368     		ldr	r3, [r0, #4]
 268 0030 0921     		movs	r1, #9
 269 0032 DB6C     		ldr	r3, [r3, #76]
 270 0034 9847     		blx	r3
 271              	.LVL12:
 272              	.L11:
 273              		.loc 1 151 0
 274 0036 BDE81040 		pop	{r4, lr}
 275              	.LVL13:
ARM GAS  /tmp/cc5A92CL.s 			page 6


 276              		.loc 1 150 0
 277 003a FFF7FEBF 		b	_port_irq_epilogue
 278              	.LVL14:
 279              	.L31:
 280              		.loc 1 146 0
 281 003e 40F20000 		movw	r0, #:lower16:EXTD1
 282 0042 C0F20000 		movt	r0, #:upper16:EXTD1
 283 0046 4368     		ldr	r3, [r0, #4]
 284 0048 0821     		movs	r1, #8
 285 004a 5B6C     		ldr	r3, [r3, #68]
 286 004c 9847     		blx	r3
 287              	.LVL15:
 288 004e E8E7     		b	.L10
 289              	.L30:
 290              		.loc 1 144 0
 291 0050 40F20000 		movw	r0, #:lower16:EXTD1
 292 0054 C0F20000 		movt	r0, #:upper16:EXTD1
 293 0058 4368     		ldr	r3, [r0, #4]
 294 005a 0721     		movs	r1, #7
 295 005c DB6B     		ldr	r3, [r3, #60]
 296 005e 9847     		blx	r3
 297              	.LVL16:
 298 0060 DDE7     		b	.L9
 299              	.L29:
 300              		.loc 1 142 0
 301 0062 40F20000 		movw	r0, #:lower16:EXTD1
 302 0066 C0F20000 		movt	r0, #:upper16:EXTD1
 303 006a 4368     		ldr	r3, [r0, #4]
 304 006c 0621     		movs	r1, #6
 305 006e 5B6B     		ldr	r3, [r3, #52]
 306 0070 9847     		blx	r3
 307              	.LVL17:
 308 0072 D2E7     		b	.L8
 309              	.LVL18:
 310              	.L28:
 311              		.loc 1 140 0
 312 0074 40F20000 		movw	r0, #:lower16:EXTD1
 313 0078 C0F20000 		movt	r0, #:upper16:EXTD1
 314 007c 4368     		ldr	r3, [r0, #4]
 315 007e 0521     		movs	r1, #5
 316 0080 DB6A     		ldr	r3, [r3, #44]
 317 0082 9847     		blx	r3
 318              	.LVL19:
 319 0084 C7E7     		b	.L7
 320              		.cfi_endproc
 321              	.LFE61:
 322              		.size	Vector9C, .-Vector9C
 323 0086 00BFAFF3 		.section	.text.VectorE0,"ax",%progbits
 323      0080AFF3 
 323      0080
 324              		.align	2
 325              		.p2align 4,,15
 326              		.global	VectorE0
 327              		.thumb
 328              		.thumb_func
 329              		.type	VectorE0, %function
 330              	VectorE0:
ARM GAS  /tmp/cc5A92CL.s 			page 7


 331              	.LFB62:
 332              		.loc 1 158 0
 333              		.cfi_startproc
 334              		@ args = 0, pretend = 0, frame = 0
 335              		@ frame_needed = 0, uses_anonymous_args = 0
 336 0000 10B5     		push	{r4, lr}
 337              		.cfi_def_cfa_offset 8
 338              		.cfi_offset 4, -8
 339              		.cfi_offset 14, -4
 340              		.loc 1 163 0
 341 0002 4FF48063 		mov	r3, #1024
 342 0006 C4F20103 		movt	r3, 16385
 343 000a 5C69     		ldr	r4, [r3, #20]
 344 000c 04F47C42 		and	r2, r4, #64512
 345              	.LVL20:
 346              		.loc 1 166 0
 347 0010 6105     		lsls	r1, r4, #21
 348              		.loc 1 165 0
 349 0012 5A61     		str	r2, [r3, #20]
 350              		.loc 1 166 0
 351 0014 39D4     		bmi	.L57
 352              	.LVL21:
 353              	.L33:
 354              		.loc 1 168 0
 355 0016 2205     		lsls	r2, r4, #20
 356 0018 2ED4     		bmi	.L58
 357              	.L34:
 358              		.loc 1 170 0
 359 001a E304     		lsls	r3, r4, #19
 360 001c 23D4     		bmi	.L59
 361              	.L35:
 362              		.loc 1 172 0
 363 001e A004     		lsls	r0, r4, #18
 364 0020 18D4     		bmi	.L60
 365              	.L36:
 366              		.loc 1 174 0
 367 0022 6104     		lsls	r1, r4, #17
 368 0024 0DD4     		bmi	.L61
 369              	.L37:
 370              		.loc 1 176 0
 371 0026 2204     		lsls	r2, r4, #16
 372 0028 07D5     		bpl	.L38
 373              		.loc 1 177 0
 374 002a 40F20000 		movw	r0, #:lower16:EXTD1
 375 002e C0F20000 		movt	r0, #:upper16:EXTD1
 376 0032 4368     		ldr	r3, [r0, #4]
 377 0034 0F21     		movs	r1, #15
 378 0036 DB6F     		ldr	r3, [r3, #124]
 379 0038 9847     		blx	r3
 380              	.LVL22:
 381              	.L38:
 382              		.loc 1 180 0
 383 003a BDE81040 		pop	{r4, lr}
 384              	.LVL23:
 385              		.loc 1 179 0
 386 003e FFF7FEBF 		b	_port_irq_epilogue
 387              	.LVL24:
ARM GAS  /tmp/cc5A92CL.s 			page 8


 388              	.L61:
 389              		.loc 1 175 0
 390 0042 40F20000 		movw	r0, #:lower16:EXTD1
 391 0046 C0F20000 		movt	r0, #:upper16:EXTD1
 392 004a 4368     		ldr	r3, [r0, #4]
 393 004c 0E21     		movs	r1, #14
 394 004e 5B6F     		ldr	r3, [r3, #116]
 395 0050 9847     		blx	r3
 396              	.LVL25:
 397 0052 E8E7     		b	.L37
 398              	.L60:
 399              		.loc 1 173 0
 400 0054 40F20000 		movw	r0, #:lower16:EXTD1
 401 0058 C0F20000 		movt	r0, #:upper16:EXTD1
 402 005c 4368     		ldr	r3, [r0, #4]
 403 005e 0D21     		movs	r1, #13
 404 0060 DB6E     		ldr	r3, [r3, #108]
 405 0062 9847     		blx	r3
 406              	.LVL26:
 407 0064 DDE7     		b	.L36
 408              	.L59:
 409              		.loc 1 171 0
 410 0066 40F20000 		movw	r0, #:lower16:EXTD1
 411 006a C0F20000 		movt	r0, #:upper16:EXTD1
 412 006e 4368     		ldr	r3, [r0, #4]
 413 0070 0C21     		movs	r1, #12
 414 0072 5B6E     		ldr	r3, [r3, #100]
 415 0074 9847     		blx	r3
 416              	.LVL27:
 417 0076 D2E7     		b	.L35
 418              	.L58:
 419              		.loc 1 169 0
 420 0078 40F20000 		movw	r0, #:lower16:EXTD1
 421 007c C0F20000 		movt	r0, #:upper16:EXTD1
 422 0080 4368     		ldr	r3, [r0, #4]
 423 0082 0B21     		movs	r1, #11
 424 0084 DB6D     		ldr	r3, [r3, #92]
 425 0086 9847     		blx	r3
 426              	.LVL28:
 427 0088 C7E7     		b	.L34
 428              	.LVL29:
 429              	.L57:
 430              		.loc 1 167 0
 431 008a 40F20000 		movw	r0, #:lower16:EXTD1
 432 008e C0F20000 		movt	r0, #:upper16:EXTD1
 433 0092 4368     		ldr	r3, [r0, #4]
 434 0094 0A21     		movs	r1, #10
 435 0096 5B6D     		ldr	r3, [r3, #84]
 436 0098 9847     		blx	r3
 437              	.LVL30:
 438 009a BCE7     		b	.L33
 439              		.cfi_endproc
 440              	.LFE62:
 441              		.size	VectorE0, .-VectorE0
 442              		.section	.text.Vector44,"ax",%progbits
 443              		.align	2
 444              		.p2align 4,,15
ARM GAS  /tmp/cc5A92CL.s 			page 9


 445              		.global	Vector44
 446              		.thumb
 447              		.thumb_func
 448              		.type	Vector44, %function
 449              	Vector44:
 450              	.LFB63:
 451              		.loc 1 187 0
 452              		.cfi_startproc
 453              		@ args = 0, pretend = 0, frame = 0
 454              		@ frame_needed = 0, uses_anonymous_args = 0
 455 0000 08B5     		push	{r3, lr}
 456              		.cfi_def_cfa_offset 8
 457              		.cfi_offset 3, -8
 458              		.cfi_offset 14, -4
 459              		.loc 1 191 0
 460 0002 4FF48063 		mov	r3, #1024
 461 0006 C4F20103 		movt	r3, 16385
 462 000a 4FF48032 		mov	r2, #65536
 463              		.loc 1 192 0
 464 000e 40F20000 		movw	r0, #:lower16:EXTD1
 465              		.loc 1 191 0
 466 0012 5A61     		str	r2, [r3, #20]
 467              		.loc 1 192 0
 468 0014 C0F20000 		movt	r0, #:upper16:EXTD1
 469 0018 4368     		ldr	r3, [r0, #4]
 470 001a 1021     		movs	r1, #16
 471 001c D3F88430 		ldr	r3, [r3, #132]
 472 0020 9847     		blx	r3
 473              	.LVL31:
 474              		.loc 1 195 0
 475 0022 BDE80840 		pop	{r3, lr}
 476              		.loc 1 194 0
 477 0026 FFF7FEBF 		b	_port_irq_epilogue
 478              	.LVL32:
 479              		.cfi_endproc
 480              	.LFE63:
 481              		.size	Vector44, .-Vector44
 482 002a 00BFAFF3 		.section	.text.VectorE4,"ax",%progbits
 482      0080
 483              		.align	2
 484              		.p2align 4,,15
 485              		.global	VectorE4
 486              		.thumb
 487              		.thumb_func
 488              		.type	VectorE4, %function
 489              	VectorE4:
 490              	.LFB64:
 491              		.loc 1 202 0
 492              		.cfi_startproc
 493              		@ args = 0, pretend = 0, frame = 0
 494              		@ frame_needed = 0, uses_anonymous_args = 0
 495 0000 08B5     		push	{r3, lr}
 496              		.cfi_def_cfa_offset 8
 497              		.cfi_offset 3, -8
 498              		.cfi_offset 14, -4
 499              		.loc 1 206 0
 500 0002 4FF48063 		mov	r3, #1024
ARM GAS  /tmp/cc5A92CL.s 			page 10


 501 0006 C4F20103 		movt	r3, 16385
 502 000a 4FF40032 		mov	r2, #131072
 503              		.loc 1 207 0
 504 000e 40F20000 		movw	r0, #:lower16:EXTD1
 505              		.loc 1 206 0
 506 0012 5A61     		str	r2, [r3, #20]
 507              		.loc 1 207 0
 508 0014 C0F20000 		movt	r0, #:upper16:EXTD1
 509 0018 4368     		ldr	r3, [r0, #4]
 510 001a 1121     		movs	r1, #17
 511 001c D3F88C30 		ldr	r3, [r3, #140]
 512 0020 9847     		blx	r3
 513              	.LVL33:
 514              		.loc 1 210 0
 515 0022 BDE80840 		pop	{r3, lr}
 516              		.loc 1 209 0
 517 0026 FFF7FEBF 		b	_port_irq_epilogue
 518              	.LVL34:
 519              		.cfi_endproc
 520              	.LFE64:
 521              		.size	VectorE4, .-VectorE4
 522 002a 00BFAFF3 		.section	.text.VectorE8,"ax",%progbits
 522      0080
 523              		.align	2
 524              		.p2align 4,,15
 525              		.global	VectorE8
 526              		.thumb
 527              		.thumb_func
 528              		.type	VectorE8, %function
 529              	VectorE8:
 530              	.LFB65:
 531              		.loc 1 251 0
 532              		.cfi_startproc
 533              		@ args = 0, pretend = 0, frame = 0
 534              		@ frame_needed = 0, uses_anonymous_args = 0
 535 0000 08B5     		push	{r3, lr}
 536              		.cfi_def_cfa_offset 8
 537              		.cfi_offset 3, -8
 538              		.cfi_offset 14, -4
 539              		.loc 1 255 0
 540 0002 4FF48063 		mov	r3, #1024
 541 0006 C4F20103 		movt	r3, 16385
 542 000a 4FF48022 		mov	r2, #262144
 543              		.loc 1 256 0
 544 000e 40F20000 		movw	r0, #:lower16:EXTD1
 545              		.loc 1 255 0
 546 0012 5A61     		str	r2, [r3, #20]
 547              		.loc 1 256 0
 548 0014 C0F20000 		movt	r0, #:upper16:EXTD1
 549 0018 4368     		ldr	r3, [r0, #4]
 550 001a 1221     		movs	r1, #18
 551 001c D3F89430 		ldr	r3, [r3, #148]
 552 0020 9847     		blx	r3
 553              	.LVL35:
 554              		.loc 1 259 0
 555 0022 BDE80840 		pop	{r3, lr}
 556              		.loc 1 258 0
ARM GAS  /tmp/cc5A92CL.s 			page 11


 557 0026 FFF7FEBF 		b	_port_irq_epilogue
 558              	.LVL36:
 559              		.cfi_endproc
 560              	.LFE65:
 561              		.size	VectorE8, .-VectorE8
 562 002a 00BFAFF3 		.section	.text.ext_lld_exti_irq_enable,"ax",%progbits
 562      0080
 563              		.align	2
 564              		.p2align 4,,15
 565              		.global	ext_lld_exti_irq_enable
 566              		.thumb
 567              		.thumb_func
 568              		.type	ext_lld_exti_irq_enable, %function
 569              	ext_lld_exti_irq_enable:
 570              	.LFB66:
 571              		.loc 1 271 0
 572              		.cfi_startproc
 573              		@ args = 0, pretend = 0, frame = 0
 574              		@ frame_needed = 0, uses_anonymous_args = 0
 575 0000 08B5     		push	{r3, lr}
 576              		.cfi_def_cfa_offset 8
 577              		.cfi_offset 3, -8
 578              		.cfi_offset 14, -4
 579              		.loc 1 273 0
 580 0002 0620     		movs	r0, #6
 581 0004 6021     		movs	r1, #96
 582 0006 FFF7FEFF 		bl	nvicEnableVector
 583              	.LVL37:
 584              		.loc 1 275 0
 585 000a 0720     		movs	r0, #7
 586 000c 6021     		movs	r1, #96
 587 000e FFF7FEFF 		bl	nvicEnableVector
 588              	.LVL38:
 589              		.loc 1 277 0
 590 0012 0820     		movs	r0, #8
 591 0014 6021     		movs	r1, #96
 592 0016 FFF7FEFF 		bl	nvicEnableVector
 593              	.LVL39:
 594              		.loc 1 279 0
 595 001a 0920     		movs	r0, #9
 596 001c 6021     		movs	r1, #96
 597 001e FFF7FEFF 		bl	nvicEnableVector
 598              	.LVL40:
 599              		.loc 1 281 0
 600 0022 0A20     		movs	r0, #10
 601 0024 6021     		movs	r1, #96
 602 0026 FFF7FEFF 		bl	nvicEnableVector
 603              	.LVL41:
 604              		.loc 1 283 0
 605 002a 1720     		movs	r0, #23
 606 002c 6021     		movs	r1, #96
 607 002e FFF7FEFF 		bl	nvicEnableVector
 608              	.LVL42:
 609              		.loc 1 285 0
 610 0032 2820     		movs	r0, #40
 611 0034 6021     		movs	r1, #96
 612 0036 FFF7FEFF 		bl	nvicEnableVector
ARM GAS  /tmp/cc5A92CL.s 			page 12


 613              	.LVL43:
 614              		.loc 1 287 0
 615 003a 0120     		movs	r0, #1
 616 003c 6021     		movs	r1, #96
 617 003e FFF7FEFF 		bl	nvicEnableVector
 618              	.LVL44:
 619              		.loc 1 289 0
 620 0042 2920     		movs	r0, #41
 621 0044 6021     		movs	r1, #96
 622 0046 FFF7FEFF 		bl	nvicEnableVector
 623              	.LVL45:
 624              		.loc 1 305 0
 625 004a BDE80840 		pop	{r3, lr}
 626              		.loc 1 302 0
 627 004e 2A20     		movs	r0, #42
 628 0050 6021     		movs	r1, #96
 629 0052 FFF7FEBF 		b	nvicEnableVector
 630              	.LVL46:
 631              		.cfi_endproc
 632              	.LFE66:
 633              		.size	ext_lld_exti_irq_enable, .-ext_lld_exti_irq_enable
 634 0056 00BFAFF3 		.section	.text.ext_lld_exti_irq_disable,"ax",%progbits
 634      0080AFF3 
 634      0080
 635              		.align	2
 636              		.p2align 4,,15
 637              		.global	ext_lld_exti_irq_disable
 638              		.thumb
 639              		.thumb_func
 640              		.type	ext_lld_exti_irq_disable, %function
 641              	ext_lld_exti_irq_disable:
 642              	.LFB67:
 643              		.loc 1 312 0
 644              		.cfi_startproc
 645              		@ args = 0, pretend = 0, frame = 0
 646              		@ frame_needed = 0, uses_anonymous_args = 0
 647 0000 08B5     		push	{r3, lr}
 648              		.cfi_def_cfa_offset 8
 649              		.cfi_offset 3, -8
 650              		.cfi_offset 14, -4
 651              		.loc 1 314 0
 652 0002 0620     		movs	r0, #6
 653 0004 FFF7FEFF 		bl	nvicDisableVector
 654              	.LVL47:
 655              		.loc 1 315 0
 656 0008 0720     		movs	r0, #7
 657 000a FFF7FEFF 		bl	nvicDisableVector
 658              	.LVL48:
 659              		.loc 1 316 0
 660 000e 0820     		movs	r0, #8
 661 0010 FFF7FEFF 		bl	nvicDisableVector
 662              	.LVL49:
 663              		.loc 1 317 0
 664 0014 0920     		movs	r0, #9
 665 0016 FFF7FEFF 		bl	nvicDisableVector
 666              	.LVL50:
 667              		.loc 1 318 0
ARM GAS  /tmp/cc5A92CL.s 			page 13


 668 001a 0A20     		movs	r0, #10
 669 001c FFF7FEFF 		bl	nvicDisableVector
 670              	.LVL51:
 671              		.loc 1 319 0
 672 0020 1720     		movs	r0, #23
 673 0022 FFF7FEFF 		bl	nvicDisableVector
 674              	.LVL52:
 675              		.loc 1 320 0
 676 0026 2820     		movs	r0, #40
 677 0028 FFF7FEFF 		bl	nvicDisableVector
 678              	.LVL53:
 679              		.loc 1 321 0
 680 002c 0120     		movs	r0, #1
 681 002e FFF7FEFF 		bl	nvicDisableVector
 682              	.LVL54:
 683              		.loc 1 322 0
 684 0032 2920     		movs	r0, #41
 685 0034 FFF7FEFF 		bl	nvicDisableVector
 686              	.LVL55:
 687              		.loc 1 334 0
 688 0038 BDE80840 		pop	{r3, lr}
 689              		.loc 1 332 0
 690 003c 2A20     		movs	r0, #42
 691 003e FFF7FEBF 		b	nvicDisableVector
 692              	.LVL56:
 693              		.cfi_endproc
 694              	.LFE67:
 695              		.size	ext_lld_exti_irq_disable, .-ext_lld_exti_irq_disable
 696 0042 00BFAFF3 		.text
 696      0080AFF3 
 696      0080AFF3 
 696      0080
 697              	.Letext0:
 698              		.file 2 "/usr/include/newlib/machine/_default_types.h"
 699              		.file 3 "/usr/include/newlib/stdint.h"
 700              		.file 4 "../os/hal/platforms/STM32F1xx/stm32f10x.h"
 701              		.file 5 "../os/hal/include/ext.h"
 702              		.file 6 "../os/hal/platforms/STM32/ext_lld.h"
 703              		.file 7 "../os/ports/common/ARMCMx/CMSIS/include/core_cm3.h"
 704              		.file 8 "../os/ports/GCC/ARMCMx/chcore_v7m.h"
 705              		.file 9 "../os/ports/common/ARMCMx/nvic.h"