ARM GAS  /tmp/cc5Ui1kX.s 			page 1


   1              		.syntax unified
   2              		.cpu cortex-m3
   3              		.fpu softvfp
   4              		.eabi_attribute 20, 1
   5              		.eabi_attribute 21, 1
   6              		.eabi_attribute 23, 3
   7              		.eabi_attribute 24, 1
   8              		.eabi_attribute 25, 1
   9              		.eabi_attribute 26, 1
  10              		.eabi_attribute 30, 2
  11              		.eabi_attribute 34, 1
  12              		.eabi_attribute 18, 4
  13              		.thumb
  14              		.file	"hal.c"
  15              		.text
  16              	.Ltext0:
  17              		.cfi_sections	.debug_frame
  18              		.section	.text.halInit,"ax",%progbits
  19              		.align	2
  20              		.p2align 4,,15
  21              		.global	halInit
  22              		.thumb
  23              		.thumb_func
  24              		.type	halInit, %function
  25              	halInit:
  26              	.LFB56:
  27              		.file 1 "../os/hal/src/hal.c"
  28              		.loc 1 68 0
  29              		.cfi_startproc
  30              		@ args = 0, pretend = 0, frame = 0
  31              		@ frame_needed = 0, uses_anonymous_args = 0
  32 0000 08B5     		push	{r3, lr}
  33              		.cfi_def_cfa_offset 8
  34              		.cfi_offset 3, -8
  35              		.cfi_offset 14, -4
  36              		.loc 1 70 0
  37 0002 FFF7FEFF 		bl	hal_lld_init
  38              	.LVL0:
  39              		.loc 1 73 0
  40 0006 FFF7FEFF 		bl	tmInit
  41              	.LVL1:
  42              		.loc 1 76 0
  43 000a 40F20000 		movw	r0, #:lower16:pal_default_config
  44 000e C0F20000 		movt	r0, #:upper16:pal_default_config
  45 0012 FFF7FEFF 		bl	_pal_lld_init
  46              	.LVL2:
  47              		.loc 1 85 0
  48 0016 FFF7FEFF 		bl	extInit
  49              	.LVL3:
  50              		.loc 1 109 0
  51 001a FFF7FEFF 		bl	spiInit
  52              	.LVL4:
  53              		.loc 1 112 0
  54 001e FFF7FEFF 		bl	uartInit
  55              	.LVL5:
  56              		.loc 1 128 0
  57 0022 BDE80840 		pop	{r3, lr}
ARM GAS  /tmp/cc5Ui1kX.s 			page 2


  58              		.loc 1 127 0
  59 0026 FFF7FEBF 		b	boardInit
  60              	.LVL6:
  61              		.cfi_endproc
  62              	.LFE56:
  63              		.size	halInit, .-halInit
  64 002a 00BFAFF3 		.section	.text.halIsCounterWithin,"ax",%progbits
  64      0080
  65              		.align	2
  66              		.p2align 4,,15
  67              		.global	halIsCounterWithin
  68              		.thumb
  69              		.thumb_func
  70              		.type	halIsCounterWithin, %function
  71              	halIsCounterWithin:
  72              	.LFB57:
  73              		.loc 1 174 0
  74              		.cfi_startproc
  75              		@ args = 0, pretend = 0, frame = 0
  76              		@ frame_needed = 0, uses_anonymous_args = 0
  77              		@ link register save eliminated.
  78              	.LVL7:
  79              		.loc 1 175 0
  80 0000 4FF48053 		mov	r3, #4096
  81 0004 CEF20003 		movt	r3, 57344
  82              		.loc 1 177 0
  83 0008 8142     		cmp	r1, r0
  84              		.loc 1 174 0
  85 000a 0246     		mov	r2, r0
  86              		.loc 1 175 0
  87 000c 5B68     		ldr	r3, [r3, #4]
  88              	.LVL8:
  89              		.loc 1 177 0
  90 000e 09D8     		bhi	.L6
  91              		.loc 1 178 0 discriminator 2
  92 0010 8342     		cmp	r3, r0
  93 0012 34BF     		ite	cc
  94 0014 0022     		movcc	r2, #0
  95 0016 0122     		movcs	r2, #1
  96 0018 8B42     		cmp	r3, r1
  97 001a 2CBF     		ite	cs
  98 001c 1046     		movcs	r0, r2
  99 001e 42F00100 		orrcc	r0, r2, #1
 100              	.LVL9:
 101              		.loc 1 179 0 discriminator 2
 102 0022 7047     		bx	lr
 103              	.LVL10:
 104              	.L6:
 105              		.loc 1 177 0 discriminator 1
 106 0024 8B42     		cmp	r3, r1
 107 0026 2CBF     		ite	cs
 108 0028 0020     		movcs	r0, #0
 109              	.LVL11:
 110 002a 0120     		movcc	r0, #1
 111 002c 9342     		cmp	r3, r2
 112 002e 38BF     		it	cc
 113 0030 0020     		movcc	r0, #0
ARM GAS  /tmp/cc5Ui1kX.s 			page 3


 114 0032 7047     		bx	lr
 115              		.cfi_endproc
 116              	.LFE57:
 117              		.size	halIsCounterWithin, .-halIsCounterWithin
 118 0034 AFF30080 		.section	.text.halPolledDelay,"ax",%progbits
 118      AFF30080 
 118      AFF30080 
 119              		.align	2
 120              		.p2align 4,,15
 121              		.global	halPolledDelay
 122              		.thumb
 123              		.thumb_func
 124              		.type	halPolledDelay, %function
 125              	halPolledDelay:
 126              	.LFB58:
 127              		.loc 1 193 0
 128              		.cfi_startproc
 129              		@ args = 0, pretend = 0, frame = 0
 130              		@ frame_needed = 0, uses_anonymous_args = 0
 131              		@ link register save eliminated.
 132              	.LVL12:
 133 0000 10B4     		push	{r4}
 134              		.cfi_def_cfa_offset 4
 135              		.cfi_offset 4, -4
 136              		.loc 1 194 0
 137 0002 4FF48054 		mov	r4, #4096
 138 0006 CEF20004 		movt	r4, 57344
 139 000a 6268     		ldr	r2, [r4, #4]
 140              	.LVL13:
 141              		.loc 1 195 0
 142 000c 1044     		add	r0, r0, r2
 143              	.LVL14:
 144              	.L11:
 145              	.LBB4:
 146              	.LBB5:
 147              		.loc 1 177 0 discriminator 1
 148 000e 8242     		cmp	r2, r0
 149              		.loc 1 175 0 discriminator 1
 150 0010 6368     		ldr	r3, [r4, #4]
 151              	.LVL15:
 152              		.loc 1 177 0 discriminator 1
 153 0012 0BD2     		bcs	.L8
 154              		.loc 1 177 0 is_stmt 0
 155 0014 9842     		cmp	r0, r3
 156 0016 94BF     		ite	ls
 157 0018 0021     		movls	r1, #0
 158 001a 0121     		movhi	r1, #1
 159 001c 9A42     		cmp	r2, r3
 160 001e 88BF     		it	hi
 161 0020 0021     		movhi	r1, #0
 162              	.LBE5:
 163              	.LBE4:
 164              		.loc 1 196 0 is_stmt 1
 165 0022 0029     		cmp	r1, #0
 166 0024 F3D1     		bne	.L11
 167              	.L12:
 168              		.loc 1 198 0
ARM GAS  /tmp/cc5Ui1kX.s 			page 4


 169 0026 5DF8044B 		ldr	r4, [sp], #4
 170 002a 7047     		bx	lr
 171              	.L8:
 172              	.LBB7:
 173              	.LBB6:
 174              		.loc 1 178 0
 175 002c 9A42     		cmp	r2, r3
 176 002e 8CBF     		ite	hi
 177 0030 0021     		movhi	r1, #0
 178 0032 0121     		movls	r1, #1
 179 0034 9842     		cmp	r0, r3
 180 0036 88BF     		it	hi
 181 0038 41F00101 		orrhi	r1, r1, #1
 182              	.LBE6:
 183              	.LBE7:
 184              		.loc 1 196 0
 185 003c 0029     		cmp	r1, #0
 186 003e E6D1     		bne	.L11
 187 0040 F1E7     		b	.L12
 188              		.cfi_endproc
 189              	.LFE58:
 190              		.size	halPolledDelay, .-halPolledDelay
 191 0042 00BFAFF3 		.text
 191      0080AFF3 
 191      0080AFF3 
 191      0080
 192              	.Letext0:
 193              		.file 2 "/usr/include/newlib/machine/_default_types.h"
 194              		.file 3 "/usr/include/newlib/stdint.h"
 195              		.file 4 "../os/ports/GCC/ARMCMx/chtypes.h"
 196              		.file 5 "../os/ports/common/ARMCMx/nvic.h"
 197              		.file 6 "../os/hal/platforms/STM32F1xx/hal_lld.h"
 198              		.file 7 "../os/hal/platforms/STM32/GPIOv1/pal_lld.h"
 199              		.file 8 "../os/ports/common/ARMCMx/CMSIS/include/core_cm3.h"
 200              		.file 9 "../os/hal/include/tm.h"
 201              		.file 10 "../os/hal/include/ext.h"
 202              		.file 11 "../os/hal/include/spi.h"
 203              		.file 12 "../os/hal/include/uart.h"
 204              		.file 13 "../conf/board.h"