ARM GAS  /tmp/cc7uqQHO.s 			page 1


   1              		.syntax unified
   2              		.cpu cortex-m3
   3              		.fpu softvfp
   4              		.eabi_attribute 20, 1
   5              		.eabi_attribute 21, 1
   6              		.eabi_attribute 23, 3
   7              		.eabi_attribute 24, 1
   8              		.eabi_attribute 25, 1
   9              		.eabi_attribute 26, 1
  10              		.eabi_attribute 30, 2
  11              		.eabi_attribute 34, 1
  12              		.eabi_attribute 18, 4
  13              		.thumb
  14              		.file	"hal_lld.c"
  15              		.text
  16              	.Ltext0:
  17              		.cfi_sections	.debug_frame
  18              		.section	.text.hal_lld_init,"ax",%progbits
  19              		.align	2
  20              		.p2align 4,,15
  21              		.global	hal_lld_init
  22              		.thumb
  23              		.thumb_func
  24              		.type	hal_lld_init, %function
  25              	hal_lld_init:
  26              	.LFB57:
  27              		.file 1 "../os/hal/platforms/STM32F1xx/hal_lld.c"
  28              		.loc 1 99 0
  29              		.cfi_startproc
  30              		@ args = 0, pretend = 0, frame = 0
  31              		@ frame_needed = 0, uses_anonymous_args = 0
  32              		@ link register save eliminated.
  33 0000 F0B4     		push	{r4, r5, r6, r7}
  34              		.cfi_def_cfa_offset 16
  35              		.cfi_offset 4, -16
  36              		.cfi_offset 5, -12
  37              		.cfi_offset 6, -8
  38              		.cfi_offset 7, -4
  39              		.loc 1 102 0
  40 0002 4FF48053 		mov	r3, #4096
  41 0006 C4F20203 		movt	r3, 16386
  42 000a 0021     		movs	r1, #0
  43 000c 4FF0FF34 		mov	r4, #-1
  44              		.loc 1 106 0
  45 0010 4EF21002 		movw	r2, #57360
  46              		.loc 1 102 0
  47 0014 1869     		ldr	r0, [r3, #16]
  48              		.loc 1 106 0
  49 0016 CEF20002 		movt	r2, 57344
  50              		.loc 1 102 0
  51 001a 1C61     		str	r4, [r3, #16]
  52              		.loc 1 106 0
  53 001c 45F6BF56 		movw	r6, #23999
  54              		.loc 1 102 0
  55 0020 1961     		str	r1, [r3, #16]
  56              		.loc 1 108 0
  57 0022 0725     		movs	r5, #7
ARM GAS  /tmp/cc7uqQHO.s 			page 2


  58              		.loc 1 113 0
  59 0024 4EF6F050 		movw	r0, #60912
  60              		.loc 1 103 0
  61 0028 DF68     		ldr	r7, [r3, #12]
  62              		.loc 1 113 0
  63 002a CEF20000 		movt	r0, 57344
  64              		.loc 1 103 0
  65 002e DC60     		str	r4, [r3, #12]
  66 0030 D960     		str	r1, [r3, #12]
  67              		.loc 1 106 0
  68 0032 5660     		str	r6, [r2, #4]
  69              		.loc 1 107 0
  70 0034 9160     		str	r1, [r2, #8]
  71              		.loc 1 108 0
  72 0036 1560     		str	r5, [r2]
  73              		.loc 1 113 0
  74 0038 C268     		ldr	r2, [r0, #12]
  75              		.loc 1 114 0
  76 003a 4FF48051 		mov	r1, #4096
  77              		.loc 1 113 0
  78 003e 42F08072 		orr	r2, r2, #16777216
  79 0042 C260     		str	r2, [r0, #12]
  80              		.loc 1 114 0
  81 0044 CEF20001 		movt	r1, 57344
  82 0048 0868     		ldr	r0, [r1]
  83              	.LBB4:
  84              	.LBB5:
  85              		.loc 1 52 0
  86 004a 4FF4E042 		mov	r2, #28672
  87              	.LBE5:
  88              	.LBE4:
  89              		.loc 1 114 0
  90 004e 40F00100 		orr	r0, r0, #1
  91 0052 0860     		str	r0, [r1]
  92              		.loc 1 117 0
  93 0054 D969     		ldr	r1, [r3, #28]
  94              	.LBB8:
  95              	.LBB6:
  96              		.loc 1 52 0
  97 0056 C4F20002 		movt	r2, 16384
  98              	.LBE6:
  99              	.LBE8:
 100              		.loc 1 117 0
 101 005a 41F08051 		orr	r1, r1, #268435456
 102 005e D961     		str	r1, [r3, #28]
 103              		.loc 1 118 0
 104 0060 D969     		ldr	r1, [r3, #28]
 105 0062 41F00061 		orr	r1, r1, #134217728
 106 0066 D961     		str	r1, [r3, #28]
 107              	.LBB9:
 108              	.LBB7:
 109              		.loc 1 52 0
 110 0068 1368     		ldr	r3, [r2]
 111 006a 43F48073 		orr	r3, r3, #256
 112 006e 1360     		str	r3, [r2]
 113              	.LBE7:
 114              	.LBE9:
ARM GAS  /tmp/cc7uqQHO.s 			page 3


 115              		.loc 1 131 0
 116 0070 F0BC     		pop	{r4, r5, r6, r7}
 117              		.loc 1 124 0
 118 0072 FFF7FEBF 		b	dmaInit
 119              	.LVL0:
 120              		.cfi_endproc
 121              	.LFE57:
 122              		.size	hal_lld_init, .-hal_lld_init
 123 0076 00BFAFF3 		.section	.text.stm32_clock_init,"ax",%progbits
 123      0080AFF3 
 123      0080
 124              		.align	2
 125              		.p2align 4,,15
 126              		.global	stm32_clock_init
 127              		.thumb
 128              		.thumb_func
 129              		.type	stm32_clock_init, %function
 130              	stm32_clock_init:
 131              	.LFB58:
 132              		.loc 1 147 0
 133              		.cfi_startproc
 134              		@ args = 0, pretend = 0, frame = 0
 135              		@ frame_needed = 0, uses_anonymous_args = 0
 136              		@ link register save eliminated.
 137              		.loc 1 152 0
 138 0000 4FF48053 		mov	r3, #4096
 139 0004 C4F20203 		movt	r3, 16386
 140 0008 1A68     		ldr	r2, [r3]
 141              		.loc 1 153 0
 142 000a 1946     		mov	r1, r3
 143              		.loc 1 152 0
 144 000c 42F00102 		orr	r2, r2, #1
 145 0010 1A60     		str	r2, [r3]
 146              	.L4:
 147              		.loc 1 153 0 discriminator 1
 148 0012 0A68     		ldr	r2, [r1]
 149 0014 4FF48053 		mov	r3, #4096
 150 0018 9207     		lsls	r2, r2, #30
 151 001a C4F20203 		movt	r3, 16386
 152 001e F8D5     		bpl	.L4
 153              		.loc 1 159 0
 154 0020 5A68     		ldr	r2, [r3, #4]
 155              		.loc 1 161 0
 156 0022 1946     		mov	r1, r3
 157              		.loc 1 159 0
 158 0024 22F00302 		bic	r2, r2, #3
 159 0028 5A60     		str	r2, [r3, #4]
 160              		.loc 1 160 0
 161 002a 5A68     		ldr	r2, [r3, #4]
 162 002c 5A60     		str	r2, [r3, #4]
 163              	.L6:
 164              		.loc 1 161 0 discriminator 1
 165 002e 4B68     		ldr	r3, [r1, #4]
 166 0030 4FF48052 		mov	r2, #4096
 167 0034 13F00C03 		ands	r3, r3, #12
 168 0038 C4F20202 		movt	r2, 16386
 169 003c F7D1     		bne	.L6
ARM GAS  /tmp/cc7uqQHO.s 			page 4


 170              		.loc 1 165 0
 171 003e 1068     		ldr	r0, [r2]
 172              		.loc 1 175 0
 173 0040 1146     		mov	r1, r2
 174              		.loc 1 165 0
 175 0042 00F0F900 		and	r0, r0, #249
 176 0046 1060     		str	r0, [r2]
 177              		.loc 1 166 0
 178 0048 5360     		str	r3, [r2, #4]
 179              		.loc 1 174 0
 180 004a 1368     		ldr	r3, [r2]
 181 004c 43F48033 		orr	r3, r3, #65536
 182 0050 1360     		str	r3, [r2]
 183              	.L8:
 184              		.loc 1 175 0 discriminator 1
 185 0052 0A68     		ldr	r2, [r1]
 186 0054 4FF48053 		mov	r3, #4096
 187 0058 9003     		lsls	r0, r2, #14
 188 005a C4F20203 		movt	r3, 16386
 189 005e F8D5     		bpl	.L8
 190              		.loc 1 188 0
 191 0060 5A68     		ldr	r2, [r3, #4]
 192              		.loc 1 190 0
 193 0062 1946     		mov	r1, r3
 194              		.loc 1 188 0
 195 0064 42F4A022 		orr	r2, r2, #327680
 196 0068 5A60     		str	r2, [r3, #4]
 197              		.loc 1 189 0
 198 006a 1A68     		ldr	r2, [r3]
 199 006c 42F08072 		orr	r2, r2, #16777216
 200 0070 1A60     		str	r2, [r3]
 201              	.L10:
 202              		.loc 1 190 0 discriminator 1
 203 0072 0A68     		ldr	r2, [r1]
 204 0074 4FF48053 		mov	r3, #4096
 205 0078 9201     		lsls	r2, r2, #6
 206 007a C4F20203 		movt	r3, 16386
 207 007e F8D5     		bpl	.L10
 208              		.loc 1 196 0
 209 0080 4FF40441 		mov	r1, #33792
 210              		.loc 1 206 0
 211 0084 4FF40052 		mov	r2, #8192
 212              		.loc 1 196 0
 213 0088 C0F20501 		movt	r1, 5
 214              		.loc 1 206 0
 215 008c C4F20202 		movt	r2, 16386
 216 0090 1020     		movs	r0, #16
 217              		.loc 1 196 0
 218 0092 5960     		str	r1, [r3, #4]
 219              		.loc 1 206 0
 220 0094 1060     		str	r0, [r2]
 221              		.loc 1 211 0
 222 0096 5968     		ldr	r1, [r3, #4]
 223              		.loc 1 212 0
 224 0098 1A46     		mov	r2, r3
 225              		.loc 1 211 0
 226 009a 41F00201 		orr	r1, r1, #2
ARM GAS  /tmp/cc7uqQHO.s 			page 5


 227 009e 5960     		str	r1, [r3, #4]
 228              	.L12:
 229              		.loc 1 212 0 discriminator 1
 230 00a0 5368     		ldr	r3, [r2, #4]
 231 00a2 03F00C03 		and	r3, r3, #12
 232 00a6 082B     		cmp	r3, #8
 233 00a8 FAD1     		bne	.L12
 234              		.loc 1 220 0
 235 00aa 7047     		bx	lr
 236              		.cfi_endproc
 237              	.LFE58:
 238              		.size	stm32_clock_init, .-stm32_clock_init
 239 00ac AFF30080 		.text
 240              	.Letext0:
 241              		.file 2 "/usr/include/newlib/machine/_default_types.h"
 242              		.file 3 "/usr/include/newlib/stdint.h"
 243              		.file 4 "../os/ports/common/ARMCMx/nvic.h"
 244              		.file 5 "../os/ports/common/ARMCMx/CMSIS/include/core_cm3.h"
 245              		.file 6 "../os/hal/platforms/STM32F1xx/stm32f10x.h"
 246              		.file 7 "../os/hal/platforms/STM32F1xx/stm32_dma.h"