ARM GAS  /tmp/ccui4xFX.s 			page 1


   1              		.syntax unified
   2              		.cpu cortex-m3
   3              		.fpu softvfp
   4              		.eabi_attribute 20, 1
   5              		.eabi_attribute 21, 1
   6              		.eabi_attribute 23, 3
   7              		.eabi_attribute 24, 1
   8              		.eabi_attribute 25, 1
   9              		.eabi_attribute 26, 1
  10              		.eabi_attribute 30, 2
  11              		.eabi_attribute 34, 1
  12              		.eabi_attribute 18, 4
  13              		.thumb
  14              		.file	"main.c"
  15              		.text
  16              	.Ltext0:
  17              		.cfi_sections	.debug_frame
  18              		.section	.text.ThreadModbusSerial,"ax",%progbits
  19              		.align	2
  20              		.p2align 4,,15
  21              		.thumb
  22              		.thumb_func
  23              		.type	ThreadModbusSerial, %function
  24              	ThreadModbusSerial:
  25              	.LFB68:
  26              		.file 1 "main.c"
  27              		.loc 1 541 0
  28              		.cfi_startproc
  29              		@ args = 0, pretend = 0, frame = 16
  30              		@ frame_needed = 0, uses_anonymous_args = 0
  31              	.LVL0:
  32 0000 30B5     		push	{r4, r5, lr}
  33              		.cfi_def_cfa_offset 12
  34              		.cfi_offset 4, -12
  35              		.cfi_offset 5, -8
  36              		.cfi_offset 14, -4
  37              		.loc 1 546 0
  38 0002 40F20000 		movw	r0, #:lower16:.LANCHOR0
  39              	.LVL1:
  40              		.loc 1 541 0
  41 0006 85B0     		sub	sp, sp, #20
  42              		.cfi_def_cfa_offset 32
  43              		.loc 1 546 0
  44 0008 C0F20000 		movt	r0, #:upper16:.LANCHOR0
  45 000c 6946     		mov	r1, sp
  46 000e 0022     		movs	r2, #0
  47 0010 FFF7FEFF 		bl	chEvtRegisterMask
  48              	.LVL2:
  49 0014 40F20004 		movw	r4, #:lower16:modbusSerialState
  50 0018 C0F20004 		movt	r4, #:upper16:modbusSerialState
  51              		.loc 1 554 0
  52 001c 0525     		movs	r5, #5
  53              	.L2:
  54              		.loc 1 550 0 discriminator 1
  55 001e 4FF0FF31 		mov	r1, #-1
  56 0022 0020     		movs	r0, #0
  57 0024 FFF7FEFF 		bl	chEvtWaitOneTimeout
ARM GAS  /tmp/ccui4xFX.s 			page 2


  58              	.LVL3:
  59              		.loc 1 552 0 discriminator 1
  60 0028 40F20000 		movw	r0, #:lower16:.LC0
  61 002c C0F20000 		movt	r0, #:upper16:.LC0
  62 0030 2178     		ldrb	r1, [r4]	@ zero_extendqisi2
  63 0032 FFF7FEFF 		bl	senddbgmsg
  64              	.LVL4:
  65              		.loc 1 554 0 discriminator 1
  66 0036 2570     		strb	r5, [r4]
  67 0038 F1E7     		b	.L2
  68              		.cfi_endproc
  69              	.LFE68:
  70              		.size	ThreadModbusSerial, .-ThreadModbusSerial
  71 003a 00BFAFF3 		.section	.text.ThreadButton,"ax",%progbits
  71      0080
  72              		.align	2
  73              		.p2align 4,,15
  74              		.thumb
  75              		.thumb_func
  76              		.type	ThreadButton, %function
  77              	ThreadButton:
  78              	.LFB67:
  79              		.loc 1 522 0
  80              		.cfi_startproc
  81              		@ args = 0, pretend = 0, frame = 16
  82              		@ frame_needed = 0, uses_anonymous_args = 0
  83              	.LVL5:
  84 0000 00B5     		push	{lr}
  85              		.cfi_def_cfa_offset 4
  86              		.cfi_offset 14, -4
  87              		.loc 1 525 0
  88 0002 40F20000 		movw	r0, #:lower16:.LANCHOR1
  89              	.LVL6:
  90              		.loc 1 522 0
  91 0006 85B0     		sub	sp, sp, #20
  92              		.cfi_def_cfa_offset 24
  93              		.loc 1 525 0
  94 0008 C0F20000 		movt	r0, #:upper16:.LANCHOR1
  95 000c 6946     		mov	r1, sp
  96 000e 0022     		movs	r2, #0
  97 0010 FFF7FEFF 		bl	chEvtRegisterMask
  98              	.LVL7:
  99              	.L5:
 100              		.loc 1 529 0 discriminator 1
 101 0014 4FF0FF31 		mov	r1, #-1
 102 0018 0020     		movs	r0, #0
 103 001a FFF7FEFF 		bl	chEvtWaitOneTimeout
 104              	.LVL8:
 105              		.loc 1 530 0 discriminator 1
 106 001e 40F20000 		movw	r0, #:lower16:.LC1
 107 0022 C0F20000 		movt	r0, #:upper16:.LC1
 108 0026 FFF7FEFF 		bl	senddbgmsg
 109              	.LVL9:
 110 002a F3E7     		b	.L5
 111              		.cfi_endproc
 112              	.LFE67:
 113              		.size	ThreadButton, .-ThreadButton
ARM GAS  /tmp/ccui4xFX.s 			page 3


 114 002c AFF30080 		.section	.text.ThreadRFM,"ax",%progbits
 115              		.align	2
 116              		.p2align 4,,15
 117              		.thumb
 118              		.thumb_func
 119              		.type	ThreadRFM, %function
 120              	ThreadRFM:
 121              	.LFB65:
 122              		.loc 1 453 0
 123              		.cfi_startproc
 124              		@ args = 0, pretend = 0, frame = 16
 125              		@ frame_needed = 0, uses_anonymous_args = 0
 126              	.LVL10:
 127 0000 00B5     		push	{lr}
 128              		.cfi_def_cfa_offset 4
 129              		.cfi_offset 14, -4
 130              		.loc 1 456 0
 131 0002 40F20000 		movw	r0, #:lower16:.LANCHOR2
 132              	.LVL11:
 133              		.loc 1 453 0
 134 0006 85B0     		sub	sp, sp, #20
 135              		.cfi_def_cfa_offset 24
 136              		.loc 1 456 0
 137 0008 4FF48032 		mov	r2, #65536
 138 000c C0F20000 		movt	r0, #:upper16:.LANCHOR2
 139 0010 6946     		mov	r1, sp
 140 0012 FFF7FEFF 		bl	chEvtRegisterMask
 141              	.LVL12:
 142              		.loc 1 458 0
 143 0016 40F20000 		movw	r0, #:lower16:SPID2
 144 001a C0F20000 		movt	r0, #:upper16:SPID2
 145 001e 1C49     		ldr	r1, .L11
 146 0020 FFF7FEFF 		bl	spiStart
 147              	.LVL13:
 148              		.loc 1 459 0
 149 0024 40F20000 		movw	r0, #:lower16:SPID2
 150 0028 C0F20000 		movt	r0, #:upper16:SPID2
 151 002c FFF7FEFF 		bl	spiAcquireBus
 152              	.LVL14:
 153              		.loc 1 460 0
 154 0030 40F20000 		movw	r0, #:lower16:.LANCHOR3
 155 0034 C0F20000 		movt	r0, #:upper16:.LANCHOR3
 156 0038 FFF7FEFF 		bl	rfm_init
 157              	.LVL15:
 158              	.L10:
 159              		.loc 1 461 0
 160 003c 40F20000 		movw	r0, #:lower16:SPID2
 161 0040 C0F20000 		movt	r0, #:upper16:SPID2
 162 0044 FFF7FEFF 		bl	spiReleaseBus
 163              	.LVL16:
 164              		.loc 1 462 0
 165 0048 40F20000 		movw	r0, #:lower16:SPID2
 166 004c C0F20000 		movt	r0, #:upper16:SPID2
 167 0050 FFF7FEFF 		bl	spiStop
 168              	.LVL17:
 169              	.L8:
 170              		.loc 1 467 0
ARM GAS  /tmp/ccui4xFX.s 			page 4


 171 0054 4FF48030 		mov	r0, #65536
 172 0058 4FF0FF31 		mov	r1, #-1
 173 005c FFF7FEFF 		bl	chEvtWaitOneTimeout
 174              	.LVL18:
 175              		.loc 1 469 0
 176 0060 B0F5803F 		cmp	r0, #65536
 177 0064 F6D1     		bne	.L8
 178              		.loc 1 471 0
 179 0066 40F20000 		movw	r0, #:lower16:SPID2
 180              	.LVL19:
 181 006a 0949     		ldr	r1, .L11
 182 006c C0F20000 		movt	r0, #:upper16:SPID2
 183 0070 FFF7FEFF 		bl	spiStart
 184              	.LVL20:
 185              		.loc 1 472 0
 186 0074 40F20000 		movw	r0, #:lower16:SPID2
 187 0078 C0F20000 		movt	r0, #:upper16:SPID2
 188 007c FFF7FEFF 		bl	spiAcquireBus
 189              	.LVL21:
 190              		.loc 1 475 0
 191 0080 40F20000 		movw	r0, #:lower16:.LANCHOR3
 192 0084 C0F20000 		movt	r0, #:upper16:.LANCHOR3
 193 0088 FFF7FEFF 		bl	rfm_receive_start
 194              	.LVL22:
 195 008c D6E7     		b	.L10
 196              	.L12:
 197 008e 00BF     		.align	2
 198              	.L11:
 199 0090 04000000 		.word	.LANCHOR3+4
 200              		.cfi_endproc
 201              	.LFE65:
 202              		.size	ThreadRFM, .-ThreadRFM
 203 0094 AFF30080 		.section	.text.enc_fix_error,"ax",%progbits
 203      AFF30080 
 203      AFF30080 
 204              		.align	2
 205              		.p2align 4,,15
 206              		.thumb
 207              		.thumb_func
 208              		.type	enc_fix_error, %function
 209              	enc_fix_error:
 210              	.LFB61:
 211              		.loc 1 195 0
 212              		.cfi_startproc
 213              		@ args = 0, pretend = 0, frame = 0
 214              		@ frame_needed = 0, uses_anonymous_args = 0
 215              		.loc 1 196 0
 216 0000 40F20000 		movw	r0, #:lower16:.LANCHOR4
 217              		.loc 1 195 0
 218 0004 F8B5     		push	{r3, r4, r5, r6, r7, lr}
 219              		.cfi_def_cfa_offset 24
 220              		.cfi_offset 3, -24
 221              		.cfi_offset 4, -20
 222              		.cfi_offset 5, -16
 223              		.cfi_offset 6, -12
 224              		.cfi_offset 7, -8
 225              		.cfi_offset 14, -4
ARM GAS  /tmp/ccui4xFX.s 			page 5


 226              		.loc 1 196 0
 227 0006 1D21     		movs	r1, #29
 228 0008 C0F20000 		movt	r0, #:upper16:.LANCHOR4
 229 000c FFF7FEFF 		bl	enc_read_REG
 230              	.LVL23:
 231 0010 0446     		mov	r4, r0
 232              	.LVL24:
 233              		.loc 1 197 0
 234 0012 40F20000 		movw	r0, #:lower16:.LANCHOR4
 235              	.LVL25:
 236 0016 1C21     		movs	r1, #28
 237 0018 C0F20000 		movt	r0, #:upper16:.LANCHOR4
 238 001c FFF7FEFF 		bl	enc_read_REG
 239              	.LVL26:
 240 0020 0746     		mov	r7, r0
 241              	.LVL27:
 242              		.loc 1 198 0
 243 0022 40F20000 		movw	r0, #:lower16:.LANCHOR4
 244              	.LVL28:
 245 0026 1B21     		movs	r1, #27
 246 0028 C0F20000 		movt	r0, #:upper16:.LANCHOR4
 247 002c FFF7FEFF 		bl	enc_read_REG
 248              	.LVL29:
 249 0030 0646     		mov	r6, r0
 250              	.LVL30:
 251              		.loc 1 199 0
 252 0032 40F20000 		movw	r0, #:lower16:.LANCHOR4
 253              	.LVL31:
 254 0036 C0F20000 		movt	r0, #:upper16:.LANCHOR4
 255 003a 1F21     		movs	r1, #31
 256 003c FFF7FEFF 		bl	enc_read_REG
 257              	.LVL32:
 258              		.loc 1 211 0
 259 0040 FF07     		lsls	r7, r7, #31
 260              	.LVL33:
 261              		.loc 1 199 0
 262 0042 0546     		mov	r5, r0
 263              	.LVL34:
 264              		.loc 1 211 0
 265 0044 52D4     		bmi	.L32
 266              	.LVL35:
 267              	.L14:
 268              		.loc 1 217 0
 269 0046 E006     		lsls	r0, r4, #27
 270 0048 41D4     		bmi	.L33
 271              	.L15:
 272              		.loc 1 223 0
 273 004a 6106     		lsls	r1, r4, #25
 274 004c 32D4     		bmi	.L34
 275              	.L16:
 276              		.loc 1 229 0
 277 004e 6A07     		lsls	r2, r5, #29
 278 0050 21D5     		bpl	.L35
 279              	.L17:
 280              		.loc 1 235 0
 281 0052 EB06     		lsls	r3, r5, #27
 282 0054 10D4     		bmi	.L36
ARM GAS  /tmp/ccui4xFX.s 			page 6


 283              	.L18:
 284              		.loc 1 241 0
 285 0056 C12E     		cmp	r6, #193
 286 0058 0DD0     		beq	.L13
 287              	.LBB14:
 288              	.LBB15:
 289              		.loc 1 188 0
 290 005a 40F20000 		movw	r0, #:lower16:.LC2
 291 005e C0F20000 		movt	r0, #:upper16:.LC2
 292 0062 FFF7FEFF 		bl	senddbgmsg
 293              	.LVL36:
 294              	.LBE15:
 295              	.LBE14:
 296              		.loc 1 246 0
 297 0066 BDE8F840 		pop	{r3, r4, r5, r6, r7, lr}
 298              	.LVL37:
 299              		.loc 1 244 0
 300 006a 40F20000 		movw	r0, #:lower16:.LANCHOR4
 301 006e C0F20000 		movt	r0, #:upper16:.LANCHOR4
 302 0072 FFF7FEBF 		b	enc_init
 303              	.LVL38:
 304              	.L13:
 305 0076 F8BD     		pop	{r3, r4, r5, r6, r7, pc}
 306              	.LVL39:
 307              	.L36:
 308              	.LBB16:
 309              	.LBB17:
 310              		.loc 1 188 0
 311 0078 40F20000 		movw	r0, #:lower16:.LC2
 312 007c C0F20000 		movt	r0, #:upper16:.LC2
 313 0080 FFF7FEFF 		bl	senddbgmsg
 314              	.LVL40:
 315              	.LBE17:
 316              	.LBE16:
 317              		.loc 1 238 0
 318 0084 40F20000 		movw	r0, #:lower16:.LANCHOR4
 319 0088 C0F20000 		movt	r0, #:upper16:.LANCHOR4
 320 008c 1F21     		movs	r1, #31
 321 008e 1022     		movs	r2, #16
 322 0090 FFF7FEFF 		bl	enc_bit_clr
 323              	.LVL41:
 324 0094 DFE7     		b	.L18
 325              	.L35:
 326              	.LBB18:
 327              	.LBB19:
 328              		.loc 1 188 0
 329 0096 40F20000 		movw	r0, #:lower16:.LC2
 330 009a C0F20000 		movt	r0, #:upper16:.LC2
 331 009e FFF7FEFF 		bl	senddbgmsg
 332              	.LVL42:
 333              	.LBE19:
 334              	.LBE18:
 335              		.loc 1 232 0
 336 00a2 40F20000 		movw	r0, #:lower16:.LANCHOR4
 337 00a6 C0F20000 		movt	r0, #:upper16:.LANCHOR4
 338 00aa 1F21     		movs	r1, #31
 339 00ac 0422     		movs	r2, #4
ARM GAS  /tmp/ccui4xFX.s 			page 7


 340 00ae FFF7FEFF 		bl	enc_bit_set
 341              	.LVL43:
 342 00b2 CEE7     		b	.L17
 343              	.L34:
 344              	.LBB20:
 345              	.LBB21:
 346              		.loc 1 188 0
 347 00b4 40F20000 		movw	r0, #:lower16:.LC2
 348 00b8 C0F20000 		movt	r0, #:upper16:.LC2
 349 00bc FFF7FEFF 		bl	senddbgmsg
 350              	.LVL44:
 351              	.LBE21:
 352              	.LBE20:
 353              		.loc 1 226 0
 354 00c0 40F20000 		movw	r0, #:lower16:.LANCHOR4
 355 00c4 C0F20000 		movt	r0, #:upper16:.LANCHOR4
 356 00c8 FFF7FEFF 		bl	enc_init
 357              	.LVL45:
 358 00cc BFE7     		b	.L16
 359              	.L33:
 360              	.LBB22:
 361              	.LBB23:
 362              		.loc 1 188 0
 363 00ce 40F20000 		movw	r0, #:lower16:.LC2
 364 00d2 C0F20000 		movt	r0, #:upper16:.LC2
 365 00d6 FFF7FEFF 		bl	senddbgmsg
 366              	.LVL46:
 367              	.LBE23:
 368              	.LBE22:
 369              		.loc 1 220 0
 370 00da 40F20000 		movw	r0, #:lower16:.LANCHOR4
 371 00de C0F20000 		movt	r0, #:upper16:.LANCHOR4
 372 00e2 1D21     		movs	r1, #29
 373 00e4 1022     		movs	r2, #16
 374 00e6 FFF7FEFF 		bl	enc_bit_clr
 375              	.LVL47:
 376 00ea AEE7     		b	.L15
 377              	.LVL48:
 378              	.L32:
 379              	.LBB24:
 380              	.LBB25:
 381              		.loc 1 188 0
 382 00ec 40F20000 		movw	r0, #:lower16:.LC2
 383              	.LVL49:
 384 00f0 C0F20000 		movt	r0, #:upper16:.LC2
 385 00f4 FFF7FEFF 		bl	senddbgmsg
 386              	.LVL50:
 387              	.LBE25:
 388              	.LBE24:
 389              		.loc 1 214 0
 390 00f8 40F20000 		movw	r0, #:lower16:.LANCHOR4
 391 00fc C0F20000 		movt	r0, #:upper16:.LANCHOR4
 392 0100 1C21     		movs	r1, #28
 393 0102 0122     		movs	r2, #1
 394 0104 FFF7FEFF 		bl	enc_bit_clr
 395              	.LVL51:
 396 0108 9DE7     		b	.L14
ARM GAS  /tmp/ccui4xFX.s 			page 8


 397              		.cfi_endproc
 398              	.LFE61:
 399              		.size	enc_fix_error, .-enc_fix_error
 400 010a 00BFAFF3 		.section	.text.ThreadBlink,"ax",%progbits
 400      0080
 401              		.align	2
 402              		.p2align 4,,15
 403              		.thumb
 404              		.thumb_func
 405              		.type	ThreadBlink, %function
 406              	ThreadBlink:
 407              	.LFB66:
 408              		.loc 1 489 0
 409              		.cfi_startproc
 410              		@ args = 0, pretend = 0, frame = 0
 411              		@ frame_needed = 0, uses_anonymous_args = 0
 412              	.LVL52:
 413 0000 F8B5     		push	{r3, r4, r5, r6, r7, lr}
 414              		.cfi_def_cfa_offset 24
 415              		.cfi_offset 3, -24
 416              		.cfi_offset 4, -20
 417              		.cfi_offset 5, -16
 418              		.cfi_offset 6, -12
 419              		.cfi_offset 7, -8
 420              		.cfi_offset 14, -4
 421 0002 40F20006 		movw	r6, #:lower16:modbusSerialState
 422 0006 C0F20006 		movt	r6, #:upper16:modbusSerialState
 423 000a 40F20004 		movw	r4, #:lower16:.LANCHOR6
 424              		.loc 1 495 0
 425 000e 4FF40065 		mov	r5, #2048
 426              		.loc 1 503 0
 427 0012 3746     		mov	r7, r6
 428 0014 C0F20004 		movt	r4, #:upper16:.LANCHOR6
 429              		.loc 1 495 0
 430 0018 C4F20105 		movt	r5, 16385
 431              	.LVL53:
 432              	.L39:
 433              		.loc 1 494 0
 434              	@ 494 "main.c" 1
 435 001c FFF7FEFF 		bl      _port_lock
 436              	@ 0 "" 2
 437              		.loc 1 495 0
 438              		.thumb
 439 0020 EB68     		ldr	r3, [r5, #12]
 440 0022 83F00203 		eor	r3, r3, #2
 441 0026 EB60     		str	r3, [r5, #12]
 442              		.loc 1 496 0
 443              	@ 496 "main.c" 1
 444 0028 FFF7FEFF 		bl      _port_unlock
 445              	@ 0 "" 2
 446              		.loc 1 498 0
 447              		.thumb
 448 002c 40F20000 		movw	r0, #:lower16:.LANCHOR5
 449 0030 C0F20000 		movt	r0, #:upper16:.LANCHOR5
 450 0034 FFF7FEFF 		bl	chMtxLock
 451              	.LVL54:
 452              		.loc 1 499 0
ARM GAS  /tmp/ccui4xFX.s 			page 9


 453 0038 FFF7FEFF 		bl	enc_fix_error
 454              	.LVL55:
 455              		.loc 1 500 0
 456 003c FFF7FEFF 		bl	chMtxUnlock
 457              	.LVL56:
 458              		.loc 1 502 0
 459              	@ 502 "main.c" 1
 460 0040 FFF7FEFF 		bl      _port_lock
 461              	@ 0 "" 2
 462              		.loc 1 503 0
 463              		.thumb
 464 0044 3178     		ldrb	r1, [r6]	@ zero_extendqisi2
 465 0046 2378     		ldrb	r3, [r4]	@ zero_extendqisi2
 466              		.loc 1 507 0
 467 0048 40F20000 		movw	r0, #:lower16:.LC3
 468              		.loc 1 503 0
 469 004c 8B42     		cmp	r3, r1
 470 004e 04D0     		beq	.L38
 471              		.loc 1 507 0
 472 0050 C0F20000 		movt	r0, #:upper16:.LC3
 473 0054 FFF7FEFF 		bl	senddbgmsg
 474              	.LVL57:
 475 0058 3B78     		ldrb	r3, [r7]	@ zero_extendqisi2
 476              	.L38:
 477              		.loc 1 509 0
 478 005a 2370     		strb	r3, [r4]
 479              		.loc 1 510 0
 480              	@ 510 "main.c" 1
 481 005c FFF7FEFF 		bl      _port_unlock
 482              	@ 0 "" 2
 483              		.loc 1 512 0
 484              		.thumb
 485 0060 4FF47A70 		mov	r0, #1000
 486 0064 FFF7FEFF 		bl	chThdSleep
 487              	.LVL58:
 488              		.loc 1 513 0
 489 0068 D8E7     		b	.L39
 490              		.cfi_endproc
 491              	.LFE66:
 492              		.size	ThreadBlink, .-ThreadBlink
 493 006a 00BFAFF3 		.section	.text.network_send,"ax",%progbits
 493      0080
 494              		.align	2
 495              		.p2align 4,,15
 496              		.thumb
 497              		.thumb_func
 498              		.type	network_send, %function
 499              	network_send:
 500              	.LFB59:
 501              		.loc 1 175 0
 502              		.cfi_startproc
 503              		@ args = 0, pretend = 0, frame = 0
 504              		@ frame_needed = 0, uses_anonymous_args = 0
 505 0000 10B5     		push	{r4, lr}
 506              		.cfi_def_cfa_offset 8
 507              		.cfi_offset 4, -8
 508              		.cfi_offset 14, -4
ARM GAS  /tmp/ccui4xFX.s 			page 10


 509              		.loc 1 176 0
 510 0002 40F20003 		movw	r3, #:lower16:uip_len
 511 0006 C0F20003 		movt	r3, #:upper16:uip_len
 512 000a 1988     		ldrh	r1, [r3]
 513              		.loc 1 175 0
 514 000c 82B0     		sub	sp, sp, #8
 515              		.cfi_def_cfa_offset 16
 516              		.loc 1 176 0
 517 000e 3629     		cmp	r1, #54
 518 0010 15D9     		bls	.L44
 519              		.loc 1 182 0
 520 0012 40F20003 		movw	r3, #:lower16:uip_appdata
 521 0016 C0F20003 		movt	r3, #:upper16:uip_appdata
 522 001a 1C68     		ldr	r4, [r3]
 523 001c 40F20000 		movw	r0, #:lower16:.LANCHOR4
 524 0020 A1F13603 		sub	r3, r1, #54
 525 0024 40F20002 		movw	r2, #:lower16:uip_buf
 526 0028 9BB2     		uxth	r3, r3
 527 002a 0094     		str	r4, [sp]
 528 002c C0F20000 		movt	r0, #:upper16:.LANCHOR4
 529 0030 C0F20002 		movt	r2, #:upper16:uip_buf
 530 0034 3621     		movs	r1, #54
 531 0036 FFF7FEFF 		bl	enc_packet_send
 532              	.LVL59:
 533              		.loc 1 184 0
 534 003a 02B0     		add	sp, sp, #8
 535              		@ sp needed
 536 003c 10BD     		pop	{r4, pc}
 537              	.L44:
 538              		.loc 1 178 0
 539 003e 0023     		movs	r3, #0
 540 0040 40F20000 		movw	r0, #:lower16:.LANCHOR4
 541 0044 40F20002 		movw	r2, #:lower16:uip_buf
 542 0048 0093     		str	r3, [sp]
 543 004a C0F20000 		movt	r0, #:upper16:.LANCHOR4
 544 004e C0F20002 		movt	r2, #:upper16:uip_buf
 545 0052 FFF7FEFF 		bl	enc_packet_send
 546              	.LVL60:
 547              		.loc 1 184 0
 548 0056 02B0     		add	sp, sp, #8
 549              		@ sp needed
 550 0058 10BD     		pop	{r4, pc}
 551              		.cfi_endproc
 552              	.LFE59:
 553              		.size	network_send, .-network_send
 554 005a 00BFAFF3 		.section	.text.network_thread,"ax",%progbits
 554      0080
 555              		.align	2
 556              		.p2align 4,,15
 557              		.thumb
 558              		.thumb_func
 559              		.type	network_thread, %function
 560              	network_thread:
 561              	.LFB64:
 562              		.loc 1 290 0
 563              		.cfi_startproc
 564              		@ args = 0, pretend = 0, frame = 152
ARM GAS  /tmp/ccui4xFX.s 			page 11


 565              		@ frame_needed = 0, uses_anonymous_args = 0
 566              	.LVL61:
 567 0000 2DE9F04F 		push	{r4, r5, r6, r7, r8, r9, r10, fp, lr}
 568              		.cfi_def_cfa_offset 36
 569              		.cfi_offset 4, -36
 570              		.cfi_offset 5, -32
 571              		.cfi_offset 6, -28
 572              		.cfi_offset 7, -24
 573              		.cfi_offset 8, -20
 574              		.cfi_offset 9, -16
 575              		.cfi_offset 10, -12
 576              		.cfi_offset 11, -8
 577              		.cfi_offset 14, -4
 578              		.loc 1 307 0
 579 0004 40F20003 		movw	r3, #:lower16:rlist
 580 0008 C0F20003 		movt	r3, #:upper16:rlist
 581 000c 1A69     		ldr	r2, [r3, #16]
 582 000e 40F20003 		movw	r3, #:lower16:.LANCHOR7
 583 0012 C0F20003 		movt	r3, #:upper16:.LANCHOR7
 584              		.loc 1 290 0
 585 0016 A7B0     		sub	sp, sp, #156
 586              		.cfi_def_cfa_offset 192
 587              		.loc 1 307 0
 588 0018 1A60     		str	r2, [r3]
 589              		.loc 1 310 0
 590              	@ 310 "main.c" 1
 591 001a FFF7FEFF 		bl      _port_lock
 592              	@ 0 "" 2
 593              		.loc 1 317 0
 594              		.thumb
 595 001e 40F20000 		movw	r0, #:lower16:.LANCHOR8
 596              	.LVL62:
 597              		.loc 1 313 0
 598 0022 0023     		movs	r3, #0
 599 0024 4FF47A7C 		mov	ip, #1000
 600              		.loc 1 314 0
 601 0028 4FF0640E 		mov	lr, #100
 602              		.loc 1 313 0
 603 002c 16AE     		add	r6, sp, #88
 604              		.loc 1 314 0
 605 002e 24AC     		add	r4, sp, #144
 606              		.loc 1 315 0
 607 0030 1DAD     		add	r5, sp, #116
 608              		.loc 1 317 0
 609 0032 0DA9     		add	r1, sp, #52
 610              		.loc 1 315 0
 611 0034 42F21077 		movw	r7, #10000
 612              		.loc 1 317 0
 613 0038 C0F20000 		movt	r0, #:upper16:.LANCHOR8
 614 003c 0122     		movs	r2, #1
 615              		.loc 1 313 0
 616 003e CDF85CC0 		str	ip, [sp, #92]
 617              		.loc 1 314 0
 618 0042 CDF894E0 		str	lr, [sp, #148]
 619              		.loc 1 313 0
 620 0046 1493     		str	r3, [sp, #80]
 621              		.loc 1 314 0
ARM GAS  /tmp/ccui4xFX.s 			page 12


 622 0048 2293     		str	r3, [sp, #136]
 623              		.loc 1 315 0
 624 004a 1B93     		str	r3, [sp, #108]
 625 004c 1E97     		str	r7, [sp, #120]
 626              		.loc 1 313 0
 627 004e 1696     		str	r6, [sp, #88]
 628              		.loc 1 314 0
 629 0050 2494     		str	r4, [sp, #144]
 630              		.loc 1 315 0
 631 0052 1D95     		str	r5, [sp, #116]
 632              		.loc 1 317 0
 633 0054 FFF7FEFF 		bl	chEvtRegisterMask
 634              	.LVL63:
 635              		.loc 1 318 0
 636 0058 3046     		mov	r0, r6
 637 005a 01A9     		add	r1, sp, #4
 638 005c 0222     		movs	r2, #2
 639 005e FFF7FEFF 		bl	chEvtRegisterMask
 640              	.LVL64:
 641              		.loc 1 319 0
 642 0062 2846     		mov	r0, r5
 643 0064 05A9     		add	r1, sp, #20
 644 0066 0422     		movs	r2, #4
 645 0068 FFF7FEFF 		bl	chEvtRegisterMask
 646              	.LVL65:
 647              		.loc 1 320 0
 648 006c 09A9     		add	r1, sp, #36
 649 006e 1022     		movs	r2, #16
 650 0070 2046     		mov	r0, r4
 651 0072 FFF7FEFF 		bl	chEvtRegisterMask
 652              	.LVL66:
 653              		.loc 1 323 0
 654 0076 40F20000 		movw	r0, #:lower16:.LANCHOR5
 655 007a C0F20000 		movt	r0, #:upper16:.LANCHOR5
 656 007e FFF7FEFF 		bl	chMtxLock
 657              	.LVL67:
 658              		.loc 1 324 0
 659 0082 40F20000 		movw	r0, #:lower16:.LANCHOR4
 660 0086 C0F20000 		movt	r0, #:upper16:.LANCHOR4
 661 008a FFF7FEFF 		bl	enc_init
 662              	.LVL68:
 663              		.loc 1 325 0
 664 008e FFF7FEFF 		bl	chMtxUnlock
 665              	.LVL69:
 666              		.loc 1 328 0
 667 0092 FFF7FEFF 		bl	uip_init
 668              	.LVL70:
 669              		.loc 1 329 0
 670 0096 40F20003 		movw	r3, #:lower16:uip_ethaddr
 671 009a C0F20003 		movt	r3, #:upper16:uip_ethaddr
 672 009e 2A26     		movs	r6, #42
 673 00a0 2825     		movs	r5, #40
 674              		.loc 1 332 0
 675 00a2 40F20000 		movw	r0, #:lower16:uip_hostaddr
 676              		.loc 1 334 0
 677 00a6 40F20001 		movw	r1, #:lower16:uip_draddr
 678              		.loc 1 336 0
ARM GAS  /tmp/ccui4xFX.s 			page 13


 679 00aa 40F20002 		movw	r2, #:lower16:uip_netmask
 680              		.loc 1 334 0
 681 00ae C0F20001 		movt	r1, #:upper16:uip_draddr
 682              		.loc 1 336 0
 683 00b2 C0F20002 		movt	r2, #:upper16:uip_netmask
 684              		.loc 1 329 0
 685 00b6 4FF0EF0C 		mov	ip, #239
 686              		.loc 1 332 0
 687 00ba 46F67F7E 		movw	lr, #28543
 688              		.loc 1 329 0
 689 00be 1E70     		strb	r6, [r3]
 690 00c0 5D70     		strb	r5, [r3, #1]
 691              		.loc 1 332 0
 692 00c2 C0F20000 		movt	r0, #:upper16:uip_hostaddr
 693 00c6 4AF6C004 		movw	r4, #43200
 694              		.loc 1 329 0
 695 00ca 4FF0630A 		mov	r10, #99
 696 00ce 4FF07D09 		mov	r9, #125
 697 00d2 4FF0A708 		mov	r8, #167
 698              		.loc 1 334 0
 699 00d6 46F27F47 		movw	r7, #25727
 700              		.loc 1 336 0
 701 00da 4FF6FF76 		movw	r6, #65535
 702 00de FF25     		movs	r5, #255
 703              		.loc 1 332 0
 704 00e0 A0F802E0 		strh	lr, [r0, #2]	@ movhi
 705              		.loc 1 329 0
 706 00e4 83F802A0 		strb	r10, [r3, #2]
 707 00e8 83F80390 		strb	r9, [r3, #3]
 708 00ec 83F80480 		strb	r8, [r3, #4]
 709 00f0 83F805C0 		strb	ip, [r3, #5]
 710              	.LVL71:
 711              		.loc 1 334 0
 712 00f4 0C80     		strh	r4, [r1]	@ movhi
 713 00f6 4F80     		strh	r7, [r1, #2]	@ movhi
 714              	.LVL72:
 715              		.loc 1 336 0
 716 00f8 1680     		strh	r6, [r2]	@ movhi
 717 00fa 5580     		strh	r5, [r2, #2]	@ movhi
 718              		.loc 1 332 0
 719 00fc 0480     		strh	r4, [r0]	@ movhi
 720              		.loc 1 338 0
 721 00fe FFF7FEFF 		bl	modbusInit
 722              	.LVL73:
 723              		.loc 1 340 0
 724 0102 11A8     		add	r0, sp, #68
 725 0104 FFF7FEFF 		bl	evtStart
 726              	.LVL74:
 727              		.loc 1 341 0
 728 0108 18A8     		add	r0, sp, #96
 729 010a FFF7FEFF 		bl	evtStart
 730              	.LVL75:
 731              		.loc 1 343 0
 732              	@ 343 "main.c" 1
 733 010e FFF7FEFF 		bl      _port_unlock
 734              	@ 0 "" 2
 735              		.thumb
ARM GAS  /tmp/ccui4xFX.s 			page 14


 736 0112 40F2000B 		movw	fp, #:lower16:uip_conns
 737 0116 C0F2000B 		movt	fp, #:upper16:uip_conns
 738 011a 40F20005 		movw	r5, #:lower16:uip_len
 739 011e 40F20008 		movw	r8, #:lower16:uip_conn
 740              		.loc 1 373 0
 741 0122 40F20006 		movw	r6, #:lower16:uip_buf
 742 0126 0BF5C879 		add	r9, fp, #400
 743 012a C0F20005 		movt	r5, #:upper16:uip_len
 744 012e C0F20008 		movt	r8, #:upper16:uip_conn
 745 0132 C0F20006 		movt	r6, #:upper16:uip_buf
 746              		.loc 1 302 0
 747 0136 4FF0000A 		mov	r10, #0
 748 013a 23E0     		b	.L62
 749              	.LVL76:
 750              	.L46:
 751              		.loc 1 363 0
 752 013c 40F20000 		movw	r0, #:lower16:.LANCHOR5
 753 0140 C0F20000 		movt	r0, #:upper16:.LANCHOR5
 754 0144 FFF7FEFF 		bl	chMtxLock
 755              	.LVL77:
 756              		.loc 1 364 0
 757              	@ 364 "main.c" 1
 758 0148 FFF7FEFF 		bl      _port_lock
 759              	@ 0 "" 2
 760              		.loc 1 366 0
 761              		.thumb
 762 014c 012C     		cmp	r4, #1
 763 014e 30D0     		beq	.L74
 764              		.loc 1 406 0
 765 0150 022C     		cmp	r4, #2
 766 0152 67D0     		beq	.L75
 767              		.loc 1 418 0
 768 0154 102C     		cmp	r4, #16
 769 0156 7AD0     		beq	.L76
 770              		.loc 1 425 0
 771 0158 FFF7FEFF 		bl	uip_arp_timer
 772              	.LVL78:
 773              	.L48:
 774              		.loc 1 428 0
 775 015c FFF7FEFF 		bl	enc_fix_error
 776              	.LVL79:
 777              		.loc 1 431 0
 778 0160 40F20000 		movw	r0, #:lower16:.LANCHOR4
 779 0164 3921     		movs	r1, #57
 780 0166 C0F20000 		movt	r0, #:upper16:.LANCHOR4
 781 016a FFF7FEFF 		bl	enc_read_REG
 782              	.LVL80:
 783              		.loc 1 436 0
 784 016e 40F20000 		movw	r0, #:lower16:.LANCHOR4
 785 0172 1C21     		movs	r1, #28
 786 0174 C0F20000 		movt	r0, #:upper16:.LANCHOR4
 787 0178 FFF7FEFF 		bl	enc_read_REG
 788              	.LVL81:
 789              		.loc 1 441 0
 790 017c FFF7FEFF 		bl	chMtxUnlock
 791              	.LVL82:
 792              		.loc 1 442 0
ARM GAS  /tmp/ccui4xFX.s 			page 15


 793              	@ 442 "main.c" 1
 794 0180 FFF7FEFF 		bl      _port_unlock
 795              	@ 0 "" 2
 796              	.LVL83:
 797              		.thumb
 798              	.L62:
 799              		.loc 1 348 0
 800 0184 40F20000 		movw	r0, #:lower16:.LANCHOR4
 801 0188 C0F20000 		movt	r0, #:upper16:.LANCHOR4
 802 018c 1C21     		movs	r1, #28
 803 018e FFF7FEFF 		bl	enc_read_REG
 804              	.LVL84:
 805              		.loc 1 353 0
 806 0192 4FF44063 		mov	r3, #3072
 807 0196 C4F20103 		movt	r3, 16385
 808 019a 9B68     		ldr	r3, [r3, #8]
 809 019c 5A07     		lsls	r2, r3, #29
 810              		.loc 1 355 0
 811 019e 58BF     		it	pl
 812 01a0 0124     		movpl	r4, #1
 813              		.loc 1 353 0
 814 01a2 CBD5     		bpl	.L46
 815              		.loc 1 359 0
 816 01a4 1720     		movs	r0, #23
 817 01a6 4FF0FF31 		mov	r1, #-1
 818 01aa FFF7FEFF 		bl	chEvtWaitOneTimeout
 819              	.LVL85:
 820 01ae 0446     		mov	r4, r0
 821              	.LVL86:
 822 01b0 C4E7     		b	.L46
 823              	.LVL87:
 824              	.L74:
 825              		.loc 1 370 0
 826 01b2 40F20000 		movw	r0, #:lower16:.LANCHOR4
 827 01b6 C0F20000 		movt	r0, #:upper16:.LANCHOR4
 828 01ba FFF7FEFF 		bl	enc_int_flags
 829              	.LVL88:
 830              		.loc 1 371 0
 831 01be 4306     		lsls	r3, r0, #25
 832              		.loc 1 375 0
 833 01c0 48BF     		it	mi
 834 01c2 40F60607 		movwmi	r7, #2054
 835              		.loc 1 371 0
 836 01c6 C9D5     		bpl	.L48
 837              	.LVL89:
 838              	.L53:
 839              		.loc 1 373 0 discriminator 1
 840 01c8 40F20000 		movw	r0, #:lower16:.LANCHOR4
 841 01cc 40F20002 		movw	r2, #:lower16:uip_buf
 842 01d0 C0F20000 		movt	r0, #:upper16:.LANCHOR4
 843 01d4 C0F20002 		movt	r2, #:upper16:uip_buf
 844 01d8 40F2EE51 		movw	r1, #1518
 845 01dc FFF7FEFF 		bl	enc_packet_receive
 846              	.LVL90:
 847 01e0 40F20004 		movw	r4, #:lower16:uip_len
 848 01e4 2880     		strh	r0, [r5]	@ movhi
 849 01e6 C0F20004 		movt	r4, #:upper16:uip_len
ARM GAS  /tmp/ccui4xFX.s 			page 16


 850 01ea 0028     		cmp	r0, #0
 851 01ec B6D0     		beq	.L48
 852              		.loc 1 375 0
 853 01ee B089     		ldrh	r0, [r6, #12]	@ unaligned
 854 01f0 FFF7FEFF 		bl	htons
 855              	.LVL91:
 856 01f4 B0F5006F 		cmp	r0, #2048
 857 01f8 09D0     		beq	.L51
 858 01fa B842     		cmp	r0, r7
 859 01fc E4D1     		bne	.L53
 860              		.loc 1 387 0
 861 01fe FFF7FEFF 		bl	uip_arp_arpin
 862              	.LVL92:
 863              		.loc 1 388 0
 864 0202 2388     		ldrh	r3, [r4]
 865 0204 002B     		cmp	r3, #0
 866 0206 DFD0     		beq	.L53
 867              		.loc 1 390 0
 868 0208 FFF7FEFF 		bl	network_send
 869              	.LVL93:
 870 020c DCE7     		b	.L53
 871              	.L51:
 872              		.loc 1 379 0
 873 020e 0120     		movs	r0, #1
 874 0210 FFF7FEFF 		bl	uip_process
 875              	.LVL94:
 876              		.loc 1 380 0
 877 0214 2388     		ldrh	r3, [r4]
 878 0216 002B     		cmp	r3, #0
 879 0218 D6D0     		beq	.L53
 880              		.loc 1 382 0
 881 021a FFF7FEFF 		bl	uip_arp_out
 882              	.LVL95:
 883              		.loc 1 383 0
 884 021e FFF7FEFF 		bl	network_send
 885              	.LVL96:
 886 0222 D1E7     		b	.L53
 887              	.LVL97:
 888              	.L75:
 889 0224 40F20004 		movw	r4, #:lower16:uip_conns
 890              	.LVL98:
 891 0228 C0F20004 		movt	r4, #:upper16:uip_conns
 892 022c 01E0     		b	.L60
 893              	.L59:
 894              	.LVL99:
 895              		.loc 1 408 0
 896 022e 4C45     		cmp	r4, r9
 897 0230 94D0     		beq	.L48
 898              	.L60:
 899              		.loc 1 410 0
 900 0232 0220     		movs	r0, #2
 901 0234 C8F80040 		str	r4, [r8]
 902 0238 FFF7FEFF 		bl	uip_process
 903              	.LVL100:
 904              		.loc 1 411 0
 905 023c 2B88     		ldrh	r3, [r5]
 906 023e 2834     		adds	r4, r4, #40
ARM GAS  /tmp/ccui4xFX.s 			page 17


 907 0240 002B     		cmp	r3, #0
 908 0242 F4D0     		beq	.L59
 909              		.loc 1 413 0
 910 0244 FFF7FEFF 		bl	uip_arp_out
 911              	.LVL101:
 912              		.loc 1 414 0
 913 0248 FFF7FEFF 		bl	network_send
 914              	.LVL102:
 915 024c EFE7     		b	.L59
 916              	.LVL103:
 917              	.L76:
 918              		.loc 1 420 0
 919 024e 0AEB8A03 		add	r3, r10, r10, lsl #2
 920 0252 0BEBC303 		add	r3, fp, r3, lsl #3
 921              		.loc 1 421 0
 922 0256 0AF1010A 		add	r10, r10, #1
 923              	.LVL104:
 924              		.loc 1 420 0
 925 025a 0320     		movs	r0, #3
 926 025c C8F80030 		str	r3, [r8]
 927              		.loc 1 421 0
 928 0260 BAF10A0F 		cmp	r10, #10
 929 0264 08BF     		it	eq
 930 0266 4FF0000A 		moveq	r10, #0
 931              	.LVL105:
 932              		.loc 1 420 0
 933 026a FFF7FEFF 		bl	uip_process
 934              	.LVL106:
 935 026e 75E7     		b	.L48
 936              		.cfi_endproc
 937              	.LFE64:
 938              		.size	network_thread, .-network_thread
 939              		.section	.text.uart_thread,"ax",%progbits
 940              		.align	2
 941              		.p2align 4,,15
 942              		.thumb
 943              		.thumb_func
 944              		.type	uart_thread, %function
 945              	uart_thread:
 946              	.LFB63:
 947              		.loc 1 266 0
 948              		.cfi_startproc
 949              		@ args = 0, pretend = 0, frame = 0
 950              		@ frame_needed = 0, uses_anonymous_args = 0
 951              	.LVL107:
 952 0000 10B5     		push	{r4, lr}
 953              		.cfi_def_cfa_offset 8
 954              		.cfi_offset 4, -8
 955              		.cfi_offset 14, -4
 956              		.loc 1 268 0
 957 0002 40F20003 		movw	r3, #:lower16:rlist
 958 0006 C0F20003 		movt	r3, #:upper16:rlist
 959 000a 1A69     		ldr	r2, [r3, #16]
 960 000c 40F20003 		movw	r3, #:lower16:.LANCHOR9
 961 0010 C0F20003 		movt	r3, #:upper16:.LANCHOR9
 962 0014 40F20004 		movw	r4, #:lower16:.LANCHOR10
 963 0018 1A60     		str	r2, [r3]
ARM GAS  /tmp/ccui4xFX.s 			page 18


 964 001a C0F20004 		movt	r4, #:upper16:.LANCHOR10
 965              	.LVL108:
 966              	.L78:
 967              		.loc 1 273 0 discriminator 1
 968              	@ 273 "main.c" 1
 969 001e FFF7FEFF 		bl      _port_lock
 970              	@ 0 "" 2
 971              		.loc 1 274 0 discriminator 1
 972              		.thumb
 973 0022 0220     		movs	r0, #2
 974 0024 FFF7FEFF 		bl	chSchGoSleepS
 975              	.LVL109:
 976              		.loc 1 275 0 discriminator 1
 977              	@ 275 "main.c" 1
 978 0028 FFF7FEFF 		bl      _port_unlock
 979              	@ 0 "" 2
 980              		.loc 1 277 0 discriminator 1
 981              		.thumb
 982 002c 40F20000 		movw	r0, #:lower16:.LC4
 983 0030 2178     		ldrb	r1, [r4]	@ zero_extendqisi2
 984 0032 C0F20000 		movt	r0, #:upper16:.LC4
 985 0036 FFF7FEFF 		bl	senddbgmsg
 986              	.LVL110:
 987              		.loc 1 280 0 discriminator 1
 988 003a 40F20000 		movw	r0, #:lower16:UARTD2
 989 003e 40F20002 		movw	r2, #:lower16:.LANCHOR10
 990 0042 C0F20000 		movt	r0, #:upper16:UARTD2
 991 0046 C0F20002 		movt	r2, #:upper16:.LANCHOR10
 992 004a 0121     		movs	r1, #1
 993 004c FFF7FEFF 		bl	uartStartReceive
 994              	.LVL111:
 995 0050 E5E7     		b	.L78
 996              		.cfi_endproc
 997              	.LFE63:
 998              		.size	uart_thread, .-uart_thread
 999 0052 00BFAFF3 		.section	.text.rxend,"ax",%progbits
 999      0080AFF3 
 999      0080AFF3 
 999      0080
 1000              		.align	2
 1001              		.p2align 4,,15
 1002              		.thumb
 1003              		.thumb_func
 1004              		.type	rxend, %function
 1005              	rxend:
 1006              	.LFB62:
 1007              		.loc 1 250 0
 1008              		.cfi_startproc
 1009              		@ args = 0, pretend = 0, frame = 0
 1010              		@ frame_needed = 0, uses_anonymous_args = 0
 1011              	.LVL112:
 1012 0000 08B5     		push	{r3, lr}
 1013              		.cfi_def_cfa_offset 8
 1014              		.cfi_offset 3, -8
 1015              		.cfi_offset 14, -4
 1016              		.loc 1 251 0
 1017              	@ 251 "main.c" 1
ARM GAS  /tmp/ccui4xFX.s 			page 19


 1018 0002 FFF7FEFF 		bl      _port_lock
 1019              	@ 0 "" 2
 1020              		.loc 1 252 0
 1021              		.thumb
 1022 0006 40F20003 		movw	r3, #:lower16:.LANCHOR9
 1023 000a C0F20003 		movt	r3, #:upper16:.LANCHOR9
 1024 000e 1868     		ldr	r0, [r3]
 1025              	.LVL113:
 1026 0010 0021     		movs	r1, #0
 1027 0012 FFF7FEFF 		bl	chSchWakeupS
 1028              	.LVL114:
 1029              		.loc 1 253 0
 1030              	@ 253 "main.c" 1
 1031 0016 FFF7FEFF 		bl      _port_unlock
 1032              	@ 0 "" 2
 1033              		.thumb
 1034 001a 08BD     		pop	{r3, pc}
 1035              		.cfi_endproc
 1036              	.LFE62:
 1037              		.size	rxend, .-rxend
 1038 001c AFF30080 		.section	.text.rfm_int,"ax",%progbits
 1039              		.align	2
 1040              		.p2align 4,,15
 1041              		.thumb
 1042              		.thumb_func
 1043              		.type	rfm_int, %function
 1044              	rfm_int:
 1045              	.LFB57:
 1046              		.loc 1 122 0
 1047              		.cfi_startproc
 1048              		@ args = 0, pretend = 0, frame = 0
 1049              		@ frame_needed = 0, uses_anonymous_args = 0
 1050              		@ link register save eliminated.
 1051              	.LVL115:
 1052              		.loc 1 125 0
 1053 0000 40F20000 		movw	r0, #:lower16:.LANCHOR2
 1054              	.LVL116:
 1055 0004 C0F20000 		movt	r0, #:upper16:.LANCHOR2
 1056 0008 0021     		movs	r1, #0
 1057              	.LVL117:
 1058 000a FFF7FEBF 		b	chEvtBroadcastFlags
 1059              	.LVL118:
 1060              		.cfi_endproc
 1061              	.LFE57:
 1062              		.size	rfm_int, .-rfm_int
 1063 000e 00BF     		.section	.text.enc_int,"ax",%progbits
 1064              		.align	2
 1065              		.p2align 4,,15
 1066              		.thumb
 1067              		.thumb_func
 1068              		.type	enc_int, %function
 1069              	enc_int:
 1070              	.LFB56:
 1071              		.loc 1 115 0
 1072              		.cfi_startproc
 1073              		@ args = 0, pretend = 0, frame = 0
 1074              		@ frame_needed = 0, uses_anonymous_args = 0
ARM GAS  /tmp/ccui4xFX.s 			page 20


 1075              		@ link register save eliminated.
 1076              	.LVL119:
 1077              		.loc 1 118 0
 1078 0000 40F20000 		movw	r0, #:lower16:.LANCHOR8
 1079              	.LVL120:
 1080 0004 C0F20000 		movt	r0, #:upper16:.LANCHOR8
 1081 0008 0021     		movs	r1, #0
 1082              	.LVL121:
 1083 000a FFF7FEBF 		b	chEvtBroadcastFlags
 1084              	.LVL122:
 1085              		.cfi_endproc
 1086              	.LFE56:
 1087              		.size	enc_int, .-enc_int
 1088 000e 00BF     		.section	.text.button_int,"ax",%progbits
 1089              		.align	2
 1090              		.p2align 4,,15
 1091              		.thumb
 1092              		.thumb_func
 1093              		.type	button_int, %function
 1094              	button_int:
 1095              	.LFB58:
 1096              		.loc 1 129 0
 1097              		.cfi_startproc
 1098              		@ args = 0, pretend = 0, frame = 0
 1099              		@ frame_needed = 0, uses_anonymous_args = 0
 1100              		@ link register save eliminated.
 1101              	.LVL123:
 1102              		.loc 1 132 0
 1103 0000 40F20000 		movw	r0, #:lower16:.LANCHOR1
 1104              	.LVL124:
 1105 0004 C0F20000 		movt	r0, #:upper16:.LANCHOR1
 1106 0008 0021     		movs	r1, #0
 1107              	.LVL125:
 1108 000a FFF7FEBF 		b	chEvtBroadcastFlags
 1109              	.LVL126:
 1110              		.cfi_endproc
 1111              	.LFE58:
 1112              		.size	button_int, .-button_int
 1113 000e 00BF     		.section	.text.startup.main,"ax",%progbits
 1114              		.align	2
 1115              		.p2align 4,,15
 1116              		.global	main
 1117              		.thumb
 1118              		.thumb_func
 1119              		.type	main, %function
 1120              	main:
 1121              	.LFB69:
 1122              		.loc 1 575 0
 1123              		.cfi_startproc
 1124              		@ args = 0, pretend = 0, frame = 0
 1125              		@ frame_needed = 0, uses_anonymous_args = 0
 1126 0000 F0B5     		push	{r4, r5, r6, r7, lr}
 1127              		.cfi_def_cfa_offset 20
 1128              		.cfi_offset 4, -20
 1129              		.cfi_offset 5, -16
 1130              		.cfi_offset 6, -12
 1131              		.cfi_offset 7, -8
ARM GAS  /tmp/ccui4xFX.s 			page 21


 1132              		.cfi_offset 14, -4
 1133              		.loc 1 578 0
 1134 0002 40F20001 		movw	r1, #:lower16:.LANCHOR2
 1135              		.loc 1 579 0
 1136 0006 40F20002 		movw	r2, #:lower16:.LANCHOR8
 1137              		.loc 1 580 0
 1138 000a 40F20003 		movw	r3, #:lower16:.LANCHOR0
 1139              		.loc 1 581 0
 1140 000e 40F20000 		movw	r0, #:lower16:.LANCHOR5
 1141              		.loc 1 575 0
 1142 0012 83B0     		sub	sp, sp, #12
 1143              		.cfi_def_cfa_offset 32
 1144              		.loc 1 580 0
 1145 0014 C0F20003 		movt	r3, #:upper16:.LANCHOR0
 1146              		.loc 1 579 0
 1147 0018 C0F20002 		movt	r2, #:upper16:.LANCHOR8
 1148              		.loc 1 578 0
 1149 001c C0F20001 		movt	r1, #:upper16:.LANCHOR2
 1150              		.loc 1 581 0
 1151 0020 C0F20000 		movt	r0, #:upper16:.LANCHOR5
 1152              		.loc 1 580 0
 1153 0024 1B60     		str	r3, [r3]
 1154              		.loc 1 579 0
 1155 0026 1260     		str	r2, [r2]
 1156              		.loc 1 578 0
 1157 0028 0960     		str	r1, [r1]
 1158              		.loc 1 581 0
 1159 002a FFF7FEFF 		bl	chMtxInit
 1160              	.LVL127:
 1161              		.loc 1 582 0
 1162 002e 40F20000 		movw	r0, #:lower16:.LANCHOR11
 1163 0032 C0F20000 		movt	r0, #:upper16:.LANCHOR11
 1164 0036 FFF7FEFF 		bl	chMtxInit
 1165              	.LVL128:
 1166              		.loc 1 583 0
 1167 003a FFF7FEFF 		bl	chSysInit
 1168              	.LVL129:
 1169              		.loc 1 585 0
 1170 003e FFF7FEFF 		bl	halInit
 1171              	.LVL130:
 1172              		.loc 1 586 0
 1173 0042 40F20000 		movw	r0, #:lower16:SPID1
 1174 0046 C0F20000 		movt	r0, #:upper16:SPID1
 1175 004a 5249     		ldr	r1, .L85
 1176 004c FFF7FEFF 		bl	spiStart
 1177              	.LVL131:
 1178              		.loc 1 587 0
 1179 0050 40F20000 		movw	r0, #:lower16:EXTD1
 1180 0054 40F20001 		movw	r1, #:lower16:.LANCHOR12
 1181 0058 C0F20000 		movt	r0, #:upper16:EXTD1
 1182 005c C0F20001 		movt	r1, #:upper16:.LANCHOR12
 1183 0060 FFF7FEFF 		bl	extStart
 1184              	.LVL132:
 1185              		.loc 1 588 0
 1186 0064 40F20000 		movw	r0, #:lower16:UARTD2
 1187 0068 40F20001 		movw	r1, #:lower16:.LANCHOR13
 1188 006c C0F20001 		movt	r1, #:upper16:.LANCHOR13
ARM GAS  /tmp/ccui4xFX.s 			page 22


 1189 0070 C0F20000 		movt	r0, #:upper16:UARTD2
 1190 0074 FFF7FEFF 		bl	uartStart
 1191              	.LVL133:
 1192              		.loc 1 590 0
 1193 0078 40F20000 		movw	r0, #:lower16:.LANCHOR11
 1194 007c C0F20000 		movt	r0, #:upper16:.LANCHOR11
 1195 0080 FFF7FEFF 		bl	chMtxLock
 1196              	.LVL134:
 1197              		.loc 1 591 0
 1198 0084 40F20000 		movw	r0, #:lower16:UARTD2
 1199 0088 40F20002 		movw	r2, #:lower16:.LC5
 1200 008c C0F20002 		movt	r2, #:upper16:.LC5
 1201 0090 0D21     		movs	r1, #13
 1202 0092 C0F20000 		movt	r0, #:upper16:UARTD2
 1203 0096 FFF7FEFF 		bl	uartStartSend
 1204              	.LVL135:
 1205              		.loc 1 592 0
 1206 009a FFF7FEFF 		bl	chMtxUnlock
 1207              	.LVL136:
 1208              		.loc 1 595 0
 1209 009e 0022     		movs	r2, #0
 1210 00a0 C4F20102 		movt	r2, 16385
 1211 00a4 5768     		ldr	r7, [r2, #4]
 1212              	.LVL137:
 1213              		.loc 1 600 0
 1214 00a6 4FF40066 		mov	r6, #2048
 1215              		.loc 1 601 0
 1216 00aa 4FF44061 		mov	r1, #3072
 1217              		.loc 1 604 0
 1218 00ae 0024     		movs	r4, #0
 1219              		.loc 1 600 0
 1220 00b0 4FF0FF35 		mov	r5, #-1
 1221              		.loc 1 601 0
 1222 00b4 C4F20101 		movt	r1, 16385
 1223              		.loc 1 596 0
 1224 00b8 47F00077 		orr	r7, r7, #33554432
 1225              	.LVL138:
 1226              		.loc 1 600 0
 1227 00bc C4F20106 		movt	r6, 16385
 1228              		.loc 1 604 0
 1229 00c0 40F20000 		movw	r0, #:lower16:.LANCHOR14
 1230 00c4 40F20003 		movw	r3, #:lower16:uart_thread
 1231              		.loc 1 597 0
 1232 00c8 5760     		str	r7, [r2, #4]
 1233              		.loc 1 604 0
 1234 00ca C0F20003 		movt	r3, #:upper16:uart_thread
 1235              		.loc 1 600 0
 1236 00ce 7561     		str	r5, [r6, #20]
 1237              		.loc 1 604 0
 1238 00d0 4022     		movs	r2, #64
 1239              		.loc 1 601 0
 1240 00d2 4D61     		str	r5, [r1, #20]
 1241              		.loc 1 604 0
 1242 00d4 C0F20000 		movt	r0, #:upper16:.LANCHOR14
 1243 00d8 4FF42E71 		mov	r1, #696
 1244 00dc 0094     		str	r4, [sp]
 1245 00de FFF7FEFF 		bl	chThdCreateStatic
ARM GAS  /tmp/ccui4xFX.s 			page 23


 1246              	.LVL139:
 1247              		.loc 1 606 0
 1248 00e2 40F20000 		movw	r0, #:lower16:.LANCHOR15
 1249 00e6 40F20003 		movw	r3, #:lower16:network_thread
 1250 00ea C0F20003 		movt	r3, #:upper16:network_thread
 1251 00ee 4FF49761 		mov	r1, #1208
 1252 00f2 4022     		movs	r2, #64
 1253 00f4 0094     		str	r4, [sp]
 1254 00f6 C0F20000 		movt	r0, #:upper16:.LANCHOR15
 1255 00fa FFF7FEFF 		bl	chThdCreateStatic
 1256              	.LVL140:
 1257              		.loc 1 608 0
 1258 00fe 40F20000 		movw	r0, #:lower16:.LANCHOR16
 1259 0102 40F20003 		movw	r3, #:lower16:ThreadBlink
 1260 0106 C0F20003 		movt	r3, #:upper16:ThreadBlink
 1261 010a 4FF49761 		mov	r1, #1208
 1262 010e 4022     		movs	r2, #64
 1263 0110 0094     		str	r4, [sp]
 1264 0112 C0F20000 		movt	r0, #:upper16:.LANCHOR16
 1265 0116 FFF7FEFF 		bl	chThdCreateStatic
 1266              	.LVL141:
 1267              		.loc 1 610 0
 1268 011a 40F20000 		movw	r0, #:lower16:.LANCHOR17
 1269 011e 40F20003 		movw	r3, #:lower16:ThreadRFM
 1270 0122 C0F20003 		movt	r3, #:upper16:ThreadRFM
 1271 0126 4FF42E71 		mov	r1, #696
 1272 012a 4022     		movs	r2, #64
 1273 012c 0094     		str	r4, [sp]
 1274 012e C0F20000 		movt	r0, #:upper16:.LANCHOR17
 1275 0132 FFF7FEFF 		bl	chThdCreateStatic
 1276              	.LVL142:
 1277              		.loc 1 612 0
 1278 0136 40F20000 		movw	r0, #:lower16:.LANCHOR18
 1279 013a 40F20003 		movw	r3, #:lower16:ThreadButton
 1280 013e C0F20003 		movt	r3, #:upper16:ThreadButton
 1281 0142 4FF42E71 		mov	r1, #696
 1282 0146 4022     		movs	r2, #64
 1283 0148 0094     		str	r4, [sp]
 1284 014a C0F20000 		movt	r0, #:upper16:.LANCHOR18
 1285 014e FFF7FEFF 		bl	chThdCreateStatic
 1286              	.LVL143:
 1287              		.loc 1 614 0
 1288 0152 40F20000 		movw	r0, #:lower16:.LANCHOR19
 1289 0156 40F20003 		movw	r3, #:lower16:ThreadModbusSerial
 1290 015a C0F20003 		movt	r3, #:upper16:ThreadModbusSerial
 1291 015e 4FF49761 		mov	r1, #1208
 1292 0162 4022     		movs	r2, #64
 1293 0164 0094     		str	r4, [sp]
 1294 0166 C0F20000 		movt	r0, #:upper16:.LANCHOR19
 1295 016a FFF7FEFF 		bl	chThdCreateStatic
 1296              	.LVL144:
 1297              		.loc 1 617 0
 1298 016e 40F20000 		movw	r0, #:lower16:UARTD2
 1299 0172 40F20002 		movw	r2, #:lower16:.LANCHOR10
 1300 0176 C0F20000 		movt	r0, #:upper16:UARTD2
 1301 017a C0F20002 		movt	r2, #:upper16:.LANCHOR10
 1302 017e 0121     		movs	r1, #1
ARM GAS  /tmp/ccui4xFX.s 			page 24


 1303 0180 FFF7FEFF 		bl	uartStartReceive
 1304              	.LVL145:
 1305              		.loc 1 619 0
 1306 0184 2046     		mov	r0, r4
 1307 0186 FFF7FEFF 		bl	chThdExit
 1308              	.LVL146:
 1309              	.L84:
 1310              		.loc 1 623 0 discriminator 1
 1311 018a 41F28830 		movw	r0, #5000
 1312 018e FFF7FEFF 		bl	chThdSleep
 1313              	.LVL147:
 1314 0192 FAE7     		b	.L84
 1315              	.L86:
 1316              		.align	2
 1317              	.L85:
 1318 0194 04000000 		.word	.LANCHOR4+4
 1319              		.cfi_endproc
 1320              	.LFE69:
 1321              		.size	main, .-main
 1322              		.global	send_req_event
 1323              		.global	uartMtx
 1324              		.global	RfmSpiconfig
 1325              		.global	encST
 1326              		.global	ptr
 1327              		.global	tp2
 1328              		.global	uartTp
 1329 0198 AFF30080 		.section	.bss.uart_wa,"aw",%nobits
 1329      AFF30080 
 1330              		.align	3
 1331              		.set	.LANCHOR14,. + 0
 1332              		.type	uart_wa, %object
 1333              		.size	uart_wa, 696
 1334              	uart_wa:
 1335 0000 00000000 		.space	696
 1335      00000000 
 1335      00000000 
 1335      00000000 
 1335      00000000 
 1336              		.section	.data.rfm_int_event,"aw",%progbits
 1337              		.align	2
 1338              		.set	.LANCHOR2,. + 0
 1339              		.type	rfm_int_event, %object
 1340              		.size	rfm_int_event, 4
 1341              	rfm_int_event:
 1342 0000 00000000 		.word	rfm_int_event
 1343              		.section	.bss.mtx,"aw",%nobits
 1344              		.align	2
 1345              		.set	.LANCHOR5,. + 0
 1346              		.type	mtx, %object
 1347              		.size	mtx, 16
 1348              	mtx:
 1349 0000 00000000 		.space	16
 1349      00000000 
 1349      00000000 
 1349      00000000 
 1350              		.section	.bss.waThreadModbusSerial,"aw",%nobits
 1351              		.align	3
ARM GAS  /tmp/ccui4xFX.s 			page 25


 1352              		.set	.LANCHOR19,. + 0
 1353              		.type	waThreadModbusSerial, %object
 1354              		.size	waThreadModbusSerial, 1208
 1355              	waThreadModbusSerial:
 1356 0000 00000000 		.space	1208
 1356      00000000 
 1356      00000000 
 1356      00000000 
 1356      00000000 
 1357              		.section	.data.send_req_event,"aw",%progbits
 1358              		.align	2
 1359              		.set	.LANCHOR0,. + 0
 1360              		.type	send_req_event, %object
 1361              		.size	send_req_event, 4
 1362              	send_req_event:
 1363 0000 00000000 		.word	send_req_event
 1364              		.section	.bss.rxbuf,"aw",%nobits
 1365              		.align	2
 1366              		.set	.LANCHOR10,. + 0
 1367              		.type	rxbuf, %object
 1368              		.size	rxbuf, 16
 1369              	rxbuf:
 1370 0000 00000000 		.space	16
 1370      00000000 
 1370      00000000 
 1370      00000000 
 1371              		.section	.bss.ptr,"aw",%nobits
 1372              		.align	2
 1373              		.type	ptr, %object
 1374              		.size	ptr, 4
 1375              	ptr:
 1376 0000 00000000 		.space	4
 1377              		.section	.data.enc_int_es,"aw",%progbits
 1378              		.align	2
 1379              		.set	.LANCHOR8,. + 0
 1380              		.type	enc_int_es, %object
 1381              		.size	enc_int_es, 4
 1382              	enc_int_es:
 1383 0000 00000000 		.word	enc_int_es
 1384              		.section	.data.button_int_event,"aw",%progbits
 1385              		.align	2
 1386              		.set	.LANCHOR1,. + 0
 1387              		.type	button_int_event, %object
 1388              		.size	button_int_event, 4
 1389              	button_int_event:
 1390 0000 00000000 		.word	button_int_event
 1391              		.section	.bss.network_wa,"aw",%nobits
 1392              		.align	3
 1393              		.set	.LANCHOR15,. + 0
 1394              		.type	network_wa, %object
 1395              		.size	network_wa, 1208
 1396              	network_wa:
 1397 0000 00000000 		.space	1208
 1397      00000000 
 1397      00000000 
 1397      00000000 
 1397      00000000 
ARM GAS  /tmp/ccui4xFX.s 			page 26


 1398              		.section	.bss.waThreadBlink,"aw",%nobits
 1399              		.align	3
 1400              		.set	.LANCHOR16,. + 0
 1401              		.type	waThreadBlink, %object
 1402              		.size	waThreadBlink, 1208
 1403              	waThreadBlink:
 1404 0000 00000000 		.space	1208
 1404      00000000 
 1404      00000000 
 1404      00000000 
 1404      00000000 
 1405              		.section	.data.RfmSpiconfig,"aw",%progbits
 1406              		.align	2
 1407              		.set	.LANCHOR3,. + 0
 1408              		.type	RfmSpiconfig, %object
 1409              		.size	RfmSpiconfig, 16
 1410              	RfmSpiconfig:
 1411 0000 00000000 		.word	SPID2
 1412 0004 00000000 		.word	0
 1413 0008 00080140 		.word	1073809408
 1414 000c 0800     		.short	8
 1415 000e 0800     		.short	8
 1416              		.section	.data.encST,"aw",%progbits
 1417              		.align	2
 1418              		.set	.LANCHOR4,. + 0
 1419              		.type	encST, %object
 1420              		.size	encST, 28
 1421              	encST:
 1422 0000 00000000 		.word	SPID1
 1423 0004 00000000 		.word	0
 1424 0008 000C0140 		.word	1073810432
 1425 000c 0000     		.short	0
 1426 000e 0800     		.short	8
 1427 0010 00       		.byte	0
 1428 0011 00       		.space	1
 1429 0012 0000     		.short	0
 1430 0014 2A       		.byte	42
 1431 0015 28       		.byte	40
 1432 0016 63       		.byte	99
 1433 0017 7D       		.byte	125
 1434 0018 A7       		.byte	-89
 1435 0019 EF       		.byte	-17
 1436 001a 0000     		.space	2
 1437              		.section	.rodata.str1.4,"aMS",%progbits,1
 1438              		.align	2
 1439              	.LC0:
 1440 0000 7061636B 		.ascii	"pack get %01x\012\000"
 1440      20676574 
 1440      20253031 
 1440      780A00
 1441 000f 00       		.space	1
 1442              	.LC1:
 1443 0010 62757474 		.ascii	"button pressed\012\000"
 1443      6F6E2070 
 1443      72657373 
 1443      65640A00 
 1444              	.LC2:
ARM GAS  /tmp/ccui4xFX.s 			page 27


 1445 0020 6E657477 		.ascii	"network_error\012\000"
 1445      6F726B5F 
 1445      6572726F 
 1445      720A00
 1446 002f 00       		.space	1
 1447              	.LC3:
 1448 0030 73746174 		.ascii	"state = %d\012\000"
 1448      65203D20 
 1448      25640A00 
 1449              	.LC4:
 1450 003c 6563686F 		.ascii	"echo_%0x\012\000"
 1450      5F253078 
 1450      0A00
 1451 0046 0000     		.space	2
 1452              	.LC5:
 1453 0048 53746172 		.ascii	"Starting...\015\012\000"
 1453      74696E67 
 1453      2E2E2E0D 
 1453      0A00
 1454 0056 0000     		.section	.rodata.extcfg,"a",%progbits
 1455              		.align	2
 1456              		.set	.LANCHOR12,. + 0
 1457              		.type	extcfg, %object
 1458              		.size	extcfg, 152
 1459              	extcfg:
 1460 0000 06000000 		.word	6
 1461 0004 00000000 		.word	button_int
 1462 0008 00000000 		.word	0
 1463 000c 00000000 		.word	0
 1464 0010 16000000 		.word	22
 1465 0014 00000000 		.word	enc_int
 1466 0018 00000000 		.word	0
 1467 001c 00000000 		.word	0
 1468 0020 00000000 		.word	0
 1469 0024 00000000 		.word	0
 1470 0028 00000000 		.word	0
 1471 002c 00000000 		.word	0
 1472 0030 00000000 		.word	0
 1473 0034 00000000 		.word	0
 1474 0038 00000000 		.word	0
 1475 003c 00000000 		.word	0
 1476 0040 00000000 		.word	0
 1477 0044 00000000 		.word	0
 1478 0048 00000000 		.word	0
 1479 004c 00000000 		.word	0
 1480 0050 00000000 		.word	0
 1481 0054 00000000 		.word	0
 1482 0058 15000000 		.word	21
 1483 005c 00000000 		.word	rfm_int
 1484 0060 00000000 		.word	0
 1485 0064 00000000 		.word	0
 1486 0068 00000000 		.word	0
 1487 006c 00000000 		.word	0
 1488 0070 00000000 		.word	0
 1489 0074 00000000 		.word	0
 1490 0078 00000000 		.word	0
 1491 007c 00000000 		.word	0
ARM GAS  /tmp/ccui4xFX.s 			page 28


 1492 0080 00000000 		.word	0
 1493 0084 00000000 		.word	0
 1494 0088 00000000 		.word	0
 1495 008c 00000000 		.word	0
 1496 0090 00000000 		.word	0
 1497 0094 00000000 		.word	0
 1498              		.section	.bss.uartTp,"aw",%nobits
 1499              		.align	2
 1500              		.set	.LANCHOR9,. + 0
 1501              		.type	uartTp, %object
 1502              		.size	uartTp, 4
 1503              	uartTp:
 1504 0000 00000000 		.space	4
 1505              		.section	.bss.uartMtx,"aw",%nobits
 1506              		.align	2
 1507              		.set	.LANCHOR11,. + 0
 1508              		.type	uartMtx, %object
 1509              		.size	uartMtx, 16
 1510              	uartMtx:
 1511 0000 00000000 		.space	16
 1511      00000000 
 1511      00000000 
 1511      00000000 
 1512              		.section	.bss.state_prev.7551,"aw",%nobits
 1513              		.set	.LANCHOR6,. + 0
 1514              		.type	state_prev.7551, %object
 1515              		.size	state_prev.7551, 1
 1516              	state_prev.7551:
 1517 0000 00       		.space	1
 1518              		.section	.bss.waThreadRFM,"aw",%nobits
 1519              		.align	3
 1520              		.set	.LANCHOR17,. + 0
 1521              		.type	waThreadRFM, %object
 1522              		.size	waThreadRFM, 696
 1523              	waThreadRFM:
 1524 0000 00000000 		.space	696
 1524      00000000 
 1524      00000000 
 1524      00000000 
 1524      00000000 
 1525              		.section	.bss.tp2,"aw",%nobits
 1526              		.align	2
 1527              		.set	.LANCHOR7,. + 0
 1528              		.type	tp2, %object
 1529              		.size	tp2, 4
 1530              	tp2:
 1531 0000 00000000 		.space	4
 1532              		.section	.data.uart_cfg_1,"aw",%progbits
 1533              		.align	2
 1534              		.set	.LANCHOR13,. + 0
 1535              		.type	uart_cfg_1, %object
 1536              		.size	uart_cfg_1, 32
 1537              	uart_cfg_1:
 1538 0000 00000000 		.word	0
 1539 0004 00000000 		.word	0
 1540 0008 00000000 		.word	rxend
 1541 000c 00000000 		.word	0
ARM GAS  /tmp/ccui4xFX.s 			page 29


 1542 0010 00000000 		.word	0
 1543 0014 00840300 		.word	230400
 1544 0018 0000     		.short	0
 1545 001a 0040     		.short	16384
 1546 001c 0000     		.short	0
 1547 001e 0000     		.space	2
 1548              		.section	.bss.waThreadButton,"aw",%nobits
 1549              		.align	3
 1550              		.set	.LANCHOR18,. + 0
 1551              		.type	waThreadButton, %object
 1552              		.size	waThreadButton, 696
 1553              	waThreadButton:
 1554 0000 00000000 		.space	696
 1554      00000000 
 1554      00000000 
 1554      00000000 
 1554      00000000 
 1555              		.text
 1556              	.Letext0:
 1557              		.file 2 "/usr/lib/gcc/arm-none-eabi/4.8.2/include/stddef.h"
 1558              		.file 3 "/usr/include/newlib/machine/_default_types.h"
 1559              		.file 4 "/usr/include/newlib/stdint.h"
 1560              		.file 5 "../os/hal/platforms/STM32F1xx/stm32f10x.h"
 1561              		.file 6 "../os/ports/GCC/ARMCMx/chtypes.h"
 1562              		.file 7 "../os/kernel/include/chlists.h"
 1563              		.file 8 "../os/kernel/include/chthreads.h"
 1564              		.file 9 "../os/ports/GCC/ARMCMx/chcore_v7m.h"
 1565              		.file 10 "../os/kernel/include/chvt.h"
 1566              		.file 11 "../os/kernel/include/chschd.h"
 1567              		.file 12 "../os/kernel/include/chmtx.h"
 1568              		.file 13 "../os/kernel/include/chevents.h"
 1569              		.file 14 "../os/hal/platforms/STM32F1xx/stm32_dma.h"
 1570              		.file 15 "../os/hal/platforms/STM32/GPIOv1/pal_lld.h"
 1571              		.file 16 "../os/hal/include/ext.h"
 1572              		.file 17 "../os/hal/platforms/STM32/ext_lld.h"
 1573              		.file 18 "../os/hal/include/spi.h"
 1574              		.file 19 "../os/hal/platforms/STM32/SPIv1/spi_lld.h"
 1575              		.file 20 "../os/hal/include/uart.h"
 1576              		.file 21 "../os/hal/platforms/STM32/USARTv1/uart_lld.h"
 1577              		.file 22 "enc.h"
 1578              		.file 23 "rfm.h"
 1579              		.file 24 "./modbus_tcp.h"
 1580              		.file 25 "./uip-conf.h"
 1581              		.file 26 "../uip/uip.h"
 1582              		.file 27 "../uip/uip_arp.h"
 1583              		.file 28 "../os/various/evtimer.h"
 1584              		.file 29 "../os/ports/common/ARMCMx/CMSIS/include/core_cm3.h"
 1585              		.file 30 "util.h"
 1586              		.file 31 "../os/kernel/include/chsys.h"
 1587              		.file 32 "../os/hal/include/hal.h"