ARM GAS  /tmp/cc8vsY7w.s 			page 1


   1              		.syntax unified
   2              		.cpu cortex-m3
   3              		.fpu softvfp
   4              		.eabi_attribute 20, 1
   5              		.eabi_attribute 21, 1
   6              		.eabi_attribute 23, 3
   7              		.eabi_attribute 24, 1
   8              		.eabi_attribute 25, 1
   9              		.eabi_attribute 26, 1
  10              		.eabi_attribute 30, 2
  11              		.eabi_attribute 34, 1
  12              		.eabi_attribute 18, 4
  13              		.thumb
  14              		.file	"modbus_tcp.c"
  15              		.text
  16              	.Ltext0:
  17              		.cfi_sections	.debug_frame
  18              		.section	.text.modbusInit,"ax",%progbits
  19              		.align	2
  20              		.p2align 4,,15
  21              		.global	modbusInit
  22              		.thumb
  23              		.thumb_func
  24              		.type	modbusInit, %function
  25              	modbusInit:
  26              	.LFB56:
  27              		.file 1 "modbus_tcp.c"
  28              		.loc 1 30 0
  29              		.cfi_startproc
  30              		@ args = 0, pretend = 0, frame = 0
  31              		@ frame_needed = 0, uses_anonymous_args = 0
  32 0000 08B5     		push	{r3, lr}
  33              		.cfi_def_cfa_offset 8
  34              		.cfi_offset 3, -8
  35              		.cfi_offset 14, -4
  36              		.loc 1 31 0
  37 0002 4FF20160 		movw	r0, #62977
  38 0006 FFF7FEFF 		bl	uip_listen
  39              	.LVL0:
  40              		.loc 1 32 0
  41 000a 40F20003 		movw	r3, #:lower16:.LANCHOR0
  42 000e C0F20003 		movt	r3, #:upper16:.LANCHOR0
  43 0012 0222     		movs	r2, #2
  44 0014 1A70     		strb	r2, [r3]
  45 0016 08BD     		pop	{r3, pc}
  46              		.cfi_endproc
  47              	.LFE56:
  48              		.size	modbusInit, .-modbusInit
  49 0018 AFF30080 		.section	.text.isValid,"ax",%progbits
  49      AFF30080 
  50              		.align	2
  51              		.p2align 4,,15
  52              		.global	isValid
  53              		.thumb
  54              		.thumb_func
  55              		.type	isValid, %function
  56              	isValid:
ARM GAS  /tmp/cc8vsY7w.s 			page 2


  57              	.LFB57:
  58              		.loc 1 37 0
  59              		.cfi_startproc
  60              		@ args = 0, pretend = 0, frame = 0
  61              		@ frame_needed = 0, uses_anonymous_args = 0
  62              	.LVL1:
  63              		.loc 1 48 0
  64 0000 0529     		cmp	r1, #5
  65              		.loc 1 37 0
  66 0002 10B5     		push	{r4, lr}
  67              		.cfi_def_cfa_offset 8
  68              		.cfi_offset 4, -8
  69              		.cfi_offset 14, -4
  70              		.loc 1 48 0
  71 0004 17D9     		bls	.L10
  72              		.loc 1 53 0
  73 0006 8378     		ldrb	r3, [r0, #2]	@ zero_extendqisi2
  74 0008 6BB9     		cbnz	r3, .L5
  75              		.loc 1 53 0 is_stmt 0 discriminator 1
  76 000a C478     		ldrb	r4, [r0, #3]	@ zero_extendqisi2
  77 000c 5CB9     		cbnz	r4, .L5
  78              		.loc 1 59 0 is_stmt 1
  79 000e 0279     		ldrb	r2, [r0, #4]	@ zero_extendqisi2
  80 0010 4379     		ldrb	r3, [r0, #5]	@ zero_extendqisi2
  81 0012 0639     		subs	r1, r1, #6
  82              	.LVL2:
  83 0014 03EB0223 		add	r3, r3, r2, lsl #8
  84 0018 8B42     		cmp	r3, r1
  85 001a 1CD1     		bne	.L11
  86              		.loc 1 64 0
  87 001c 8379     		ldrb	r3, [r0, #6]	@ zero_extendqisi2
  88 001e F82B     		cmp	r3, #248
  89 0020 11D8     		bhi	.L12
  90              		.loc 1 69 0
  91 0022 0120     		movs	r0, #1
  92              	.LVL3:
  93              		.loc 1 71 0
  94 0024 10BD     		pop	{r4, pc}
  95              	.LVL4:
  96              	.L5:
  97              		.loc 1 56 0
  98 0026 40F20000 		movw	r0, #:lower16:.LC1
  99              	.LVL5:
 100 002a C0F20000 		movt	r0, #:upper16:.LC1
 101 002e FFF7FEFF 		bl	senddbgmsg
 102              	.LVL6:
 103              		.loc 1 57 0
 104 0032 0020     		movs	r0, #0
 105 0034 10BD     		pop	{r4, pc}
 106              	.LVL7:
 107              	.L10:
 108              		.loc 1 50 0
 109 0036 40F20000 		movw	r0, #:lower16:.LC0
 110              	.LVL8:
 111 003a C0F20000 		movt	r0, #:upper16:.LC0
 112 003e FFF7FEFF 		bl	senddbgmsg
 113              	.LVL9:
ARM GAS  /tmp/cc8vsY7w.s 			page 3


 114              		.loc 1 51 0
 115 0042 0020     		movs	r0, #0
 116 0044 10BD     		pop	{r4, pc}
 117              	.LVL10:
 118              	.L12:
 119              		.loc 1 66 0
 120 0046 40F20000 		movw	r0, #:lower16:.LC3
 121              	.LVL11:
 122 004a C0F20000 		movt	r0, #:upper16:.LC3
 123 004e FFF7FEFF 		bl	senddbgmsg
 124              	.LVL12:
 125              		.loc 1 67 0
 126 0052 2046     		mov	r0, r4
 127 0054 10BD     		pop	{r4, pc}
 128              	.LVL13:
 129              	.L11:
 130              		.loc 1 61 0
 131 0056 40F20000 		movw	r0, #:lower16:.LC2
 132              	.LVL14:
 133 005a C0F20000 		movt	r0, #:upper16:.LC2
 134 005e FFF7FEFF 		bl	senddbgmsg
 135              	.LVL15:
 136              		.loc 1 62 0
 137 0062 2046     		mov	r0, r4
 138 0064 10BD     		pop	{r4, pc}
 139              		.cfi_endproc
 140              	.LFE57:
 141              		.size	isValid, .-isValid
 142 0066 00BFAFF3 		.section	.text.modbus_tcp_gateway,"ax",%progbits
 142      0080AFF3 
 142      0080
 143              		.align	2
 144              		.p2align 4,,15
 145              		.global	modbus_tcp_gateway
 146              		.thumb
 147              		.thumb_func
 148              		.type	modbus_tcp_gateway, %function
 149              	modbus_tcp_gateway:
 150              	.LFB58:
 151              		.loc 1 127 0
 152              		.cfi_startproc
 153              		@ args = 0, pretend = 0, frame = 0
 154              		@ frame_needed = 0, uses_anonymous_args = 0
 155 0000 F8B5     		push	{r3, r4, r5, r6, r7, lr}
 156              		.cfi_def_cfa_offset 24
 157              		.cfi_offset 3, -24
 158              		.cfi_offset 4, -20
 159              		.cfi_offset 5, -16
 160              		.cfi_offset 6, -12
 161              		.cfi_offset 7, -8
 162              		.cfi_offset 14, -4
 163              		.loc 1 128 0
 164 0002 40F20004 		movw	r4, #:lower16:uip_flags
 165 0006 C0F20004 		movt	r4, #:upper16:uip_flags
 166 000a 2378     		ldrb	r3, [r4]	@ zero_extendqisi2
 167 000c 9D07     		lsls	r5, r3, #30
 168 000e 08D5     		bpl	.L14
ARM GAS  /tmp/cc8vsY7w.s 			page 4


 169              		.loc 1 130 0
 170 0010 40F20005 		movw	r5, #:lower16:.LANCHOR0
 171 0014 C0F20005 		movt	r5, #:upper16:.LANCHOR0
 172 0018 2A78     		ldrb	r2, [r5]	@ zero_extendqisi2
 173 001a 022A     		cmp	r2, #2
 174 001c 18BF     		it	ne
 175 001e 072A     		cmpne	r2, #7
 176 0020 2DD0     		beq	.L33
 177              	.L14:
 178              		.loc 1 145 0
 179 0022 D807     		lsls	r0, r3, #31
 180 0024 06D5     		bpl	.L16
 181              		.loc 1 147 0
 182 0026 40F20002 		movw	r2, #:lower16:.LANCHOR0
 183 002a C0F20002 		movt	r2, #:upper16:.LANCHOR0
 184 002e 1278     		ldrb	r2, [r2]	@ zero_extendqisi2
 185 0030 062A     		cmp	r2, #6
 186 0032 44D0     		beq	.L34
 187              	.L16:
 188              		.loc 1 154 0
 189 0034 13F00C0F 		tst	r3, #12
 190 0038 0DD0     		beq	.L17
 191              		.loc 1 156 0
 192 003a 40F20005 		movw	r5, #:lower16:.LANCHOR0
 193 003e C0F20005 		movt	r5, #:upper16:.LANCHOR0
 194 0042 2B78     		ldrb	r3, [r5]	@ zero_extendqisi2
 195 0044 052B     		cmp	r3, #5
 196 0046 29D0     		beq	.L35
 197              		.loc 1 164 0
 198 0048 40F20000 		movw	r0, #:lower16:.LC7
 199 004c C0F20000 		movt	r0, #:upper16:.LC7
 200 0050 FFF7FEFF 		bl	senddbgmsg
 201              	.LVL16:
 202 0054 2378     		ldrb	r3, [r4]	@ zero_extendqisi2
 203              	.L17:
 204              		.loc 1 168 0
 205 0056 9906     		lsls	r1, r3, #26
 206 0058 03D4     		bmi	.L19
 207              		.loc 1 168 0 is_stmt 0 discriminator 1
 208 005a 1A06     		lsls	r2, r3, #24
 209 005c 01D4     		bmi	.L19
 210 005e DB06     		lsls	r3, r3, #27
 211 0060 0CD5     		bpl	.L13
 212              	.L19:
 213              		.loc 1 169 0 is_stmt 1
 214 0062 40F20004 		movw	r4, #:lower16:.LANCHOR0
 215 0066 C0F20004 		movt	r4, #:upper16:.LANCHOR0
 216 006a 40F20000 		movw	r0, #:lower16:.LC8
 217 006e 2178     		ldrb	r1, [r4]	@ zero_extendqisi2
 218 0070 C0F20000 		movt	r0, #:upper16:.LC8
 219 0074 FFF7FEFF 		bl	senddbgmsg
 220              	.LVL17:
 221              		.loc 1 170 0
 222 0078 0223     		movs	r3, #2
 223 007a 2370     		strb	r3, [r4]
 224              	.L13:
 225 007c F8BD     		pop	{r3, r4, r5, r6, r7, pc}
ARM GAS  /tmp/cc8vsY7w.s 			page 5


 226              	.L33:
 227              		.loc 1 133 0
 228 007e 40F20006 		movw	r6, #:lower16:uip_appdata
 229 0082 40F20007 		movw	r7, #:lower16:uip_len
 230 0086 C0F20006 		movt	r6, #:upper16:uip_appdata
 231 008a C0F20007 		movt	r7, #:upper16:uip_len
 232 008e 3068     		ldr	r0, [r6]
 233 0090 3978     		ldrb	r1, [r7]	@ zero_extendqisi2
 234 0092 FFF7FEFF 		bl	isValid
 235              	.LVL18:
 236 0096 D0B9     		cbnz	r0, .L15
 237              	.L32:
 238 0098 2378     		ldrb	r3, [r4]	@ zero_extendqisi2
 239 009a C2E7     		b	.L14
 240              	.L35:
 241              		.loc 1 158 0
 242 009c 40F20000 		movw	r0, #:lower16:.LANCHOR1
 243 00a0 C0F20000 		movt	r0, #:upper16:.LANCHOR1
 244 00a4 6988     		ldrh	r1, [r5, #2]
 245 00a6 FFF7FEFF 		bl	uip_send
 246              	.LVL19:
 247              		.loc 1 160 0
 248 00aa 40F20000 		movw	r0, #:lower16:.LC6
 249              		.loc 1 159 0
 250 00ae 0623     		movs	r3, #6
 251              		.loc 1 160 0
 252 00b0 C0F20000 		movt	r0, #:upper16:.LC6
 253              		.loc 1 159 0
 254 00b4 2B70     		strb	r3, [r5]
 255              		.loc 1 160 0
 256 00b6 FFF7FEFF 		bl	senddbgmsg
 257              	.LVL20:
 258 00ba 2378     		ldrb	r3, [r4]	@ zero_extendqisi2
 259 00bc CBE7     		b	.L17
 260              	.L34:
 261              		.loc 1 150 0
 262 00be 40F20000 		movw	r0, #:lower16:.LC5
 263 00c2 C0F20000 		movt	r0, #:upper16:.LC5
 264 00c6 FFF7FEFF 		bl	senddbgmsg
 265              	.LVL21:
 266 00ca 2378     		ldrb	r3, [r4]	@ zero_extendqisi2
 267 00cc B2E7     		b	.L16
 268              	.L15:
 269              		.loc 1 135 0
 270 00ce 40F20000 		movw	r0, #:lower16:.LC4
 271 00d2 2978     		ldrb	r1, [r5]	@ zero_extendqisi2
 272 00d4 C0F20000 		movt	r0, #:upper16:.LC4
 273 00d8 FFF7FEFF 		bl	senddbgmsg
 274              	.LVL22:
 275              		.loc 1 136 0
 276 00dc 3F88     		ldrh	r7, [r7]
 277 00de 40F20000 		movw	r0, #:lower16:.LANCHOR1
 278 00e2 3168     		ldr	r1, [r6]
 279 00e4 3A46     		mov	r2, r7
 280 00e6 C0F20000 		movt	r0, #:upper16:.LANCHOR1
 281 00ea FFF7FEFF 		bl	memcpy
 282              	.LVL23:
ARM GAS  /tmp/cc8vsY7w.s 			page 6


 283              		.loc 1 140 0
 284 00ee 40F20000 		movw	r0, #:lower16:send_req_event
 285              		.loc 1 139 0
 286 00f2 0323     		movs	r3, #3
 287              		.loc 1 140 0
 288 00f4 C0F20000 		movt	r0, #:upper16:send_req_event
 289 00f8 0021     		movs	r1, #0
 290              		.loc 1 137 0
 291 00fa 6F80     		strh	r7, [r5, #2]	@ movhi
 292              		.loc 1 139 0
 293 00fc 2B70     		strb	r3, [r5]
 294              		.loc 1 140 0
 295 00fe FFF7FEFF 		bl	chEvtBroadcastFlags
 296              	.LVL24:
 297 0102 C9E7     		b	.L32
 298              		.cfi_endproc
 299              	.LFE58:
 300              		.size	modbus_tcp_gateway, .-modbus_tcp_gateway
 301              		.global	modbusSerialState
 302              		.global	modbusSerialBuffer
 303 0104 AFF30080 		.section	.bss.modbusSerialState,"aw",%nobits
 303      AFF30080 
 303      AFF30080 
 304              		.align	2
 305              		.set	.LANCHOR0,. + 0
 306              		.type	modbusSerialState, %object
 307              		.size	modbusSerialState, 4
 308              	modbusSerialState:
 309 0000 00000000 		.space	4
 310              		.section	.rodata.str1.4,"aMS",%progbits,1
 311              		.align	2
 312              	.LC0:
 313 0000 6C656E20 		.ascii	"len is null\012\000"
 313      6973206E 
 313      756C6C0A 
 313      00
 314 000d 000000   		.space	3
 315              	.LC1:
 316 0010 70726F74 		.ascii	"prot id is nok\012\000"
 316      20696420 
 316      6973206E 
 316      6F6B0A00 
 317              	.LC2:
 318 0020 6C656E20 		.ascii	"len is nok\012\000"
 318      6973206E 
 318      6F6B0A00 
 319              	.LC3:
 320 002c 756E6974 		.ascii	"unit id is nok\012\000"
 320      20696420 
 320      6973206E 
 320      6F6B0A00 
 321              	.LC4:
 322 003c 25303178 		.ascii	"%01x\000"
 322      00
 323 0041 000000   		.space	3
 324              	.LC5:
 325 0044 6261636B 		.ascii	"back2ready\012\000"
ARM GAS  /tmp/cc8vsY7w.s 			page 7


 325      32726561 
 325      64790A00 
 326              	.LC6:
 327 0050 7061636B 		.ascii	"pack sent\000"
 327      2073656E 
 327      7400
 328 005a 0000     		.space	2
 329              	.LC7:
 330 005c 706F6C6C 		.ascii	"poll\012\000"
 330      0A00
 331 0062 0000     		.space	2
 332              	.LC8:
 333 0064 25303164 		.ascii	"%01dcon abort\012\000"
 333      636F6E20 
 333      61626F72 
 333      740A00
 334 0073 00       		.section	.bss.modbusSerialBuffer,"aw",%nobits
 335              		.align	2
 336              		.set	.LANCHOR1,. + 0
 337              		.type	modbusSerialBuffer, %object
 338              		.size	modbusSerialBuffer, 256
 339              	modbusSerialBuffer:
 340 0000 00000000 		.space	256
 340      00000000 
 340      00000000 
 340      00000000 
 340      00000000 
 341              		.text
 342              	.Letext0:
 343              		.file 2 "/usr/include/newlib/machine/_default_types.h"
 344              		.file 3 "/usr/include/newlib/stdint.h"
 345              		.file 4 "modbus_tcp.h"
 346              		.file 5 "./uip-conf.h"
 347              		.file 6 "../os/ports/GCC/ARMCMx/chtypes.h"
 348              		.file 7 "../os/kernel/include/chlists.h"
 349              		.file 8 "../os/kernel/include/chthreads.h"
 350              		.file 9 "../os/ports/GCC/ARMCMx/chcore_v7m.h"
 351              		.file 10 "../os/kernel/include/chmtx.h"
 352              		.file 11 "../os/kernel/include/chevents.h"
 353              		.file 12 "../uip/uip.h"
 354              		.file 13 "../os/ports/common/ARMCMx/CMSIS/include/core_cm3.h"
 355              		.file 14 "util.h"
 356              		.section	.debug_info,"",%progbits
 357              	.Ldebug_info0:
 358 0000 D0060000 		.4byte	0x6d0
 359 0004 0400     		.2byte	0x4
 360 0006 00000000 		.4byte	.Ldebug_abbrev0
 361 000a 04       		.byte	0x4
 362 000b 01       		.uleb128 0x1
 363 000c D4010000 		.4byte	.LASF89
 364 0010 01       		.byte	0x1
 365 0011 B9010000 		.4byte	.LASF90
 366 0015 53030000 		.4byte	.LASF91
 367 0019 00000000 		.4byte	.Ldebug_ranges0+0
 368 001d 00000000 		.4byte	0
 369 0021 00000000 		.4byte	.Ldebug_line0
 370 0025 02       		.uleb128 0x2
ARM GAS  /tmp/cc8vsY7w.s 			page 8


 371 0026 01       		.byte	0x1
 372 0027 06       		.byte	0x6
 373 0028 A8020000 		.4byte	.LASF0
 374 002c 03       		.uleb128 0x3
 375 002d 6E010000 		.4byte	.LASF3
 376 0031 02       		.byte	0x2
 377 0032 1C       		.byte	0x1c
 378 0033 37000000 		.4byte	0x37
 379 0037 02       		.uleb128 0x2
 380 0038 01       		.byte	0x1
 381 0039 08       		.byte	0x8
 382 003a C6010000 		.4byte	.LASF1
 383 003e 02       		.uleb128 0x2
 384 003f 02       		.byte	0x2
 385 0040 05       		.byte	0x5
 386 0041 34000000 		.4byte	.LASF2
 387 0045 03       		.uleb128 0x3
 388 0046 6C000000 		.4byte	.LASF4
 389 004a 02       		.byte	0x2
 390 004b 26       		.byte	0x26
 391 004c 50000000 		.4byte	0x50
 392 0050 02       		.uleb128 0x2
 393 0051 02       		.byte	0x2
 394 0052 07       		.byte	0x7
 395 0053 12030000 		.4byte	.LASF5
 396 0057 03       		.uleb128 0x3
 397 0058 12040000 		.4byte	.LASF6
 398 005c 02       		.byte	0x2
 399 005d 37       		.byte	0x37
 400 005e 62000000 		.4byte	0x62
 401 0062 02       		.uleb128 0x2
 402 0063 04       		.byte	0x4
 403 0064 05       		.byte	0x5
 404 0065 57010000 		.4byte	.LASF7
 405 0069 03       		.uleb128 0x3
 406 006a 77000000 		.4byte	.LASF8
 407 006e 02       		.byte	0x2
 408 006f 38       		.byte	0x38
 409 0070 74000000 		.4byte	0x74
 410 0074 02       		.uleb128 0x2
 411 0075 04       		.byte	0x4
 412 0076 07       		.byte	0x7
 413 0077 F0020000 		.4byte	.LASF9
 414 007b 02       		.uleb128 0x2
 415 007c 08       		.byte	0x8
 416 007d 05       		.byte	0x5
 417 007e 41010000 		.4byte	.LASF10
 418 0082 02       		.uleb128 0x2
 419 0083 08       		.byte	0x8
 420 0084 07       		.byte	0x7
 421 0085 B4020000 		.4byte	.LASF11
 422 0089 04       		.uleb128 0x4
 423 008a 04       		.byte	0x4
 424 008b 05       		.byte	0x5
 425 008c 696E7400 		.ascii	"int\000"
 426 0090 02       		.uleb128 0x2
 427 0091 04       		.byte	0x4
ARM GAS  /tmp/cc8vsY7w.s 			page 9


 428 0092 07       		.byte	0x7
 429 0093 BE040000 		.4byte	.LASF12
 430 0097 03       		.uleb128 0x3
 431 0098 D6000000 		.4byte	.LASF13
 432 009c 03       		.byte	0x3
 433 009d 2A       		.byte	0x2a
 434 009e 2C000000 		.4byte	0x2c
 435 00a2 03       		.uleb128 0x3
 436 00a3 E7020000 		.4byte	.LASF14
 437 00a7 03       		.byte	0x3
 438 00a8 36       		.byte	0x36
 439 00a9 45000000 		.4byte	0x45
 440 00ad 03       		.uleb128 0x3
 441 00ae A5030000 		.4byte	.LASF15
 442 00b2 03       		.byte	0x3
 443 00b3 41       		.byte	0x41
 444 00b4 57000000 		.4byte	0x57
 445 00b8 03       		.uleb128 0x3
 446 00b9 CB020000 		.4byte	.LASF16
 447 00bd 03       		.byte	0x3
 448 00be 42       		.byte	0x42
 449 00bf 69000000 		.4byte	0x69
 450 00c3 05       		.uleb128 0x5
 451 00c4 01       		.byte	0x1
 452 00c5 04       		.byte	0x4
 453 00c6 1A       		.byte	0x1a
 454 00c7 F6000000 		.4byte	0xf6
 455 00cb 06       		.uleb128 0x6
 456 00cc DE000000 		.4byte	.LASF17
 457 00d0 01       		.sleb128 1
 458 00d1 06       		.uleb128 0x6
 459 00d2 AE000000 		.4byte	.LASF18
 460 00d6 02       		.sleb128 2
 461 00d7 06       		.uleb128 0x6
 462 00d8 FF030000 		.4byte	.LASF19
 463 00dc 03       		.sleb128 3
 464 00dd 06       		.uleb128 0x6
 465 00de F2000000 		.4byte	.LASF20
 466 00e2 04       		.sleb128 4
 467 00e3 06       		.uleb128 0x6
 468 00e4 21040000 		.4byte	.LASF21
 469 00e8 05       		.sleb128 5
 470 00e9 06       		.uleb128 0x6
 471 00ea 11010000 		.4byte	.LASF22
 472 00ee 06       		.sleb128 6
 473 00ef 06       		.uleb128 0x6
 474 00f0 A2010000 		.4byte	.LASF23
 475 00f4 07       		.sleb128 7
 476 00f5 00       		.byte	0
 477 00f6 07       		.uleb128 0x7
 478 00f7 3C040000 		.4byte	.LASF40
 479 00fb 04       		.byte	0x4
 480 00fc 04       		.byte	0x4
 481 00fd 25       		.byte	0x25
 482 00fe 1B010000 		.4byte	0x11b
 483 0102 08       		.uleb128 0x8
 484 0103 22000000 		.4byte	.LASF24
ARM GAS  /tmp/cc8vsY7w.s 			page 10


 485 0107 04       		.byte	0x4
 486 0108 26       		.byte	0x26
 487 0109 97000000 		.4byte	0x97
 488 010d 00       		.byte	0
 489 010e 08       		.uleb128 0x8
 490 010f 8D020000 		.4byte	.LASF25
 491 0113 04       		.byte	0x4
 492 0114 27       		.byte	0x27
 493 0115 A2000000 		.4byte	0xa2
 494 0119 02       		.byte	0x2
 495 011a 00       		.byte	0
 496 011b 03       		.uleb128 0x3
 497 011c 80010000 		.4byte	.LASF26
 498 0120 04       		.byte	0x4
 499 0121 28       		.byte	0x28
 500 0122 F6000000 		.4byte	0xf6
 501 0126 02       		.uleb128 0x2
 502 0127 01       		.byte	0x1
 503 0128 08       		.byte	0x8
 504 0129 4E030000 		.4byte	.LASF27
 505 012d 03       		.uleb128 0x3
 506 012e 1C040000 		.4byte	.LASF28
 507 0132 05       		.byte	0x5
 508 0133 54       		.byte	0x54
 509 0134 97000000 		.4byte	0x97
 510 0138 03       		.uleb128 0x3
 511 0139 0C030000 		.4byte	.LASF29
 512 013d 05       		.byte	0x5
 513 013e 5D       		.byte	0x5d
 514 013f A2000000 		.4byte	0xa2
 515 0143 02       		.uleb128 0x2
 516 0144 04       		.byte	0x4
 517 0145 07       		.byte	0x7
 518 0146 45000000 		.4byte	.LASF30
 519 014a 02       		.uleb128 0x2
 520 014b 01       		.byte	0x1
 521 014c 02       		.byte	0x2
 522 014d C2030000 		.4byte	.LASF31
 523 0151 03       		.uleb128 0x3
 524 0152 39010000 		.4byte	.LASF32
 525 0156 06       		.byte	0x6
 526 0157 2C       		.byte	0x2c
 527 0158 97000000 		.4byte	0x97
 528 015c 03       		.uleb128 0x3
 529 015d 54040000 		.4byte	.LASF33
 530 0161 06       		.byte	0x6
 531 0162 2D       		.byte	0x2d
 532 0163 97000000 		.4byte	0x97
 533 0167 03       		.uleb128 0x3
 534 0168 02030000 		.4byte	.LASF34
 535 016c 06       		.byte	0x6
 536 016d 2F       		.byte	0x2f
 537 016e 97000000 		.4byte	0x97
 538 0172 03       		.uleb128 0x3
 539 0173 4F010000 		.4byte	.LASF35
 540 0177 06       		.byte	0x6
 541 0178 30       		.byte	0x30
ARM GAS  /tmp/cc8vsY7w.s 			page 11


 542 0179 B8000000 		.4byte	0xb8
 543 017d 03       		.uleb128 0x3
 544 017e E6040000 		.4byte	.LASF36
 545 0182 06       		.byte	0x6
 546 0183 31       		.byte	0x31
 547 0184 AD000000 		.4byte	0xad
 548 0188 03       		.uleb128 0x3
 549 0189 82000000 		.4byte	.LASF37
 550 018d 06       		.byte	0x6
 551 018e 33       		.byte	0x33
 552 018f B8000000 		.4byte	0xb8
 553 0193 03       		.uleb128 0x3
 554 0194 D3040000 		.4byte	.LASF38
 555 0198 06       		.byte	0x6
 556 0199 34       		.byte	0x34
 557 019a B8000000 		.4byte	0xb8
 558 019e 03       		.uleb128 0x3
 559 019f 5D040000 		.4byte	.LASF39
 560 01a3 07       		.byte	0x7
 561 01a4 2A       		.byte	0x2a
 562 01a5 A9010000 		.4byte	0x1a9
 563 01a9 07       		.uleb128 0x7
 564 01aa 5D040000 		.4byte	.LASF39
 565 01ae 34       		.byte	0x34
 566 01af 08       		.byte	0x8
 567 01b0 5E       		.byte	0x5e
 568 01b1 5E020000 		.4byte	0x25e
 569 01b5 08       		.uleb128 0x8
 570 01b6 A0000000 		.4byte	.LASF41
 571 01ba 08       		.byte	0x8
 572 01bb 5F       		.byte	0x5f
 573 01bc 7F020000 		.4byte	0x27f
 574 01c0 00       		.byte	0
 575 01c1 08       		.uleb128 0x8
 576 01c2 4E000000 		.4byte	.LASF42
 577 01c6 08       		.byte	0x8
 578 01c7 61       		.byte	0x61
 579 01c8 7F020000 		.4byte	0x27f
 580 01cc 04       		.byte	0x4
 581 01cd 08       		.uleb128 0x8
 582 01ce 99000000 		.4byte	.LASF43
 583 01d2 08       		.byte	0x8
 584 01d3 63       		.byte	0x63
 585 01d4 72010000 		.4byte	0x172
 586 01d8 08       		.byte	0x8
 587 01d9 08       		.uleb128 0x8
 588 01da AB040000 		.4byte	.LASF44
 589 01de 08       		.byte	0x8
 590 01df 64       		.byte	0x64
 591 01e0 39030000 		.4byte	0x339
 592 01e4 0C       		.byte	0xc
 593 01e5 08       		.uleb128 0x8
 594 01e6 AD030000 		.4byte	.LASF45
 595 01ea 08       		.byte	0x8
 596 01eb 79       		.byte	0x79
 597 01ec 5C010000 		.4byte	0x15c
 598 01f0 10       		.byte	0x10
ARM GAS  /tmp/cc8vsY7w.s 			page 12


 599 01f1 08       		.uleb128 0x8
 600 01f2 25030000 		.4byte	.LASF46
 601 01f6 08       		.byte	0x8
 602 01f7 7D       		.byte	0x7d
 603 01f8 51010000 		.4byte	0x151
 604 01fc 11       		.byte	0x11
 605 01fd 08       		.uleb128 0x8
 606 01fe 2D030000 		.4byte	.LASF47
 607 0202 08       		.byte	0x8
 608 0203 88       		.byte	0x88
 609 0204 67010000 		.4byte	0x167
 610 0208 12       		.byte	0x12
 611 0209 09       		.uleb128 0x9
 612 020a 705F7500 		.ascii	"p_u\000"
 613 020e 08       		.byte	0x8
 614 020f B4       		.byte	0xb4
 615 0210 0E040000 		.4byte	0x40e
 616 0214 14       		.byte	0x14
 617 0215 08       		.uleb128 0x8
 618 0216 C8030000 		.4byte	.LASF48
 619 021a 08       		.byte	0x8
 620 021b B9       		.byte	0xb9
 621 021c A5020000 		.4byte	0x2a5
 622 0220 18       		.byte	0x18
 623 0221 08       		.uleb128 0x8
 624 0222 8E000000 		.4byte	.LASF49
 625 0226 08       		.byte	0x8
 626 0227 BF       		.byte	0xbf
 627 0228 85020000 		.4byte	0x285
 628 022c 1C       		.byte	0x1c
 629 022d 08       		.uleb128 0x8
 630 022e 9C010000 		.4byte	.LASF50
 631 0232 08       		.byte	0x8
 632 0233 C3       		.byte	0xc3
 633 0234 7D010000 		.4byte	0x17d
 634 0238 24       		.byte	0x24
 635 0239 08       		.uleb128 0x8
 636 023a 06010000 		.4byte	.LASF51
 637 023e 08       		.byte	0x8
 638 023f C9       		.byte	0xc9
 639 0240 88010000 		.4byte	0x188
 640 0244 28       		.byte	0x28
 641 0245 08       		.uleb128 0x8
 642 0246 DA030000 		.4byte	.LASF52
 643 024a 08       		.byte	0x8
 644 024b D0       		.byte	0xd0
 645 024c 43040000 		.4byte	0x443
 646 0250 2C       		.byte	0x2c
 647 0251 08       		.uleb128 0x8
 648 0252 37030000 		.4byte	.LASF53
 649 0256 08       		.byte	0x8
 650 0257 D4       		.byte	0xd4
 651 0258 72010000 		.4byte	0x172
 652 025c 30       		.byte	0x30
 653 025d 00       		.byte	0
 654 025e 0A       		.uleb128 0xa
 655 025f 08       		.byte	0x8
ARM GAS  /tmp/cc8vsY7w.s 			page 13


 656 0260 07       		.byte	0x7
 657 0261 61       		.byte	0x61
 658 0262 7F020000 		.4byte	0x27f
 659 0266 08       		.uleb128 0x8
 660 0267 A0000000 		.4byte	.LASF41
 661 026b 07       		.byte	0x7
 662 026c 62       		.byte	0x62
 663 026d 7F020000 		.4byte	0x27f
 664 0271 00       		.byte	0
 665 0272 08       		.uleb128 0x8
 666 0273 4E000000 		.4byte	.LASF42
 667 0277 07       		.byte	0x7
 668 0278 64       		.byte	0x64
 669 0279 7F020000 		.4byte	0x27f
 670 027d 04       		.byte	0x4
 671 027e 00       		.byte	0
 672 027f 0B       		.uleb128 0xb
 673 0280 04       		.byte	0x4
 674 0281 9E010000 		.4byte	0x19e
 675 0285 03       		.uleb128 0x3
 676 0286 B5030000 		.4byte	.LASF54
 677 028a 07       		.byte	0x7
 678 028b 66       		.byte	0x66
 679 028c 5E020000 		.4byte	0x25e
 680 0290 0A       		.uleb128 0xa
 681 0291 04       		.byte	0x4
 682 0292 07       		.byte	0x7
 683 0293 6B       		.byte	0x6b
 684 0294 A5020000 		.4byte	0x2a5
 685 0298 08       		.uleb128 0x8
 686 0299 A0000000 		.4byte	.LASF41
 687 029d 07       		.byte	0x7
 688 029e 6D       		.byte	0x6d
 689 029f 7F020000 		.4byte	0x27f
 690 02a3 00       		.byte	0
 691 02a4 00       		.byte	0
 692 02a5 03       		.uleb128 0x3
 693 02a6 28000000 		.4byte	.LASF55
 694 02aa 07       		.byte	0x7
 695 02ab 70       		.byte	0x70
 696 02ac 90020000 		.4byte	0x290
 697 02b0 03       		.uleb128 0x3
 698 02b1 CD000000 		.4byte	.LASF56
 699 02b5 09       		.byte	0x9
 700 02b6 E5       		.byte	0xe5
 701 02b7 BB020000 		.4byte	0x2bb
 702 02bb 0C       		.uleb128 0xc
 703 02bc 04       		.byte	0x4
 704 02bd 0D       		.uleb128 0xd
 705 02be E4030000 		.4byte	.LASF57
 706 02c2 24       		.byte	0x24
 707 02c3 09       		.byte	0x9
 708 02c4 0C01     		.2byte	0x10c
 709 02c6 39030000 		.4byte	0x339
 710 02ca 0E       		.uleb128 0xe
 711 02cb 723400   		.ascii	"r4\000"
 712 02ce 09       		.byte	0x9
ARM GAS  /tmp/cc8vsY7w.s 			page 14


 713 02cf 1F01     		.2byte	0x11f
 714 02d1 B0020000 		.4byte	0x2b0
 715 02d5 00       		.byte	0
 716 02d6 0E       		.uleb128 0xe
 717 02d7 723500   		.ascii	"r5\000"
 718 02da 09       		.byte	0x9
 719 02db 2001     		.2byte	0x120
 720 02dd B0020000 		.4byte	0x2b0
 721 02e1 04       		.byte	0x4
 722 02e2 0E       		.uleb128 0xe
 723 02e3 723600   		.ascii	"r6\000"
 724 02e6 09       		.byte	0x9
 725 02e7 2101     		.2byte	0x121
 726 02e9 B0020000 		.4byte	0x2b0
 727 02ed 08       		.byte	0x8
 728 02ee 0E       		.uleb128 0xe
 729 02ef 723700   		.ascii	"r7\000"
 730 02f2 09       		.byte	0x9
 731 02f3 2201     		.2byte	0x122
 732 02f5 B0020000 		.4byte	0x2b0
 733 02f9 0C       		.byte	0xc
 734 02fa 0E       		.uleb128 0xe
 735 02fb 723800   		.ascii	"r8\000"
 736 02fe 09       		.byte	0x9
 737 02ff 2301     		.2byte	0x123
 738 0301 B0020000 		.4byte	0x2b0
 739 0305 10       		.byte	0x10
 740 0306 0E       		.uleb128 0xe
 741 0307 723900   		.ascii	"r9\000"
 742 030a 09       		.byte	0x9
 743 030b 2401     		.2byte	0x124
 744 030d B0020000 		.4byte	0x2b0
 745 0311 14       		.byte	0x14
 746 0312 0E       		.uleb128 0xe
 747 0313 72313000 		.ascii	"r10\000"
 748 0317 09       		.byte	0x9
 749 0318 2501     		.2byte	0x125
 750 031a B0020000 		.4byte	0x2b0
 751 031e 18       		.byte	0x18
 752 031f 0E       		.uleb128 0xe
 753 0320 72313100 		.ascii	"r11\000"
 754 0324 09       		.byte	0x9
 755 0325 2601     		.2byte	0x126
 756 0327 B0020000 		.4byte	0x2b0
 757 032b 1C       		.byte	0x1c
 758 032c 0E       		.uleb128 0xe
 759 032d 6C7200   		.ascii	"lr\000"
 760 0330 09       		.byte	0x9
 761 0331 2701     		.2byte	0x127
 762 0333 B0020000 		.4byte	0x2b0
 763 0337 20       		.byte	0x20
 764 0338 00       		.byte	0
 765 0339 0D       		.uleb128 0xd
 766 033a 78010000 		.4byte	.LASF58
 767 033e 04       		.byte	0x4
 768 033f 09       		.byte	0x9
 769 0340 3101     		.2byte	0x131
ARM GAS  /tmp/cc8vsY7w.s 			page 15


 770 0342 54030000 		.4byte	0x354
 771 0346 0E       		.uleb128 0xe
 772 0347 72313300 		.ascii	"r13\000"
 773 034b 09       		.byte	0x9
 774 034c 3201     		.2byte	0x132
 775 034e 54030000 		.4byte	0x354
 776 0352 00       		.byte	0
 777 0353 00       		.byte	0
 778 0354 0B       		.uleb128 0xb
 779 0355 04       		.byte	0x4
 780 0356 BD020000 		.4byte	0x2bd
 781 035a 07       		.uleb128 0x7
 782 035b 60010000 		.4byte	.LASF59
 783 035f 10       		.byte	0x10
 784 0360 0A       		.byte	0xa
 785 0361 2C       		.byte	0x2c
 786 0362 8B030000 		.4byte	0x38b
 787 0366 08       		.uleb128 0x8
 788 0367 66010000 		.4byte	.LASF60
 789 036b 0A       		.byte	0xa
 790 036c 2D       		.byte	0x2d
 791 036d 85020000 		.4byte	0x285
 792 0371 00       		.byte	0
 793 0372 08       		.uleb128 0x8
 794 0373 CB040000 		.4byte	.LASF61
 795 0377 0A       		.byte	0xa
 796 0378 2F       		.byte	0x2f
 797 0379 7F020000 		.4byte	0x27f
 798 037d 08       		.byte	0x8
 799 037e 08       		.uleb128 0x8
 800 037f 3E000000 		.4byte	.LASF62
 801 0383 0A       		.byte	0xa
 802 0384 31       		.byte	0x31
 803 0385 8B030000 		.4byte	0x38b
 804 0389 0C       		.byte	0xc
 805 038a 00       		.byte	0
 806 038b 0B       		.uleb128 0xb
 807 038c 04       		.byte	0x4
 808 038d 5A030000 		.4byte	0x35a
 809 0391 03       		.uleb128 0x3
 810 0392 60010000 		.4byte	.LASF59
 811 0396 0A       		.byte	0xa
 812 0397 33       		.byte	0x33
 813 0398 5A030000 		.4byte	0x35a
 814 039c 03       		.uleb128 0x3
 815 039d 00000000 		.4byte	.LASF63
 816 03a1 0B       		.byte	0xb
 817 03a2 2C       		.byte	0x2c
 818 03a3 A7030000 		.4byte	0x3a7
 819 03a7 07       		.uleb128 0x7
 820 03a8 00000000 		.4byte	.LASF63
 821 03ac 10       		.byte	0x10
 822 03ad 0B       		.byte	0xb
 823 03ae 31       		.byte	0x31
 824 03af E4030000 		.4byte	0x3e4
 825 03b3 08       		.uleb128 0x8
 826 03b4 D2030000 		.4byte	.LASF64
ARM GAS  /tmp/cc8vsY7w.s 			page 16


 827 03b8 0B       		.byte	0xb
 828 03b9 32       		.byte	0x32
 829 03ba E4030000 		.4byte	0x3e4
 830 03be 00       		.byte	0
 831 03bf 08       		.uleb128 0x8
 832 03c0 42030000 		.4byte	.LASF65
 833 03c4 0B       		.byte	0xb
 834 03c5 35       		.byte	0x35
 835 03c6 7F020000 		.4byte	0x27f
 836 03ca 04       		.byte	0x4
 837 03cb 08       		.uleb128 0x8
 838 03cc A3040000 		.4byte	.LASF66
 839 03d0 0B       		.byte	0xb
 840 03d1 37       		.byte	0x37
 841 03d2 88010000 		.4byte	0x188
 842 03d6 08       		.byte	0x8
 843 03d7 08       		.uleb128 0x8
 844 03d8 30010000 		.4byte	.LASF67
 845 03dc 0B       		.byte	0xb
 846 03dd 3A       		.byte	0x3a
 847 03de 93010000 		.4byte	0x193
 848 03e2 0C       		.byte	0xc
 849 03e3 00       		.byte	0
 850 03e4 0B       		.uleb128 0xb
 851 03e5 04       		.byte	0x4
 852 03e6 9C030000 		.4byte	0x39c
 853 03ea 07       		.uleb128 0x7
 854 03eb 0E000000 		.4byte	.LASF68
 855 03ef 04       		.byte	0x4
 856 03f0 0B       		.byte	0xb
 857 03f1 41       		.byte	0x41
 858 03f2 03040000 		.4byte	0x403
 859 03f6 08       		.uleb128 0x8
 860 03f7 55000000 		.4byte	.LASF69
 861 03fb 0B       		.byte	0xb
 862 03fc 42       		.byte	0x42
 863 03fd E4030000 		.4byte	0x3e4
 864 0401 00       		.byte	0
 865 0402 00       		.byte	0
 866 0403 03       		.uleb128 0x3
 867 0404 0E000000 		.4byte	.LASF68
 868 0408 0B       		.byte	0xb
 869 0409 45       		.byte	0x45
 870 040a EA030000 		.4byte	0x3ea
 871 040e 0F       		.uleb128 0xf
 872 040f 04       		.byte	0x4
 873 0410 08       		.byte	0x8
 874 0411 96       		.byte	0x96
 875 0412 43040000 		.4byte	0x443
 876 0416 10       		.uleb128 0x10
 877 0417 DF040000 		.4byte	.LASF70
 878 041b 08       		.byte	0x8
 879 041c 9D       		.byte	0x9d
 880 041d 7D010000 		.4byte	0x17d
 881 0421 10       		.uleb128 0x10
 882 0422 64040000 		.4byte	.LASF71
 883 0426 08       		.byte	0x8
ARM GAS  /tmp/cc8vsY7w.s 			page 17


 884 0427 A4       		.byte	0xa4
 885 0428 7D010000 		.4byte	0x17d
 886 042c 10       		.uleb128 0x10
 887 042d 35040000 		.4byte	.LASF72
 888 0431 08       		.byte	0x8
 889 0432 AB       		.byte	0xab
 890 0433 BB020000 		.4byte	0x2bb
 891 0437 10       		.uleb128 0x10
 892 0438 86020000 		.4byte	.LASF73
 893 043c 08       		.byte	0x8
 894 043d B2       		.byte	0xb2
 895 043e 88010000 		.4byte	0x188
 896 0442 00       		.byte	0
 897 0443 0B       		.uleb128 0xb
 898 0444 04       		.byte	0x4
 899 0445 91030000 		.4byte	0x391
 900 0449 0B       		.uleb128 0xb
 901 044a 04       		.byte	0x4
 902 044b 97000000 		.4byte	0x97
 903 044f 11       		.uleb128 0x11
 904 0450 AD000000 		.4byte	0xad
 905 0454 0B       		.uleb128 0xb
 906 0455 04       		.byte	0x4
 907 0456 5A040000 		.4byte	0x45a
 908 045a 12       		.uleb128 0x12
 909 045b 26010000 		.4byte	0x126
 910 045f 13       		.uleb128 0x13
 911 0460 EB030000 		.4byte	.LASF75
 912 0464 01       		.byte	0x1
 913 0465 1D       		.byte	0x1d
 914 0466 00000000 		.4byte	.LFB56
 915 046a 18000000 		.4byte	.LFE56-.LFB56
 916 046e 01       		.uleb128 0x1
 917 046f 9C       		.byte	0x9c
 918 0470 86040000 		.4byte	0x486
 919 0474 14       		.uleb128 0x14
 920 0475 0A000000 		.4byte	.LVL0
 921 0479 58060000 		.4byte	0x658
 922 047d 15       		.uleb128 0x15
 923 047e 01       		.uleb128 0x1
 924 047f 50       		.byte	0x50
 925 0480 03       		.uleb128 0x3
 926 0481 0B       		.byte	0xb
 927 0482 01F6     		.2byte	0xf601
 928 0484 00       		.byte	0
 929 0485 00       		.byte	0
 930 0486 16       		.uleb128 0x16
 931 0487 94010000 		.4byte	.LASF92
 932 048b 01       		.byte	0x1
 933 048c 24       		.byte	0x24
 934 048d 89000000 		.4byte	0x89
 935 0491 00000000 		.4byte	.LFB57
 936 0495 66000000 		.4byte	.LFE57-.LFB57
 937 0499 01       		.uleb128 0x1
 938 049a 9C       		.byte	0x9c
 939 049b 16050000 		.4byte	0x516
 940 049f 17       		.uleb128 0x17
ARM GAS  /tmp/cc8vsY7w.s 			page 18


 941 04a0 84040000 		.4byte	.LASF74
 942 04a4 01       		.byte	0x1
 943 04a5 24       		.byte	0x24
 944 04a6 49040000 		.4byte	0x449
 945 04aa 00000000 		.4byte	.LLST0
 946 04ae 17       		.uleb128 0x17
 947 04af 8D020000 		.4byte	.LASF25
 948 04b3 01       		.byte	0x1
 949 04b4 24       		.byte	0x24
 950 04b5 97000000 		.4byte	0x97
 951 04b9 85000000 		.4byte	.LLST1
 952 04bd 18       		.uleb128 0x18
 953 04be 32000000 		.4byte	.LVL6
 954 04c2 6A060000 		.4byte	0x66a
 955 04c6 D4040000 		.4byte	0x4d4
 956 04ca 15       		.uleb128 0x15
 957 04cb 01       		.uleb128 0x1
 958 04cc 50       		.byte	0x50
 959 04cd 05       		.uleb128 0x5
 960 04ce 03       		.byte	0x3
 961 04cf 10000000 		.4byte	.LC1
 962 04d3 00       		.byte	0
 963 04d4 18       		.uleb128 0x18
 964 04d5 42000000 		.4byte	.LVL9
 965 04d9 6A060000 		.4byte	0x66a
 966 04dd EB040000 		.4byte	0x4eb
 967 04e1 15       		.uleb128 0x15
 968 04e2 01       		.uleb128 0x1
 969 04e3 50       		.byte	0x50
 970 04e4 05       		.uleb128 0x5
 971 04e5 03       		.byte	0x3
 972 04e6 00000000 		.4byte	.LC0
 973 04ea 00       		.byte	0
 974 04eb 18       		.uleb128 0x18
 975 04ec 52000000 		.4byte	.LVL12
 976 04f0 6A060000 		.4byte	0x66a
 977 04f4 02050000 		.4byte	0x502
 978 04f8 15       		.uleb128 0x15
 979 04f9 01       		.uleb128 0x1
 980 04fa 50       		.byte	0x50
 981 04fb 05       		.uleb128 0x5
 982 04fc 03       		.byte	0x3
 983 04fd 2C000000 		.4byte	.LC3
 984 0501 00       		.byte	0
 985 0502 14       		.uleb128 0x14
 986 0503 62000000 		.4byte	.LVL15
 987 0507 6A060000 		.4byte	0x66a
 988 050b 15       		.uleb128 0x15
 989 050c 01       		.uleb128 0x1
 990 050d 50       		.byte	0x50
 991 050e 05       		.uleb128 0x5
 992 050f 03       		.byte	0x3
 993 0510 20000000 		.4byte	.LC2
 994 0514 00       		.byte	0
 995 0515 00       		.byte	0
 996 0516 13       		.uleb128 0x13
 997 0517 95020000 		.4byte	.LASF76
ARM GAS  /tmp/cc8vsY7w.s 			page 19


 998 051b 01       		.byte	0x1
 999 051c 7E       		.byte	0x7e
 1000 051d 00000000 		.4byte	.LFB58
 1001 0521 04010000 		.4byte	.LFE58-.LFB58
 1002 0525 01       		.uleb128 0x1
 1003 0526 9C       		.byte	0x9c
 1004 0527 EB050000 		.4byte	0x5eb
 1005 052b 18       		.uleb128 0x18
 1006 052c 54000000 		.4byte	.LVL16
 1007 0530 6A060000 		.4byte	0x66a
 1008 0534 42050000 		.4byte	0x542
 1009 0538 15       		.uleb128 0x15
 1010 0539 01       		.uleb128 0x1
 1011 053a 50       		.byte	0x50
 1012 053b 05       		.uleb128 0x5
 1013 053c 03       		.byte	0x3
 1014 053d 5C000000 		.4byte	.LC7
 1015 0541 00       		.byte	0
 1016 0542 18       		.uleb128 0x18
 1017 0543 78000000 		.4byte	.LVL17
 1018 0547 6A060000 		.4byte	0x66a
 1019 054b 59050000 		.4byte	0x559
 1020 054f 15       		.uleb128 0x15
 1021 0550 01       		.uleb128 0x1
 1022 0551 50       		.byte	0x50
 1023 0552 05       		.uleb128 0x5
 1024 0553 03       		.byte	0x3
 1025 0554 64000000 		.4byte	.LC8
 1026 0558 00       		.byte	0
 1027 0559 19       		.uleb128 0x19
 1028 055a 96000000 		.4byte	.LVL18
 1029 055e 86040000 		.4byte	0x486
 1030 0562 18       		.uleb128 0x18
 1031 0563 AA000000 		.4byte	.LVL19
 1032 0567 7C060000 		.4byte	0x67c
 1033 056b 79050000 		.4byte	0x579
 1034 056f 15       		.uleb128 0x15
 1035 0570 01       		.uleb128 0x1
 1036 0571 50       		.byte	0x50
 1037 0572 05       		.uleb128 0x5
 1038 0573 03       		.byte	0x3
 1039 0574 00000000 		.4byte	.LANCHOR1
 1040 0578 00       		.byte	0
 1041 0579 18       		.uleb128 0x18
 1042 057a BA000000 		.4byte	.LVL20
 1043 057e 6A060000 		.4byte	0x66a
 1044 0582 90050000 		.4byte	0x590
 1045 0586 15       		.uleb128 0x15
 1046 0587 01       		.uleb128 0x1
 1047 0588 50       		.byte	0x50
 1048 0589 05       		.uleb128 0x5
 1049 058a 03       		.byte	0x3
 1050 058b 50000000 		.4byte	.LC6
 1051 058f 00       		.byte	0
 1052 0590 18       		.uleb128 0x18
 1053 0591 CA000000 		.4byte	.LVL21
 1054 0595 6A060000 		.4byte	0x66a
ARM GAS  /tmp/cc8vsY7w.s 			page 20


 1055 0599 A7050000 		.4byte	0x5a7
 1056 059d 15       		.uleb128 0x15
 1057 059e 01       		.uleb128 0x1
 1058 059f 50       		.byte	0x50
 1059 05a0 05       		.uleb128 0x5
 1060 05a1 03       		.byte	0x3
 1061 05a2 44000000 		.4byte	.LC5
 1062 05a6 00       		.byte	0
 1063 05a7 18       		.uleb128 0x18
 1064 05a8 DC000000 		.4byte	.LVL22
 1065 05ac 6A060000 		.4byte	0x66a
 1066 05b0 BE050000 		.4byte	0x5be
 1067 05b4 15       		.uleb128 0x15
 1068 05b5 01       		.uleb128 0x1
 1069 05b6 50       		.byte	0x50
 1070 05b7 05       		.uleb128 0x5
 1071 05b8 03       		.byte	0x3
 1072 05b9 3C000000 		.4byte	.LC4
 1073 05bd 00       		.byte	0
 1074 05be 18       		.uleb128 0x18
 1075 05bf EE000000 		.4byte	.LVL23
 1076 05c3 9A060000 		.4byte	0x69a
 1077 05c7 DB050000 		.4byte	0x5db
 1078 05cb 15       		.uleb128 0x15
 1079 05cc 01       		.uleb128 0x1
 1080 05cd 52       		.byte	0x52
 1081 05ce 02       		.uleb128 0x2
 1082 05cf 77       		.byte	0x77
 1083 05d0 00       		.sleb128 0
 1084 05d1 15       		.uleb128 0x15
 1085 05d2 01       		.uleb128 0x1
 1086 05d3 50       		.byte	0x50
 1087 05d4 05       		.uleb128 0x5
 1088 05d5 03       		.byte	0x3
 1089 05d6 00000000 		.4byte	.LANCHOR1
 1090 05da 00       		.byte	0
 1091 05db 14       		.uleb128 0x14
 1092 05dc 02010000 		.4byte	.LVL24
 1093 05e0 B7060000 		.4byte	0x6b7
 1094 05e4 15       		.uleb128 0x15
 1095 05e5 01       		.uleb128 0x1
 1096 05e6 51       		.byte	0x51
 1097 05e7 01       		.uleb128 0x1
 1098 05e8 30       		.byte	0x30
 1099 05e9 00       		.byte	0
 1100 05ea 00       		.byte	0
 1101 05eb 1A       		.uleb128 0x1a
 1102 05ec 6D040000 		.4byte	.LASF77
 1103 05f0 0C       		.byte	0xc
 1104 05f1 4B04     		.2byte	0x44b
 1105 05f3 BB020000 		.4byte	0x2bb
 1106 05f7 1A       		.uleb128 0x1a
 1107 05f8 1A000000 		.4byte	.LASF78
 1108 05fc 0C       		.byte	0xc
 1109 05fd 6E04     		.2byte	0x46e
 1110 05ff 38010000 		.4byte	0x138
 1111 0603 1A       		.uleb128 0x1a
ARM GAS  /tmp/cc8vsY7w.s 			page 21


 1112 0604 26010000 		.4byte	.LASF79
 1113 0608 0C       		.byte	0xc
 1114 0609 1905     		.2byte	0x519
 1115 060b 2D010000 		.4byte	0x12d
 1116 060f 1A       		.uleb128 0x1a
 1117 0610 B1040000 		.4byte	.LASF80
 1118 0614 0D       		.byte	0xd
 1119 0615 0706     		.2byte	0x607
 1120 0617 4F040000 		.4byte	0x44f
 1121 061b 1B       		.uleb128 0x1b
 1122 061c 97000000 		.4byte	0x97
 1123 0620 2B060000 		.4byte	0x62b
 1124 0624 1C       		.uleb128 0x1c
 1125 0625 43010000 		.4byte	0x143
 1126 0629 FF       		.byte	0xff
 1127 062a 00       		.byte	0
 1128 062b 1D       		.uleb128 0x1d
 1129 062c D4020000 		.4byte	.LASF81
 1130 0630 01       		.byte	0x1
 1131 0631 0D       		.byte	0xd
 1132 0632 1B060000 		.4byte	0x61b
 1133 0636 05       		.uleb128 0x5
 1134 0637 03       		.byte	0x3
 1135 0638 00000000 		.4byte	modbusSerialBuffer
 1136 063c 1D       		.uleb128 0x1d
 1137 063d BB000000 		.4byte	.LASF82
 1138 0641 01       		.byte	0x1
 1139 0642 0F       		.byte	0xf
 1140 0643 1B010000 		.4byte	0x11b
 1141 0647 05       		.uleb128 0x5
 1142 0648 03       		.byte	0x3
 1143 0649 00000000 		.4byte	modbusSerialState
 1144 064d 1E       		.uleb128 0x1e
 1145 064e 5D000000 		.4byte	.LASF83
 1146 0652 01       		.byte	0x1
 1147 0653 12       		.byte	0x12
 1148 0654 03040000 		.4byte	0x403
 1149 0658 1F       		.uleb128 0x1f
 1150 0659 79040000 		.4byte	.LASF84
 1151 065d 0C       		.byte	0xc
 1152 065e C201     		.2byte	0x1c2
 1153 0660 6A060000 		.4byte	0x66a
 1154 0664 20       		.uleb128 0x20
 1155 0665 38010000 		.4byte	0x138
 1156 0669 00       		.byte	0
 1157 066a 21       		.uleb128 0x21
 1158 066b EC040000 		.4byte	.LASF85
 1159 066f 0E       		.byte	0xe
 1160 0670 2A       		.byte	0x2a
 1161 0671 7C060000 		.4byte	0x67c
 1162 0675 20       		.uleb128 0x20
 1163 0676 54040000 		.4byte	0x454
 1164 067a 22       		.uleb128 0x22
 1165 067b 00       		.byte	0
 1166 067c 1F       		.uleb128 0x1f
 1167 067d F6030000 		.4byte	.LASF86
 1168 0681 0C       		.byte	0xc
ARM GAS  /tmp/cc8vsY7w.s 			page 22


 1169 0682 1A02     		.2byte	0x21a
 1170 0684 93060000 		.4byte	0x693
 1171 0688 20       		.uleb128 0x20
 1172 0689 93060000 		.4byte	0x693
 1173 068d 20       		.uleb128 0x20
 1174 068e 89000000 		.4byte	0x89
 1175 0692 00       		.byte	0
 1176 0693 0B       		.uleb128 0xb
 1177 0694 04       		.byte	0x4
 1178 0695 99060000 		.4byte	0x699
 1179 0699 23       		.uleb128 0x23
 1180 069a 24       		.uleb128 0x24
 1181 069b A7000000 		.4byte	.LASF87
 1182 069f BB020000 		.4byte	0x2bb
 1183 06a3 B7060000 		.4byte	0x6b7
 1184 06a7 20       		.uleb128 0x20
 1185 06a8 BB020000 		.4byte	0x2bb
 1186 06ac 20       		.uleb128 0x20
 1187 06ad 93060000 		.4byte	0x693
 1188 06b1 20       		.uleb128 0x20
 1189 06b2 43010000 		.4byte	0x143
 1190 06b6 00       		.byte	0
 1191 06b7 21       		.uleb128 0x21
 1192 06b8 8F040000 		.4byte	.LASF88
 1193 06bc 0B       		.byte	0xb
 1194 06bd B9       		.byte	0xb9
 1195 06be CD060000 		.4byte	0x6cd
 1196 06c2 20       		.uleb128 0x20
 1197 06c3 CD060000 		.4byte	0x6cd
 1198 06c7 20       		.uleb128 0x20
 1199 06c8 93010000 		.4byte	0x193
 1200 06cc 00       		.byte	0
 1201 06cd 0B       		.uleb128 0xb
 1202 06ce 04       		.byte	0x4
 1203 06cf 03040000 		.4byte	0x403
 1204 06d3 00       		.byte	0
 1205              		.section	.debug_abbrev,"",%progbits
 1206              	.Ldebug_abbrev0:
 1207 0000 01       		.uleb128 0x1
 1208 0001 11       		.uleb128 0x11
 1209 0002 01       		.byte	0x1
 1210 0003 25       		.uleb128 0x25
 1211 0004 0E       		.uleb128 0xe
 1212 0005 13       		.uleb128 0x13
 1213 0006 0B       		.uleb128 0xb
 1214 0007 03       		.uleb128 0x3
 1215 0008 0E       		.uleb128 0xe
 1216 0009 1B       		.uleb128 0x1b
 1217 000a 0E       		.uleb128 0xe
 1218 000b 55       		.uleb128 0x55
 1219 000c 17       		.uleb128 0x17
 1220 000d 11       		.uleb128 0x11
 1221 000e 01       		.uleb128 0x1
 1222 000f 10       		.uleb128 0x10
 1223 0010 17       		.uleb128 0x17
 1224 0011 00       		.byte	0
 1225 0012 00       		.byte	0
ARM GAS  /tmp/cc8vsY7w.s 			page 23


 1226 0013 02       		.uleb128 0x2
 1227 0014 24       		.uleb128 0x24
 1228 0015 00       		.byte	0
 1229 0016 0B       		.uleb128 0xb
 1230 0017 0B       		.uleb128 0xb
 1231 0018 3E       		.uleb128 0x3e
 1232 0019 0B       		.uleb128 0xb
 1233 001a 03       		.uleb128 0x3
 1234 001b 0E       		.uleb128 0xe
 1235 001c 00       		.byte	0
 1236 001d 00       		.byte	0
 1237 001e 03       		.uleb128 0x3
 1238 001f 16       		.uleb128 0x16
 1239 0020 00       		.byte	0
 1240 0021 03       		.uleb128 0x3
 1241 0022 0E       		.uleb128 0xe
 1242 0023 3A       		.uleb128 0x3a
 1243 0024 0B       		.uleb128 0xb
 1244 0025 3B       		.uleb128 0x3b
 1245 0026 0B       		.uleb128 0xb
 1246 0027 49       		.uleb128 0x49
 1247 0028 13       		.uleb128 0x13
 1248 0029 00       		.byte	0
 1249 002a 00       		.byte	0
 1250 002b 04       		.uleb128 0x4
 1251 002c 24       		.uleb128 0x24
 1252 002d 00       		.byte	0
 1253 002e 0B       		.uleb128 0xb
 1254 002f 0B       		.uleb128 0xb
 1255 0030 3E       		.uleb128 0x3e
 1256 0031 0B       		.uleb128 0xb
 1257 0032 03       		.uleb128 0x3
 1258 0033 08       		.uleb128 0x8
 1259 0034 00       		.byte	0
 1260 0035 00       		.byte	0
 1261 0036 05       		.uleb128 0x5
 1262 0037 04       		.uleb128 0x4
 1263 0038 01       		.byte	0x1
 1264 0039 0B       		.uleb128 0xb
 1265 003a 0B       		.uleb128 0xb
 1266 003b 3A       		.uleb128 0x3a
 1267 003c 0B       		.uleb128 0xb
 1268 003d 3B       		.uleb128 0x3b
 1269 003e 0B       		.uleb128 0xb
 1270 003f 01       		.uleb128 0x1
 1271 0040 13       		.uleb128 0x13
 1272 0041 00       		.byte	0
 1273 0042 00       		.byte	0
 1274 0043 06       		.uleb128 0x6
 1275 0044 28       		.uleb128 0x28
 1276 0045 00       		.byte	0
 1277 0046 03       		.uleb128 0x3
 1278 0047 0E       		.uleb128 0xe
 1279 0048 1C       		.uleb128 0x1c
 1280 0049 0D       		.uleb128 0xd
 1281 004a 00       		.byte	0
 1282 004b 00       		.byte	0
ARM GAS  /tmp/cc8vsY7w.s 			page 24


 1283 004c 07       		.uleb128 0x7
 1284 004d 13       		.uleb128 0x13
 1285 004e 01       		.byte	0x1
 1286 004f 03       		.uleb128 0x3
 1287 0050 0E       		.uleb128 0xe
 1288 0051 0B       		.uleb128 0xb
 1289 0052 0B       		.uleb128 0xb
 1290 0053 3A       		.uleb128 0x3a
 1291 0054 0B       		.uleb128 0xb
 1292 0055 3B       		.uleb128 0x3b
 1293 0056 0B       		.uleb128 0xb
 1294 0057 01       		.uleb128 0x1
 1295 0058 13       		.uleb128 0x13
 1296 0059 00       		.byte	0
 1297 005a 00       		.byte	0
 1298 005b 08       		.uleb128 0x8
 1299 005c 0D       		.uleb128 0xd
 1300 005d 00       		.byte	0
 1301 005e 03       		.uleb128 0x3
 1302 005f 0E       		.uleb128 0xe
 1303 0060 3A       		.uleb128 0x3a
 1304 0061 0B       		.uleb128 0xb
 1305 0062 3B       		.uleb128 0x3b
 1306 0063 0B       		.uleb128 0xb
 1307 0064 49       		.uleb128 0x49
 1308 0065 13       		.uleb128 0x13
 1309 0066 38       		.uleb128 0x38
 1310 0067 0B       		.uleb128 0xb
 1311 0068 00       		.byte	0
 1312 0069 00       		.byte	0
 1313 006a 09       		.uleb128 0x9
 1314 006b 0D       		.uleb128 0xd
 1315 006c 00       		.byte	0
 1316 006d 03       		.uleb128 0x3
 1317 006e 08       		.uleb128 0x8
 1318 006f 3A       		.uleb128 0x3a
 1319 0070 0B       		.uleb128 0xb
 1320 0071 3B       		.uleb128 0x3b
 1321 0072 0B       		.uleb128 0xb
 1322 0073 49       		.uleb128 0x49
 1323 0074 13       		.uleb128 0x13
 1324 0075 38       		.uleb128 0x38
 1325 0076 0B       		.uleb128 0xb
 1326 0077 00       		.byte	0
 1327 0078 00       		.byte	0
 1328 0079 0A       		.uleb128 0xa
 1329 007a 13       		.uleb128 0x13
 1330 007b 01       		.byte	0x1
 1331 007c 0B       		.uleb128 0xb
 1332 007d 0B       		.uleb128 0xb
 1333 007e 3A       		.uleb128 0x3a
 1334 007f 0B       		.uleb128 0xb
 1335 0080 3B       		.uleb128 0x3b
 1336 0081 0B       		.uleb128 0xb
 1337 0082 01       		.uleb128 0x1
 1338 0083 13       		.uleb128 0x13
 1339 0084 00       		.byte	0
ARM GAS  /tmp/cc8vsY7w.s 			page 25


 1340 0085 00       		.byte	0
 1341 0086 0B       		.uleb128 0xb
 1342 0087 0F       		.uleb128 0xf
 1343 0088 00       		.byte	0
 1344 0089 0B       		.uleb128 0xb
 1345 008a 0B       		.uleb128 0xb
 1346 008b 49       		.uleb128 0x49
 1347 008c 13       		.uleb128 0x13
 1348 008d 00       		.byte	0
 1349 008e 00       		.byte	0
 1350 008f 0C       		.uleb128 0xc
 1351 0090 0F       		.uleb128 0xf
 1352 0091 00       		.byte	0
 1353 0092 0B       		.uleb128 0xb
 1354 0093 0B       		.uleb128 0xb
 1355 0094 00       		.byte	0
 1356 0095 00       		.byte	0
 1357 0096 0D       		.uleb128 0xd
 1358 0097 13       		.uleb128 0x13
 1359 0098 01       		.byte	0x1
 1360 0099 03       		.uleb128 0x3
 1361 009a 0E       		.uleb128 0xe
 1362 009b 0B       		.uleb128 0xb
 1363 009c 0B       		.uleb128 0xb
 1364 009d 3A       		.uleb128 0x3a
 1365 009e 0B       		.uleb128 0xb
 1366 009f 3B       		.uleb128 0x3b
 1367 00a0 05       		.uleb128 0x5
 1368 00a1 01       		.uleb128 0x1
 1369 00a2 13       		.uleb128 0x13
 1370 00a3 00       		.byte	0
 1371 00a4 00       		.byte	0
 1372 00a5 0E       		.uleb128 0xe
 1373 00a6 0D       		.uleb128 0xd
 1374 00a7 00       		.byte	0
 1375 00a8 03       		.uleb128 0x3
 1376 00a9 08       		.uleb128 0x8
 1377 00aa 3A       		.uleb128 0x3a
 1378 00ab 0B       		.uleb128 0xb
 1379 00ac 3B       		.uleb128 0x3b
 1380 00ad 05       		.uleb128 0x5
 1381 00ae 49       		.uleb128 0x49
 1382 00af 13       		.uleb128 0x13
 1383 00b0 38       		.uleb128 0x38
 1384 00b1 0B       		.uleb128 0xb
 1385 00b2 00       		.byte	0
 1386 00b3 00       		.byte	0
 1387 00b4 0F       		.uleb128 0xf
 1388 00b5 17       		.uleb128 0x17
 1389 00b6 01       		.byte	0x1
 1390 00b7 0B       		.uleb128 0xb
 1391 00b8 0B       		.uleb128 0xb
 1392 00b9 3A       		.uleb128 0x3a
 1393 00ba 0B       		.uleb128 0xb
 1394 00bb 3B       		.uleb128 0x3b
 1395 00bc 0B       		.uleb128 0xb
 1396 00bd 01       		.uleb128 0x1
ARM GAS  /tmp/cc8vsY7w.s 			page 26


 1397 00be 13       		.uleb128 0x13
 1398 00bf 00       		.byte	0
 1399 00c0 00       		.byte	0
 1400 00c1 10       		.uleb128 0x10
 1401 00c2 0D       		.uleb128 0xd
 1402 00c3 00       		.byte	0
 1403 00c4 03       		.uleb128 0x3
 1404 00c5 0E       		.uleb128 0xe
 1405 00c6 3A       		.uleb128 0x3a
 1406 00c7 0B       		.uleb128 0xb
 1407 00c8 3B       		.uleb128 0x3b
 1408 00c9 0B       		.uleb128 0xb
 1409 00ca 49       		.uleb128 0x49
 1410 00cb 13       		.uleb128 0x13
 1411 00cc 00       		.byte	0
 1412 00cd 00       		.byte	0
 1413 00ce 11       		.uleb128 0x11
 1414 00cf 35       		.uleb128 0x35
 1415 00d0 00       		.byte	0
 1416 00d1 49       		.uleb128 0x49
 1417 00d2 13       		.uleb128 0x13
 1418 00d3 00       		.byte	0
 1419 00d4 00       		.byte	0
 1420 00d5 12       		.uleb128 0x12
 1421 00d6 26       		.uleb128 0x26
 1422 00d7 00       		.byte	0
 1423 00d8 49       		.uleb128 0x49
 1424 00d9 13       		.uleb128 0x13
 1425 00da 00       		.byte	0
 1426 00db 00       		.byte	0
 1427 00dc 13       		.uleb128 0x13
 1428 00dd 2E       		.uleb128 0x2e
 1429 00de 01       		.byte	0x1
 1430 00df 3F       		.uleb128 0x3f
 1431 00e0 19       		.uleb128 0x19
 1432 00e1 03       		.uleb128 0x3
 1433 00e2 0E       		.uleb128 0xe
 1434 00e3 3A       		.uleb128 0x3a
 1435 00e4 0B       		.uleb128 0xb
 1436 00e5 3B       		.uleb128 0x3b
 1437 00e6 0B       		.uleb128 0xb
 1438 00e7 27       		.uleb128 0x27
 1439 00e8 19       		.uleb128 0x19
 1440 00e9 11       		.uleb128 0x11
 1441 00ea 01       		.uleb128 0x1
 1442 00eb 12       		.uleb128 0x12
 1443 00ec 06       		.uleb128 0x6
 1444 00ed 40       		.uleb128 0x40
 1445 00ee 18       		.uleb128 0x18
 1446 00ef 9742     		.uleb128 0x2117
 1447 00f1 19       		.uleb128 0x19
 1448 00f2 01       		.uleb128 0x1
 1449 00f3 13       		.uleb128 0x13
 1450 00f4 00       		.byte	0
 1451 00f5 00       		.byte	0
 1452 00f6 14       		.uleb128 0x14
 1453 00f7 898201   		.uleb128 0x4109
ARM GAS  /tmp/cc8vsY7w.s 			page 27


 1454 00fa 01       		.byte	0x1
 1455 00fb 11       		.uleb128 0x11
 1456 00fc 01       		.uleb128 0x1
 1457 00fd 31       		.uleb128 0x31
 1458 00fe 13       		.uleb128 0x13
 1459 00ff 00       		.byte	0
 1460 0100 00       		.byte	0
 1461 0101 15       		.uleb128 0x15
 1462 0102 8A8201   		.uleb128 0x410a
 1463 0105 00       		.byte	0
 1464 0106 02       		.uleb128 0x2
 1465 0107 18       		.uleb128 0x18
 1466 0108 9142     		.uleb128 0x2111
 1467 010a 18       		.uleb128 0x18
 1468 010b 00       		.byte	0
 1469 010c 00       		.byte	0
 1470 010d 16       		.uleb128 0x16
 1471 010e 2E       		.uleb128 0x2e
 1472 010f 01       		.byte	0x1
 1473 0110 3F       		.uleb128 0x3f
 1474 0111 19       		.uleb128 0x19
 1475 0112 03       		.uleb128 0x3
 1476 0113 0E       		.uleb128 0xe
 1477 0114 3A       		.uleb128 0x3a
 1478 0115 0B       		.uleb128 0xb
 1479 0116 3B       		.uleb128 0x3b
 1480 0117 0B       		.uleb128 0xb
 1481 0118 27       		.uleb128 0x27
 1482 0119 19       		.uleb128 0x19
 1483 011a 49       		.uleb128 0x49
 1484 011b 13       		.uleb128 0x13
 1485 011c 11       		.uleb128 0x11
 1486 011d 01       		.uleb128 0x1
 1487 011e 12       		.uleb128 0x12
 1488 011f 06       		.uleb128 0x6
 1489 0120 40       		.uleb128 0x40
 1490 0121 18       		.uleb128 0x18
 1491 0122 9742     		.uleb128 0x2117
 1492 0124 19       		.uleb128 0x19
 1493 0125 01       		.uleb128 0x1
 1494 0126 13       		.uleb128 0x13
 1495 0127 00       		.byte	0
 1496 0128 00       		.byte	0
 1497 0129 17       		.uleb128 0x17
 1498 012a 05       		.uleb128 0x5
 1499 012b 00       		.byte	0
 1500 012c 03       		.uleb128 0x3
 1501 012d 0E       		.uleb128 0xe
 1502 012e 3A       		.uleb128 0x3a
 1503 012f 0B       		.uleb128 0xb
 1504 0130 3B       		.uleb128 0x3b
 1505 0131 0B       		.uleb128 0xb
 1506 0132 49       		.uleb128 0x49
 1507 0133 13       		.uleb128 0x13
 1508 0134 02       		.uleb128 0x2
 1509 0135 17       		.uleb128 0x17
 1510 0136 00       		.byte	0
ARM GAS  /tmp/cc8vsY7w.s 			page 28


 1511 0137 00       		.byte	0
 1512 0138 18       		.uleb128 0x18
 1513 0139 898201   		.uleb128 0x4109
 1514 013c 01       		.byte	0x1
 1515 013d 11       		.uleb128 0x11
 1516 013e 01       		.uleb128 0x1
 1517 013f 31       		.uleb128 0x31
 1518 0140 13       		.uleb128 0x13
 1519 0141 01       		.uleb128 0x1
 1520 0142 13       		.uleb128 0x13
 1521 0143 00       		.byte	0
 1522 0144 00       		.byte	0
 1523 0145 19       		.uleb128 0x19
 1524 0146 898201   		.uleb128 0x4109
 1525 0149 00       		.byte	0
 1526 014a 11       		.uleb128 0x11
 1527 014b 01       		.uleb128 0x1
 1528 014c 31       		.uleb128 0x31
 1529 014d 13       		.uleb128 0x13
 1530 014e 00       		.byte	0
 1531 014f 00       		.byte	0
 1532 0150 1A       		.uleb128 0x1a
 1533 0151 34       		.uleb128 0x34
 1534 0152 00       		.byte	0
 1535 0153 03       		.uleb128 0x3
 1536 0154 0E       		.uleb128 0xe
 1537 0155 3A       		.uleb128 0x3a
 1538 0156 0B       		.uleb128 0xb
 1539 0157 3B       		.uleb128 0x3b
 1540 0158 05       		.uleb128 0x5
 1541 0159 49       		.uleb128 0x49
 1542 015a 13       		.uleb128 0x13
 1543 015b 3F       		.uleb128 0x3f
 1544 015c 19       		.uleb128 0x19
 1545 015d 3C       		.uleb128 0x3c
 1546 015e 19       		.uleb128 0x19
 1547 015f 00       		.byte	0
 1548 0160 00       		.byte	0
 1549 0161 1B       		.uleb128 0x1b
 1550 0162 01       		.uleb128 0x1
 1551 0163 01       		.byte	0x1
 1552 0164 49       		.uleb128 0x49
 1553 0165 13       		.uleb128 0x13
 1554 0166 01       		.uleb128 0x1
 1555 0167 13       		.uleb128 0x13
 1556 0168 00       		.byte	0
 1557 0169 00       		.byte	0
 1558 016a 1C       		.uleb128 0x1c
 1559 016b 21       		.uleb128 0x21
 1560 016c 00       		.byte	0
 1561 016d 49       		.uleb128 0x49
 1562 016e 13       		.uleb128 0x13
 1563 016f 2F       		.uleb128 0x2f
 1564 0170 0B       		.uleb128 0xb
 1565 0171 00       		.byte	0
 1566 0172 00       		.byte	0
 1567 0173 1D       		.uleb128 0x1d
ARM GAS  /tmp/cc8vsY7w.s 			page 29


 1568 0174 34       		.uleb128 0x34
 1569 0175 00       		.byte	0
 1570 0176 03       		.uleb128 0x3
 1571 0177 0E       		.uleb128 0xe
 1572 0178 3A       		.uleb128 0x3a
 1573 0179 0B       		.uleb128 0xb
 1574 017a 3B       		.uleb128 0x3b
 1575 017b 0B       		.uleb128 0xb
 1576 017c 49       		.uleb128 0x49
 1577 017d 13       		.uleb128 0x13
 1578 017e 3F       		.uleb128 0x3f
 1579 017f 19       		.uleb128 0x19
 1580 0180 02       		.uleb128 0x2
 1581 0181 18       		.uleb128 0x18
 1582 0182 00       		.byte	0
 1583 0183 00       		.byte	0
 1584 0184 1E       		.uleb128 0x1e
 1585 0185 34       		.uleb128 0x34
 1586 0186 00       		.byte	0
 1587 0187 03       		.uleb128 0x3
 1588 0188 0E       		.uleb128 0xe
 1589 0189 3A       		.uleb128 0x3a
 1590 018a 0B       		.uleb128 0xb
 1591 018b 3B       		.uleb128 0x3b
 1592 018c 0B       		.uleb128 0xb
 1593 018d 49       		.uleb128 0x49
 1594 018e 13       		.uleb128 0x13
 1595 018f 3F       		.uleb128 0x3f
 1596 0190 19       		.uleb128 0x19
 1597 0191 3C       		.uleb128 0x3c
 1598 0192 19       		.uleb128 0x19
 1599 0193 00       		.byte	0
 1600 0194 00       		.byte	0
 1601 0195 1F       		.uleb128 0x1f
 1602 0196 2E       		.uleb128 0x2e
 1603 0197 01       		.byte	0x1
 1604 0198 3F       		.uleb128 0x3f
 1605 0199 19       		.uleb128 0x19
 1606 019a 03       		.uleb128 0x3
 1607 019b 0E       		.uleb128 0xe
 1608 019c 3A       		.uleb128 0x3a
 1609 019d 0B       		.uleb128 0xb
 1610 019e 3B       		.uleb128 0x3b
 1611 019f 05       		.uleb128 0x5
 1612 01a0 27       		.uleb128 0x27
 1613 01a1 19       		.uleb128 0x19
 1614 01a2 3C       		.uleb128 0x3c
 1615 01a3 19       		.uleb128 0x19
 1616 01a4 01       		.uleb128 0x1
 1617 01a5 13       		.uleb128 0x13
 1618 01a6 00       		.byte	0
 1619 01a7 00       		.byte	0
 1620 01a8 20       		.uleb128 0x20
 1621 01a9 05       		.uleb128 0x5
 1622 01aa 00       		.byte	0
 1623 01ab 49       		.uleb128 0x49
 1624 01ac 13       		.uleb128 0x13
ARM GAS  /tmp/cc8vsY7w.s 			page 30


 1625 01ad 00       		.byte	0
 1626 01ae 00       		.byte	0
 1627 01af 21       		.uleb128 0x21
 1628 01b0 2E       		.uleb128 0x2e
 1629 01b1 01       		.byte	0x1
 1630 01b2 3F       		.uleb128 0x3f
 1631 01b3 19       		.uleb128 0x19
 1632 01b4 03       		.uleb128 0x3
 1633 01b5 0E       		.uleb128 0xe
 1634 01b6 3A       		.uleb128 0x3a
 1635 01b7 0B       		.uleb128 0xb
 1636 01b8 3B       		.uleb128 0x3b
 1637 01b9 0B       		.uleb128 0xb
 1638 01ba 27       		.uleb128 0x27
 1639 01bb 19       		.uleb128 0x19
 1640 01bc 3C       		.uleb128 0x3c
 1641 01bd 19       		.uleb128 0x19
 1642 01be 01       		.uleb128 0x1
 1643 01bf 13       		.uleb128 0x13
 1644 01c0 00       		.byte	0
 1645 01c1 00       		.byte	0
 1646 01c2 22       		.uleb128 0x22
 1647 01c3 18       		.uleb128 0x18
 1648 01c4 00       		.byte	0
 1649 01c5 00       		.byte	0
 1650 01c6 00       		.byte	0
 1651 01c7 23       		.uleb128 0x23
 1652 01c8 26       		.uleb128 0x26
 1653 01c9 00       		.byte	0
 1654 01ca 00       		.byte	0
 1655 01cb 00       		.byte	0
 1656 01cc 24       		.uleb128 0x24
 1657 01cd 2E       		.uleb128 0x2e
 1658 01ce 01       		.byte	0x1
 1659 01cf 3F       		.uleb128 0x3f
 1660 01d0 19       		.uleb128 0x19
 1661 01d1 03       		.uleb128 0x3
 1662 01d2 0E       		.uleb128 0xe
 1663 01d3 27       		.uleb128 0x27
 1664 01d4 19       		.uleb128 0x19
 1665 01d5 49       		.uleb128 0x49
 1666 01d6 13       		.uleb128 0x13
 1667 01d7 34       		.uleb128 0x34
 1668 01d8 19       		.uleb128 0x19
 1669 01d9 3C       		.uleb128 0x3c
 1670 01da 19       		.uleb128 0x19
 1671 01db 01       		.uleb128 0x1
 1672 01dc 13       		.uleb128 0x13
 1673 01dd 00       		.byte	0
 1674 01de 00       		.byte	0
 1675 01df 00       		.byte	0
 1676              		.section	.debug_loc,"",%progbits
 1677              	.Ldebug_loc0:
 1678              	.LLST0:
 1679 0000 00000000 		.4byte	.LVL1
 1680 0004 24000000 		.4byte	.LVL3
 1681 0008 0100     		.2byte	0x1
ARM GAS  /tmp/cc8vsY7w.s 			page 31


 1682 000a 50       		.byte	0x50
 1683 000b 24000000 		.4byte	.LVL3
 1684 000f 26000000 		.4byte	.LVL4
 1685 0013 0400     		.2byte	0x4
 1686 0015 F3       		.byte	0xf3
 1687 0016 01       		.uleb128 0x1
 1688 0017 50       		.byte	0x50
 1689 0018 9F       		.byte	0x9f
 1690 0019 26000000 		.4byte	.LVL4
 1691 001d 2A000000 		.4byte	.LVL5
 1692 0021 0100     		.2byte	0x1
 1693 0023 50       		.byte	0x50
 1694 0024 2A000000 		.4byte	.LVL5
 1695 0028 36000000 		.4byte	.LVL7
 1696 002c 0400     		.2byte	0x4
 1697 002e F3       		.byte	0xf3
 1698 002f 01       		.uleb128 0x1
 1699 0030 50       		.byte	0x50
 1700 0031 9F       		.byte	0x9f
 1701 0032 36000000 		.4byte	.LVL7
 1702 0036 3A000000 		.4byte	.LVL8
 1703 003a 0100     		.2byte	0x1
 1704 003c 50       		.byte	0x50
 1705 003d 3A000000 		.4byte	.LVL8
 1706 0041 46000000 		.4byte	.LVL10
 1707 0045 0400     		.2byte	0x4
 1708 0047 F3       		.byte	0xf3
 1709 0048 01       		.uleb128 0x1
 1710 0049 50       		.byte	0x50
 1711 004a 9F       		.byte	0x9f
 1712 004b 46000000 		.4byte	.LVL10
 1713 004f 4A000000 		.4byte	.LVL11
 1714 0053 0100     		.2byte	0x1
 1715 0055 50       		.byte	0x50
 1716 0056 4A000000 		.4byte	.LVL11
 1717 005a 56000000 		.4byte	.LVL13
 1718 005e 0400     		.2byte	0x4
 1719 0060 F3       		.byte	0xf3
 1720 0061 01       		.uleb128 0x1
 1721 0062 50       		.byte	0x50
 1722 0063 9F       		.byte	0x9f
 1723 0064 56000000 		.4byte	.LVL13
 1724 0068 5A000000 		.4byte	.LVL14
 1725 006c 0100     		.2byte	0x1
 1726 006e 50       		.byte	0x50
 1727 006f 5A000000 		.4byte	.LVL14
 1728 0073 66000000 		.4byte	.LFE57
 1729 0077 0400     		.2byte	0x4
 1730 0079 F3       		.byte	0xf3
 1731 007a 01       		.uleb128 0x1
 1732 007b 50       		.byte	0x50
 1733 007c 9F       		.byte	0x9f
 1734 007d 00000000 		.4byte	0
 1735 0081 00000000 		.4byte	0
 1736              	.LLST1:
 1737 0085 00000000 		.4byte	.LVL1
 1738 0089 14000000 		.4byte	.LVL2
ARM GAS  /tmp/cc8vsY7w.s 			page 32


 1739 008d 0100     		.2byte	0x1
 1740 008f 51       		.byte	0x51
 1741 0090 14000000 		.4byte	.LVL2
 1742 0094 26000000 		.4byte	.LVL4
 1743 0098 0400     		.2byte	0x4
 1744 009a F3       		.byte	0xf3
 1745 009b 01       		.uleb128 0x1
 1746 009c 51       		.byte	0x51
 1747 009d 9F       		.byte	0x9f
 1748 009e 26000000 		.4byte	.LVL4
 1749 00a2 31000000 		.4byte	.LVL6-1
 1750 00a6 0100     		.2byte	0x1
 1751 00a8 51       		.byte	0x51
 1752 00a9 31000000 		.4byte	.LVL6-1
 1753 00ad 36000000 		.4byte	.LVL7
 1754 00b1 0400     		.2byte	0x4
 1755 00b3 F3       		.byte	0xf3
 1756 00b4 01       		.uleb128 0x1
 1757 00b5 51       		.byte	0x51
 1758 00b6 9F       		.byte	0x9f
 1759 00b7 36000000 		.4byte	.LVL7
 1760 00bb 41000000 		.4byte	.LVL9-1
 1761 00bf 0100     		.2byte	0x1
 1762 00c1 51       		.byte	0x51
 1763 00c2 41000000 		.4byte	.LVL9-1
 1764 00c6 66000000 		.4byte	.LFE57
 1765 00ca 0400     		.2byte	0x4
 1766 00cc F3       		.byte	0xf3
 1767 00cd 01       		.uleb128 0x1
 1768 00ce 51       		.byte	0x51
 1769 00cf 9F       		.byte	0x9f
 1770 00d0 00000000 		.4byte	0
 1771 00d4 00000000 		.4byte	0
 1772              		.section	.debug_aranges,"",%progbits
 1773 0000 2C000000 		.4byte	0x2c
 1774 0004 0200     		.2byte	0x2
 1775 0006 00000000 		.4byte	.Ldebug_info0
 1776 000a 04       		.byte	0x4
 1777 000b 00       		.byte	0
 1778 000c 0000     		.2byte	0
 1779 000e 0000     		.2byte	0
 1780 0010 00000000 		.4byte	.LFB56
 1781 0014 18000000 		.4byte	.LFE56-.LFB56
 1782 0018 00000000 		.4byte	.LFB57
 1783 001c 66000000 		.4byte	.LFE57-.LFB57
 1784 0020 00000000 		.4byte	.LFB58
 1785 0024 04010000 		.4byte	.LFE58-.LFB58
 1786 0028 00000000 		.4byte	0
 1787 002c 00000000 		.4byte	0
 1788              		.section	.debug_ranges,"",%progbits
 1789              	.Ldebug_ranges0:
 1790 0000 00000000 		.4byte	.LFB56
 1791 0004 18000000 		.4byte	.LFE56
 1792 0008 00000000 		.4byte	.LFB57
 1793 000c 66000000 		.4byte	.LFE57
 1794 0010 00000000 		.4byte	.LFB58
 1795 0014 04010000 		.4byte	.LFE58
ARM GAS  /tmp/cc8vsY7w.s 			page 33


 1796 0018 00000000 		.4byte	0
 1797 001c 00000000 		.4byte	0
 1798              		.section	.debug_line,"",%progbits
 1799              	.Ldebug_line0:
 1800 0000 E7010000 		.section	.debug_str,"MS",%progbits,1
 1800      02006101 
 1800      00000201 
 1800      FB0E0D00 
 1800      01010101 
 1801              	.LASF63:
 1802 0000 4576656E 		.ascii	"EventListener\000"
 1802      744C6973 
 1802      74656E65 
 1802      7200
 1803              	.LASF68:
 1804 000e 4576656E 		.ascii	"EventSource\000"
 1804      74536F75 
 1804      72636500 
 1805              	.LASF78:
 1806 001a 7569705F 		.ascii	"uip_len\000"
 1806      6C656E00 
 1807              	.LASF24:
 1808 0022 73746174 		.ascii	"state\000"
 1808      6500
 1809              	.LASF55:
 1810 0028 54687265 		.ascii	"ThreadsList\000"
 1810      6164734C 
 1810      69737400 
 1811              	.LASF2:
 1812 0034 73686F72 		.ascii	"short int\000"
 1812      7420696E 
 1812      7400
 1813              	.LASF62:
 1814 003e 6D5F6E65 		.ascii	"m_next\000"
 1814      787400
 1815              	.LASF30:
 1816 0045 73697A65 		.ascii	"sizetype\000"
 1816      74797065 
 1816      00
 1817              	.LASF42:
 1818 004e 705F7072 		.ascii	"p_prev\000"
 1818      657600
 1819              	.LASF69:
 1820 0055 65735F6E 		.ascii	"es_next\000"
 1820      65787400 
 1821              	.LASF83:
 1822 005d 73656E64 		.ascii	"send_req_event\000"
 1822      5F726571 
 1822      5F657665 
 1822      6E7400
 1823              	.LASF4:
 1824 006c 5F5F7569 		.ascii	"__uint16_t\000"
 1824      6E743136 
 1824      5F7400
 1825              	.LASF8:
 1826 0077 5F5F7569 		.ascii	"__uint32_t\000"
 1826      6E743332 
ARM GAS  /tmp/cc8vsY7w.s 			page 34


 1826      5F7400
 1827              	.LASF37:
 1828 0082 6576656E 		.ascii	"eventmask_t\000"
 1828      746D6173 
 1828      6B5F7400 
 1829              	.LASF49:
 1830 008e 705F6D73 		.ascii	"p_msgqueue\000"
 1830      67717565 
 1830      756500
 1831              	.LASF43:
 1832 0099 705F7072 		.ascii	"p_prio\000"
 1832      696F00
 1833              	.LASF41:
 1834 00a0 705F6E65 		.ascii	"p_next\000"
 1834      787400
 1835              	.LASF87:
 1836 00a7 6D656D63 		.ascii	"memcpy\000"
 1836      707900
 1837              	.LASF18:
 1838 00ae 4D4F4442 		.ascii	"MODBUS_READY\000"
 1838      55535F52 
 1838      45414459 
 1838      00
 1839              	.LASF82:
 1840 00bb 6D6F6462 		.ascii	"modbusSerialState\000"
 1840      75735365 
 1840      7269616C 
 1840      53746174 
 1840      6500
 1841              	.LASF56:
 1842 00cd 72656761 		.ascii	"regarm_t\000"
 1842      726D5F74 
 1842      00
 1843              	.LASF13:
 1844 00d6 75696E74 		.ascii	"uint8_t\000"
 1844      385F7400 
 1845              	.LASF17:
 1846 00de 4D4F4442 		.ascii	"MODBUS_SERIAL_ERROR\000"
 1846      55535F53 
 1846      45524941 
 1846      4C5F4552 
 1846      524F5200 
 1847              	.LASF20:
 1848 00f2 4D4F4442 		.ascii	"MODBUS_REQUEST_SENT\000"
 1848      55535F52 
 1848      45515545 
 1848      53545F53 
 1848      454E5400 
 1849              	.LASF51:
 1850 0106 705F6570 		.ascii	"p_epending\000"
 1850      656E6469 
 1850      6E6700
 1851              	.LASF22:
 1852 0111 4D4F4442 		.ascii	"MODBUS_RESPONSE_SENT\000"
 1852      55535F52 
 1852      4553504F 
 1852      4E53455F 
ARM GAS  /tmp/cc8vsY7w.s 			page 35


 1852      53454E54 
 1853              	.LASF79:
 1854 0126 7569705F 		.ascii	"uip_flags\000"
 1854      666C6167 
 1854      7300
 1855              	.LASF67:
 1856 0130 656C5F66 		.ascii	"el_flags\000"
 1856      6C616773 
 1856      00
 1857              	.LASF32:
 1858 0139 746D6F64 		.ascii	"tmode_t\000"
 1858      655F7400 
 1859              	.LASF10:
 1860 0141 6C6F6E67 		.ascii	"long long int\000"
 1860      206C6F6E 
 1860      6720696E 
 1860      7400
 1861              	.LASF35:
 1862 014f 74707269 		.ascii	"tprio_t\000"
 1862      6F5F7400 
 1863              	.LASF7:
 1864 0157 6C6F6E67 		.ascii	"long int\000"
 1864      20696E74 
 1864      00
 1865              	.LASF59:
 1866 0160 4D757465 		.ascii	"Mutex\000"
 1866      7800
 1867              	.LASF60:
 1868 0166 6D5F7175 		.ascii	"m_queue\000"
 1868      65756500 
 1869              	.LASF3:
 1870 016e 5F5F7569 		.ascii	"__uint8_t\000"
 1870      6E74385F 
 1870      7400
 1871              	.LASF58:
 1872 0178 636F6E74 		.ascii	"context\000"
 1872      65787400 
 1873              	.LASF26:
 1874 0180 6D6F6462 		.ascii	"modbusSerialState_t\000"
 1874      75735365 
 1874      7269616C 
 1874      53746174 
 1874      655F7400 
 1875              	.LASF92:
 1876 0194 69735661 		.ascii	"isValid\000"
 1876      6C696400 
 1877              	.LASF50:
 1878 019c 705F6D73 		.ascii	"p_msg\000"
 1878      6700
 1879              	.LASF23:
 1880 01a2 4D4F4442 		.ascii	"MODBUS_TIMEOUT_EXPIRED\000"
 1880      55535F54 
 1880      494D454F 
 1880      55545F45 
 1880      58504952 
 1881              	.LASF90:
 1882 01b9 6D6F6462 		.ascii	"modbus_tcp.c\000"
ARM GAS  /tmp/cc8vsY7w.s 			page 36


 1882      75735F74 
 1882      63702E63 
 1882      00
 1883              	.LASF1:
 1884 01c6 756E7369 		.ascii	"unsigned char\000"
 1884      676E6564 
 1884      20636861 
 1884      7200
 1885              	.LASF89:
 1886 01d4 474E5520 		.ascii	"GNU C 4.8.2 -mcpu=cortex-m3 -mno-thumb-interwork -m"
 1886      4320342E 
 1886      382E3220 
 1886      2D6D6370 
 1886      753D636F 
 1887 0207 7468756D 		.ascii	"thumb -ggdb -O2 -fomit-frame-pointer -falign-functi"
 1887      62202D67 
 1887      67646220 
 1887      2D4F3220 
 1887      2D666F6D 
 1888 023a 6F6E733D 		.ascii	"ons=16 -ffunction-sections -fdata-sections -fno-com"
 1888      3136202D 
 1888      6666756E 
 1888      6374696F 
 1888      6E2D7365 
 1889 026d 6D6F6E20 		.ascii	"mon -fno-strict-aliasing\000"
 1889      2D666E6F 
 1889      2D737472 
 1889      6963742D 
 1889      616C6961 
 1890              	.LASF73:
 1891 0286 65776D61 		.ascii	"ewmask\000"
 1891      736B00
 1892              	.LASF25:
 1893 028d 7061636B 		.ascii	"packLen\000"
 1893      4C656E00 
 1894              	.LASF76:
 1895 0295 6D6F6462 		.ascii	"modbus_tcp_gateway\000"
 1895      75735F74 
 1895      63705F67 
 1895      61746577 
 1895      617900
 1896              	.LASF0:
 1897 02a8 7369676E 		.ascii	"signed char\000"
 1897      65642063 
 1897      68617200 
 1898              	.LASF11:
 1899 02b4 6C6F6E67 		.ascii	"long long unsigned int\000"
 1899      206C6F6E 
 1899      6720756E 
 1899      7369676E 
 1899      65642069 
 1900              	.LASF16:
 1901 02cb 75696E74 		.ascii	"uint32_t\000"
 1901      33325F74 
 1901      00
 1902              	.LASF81:
 1903 02d4 6D6F6462 		.ascii	"modbusSerialBuffer\000"
ARM GAS  /tmp/cc8vsY7w.s 			page 37


 1903      75735365 
 1903      7269616C 
 1903      42756666 
 1903      657200
 1904              	.LASF14:
 1905 02e7 75696E74 		.ascii	"uint16_t\000"
 1905      31365F74 
 1905      00
 1906              	.LASF9:
 1907 02f0 6C6F6E67 		.ascii	"long unsigned int\000"
 1907      20756E73 
 1907      69676E65 
 1907      6420696E 
 1907      7400
 1908              	.LASF34:
 1909 0302 74736C69 		.ascii	"tslices_t\000"
 1909      6365735F 
 1909      7400
 1910              	.LASF29:
 1911 030c 7531365F 		.ascii	"u16_t\000"
 1911      7400
 1912              	.LASF5:
 1913 0312 73686F72 		.ascii	"short unsigned int\000"
 1913      7420756E 
 1913      7369676E 
 1913      65642069 
 1913      6E7400
 1914              	.LASF46:
 1915 0325 705F666C 		.ascii	"p_flags\000"
 1915      61677300 
 1916              	.LASF47:
 1917 032d 705F7072 		.ascii	"p_preempt\000"
 1917      65656D70 
 1917      7400
 1918              	.LASF53:
 1919 0337 705F7265 		.ascii	"p_realprio\000"
 1919      616C7072 
 1919      696F00
 1920              	.LASF65:
 1921 0342 656C5F6C 		.ascii	"el_listener\000"
 1921      69737465 
 1921      6E657200 
 1922              	.LASF27:
 1923 034e 63686172 		.ascii	"char\000"
 1923      00
 1924              	.LASF91:
 1925 0353 2F686F6D 		.ascii	"/home/dltech/gdrive/Projects/RFM_to_Modbus_TCP/Chib"
 1925      652F646C 
 1925      74656368 
 1925      2F676472 
 1925      6976652F 
 1926 0386 694F532F 		.ascii	"iOS/F103_ChibiOS_ENC60J28/main\000"
 1926      46313033 
 1926      5F436869 
 1926      62694F53 
 1926      5F454E43 
 1927              	.LASF15:
ARM GAS  /tmp/cc8vsY7w.s 			page 38


 1928 03a5 696E7433 		.ascii	"int32_t\000"
 1928      325F7400 
 1929              	.LASF45:
 1930 03ad 705F7374 		.ascii	"p_state\000"
 1930      61746500 
 1931              	.LASF54:
 1932 03b5 54687265 		.ascii	"ThreadsQueue\000"
 1932      61647351 
 1932      75657565 
 1932      00
 1933              	.LASF31:
 1934 03c2 5F426F6F 		.ascii	"_Bool\000"
 1934      6C00
 1935              	.LASF48:
 1936 03c8 705F7761 		.ascii	"p_waiting\000"
 1936      6974696E 
 1936      6700
 1937              	.LASF64:
 1938 03d2 656C5F6E 		.ascii	"el_next\000"
 1938      65787400 
 1939              	.LASF52:
 1940 03da 705F6D74 		.ascii	"p_mtxlist\000"
 1940      786C6973 
 1940      7400
 1941              	.LASF57:
 1942 03e4 696E7463 		.ascii	"intctx\000"
 1942      747800
 1943              	.LASF75:
 1944 03eb 6D6F6462 		.ascii	"modbusInit\000"
 1944      7573496E 
 1944      697400
 1945              	.LASF86:
 1946 03f6 7569705F 		.ascii	"uip_send\000"
 1946      73656E64 
 1946      00
 1947              	.LASF19:
 1948 03ff 4D4F4442 		.ascii	"MODBUS_REQUEST_GET\000"
 1948      55535F52 
 1948      45515545 
 1948      53545F47 
 1948      455400
 1949              	.LASF6:
 1950 0412 5F5F696E 		.ascii	"__int32_t\000"
 1950      7433325F 
 1950      7400
 1951              	.LASF28:
 1952 041c 75385F74 		.ascii	"u8_t\000"
 1952      00
 1953              	.LASF21:
 1954 0421 4D4F4442 		.ascii	"MODBUS_RESPONSE_GET\000"
 1954      55535F52 
 1954      4553504F 
 1954      4E53455F 
 1954      47455400 
 1955              	.LASF72:
 1956 0435 77746F62 		.ascii	"wtobjp\000"
 1956      6A7000
ARM GAS  /tmp/cc8vsY7w.s 			page 39


 1957              	.LASF40:
 1958 043c 6D6F6462 		.ascii	"modbusSerialStateStruct\000"
 1958      75735365 
 1958      7269616C 
 1958      53746174 
 1958      65537472 
 1959              	.LASF33:
 1960 0454 74737461 		.ascii	"tstate_t\000"
 1960      74655F74 
 1960      00
 1961              	.LASF39:
 1962 045d 54687265 		.ascii	"Thread\000"
 1962      616400
 1963              	.LASF71:
 1964 0464 65786974 		.ascii	"exitcode\000"
 1964      636F6465 
 1964      00
 1965              	.LASF77:
 1966 046d 7569705F 		.ascii	"uip_appdata\000"
 1966      61707064 
 1966      61746100 
 1967              	.LASF84:
 1968 0479 7569705F 		.ascii	"uip_listen\000"
 1968      6C697374 
 1968      656E00
 1969              	.LASF74:
 1970 0484 7061636B 		.ascii	"packBuffer\000"
 1970      42756666 
 1970      657200
 1971              	.LASF88:
 1972 048f 63684576 		.ascii	"chEvtBroadcastFlags\000"
 1972      7442726F 
 1972      61646361 
 1972      7374466C 
 1972      61677300 
 1973              	.LASF66:
 1974 04a3 656C5F6D 		.ascii	"el_mask\000"
 1974      61736B00 
 1975              	.LASF44:
 1976 04ab 705F6374 		.ascii	"p_ctx\000"
 1976      7800
 1977              	.LASF80:
 1978 04b1 49544D5F 		.ascii	"ITM_RxBuffer\000"
 1978      52784275 
 1978      66666572 
 1978      00
 1979              	.LASF12:
 1980 04be 756E7369 		.ascii	"unsigned int\000"
 1980      676E6564 
 1980      20696E74 
 1980      00
 1981              	.LASF61:
 1982 04cb 6D5F6F77 		.ascii	"m_owner\000"
 1982      6E657200 
 1983              	.LASF38:
 1984 04d3 666C6167 		.ascii	"flagsmask_t\000"
 1984      736D6173 
ARM GAS  /tmp/cc8vsY7w.s 			page 40


 1984      6B5F7400 
 1985              	.LASF70:
 1986 04df 7264796D 		.ascii	"rdymsg\000"
 1986      736700
 1987              	.LASF36:
 1988 04e6 6D73675F 		.ascii	"msg_t\000"
 1988      7400
 1989              	.LASF85:
 1990 04ec 73656E64 		.ascii	"senddbgmsg\000"
 1990      6462676D 
 1990      736700
 1991              		.ident	"GCC: (4.8.2-14ubuntu1+6) 4.8.2"
ARM GAS  /tmp/cc8vsY7w.s 			page 41


DEFINED SYMBOLS
                            *ABS*:0000000000000000 modbus_tcp.c
     /tmp/cc8vsY7w.s:19     .text.modbusInit:0000000000000000 $t
     /tmp/cc8vsY7w.s:25     .text.modbusInit:0000000000000000 modbusInit
     /tmp/cc8vsY7w.s:305    .bss.modbusSerialState:0000000000000000 .LANCHOR0
     /tmp/cc8vsY7w.s:50     .text.isValid:0000000000000000 $t
     /tmp/cc8vsY7w.s:56     .text.isValid:0000000000000000 isValid
     /tmp/cc8vsY7w.s:315    .rodata.str1.4:0000000000000010 .LC1
     /tmp/cc8vsY7w.s:312    .rodata.str1.4:0000000000000000 .LC0
     /tmp/cc8vsY7w.s:319    .rodata.str1.4:000000000000002c .LC3
     /tmp/cc8vsY7w.s:317    .rodata.str1.4:0000000000000020 .LC2
     /tmp/cc8vsY7w.s:143    .text.modbus_tcp_gateway:0000000000000000 $t
     /tmp/cc8vsY7w.s:149    .text.modbus_tcp_gateway:0000000000000000 modbus_tcp_gateway
     /tmp/cc8vsY7w.s:329    .rodata.str1.4:000000000000005c .LC7
     /tmp/cc8vsY7w.s:332    .rodata.str1.4:0000000000000064 .LC8
     /tmp/cc8vsY7w.s:336    .bss.modbusSerialBuffer:0000000000000000 .LANCHOR1
     /tmp/cc8vsY7w.s:326    .rodata.str1.4:0000000000000050 .LC6
     /tmp/cc8vsY7w.s:324    .rodata.str1.4:0000000000000044 .LC5
     /tmp/cc8vsY7w.s:321    .rodata.str1.4:000000000000003c .LC4
     /tmp/cc8vsY7w.s:308    .bss.modbusSerialState:0000000000000000 modbusSerialState
     /tmp/cc8vsY7w.s:339    .bss.modbusSerialBuffer:0000000000000000 modbusSerialBuffer
     /tmp/cc8vsY7w.s:304    .bss.modbusSerialState:0000000000000000 $d
     /tmp/cc8vsY7w.s:311    .rodata.str1.4:0000000000000000 $d
     /tmp/cc8vsY7w.s:335    .bss.modbusSerialBuffer:0000000000000000 $d
                     .debug_frame:0000000000000010 $d

UNDEFINED SYMBOLS
uip_listen
senddbgmsg
uip_flags
uip_appdata
uip_len
uip_send
memcpy
send_req_event
chEvtBroadcastFlags
