ARM GAS  /tmp/cc8vsY7w.s 			page 1


   1              		.syntax unified
   2              		.cpu cortex-m3
   3              		.fpu softvfp
   4              		.eabi_attribute 20, 1
   5              		.eabi_attribute 21, 1
   6              		.eabi_attribute 23, 3
   7              		.eabi_attribute 24, 1
   8              		.eabi_attribute 25, 1
   9              		.eabi_attribute 26, 1
  10              		.eabi_attribute 30, 2
  11              		.eabi_attribute 34, 1
  12              		.eabi_attribute 18, 4
  13              		.thumb
  14              		.file	"modbus_tcp.c"
  15              		.text
  16              	.Ltext0:
  17              		.cfi_sections	.debug_frame
  18              		.section	.text.modbusInit,"ax",%progbits
  19              		.align	2
  20              		.p2align 4,,15
  21              		.global	modbusInit
  22              		.thumb
  23              		.thumb_func
  24              		.type	modbusInit, %function
  25              	modbusInit:
  26              	.LFB56:
  27              		.file 1 "modbus_tcp.c"
  28              		.loc 1 30 0
  29              		.cfi_startproc
  30              		@ args = 0, pretend = 0, frame = 0
  31              		@ frame_needed = 0, uses_anonymous_args = 0
  32 0000 08B5     		push	{r3, lr}
  33              		.cfi_def_cfa_offset 8
  34              		.cfi_offset 3, -8
  35              		.cfi_offset 14, -4
  36              		.loc 1 31 0
  37 0002 4FF20160 		movw	r0, #62977
  38 0006 FFF7FEFF 		bl	uip_listen
  39              	.LVL0:
  40              		.loc 1 32 0
  41 000a 40F20003 		movw	r3, #:lower16:.LANCHOR0
  42 000e C0F20003 		movt	r3, #:upper16:.LANCHOR0
  43 0012 0222     		movs	r2, #2
  44 0014 1A70     		strb	r2, [r3]
  45 0016 08BD     		pop	{r3, pc}
  46              		.cfi_endproc
  47              	.LFE56:
  48              		.size	modbusInit, .-modbusInit
  49 0018 AFF30080 		.section	.text.isValid,"ax",%progbits
  49      AFF30080 
  50              		.align	2
  51              		.p2align 4,,15
  52              		.global	isValid
  53              		.thumb
  54              		.thumb_func
  55              		.type	isValid, %function
  56              	isValid:
ARM GAS  /tmp/cc8vsY7w.s 			page 2


  57              	.LFB57:
  58              		.loc 1 37 0
  59              		.cfi_startproc
  60              		@ args = 0, pretend = 0, frame = 0
  61              		@ frame_needed = 0, uses_anonymous_args = 0
  62              	.LVL1:
  63              		.loc 1 48 0
  64 0000 0529     		cmp	r1, #5
  65              		.loc 1 37 0
  66 0002 10B5     		push	{r4, lr}
  67              		.cfi_def_cfa_offset 8
  68              		.cfi_offset 4, -8
  69              		.cfi_offset 14, -4
  70              		.loc 1 48 0
  71 0004 17D9     		bls	.L10
  72              		.loc 1 53 0
  73 0006 8378     		ldrb	r3, [r0, #2]	@ zero_extendqisi2
  74 0008 6BB9     		cbnz	r3, .L5
  75              		.loc 1 53 0 is_stmt 0 discriminator 1
  76 000a C478     		ldrb	r4, [r0, #3]	@ zero_extendqisi2
  77 000c 5CB9     		cbnz	r4, .L5
  78              		.loc 1 59 0 is_stmt 1
  79 000e 0279     		ldrb	r2, [r0, #4]	@ zero_extendqisi2
  80 0010 4379     		ldrb	r3, [r0, #5]	@ zero_extendqisi2
  81 0012 0639     		subs	r1, r1, #6
  82              	.LVL2:
  83 0014 03EB0223 		add	r3, r3, r2, lsl #8
  84 0018 8B42     		cmp	r3, r1
  85 001a 1CD1     		bne	.L11
  86              		.loc 1 64 0
  87 001c 8379     		ldrb	r3, [r0, #6]	@ zero_extendqisi2
  88 001e F82B     		cmp	r3, #248
  89 0020 11D8     		bhi	.L12
  90              		.loc 1 69 0
  91 0022 0120     		movs	r0, #1
  92              	.LVL3:
  93              		.loc 1 71 0
  94 0024 10BD     		pop	{r4, pc}
  95              	.LVL4:
  96              	.L5:
  97              		.loc 1 56 0
  98 0026 40F20000 		movw	r0, #:lower16:.LC1
  99              	.LVL5:
 100 002a C0F20000 		movt	r0, #:upper16:.LC1
 101 002e FFF7FEFF 		bl	senddbgmsg
 102              	.LVL6:
 103              		.loc 1 57 0
 104 0032 0020     		movs	r0, #0
 105 0034 10BD     		pop	{r4, pc}
 106              	.LVL7:
 107              	.L10:
 108              		.loc 1 50 0
 109 0036 40F20000 		movw	r0, #:lower16:.LC0
 110              	.LVL8:
 111 003a C0F20000 		movt	r0, #:upper16:.LC0
 112 003e FFF7FEFF 		bl	senddbgmsg
 113              	.LVL9:
ARM GAS  /tmp/cc8vsY7w.s 			page 3


 114              		.loc 1 51 0
 115 0042 0020     		movs	r0, #0
 116 0044 10BD     		pop	{r4, pc}
 117              	.LVL10:
 118              	.L12:
 119              		.loc 1 66 0
 120 0046 40F20000 		movw	r0, #:lower16:.LC3
 121              	.LVL11:
 122 004a C0F20000 		movt	r0, #:upper16:.LC3
 123 004e FFF7FEFF 		bl	senddbgmsg
 124              	.LVL12:
 125              		.loc 1 67 0
 126 0052 2046     		mov	r0, r4
 127 0054 10BD     		pop	{r4, pc}
 128              	.LVL13:
 129              	.L11:
 130              		.loc 1 61 0
 131 0056 40F20000 		movw	r0, #:lower16:.LC2
 132              	.LVL14:
 133 005a C0F20000 		movt	r0, #:upper16:.LC2
 134 005e FFF7FEFF 		bl	senddbgmsg
 135              	.LVL15:
 136              		.loc 1 62 0
 137 0062 2046     		mov	r0, r4
 138 0064 10BD     		pop	{r4, pc}
 139              		.cfi_endproc
 140              	.LFE57:
 141              		.size	isValid, .-isValid
 142 0066 00BFAFF3 		.section	.text.modbus_tcp_gateway,"ax",%progbits
 142      0080AFF3 
 142      0080
 143              		.align	2
 144              		.p2align 4,,15
 145              		.global	modbus_tcp_gateway
 146              		.thumb
 147              		.thumb_func
 148              		.type	modbus_tcp_gateway, %function
 149              	modbus_tcp_gateway:
 150              	.LFB58:
 151              		.loc 1 127 0
 152              		.cfi_startproc
 153              		@ args = 0, pretend = 0, frame = 0
 154              		@ frame_needed = 0, uses_anonymous_args = 0
 155 0000 F8B5     		push	{r3, r4, r5, r6, r7, lr}
 156              		.cfi_def_cfa_offset 24
 157              		.cfi_offset 3, -24
 158              		.cfi_offset 4, -20
 159              		.cfi_offset 5, -16
 160              		.cfi_offset 6, -12
 161              		.cfi_offset 7, -8
 162              		.cfi_offset 14, -4
 163              		.loc 1 128 0
 164 0002 40F20004 		movw	r4, #:lower16:uip_flags
 165 0006 C0F20004 		movt	r4, #:upper16:uip_flags
 166 000a 2378     		ldrb	r3, [r4]	@ zero_extendqisi2
 167 000c 9D07     		lsls	r5, r3, #30
 168 000e 08D5     		bpl	.L14
ARM GAS  /tmp/cc8vsY7w.s 			page 4


 169              		.loc 1 130 0
 170 0010 40F20005 		movw	r5, #:lower16:.LANCHOR0
 171 0014 C0F20005 		movt	r5, #:upper16:.LANCHOR0
 172 0018 2A78     		ldrb	r2, [r5]	@ zero_extendqisi2
 173 001a 022A     		cmp	r2, #2
 174 001c 18BF     		it	ne
 175 001e 072A     		cmpne	r2, #7
 176 0020 2DD0     		beq	.L33
 177              	.L14:
 178              		.loc 1 145 0
 179 0022 D807     		lsls	r0, r3, #31
 180 0024 06D5     		bpl	.L16
 181              		.loc 1 147 0
 182 0026 40F20002 		movw	r2, #:lower16:.LANCHOR0
 183 002a C0F20002 		movt	r2, #:upper16:.LANCHOR0
 184 002e 1278     		ldrb	r2, [r2]	@ zero_extendqisi2
 185 0030 062A     		cmp	r2, #6
 186 0032 44D0     		beq	.L34
 187              	.L16:
 188              		.loc 1 154 0
 189 0034 13F00C0F 		tst	r3, #12
 190 0038 0DD0     		beq	.L17
 191              		.loc 1 156 0
 192 003a 40F20005 		movw	r5, #:lower16:.LANCHOR0
 193 003e C0F20005 		movt	r5, #:upper16:.LANCHOR0
 194 0042 2B78     		ldrb	r3, [r5]	@ zero_extendqisi2
 195 0044 052B     		cmp	r3, #5
 196 0046 29D0     		beq	.L35
 197              		.loc 1 164 0
 198 0048 40F20000 		movw	r0, #:lower16:.LC7
 199 004c C0F20000 		movt	r0, #:upper16:.LC7
 200 0050 FFF7FEFF 		bl	senddbgmsg
 201              	.LVL16:
 202 0054 2378     		ldrb	r3, [r4]	@ zero_extendqisi2
 203              	.L17:
 204              		.loc 1 168 0
 205 0056 9906     		lsls	r1, r3, #26
 206 0058 03D4     		bmi	.L19
 207              		.loc 1 168 0 is_stmt 0 discriminator 1
 208 005a 1A06     		lsls	r2, r3, #24
 209 005c 01D4     		bmi	.L19
 210 005e DB06     		lsls	r3, r3, #27
 211 0060 0CD5     		bpl	.L13
 212              	.L19:
 213              		.loc 1 169 0 is_stmt 1
 214 0062 40F20004 		movw	r4, #:lower16:.LANCHOR0
 215 0066 C0F20004 		movt	r4, #:upper16:.LANCHOR0
 216 006a 40F20000 		movw	r0, #:lower16:.LC8
 217 006e 2178     		ldrb	r1, [r4]	@ zero_extendqisi2
 218 0070 C0F20000 		movt	r0, #:upper16:.LC8
 219 0074 FFF7FEFF 		bl	senddbgmsg
 220              	.LVL17:
 221              		.loc 1 170 0
 222 0078 0223     		movs	r3, #2
 223 007a 2370     		strb	r3, [r4]
 224              	.L13:
 225 007c F8BD     		pop	{r3, r4, r5, r6, r7, pc}
ARM GAS  /tmp/cc8vsY7w.s 			page 5


 226              	.L33:
 227              		.loc 1 133 0
 228 007e 40F20006 		movw	r6, #:lower16:uip_appdata
 229 0082 40F20007 		movw	r7, #:lower16:uip_len
 230 0086 C0F20006 		movt	r6, #:upper16:uip_appdata
 231 008a C0F20007 		movt	r7, #:upper16:uip_len
 232 008e 3068     		ldr	r0, [r6]
 233 0090 3978     		ldrb	r1, [r7]	@ zero_extendqisi2
 234 0092 FFF7FEFF 		bl	isValid
 235              	.LVL18:
 236 0096 D0B9     		cbnz	r0, .L15
 237              	.L32:
 238 0098 2378     		ldrb	r3, [r4]	@ zero_extendqisi2
 239 009a C2E7     		b	.L14
 240              	.L35:
 241              		.loc 1 158 0
 242 009c 40F20000 		movw	r0, #:lower16:.LANCHOR1
 243 00a0 C0F20000 		movt	r0, #:upper16:.LANCHOR1
 244 00a4 6988     		ldrh	r1, [r5, #2]
 245 00a6 FFF7FEFF 		bl	uip_send
 246              	.LVL19:
 247              		.loc 1 160 0
 248 00aa 40F20000 		movw	r0, #:lower16:.LC6
 249              		.loc 1 159 0
 250 00ae 0623     		movs	r3, #6
 251              		.loc 1 160 0
 252 00b0 C0F20000 		movt	r0, #:upper16:.LC6
 253              		.loc 1 159 0
 254 00b4 2B70     		strb	r3, [r5]
 255              		.loc 1 160 0
 256 00b6 FFF7FEFF 		bl	senddbgmsg
 257              	.LVL20:
 258 00ba 2378     		ldrb	r3, [r4]	@ zero_extendqisi2
 259 00bc CBE7     		b	.L17
 260              	.L34:
 261              		.loc 1 150 0
 262 00be 40F20000 		movw	r0, #:lower16:.LC5
 263 00c2 C0F20000 		movt	r0, #:upper16:.LC5
 264 00c6 FFF7FEFF 		bl	senddbgmsg
 265              	.LVL21:
 266 00ca 2378     		ldrb	r3, [r4]	@ zero_extendqisi2
 267 00cc B2E7     		b	.L16
 268              	.L15:
 269              		.loc 1 135 0
 270 00ce 40F20000 		movw	r0, #:lower16:.LC4
 271 00d2 2978     		ldrb	r1, [r5]	@ zero_extendqisi2
 272 00d4 C0F20000 		movt	r0, #:upper16:.LC4
 273 00d8 FFF7FEFF 		bl	senddbgmsg
 274              	.LVL22:
 275              		.loc 1 136 0
 276 00dc 3F88     		ldrh	r7, [r7]
 277 00de 40F20000 		movw	r0, #:lower16:.LANCHOR1
 278 00e2 3168     		ldr	r1, [r6]
 279 00e4 3A46     		mov	r2, r7
 280 00e6 C0F20000 		movt	r0, #:upper16:.LANCHOR1
 281 00ea FFF7FEFF 		bl	memcpy
 282              	.LVL23:
ARM GAS  /tmp/cc8vsY7w.s 			page 6


 283              		.loc 1 140 0
 284 00ee 40F20000 		movw	r0, #:lower16:send_req_event
 285              		.loc 1 139 0
 286 00f2 0323     		movs	r3, #3
 287              		.loc 1 140 0
 288 00f4 C0F20000 		movt	r0, #:upper16:send_req_event
 289 00f8 0021     		movs	r1, #0
 290              		.loc 1 137 0
 291 00fa 6F80     		strh	r7, [r5, #2]	@ movhi
 292              		.loc 1 139 0
 293 00fc 2B70     		strb	r3, [r5]
 294              		.loc 1 140 0
 295 00fe FFF7FEFF 		bl	chEvtBroadcastFlags
 296              	.LVL24:
 297 0102 C9E7     		b	.L32
 298              		.cfi_endproc
 299              	.LFE58:
 300              		.size	modbus_tcp_gateway, .-modbus_tcp_gateway
 301              		.global	modbusSerialState
 302              		.global	modbusSerialBuffer
 303 0104 AFF30080 		.section	.bss.modbusSerialState,"aw",%nobits
 303      AFF30080 
 303      AFF30080 
 304              		.align	2
 305              		.set	.LANCHOR0,. + 0
 306              		.type	modbusSerialState, %object
 307              		.size	modbusSerialState, 4
 308              	modbusSerialState:
 309 0000 00000000 		.space	4
 310              		.section	.rodata.str1.4,"aMS",%progbits,1
 311              		.align	2
 312              	.LC0:
 313 0000 6C656E20 		.ascii	"len is null\012\000"
 313      6973206E 
 313      756C6C0A 
 313      00
 314 000d 000000   		.space	3
 315              	.LC1:
 316 0010 70726F74 		.ascii	"prot id is nok\012\000"
 316      20696420 
 316      6973206E 
 316      6F6B0A00 
 317              	.LC2:
 318 0020 6C656E20 		.ascii	"len is nok\012\000"
 318      6973206E 
 318      6F6B0A00 
 319              	.LC3:
 320 002c 756E6974 		.ascii	"unit id is nok\012\000"
 320      20696420 
 320      6973206E 
 320      6F6B0A00 
 321              	.LC4:
 322 003c 25303178 		.ascii	"%01x\000"
 322      00
 323 0041 000000   		.space	3
 324              	.LC5:
 325 0044 6261636B 		.ascii	"back2ready\012\000"
ARM GAS  /tmp/cc8vsY7w.s 			page 7


 325      32726561 
 325      64790A00 
 326              	.LC6:
 327 0050 7061636B 		.ascii	"pack sent\000"
 327      2073656E 
 327      7400
 328 005a 0000     		.space	2
 329              	.LC7:
 330 005c 706F6C6C 		.ascii	"poll\012\000"
 330      0A00
 331 0062 0000     		.space	2
 332              	.LC8:
 333 0064 25303164 		.ascii	"%01dcon abort\012\000"
 333      636F6E20 
 333      61626F72 
 333      740A00
 334 0073 00       		.section	.bss.modbusSerialBuffer,"aw",%nobits
 335              		.align	2
 336              		.set	.LANCHOR1,. + 0
 337              		.type	modbusSerialBuffer, %object
 338              		.size	modbusSerialBuffer, 256
 339              	modbusSerialBuffer:
 340 0000 00000000 		.space	256
 340      00000000 
 340      00000000 
 340      00000000 
 340      00000000 
 341              		.text
 342              	.Letext0:
 343              		.file 2 "/usr/include/newlib/machine/_default_types.h"
 344              		.file 3 "/usr/include/newlib/stdint.h"
 345              		.file 4 "modbus_tcp.h"
 346              		.file 5 "./uip-conf.h"
 347              		.file 6 "../os/ports/GCC/ARMCMx/chtypes.h"
 348              		.file 7 "../os/kernel/include/chlists.h"
 349              		.file 8 "../os/kernel/include/chthreads.h"
 350              		.file 9 "../os/ports/GCC/ARMCMx/chcore_v7m.h"
 351              		.file 10 "../os/kernel/include/chmtx.h"
 352              		.file 11 "../os/kernel/include/chevents.h"
 353              		.file 12 "../uip/uip.h"
 354              		.file 13 "../os/ports/common/ARMCMx/CMSIS/include/core_cm3.h"
 355              		.file 14 "util.h"