ARM GAS  /tmp/ccA389XR.s 			page 1


   1              		.syntax unified
   2              		.cpu cortex-m3
   3              		.fpu softvfp
   4              		.eabi_attribute 20, 1
   5              		.eabi_attribute 21, 1
   6              		.eabi_attribute 23, 3
   7              		.eabi_attribute 24, 1
   8              		.eabi_attribute 25, 1
   9              		.eabi_attribute 26, 1
  10              		.eabi_attribute 30, 2
  11              		.eabi_attribute 34, 1
  12              		.eabi_attribute 18, 4
  13              		.thumb
  14              		.file	"psock.c"
  15              		.text
  16              	.Ltext0:
  17              		.cfi_sections	.debug_frame
  18              		.section	.text.send_data,"ax",%progbits
  19              		.align	2
  20              		.p2align 4,,15
  21              		.thumb
  22              		.thumb_func
  23              		.type	send_data, %function
  24              	send_data:
  25              	.LFB3:
  26              		.file 1 "../uip/psock.c"
  27              		.loc 1 146 0
  28              		.cfi_startproc
  29              		@ args = 0, pretend = 0, frame = 0
  30              		@ frame_needed = 0, uses_anonymous_args = 0
  31              	.LVL0:
  32 0000 10B5     		push	{r4, lr}
  33              		.cfi_def_cfa_offset 8
  34              		.cfi_offset 4, -8
  35              		.cfi_offset 14, -4
  36              		.loc 1 147 0
  37 0002 90F82030 		ldrb	r3, [r0, #32]	@ zero_extendqisi2
  38              		.loc 1 146 0
  39 0006 0446     		mov	r4, r0
  40              		.loc 1 147 0
  41 0008 062B     		cmp	r3, #6
  42 000a 11D0     		beq	.L10
  43              	.LVL1:
  44              	.L2:
  45              		.loc 1 148 0
  46 000c 40F20003 		movw	r3, #:lower16:uip_conn
  47 0010 C0F20003 		movt	r3, #:upper16:uip_conn
  48 0014 1A68     		ldr	r2, [r3]
  49 0016 238A     		ldrh	r3, [r4, #16]
  50 0018 518A     		ldrh	r1, [r2, #18]
  51              		.loc 1 151 0
  52 001a 6068     		ldr	r0, [r4, #4]
  53              		.loc 1 148 0
  54 001c 8B42     		cmp	r3, r1
  55              		.loc 1 151 0
  56 001e 98BF     		it	ls
  57 0020 1946     		movls	r1, r3
ARM GAS  /tmp/ccA389XR.s 			page 2


  58 0022 FFF7FEFF 		bl	uip_send
  59              	.LVL2:
  60              		.loc 1 153 0
  61 0026 0623     		movs	r3, #6
  62 0028 84F82030 		strb	r3, [r4, #32]
  63              		.loc 1 154 0
  64 002c 0120     		movs	r0, #1
  65              		.loc 1 157 0
  66 002e 10BD     		pop	{r4, pc}
  67              	.LVL3:
  68              	.L10:
  69              		.loc 1 147 0 discriminator 1
  70 0030 40F20003 		movw	r3, #:lower16:uip_flags
  71 0034 C0F20003 		movt	r3, #:upper16:uip_flags
  72 0038 1B78     		ldrb	r3, [r3]	@ zero_extendqisi2
  73 003a 03F00403 		and	r3, r3, #4
  74 003e 03F0FF00 		and	r0, r3, #255
  75              	.LVL4:
  76 0042 002B     		cmp	r3, #0
  77 0044 E2D1     		bne	.L2
  78              		.loc 1 157 0
  79 0046 10BD     		pop	{r4, pc}
  80              		.cfi_endproc
  81              	.LFE3:
  82              		.size	send_data, .-send_data
  83 0048 AFF30080 		.section	.text.data_acked,"ax",%progbits
  83      AFF30080 
  84              		.align	2
  85              		.p2align 4,,15
  86              		.thumb
  87              		.thumb_func
  88              		.type	data_acked, %function
  89              	data_acked:
  90              	.LFB4:
  91              		.loc 1 161 0
  92              		.cfi_startproc
  93              		@ args = 0, pretend = 0, frame = 0
  94              		@ frame_needed = 0, uses_anonymous_args = 0
  95              		@ link register save eliminated.
  96              	.LVL5:
  97              		.loc 1 162 0
  98 0000 90F82030 		ldrb	r3, [r0, #32]	@ zero_extendqisi2
  99 0004 062B     		cmp	r3, #6
 100 0006 01D0     		beq	.L17
 101              		.loc 1 173 0
 102 0008 0020     		movs	r0, #0
 103              	.LVL6:
 104 000a 7047     		bx	lr
 105              	.LVL7:
 106              	.L17:
 107              		.loc 1 162 0 discriminator 1
 108 000c 40F20003 		movw	r3, #:lower16:uip_flags
 109 0010 C0F20003 		movt	r3, #:upper16:uip_flags
 110 0014 1B78     		ldrb	r3, [r3]	@ zero_extendqisi2
 111 0016 13F00103 		ands	r3, r3, #1
 112 001a 1DD0     		beq	.L16
 113              	.LVL8:
ARM GAS  /tmp/ccA389XR.s 			page 3


 114              	.LBB20:
 115              	.LBB21:
 116              		.loc 1 163 0
 117 001c 40F20003 		movw	r3, #:lower16:uip_conn
 118 0020 C0F20003 		movt	r3, #:upper16:uip_conn
 119 0024 1A68     		ldr	r2, [r3]
 120 0026 038A     		ldrh	r3, [r0, #16]
 121 0028 518A     		ldrh	r1, [r2, #18]
 122 002a 8B42     		cmp	r3, r1
 123 002c 09D8     		bhi	.L18
 124              		.loc 1 167 0
 125 002e 4268     		ldr	r2, [r0, #4]
 126              		.loc 1 168 0
 127 0030 0021     		movs	r1, #0
 128              		.loc 1 167 0
 129 0032 1344     		add	r3, r3, r2
 130 0034 4360     		str	r3, [r0, #4]
 131              		.loc 1 170 0
 132 0036 0123     		movs	r3, #1
 133              		.loc 1 168 0
 134 0038 0182     		strh	r1, [r0, #16]	@ movhi
 135              		.loc 1 170 0
 136 003a 80F82030 		strb	r3, [r0, #32]
 137 003e 1846     		mov	r0, r3
 138              	.LVL9:
 139 0040 7047     		bx	lr
 140              	.LVL10:
 141              	.L18:
 142              		.loc 1 164 0
 143 0042 5B1A     		subs	r3, r3, r1
 144 0044 0382     		strh	r3, [r0, #16]	@ movhi
 145              		.loc 1 165 0
 146 0046 528A     		ldrh	r2, [r2, #18]
 147 0048 4368     		ldr	r3, [r0, #4]
 148 004a 1344     		add	r3, r3, r2
 149 004c 4360     		str	r3, [r0, #4]
 150              		.loc 1 170 0
 151 004e 0123     		movs	r3, #1
 152 0050 80F82030 		strb	r3, [r0, #32]
 153 0054 1846     		mov	r0, r3
 154              	.LVL11:
 155 0056 7047     		bx	lr
 156              	.LVL12:
 157              	.L16:
 158              	.LBE21:
 159              	.LBE20:
 160              		.loc 1 173 0
 161 0058 1846     		mov	r0, r3
 162              	.LVL13:
 163              		.loc 1 174 0
 164 005a 7047     		bx	lr
 165              		.cfi_endproc
 166              	.LFE4:
 167              		.size	data_acked, .-data_acked
 168 005c AFF30080 		.section	.text.psock_send,"ax",%progbits
 169              		.align	2
 170              		.p2align 4,,15
ARM GAS  /tmp/ccA389XR.s 			page 4


 171              		.global	psock_send
 172              		.thumb
 173              		.thumb_func
 174              		.type	psock_send, %function
 175              	psock_send:
 176              	.LFB5:
 177              		.loc 1 178 0
 178              		.cfi_startproc
 179              		@ args = 0, pretend = 0, frame = 0
 180              		@ frame_needed = 0, uses_anonymous_args = 0
 181              	.LVL14:
 182 0000 38B5     		push	{r3, r4, r5, lr}
 183              		.cfi_def_cfa_offset 16
 184              		.cfi_offset 3, -16
 185              		.cfi_offset 4, -12
 186              		.cfi_offset 5, -8
 187              		.cfi_offset 14, -4
 188              	.LBB22:
 189              		.loc 1 179 0
 190 0002 4388     		ldrh	r3, [r0, #2]
 191              	.LBE22:
 192              		.loc 1 178 0
 193 0004 0446     		mov	r4, r0
 194              	.LBB23:
 195              		.loc 1 179 0
 196 0006 A3B1     		cbz	r3, .L21
 197 0008 CF2B     		cmp	r3, #207
 198 000a 0ED1     		bne	.L20
 199              	.LVL15:
 200              	.L22:
 201              		.loc 1 207 0 discriminator 1
 202 000c 2046     		mov	r0, r4
 203 000e FFF7FEFF 		bl	data_acked
 204              	.LVL16:
 205 0012 0546     		mov	r5, r0
 206 0014 2046     		mov	r0, r4
 207 0016 FFF7FEFF 		bl	send_data
 208              	.LVL17:
 209 001a 2840     		ands	r0, r0, r5
 210 001c 10F0FF00 		ands	r0, r0, #255
 211 0020 06D0     		beq	.L24
 212 0022 228A     		ldrh	r2, [r4, #16]
 213              		.loc 1 195 0
 214 0024 6AB9     		cbnz	r2, .L26
 215              	.L32:
 216              		.loc 1 210 0
 217 0026 84F82020 		strb	r2, [r4, #32]
 218              	.L20:
 219              	.LVL18:
 220              		.loc 1 212 0
 221 002a 0023     		movs	r3, #0
 222 002c 6380     		strh	r3, [r4, #2]	@ movhi
 223 002e 0220     		movs	r0, #2
 224              	.LVL19:
 225              	.L24:
 226              	.LBE23:
 227              		.loc 1 213 0
ARM GAS  /tmp/ccA389XR.s 			page 5


 228 0030 38BD     		pop	{r3, r4, r5, pc}
 229              	.LVL20:
 230              	.L21:
 231              	.LBB24:
 232              		.loc 1 182 0
 233 0032 4AB1     		cbz	r2, .L31
 234              		.loc 1 189 0
 235 0034 92B2     		uxth	r2, r2
 236              	.LVL21:
 237 0036 0282     		strh	r2, [r0, #16]	@ movhi
 238              		.loc 1 188 0
 239 0038 4160     		str	r1, [r0, #4]
 240              		.loc 1 191 0
 241 003a 80F82030 		strb	r3, [r0, #32]
 242              		.loc 1 195 0
 243 003e 002A     		cmp	r2, #0
 244 0040 F1D0     		beq	.L32
 245              	.LVL22:
 246              	.L26:
 247              		.loc 1 207 0
 248 0042 CF23     		movs	r3, #207
 249 0044 6380     		strh	r3, [r4, #2]	@ movhi
 250 0046 E1E7     		b	.L22
 251              	.LVL23:
 252              	.L31:
 253              		.loc 1 183 0
 254 0048 4280     		strh	r2, [r0, #2]	@ movhi
 255 004a 0120     		movs	r0, #1
 256              	.LVL24:
 257 004c 38BD     		pop	{r3, r4, r5, pc}
 258              	.LBE24:
 259              		.cfi_endproc
 260              	.LFE5:
 261              		.size	psock_send, .-psock_send
 262 004e 00BF     		.section	.text.psock_generator_send,"ax",%progbits
 263              		.align	2
 264              		.p2align 4,,15
 265              		.global	psock_generator_send
 266              		.thumb
 267              		.thumb_func
 268              		.type	psock_generator_send, %function
 269              	psock_generator_send:
 270              	.LFB6:
 271              		.loc 1 217 0
 272              		.cfi_startproc
 273              		@ args = 0, pretend = 0, frame = 0
 274              		@ frame_needed = 0, uses_anonymous_args = 0
 275              	.LVL25:
 276 0000 F8B5     		push	{r3, r4, r5, r6, r7, lr}
 277              		.cfi_def_cfa_offset 24
 278              		.cfi_offset 3, -24
 279              		.cfi_offset 4, -20
 280              		.cfi_offset 5, -16
 281              		.cfi_offset 6, -12
 282              		.cfi_offset 7, -8
 283              		.cfi_offset 14, -4
 284              	.LBB25:
ARM GAS  /tmp/ccA389XR.s 			page 6


 285              		.loc 1 218 0
 286 0002 4588     		ldrh	r5, [r0, #2]
 287              	.LBE25:
 288              		.loc 1 217 0
 289 0004 0446     		mov	r4, r0
 290 0006 0E46     		mov	r6, r1
 291 0008 1746     		mov	r7, r2
 292              	.LBB26:
 293              		.loc 1 218 0
 294 000a 2DB1     		cbz	r5, .L35
 295 000c EE2D     		cmp	r5, #238
 296 000e 1AD0     		beq	.L36
 297              	.LVL26:
 298              	.L34:
 299              		.loc 1 243 0
 300 0010 0023     		movs	r3, #0
 301 0012 6380     		strh	r3, [r4, #2]	@ movhi
 302 0014 0220     		movs	r0, #2
 303              	.LVL27:
 304              	.L38:
 305              	.LBE26:
 306              		.loc 1 244 0
 307 0016 F8BD     		pop	{r3, r4, r5, r6, r7, pc}
 308              	.LVL28:
 309              	.L35:
 310              	.LBB27:
 311              		.loc 1 221 0
 312 0018 31B3     		cbz	r1, .L48
 313              		.loc 1 227 0
 314 001a 1046     		mov	r0, r2
 315              	.LVL29:
 316 001c 8847     		blx	r1
 317              	.LVL30:
 318              		.loc 1 228 0
 319 001e 40F20003 		movw	r3, #:lower16:uip_appdata
 320 0022 C0F20003 		movt	r3, #:upper16:uip_appdata
 321 0026 1B68     		ldr	r3, [r3]
 322              		.loc 1 227 0
 323 0028 2082     		strh	r0, [r4, #16]	@ movhi
 324              		.loc 1 230 0
 325 002a 84F82050 		strb	r5, [r4, #32]
 326              		.loc 1 228 0
 327 002e 6360     		str	r3, [r4, #4]
 328              	.L40:
 329              		.loc 1 234 0
 330 0030 40F20003 		movw	r3, #:lower16:uip_flags
 331 0034 C0F20003 		movt	r3, #:upper16:uip_flags
 332 0038 1B78     		ldrb	r3, [r3]	@ zero_extendqisi2
 333 003a 5B07     		lsls	r3, r3, #29
 334 003c 01D5     		bpl	.L39
 335              		.loc 1 235 0
 336 003e 3846     		mov	r0, r7
 337 0040 B047     		blx	r6
 338              	.LVL31:
 339              	.L39:
 340              		.loc 1 238 0
 341 0042 EE23     		movs	r3, #238
ARM GAS  /tmp/ccA389XR.s 			page 7


 342 0044 6380     		strh	r3, [r4, #2]	@ movhi
 343              	.L36:
 344              		.loc 1 238 0 is_stmt 0 discriminator 1
 345 0046 2046     		mov	r0, r4
 346 0048 FFF7FEFF 		bl	data_acked
 347              	.LVL32:
 348 004c 0546     		mov	r5, r0
 349 004e 2046     		mov	r0, r4
 350 0050 FFF7FEFF 		bl	send_data
 351              	.LVL33:
 352 0054 2840     		ands	r0, r0, r5
 353 0056 10F0FF00 		ands	r0, r0, #255
 354 005a DCD0     		beq	.L38
 355              		.loc 1 239 0 is_stmt 1
 356 005c 238A     		ldrh	r3, [r4, #16]
 357 005e 002B     		cmp	r3, #0
 358 0060 E6D1     		bne	.L40
 359              		.loc 1 241 0
 360 0062 84F82030 		strb	r3, [r4, #32]
 361 0066 D3E7     		b	.L34
 362              	.LVL34:
 363              	.L48:
 364              		.loc 1 222 0
 365 0068 6180     		strh	r1, [r4, #2]	@ movhi
 366 006a 0120     		movs	r0, #1
 367              	.LVL35:
 368 006c F8BD     		pop	{r3, r4, r5, r6, r7, pc}
 369              	.LBE27:
 370              		.cfi_endproc
 371              	.LFE6:
 372              		.size	psock_generator_send, .-psock_generator_send
 373 006e 00BF     		.section	.text.psock_datalen,"ax",%progbits
 374              		.align	2
 375              		.p2align 4,,15
 376              		.global	psock_datalen
 377              		.thumb
 378              		.thumb_func
 379              		.type	psock_datalen, %function
 380              	psock_datalen:
 381              	.LFB7:
 382              		.loc 1 248 0
 383              		.cfi_startproc
 384              		@ args = 0, pretend = 0, frame = 0
 385              		@ frame_needed = 0, uses_anonymous_args = 0
 386              		@ link register save eliminated.
 387              	.LVL36:
 388              		.loc 1 249 0
 389 0000 C269     		ldr	r2, [r0, #28]
 390 0002 038B     		ldrh	r3, [r0, #24]
 391 0004 D01A     		subs	r0, r2, r3
 392              	.LVL37:
 393              		.loc 1 250 0
 394 0006 80B2     		uxth	r0, r0
 395 0008 7047     		bx	lr
 396              		.cfi_endproc
 397              	.LFE7:
 398              		.size	psock_datalen, .-psock_datalen
ARM GAS  /tmp/ccA389XR.s 			page 8


 399 000a 00BFAFF3 		.section	.text.psock_newdata,"ax",%progbits
 399      0080
 400              		.align	2
 401              		.p2align 4,,15
 402              		.global	psock_newdata
 403              		.thumb
 404              		.thumb_func
 405              		.type	psock_newdata, %function
 406              	psock_newdata:
 407              	.LFB8:
 408              		.loc 1 254 0
 409              		.cfi_startproc
 410              		@ args = 0, pretend = 0, frame = 0
 411              		@ frame_needed = 0, uses_anonymous_args = 0
 412              		@ link register save eliminated.
 413              	.LVL38:
 414              		.loc 1 254 0
 415 0000 0346     		mov	r3, r0
 416              		.loc 1 255 0
 417 0002 408A     		ldrh	r0, [r0, #18]
 418              	.LVL39:
 419 0004 78B9     		cbnz	r0, .L53
 420              	.LVL40:
 421              		.loc 1 259 0
 422 0006 93F82020 		ldrb	r2, [r3, #32]	@ zero_extendqisi2
 423 000a 022A     		cmp	r2, #2
 424              	.LBB30:
 425              	.LBB31:
 426              		.loc 1 263 0
 427 000c 1DBF     		ittte	ne
 428 000e 40F20003 		movwne	r3, #:lower16:uip_flags
 429              	.LVL41:
 430 0012 C0F20003 		movtne	r3, #:upper16:uip_flags
 431 0016 1878     		ldrbne	r0, [r3]	@ zero_extendqisi2
 432              	.LBE31:
 433              	.LBE30:
 434              		.loc 1 261 0
 435 0018 0322     		moveq	r2, #3
 436 001a 0CBF     		ite	eq
 437 001c 83F82020 		strbeq	r2, [r3, #32]
 438              	.LBB33:
 439              	.LBB32:
 440              		.loc 1 265 0
 441 0020 C0F34000 		ubfxne	r0, r0, #1, #1
 442 0024 7047     		bx	lr
 443              	.LVL42:
 444              	.L53:
 445              	.LBE32:
 446              	.LBE33:
 447              		.loc 1 258 0
 448 0026 0120     		movs	r0, #1
 449              		.loc 1 270 0
 450 0028 7047     		bx	lr
 451              		.cfi_endproc
 452              	.LFE8:
 453              		.size	psock_newdata, .-psock_newdata
 454 002a 00BFAFF3 		.section	.text.psock_readto,"ax",%progbits
ARM GAS  /tmp/ccA389XR.s 			page 9


 454      0080
 455              		.align	2
 456              		.p2align 4,,15
 457              		.global	psock_readto
 458              		.thumb
 459              		.thumb_func
 460              		.type	psock_readto, %function
 461              	psock_readto:
 462              	.LFB9:
 463              		.loc 1 273 0
 464              		.cfi_startproc
 465              		@ args = 0, pretend = 0, frame = 0
 466              		@ frame_needed = 0, uses_anonymous_args = 0
 467              		@ link register save eliminated.
 468              	.LVL43:
 469 0000 70B4     		push	{r4, r5, r6}
 470              		.cfi_def_cfa_offset 12
 471              		.cfi_offset 4, -12
 472              		.cfi_offset 5, -8
 473              		.cfi_offset 6, -4
 474              	.LBB45:
 475              		.loc 1 274 0
 476 0002 4388     		ldrh	r3, [r0, #2]
 477 0004 002B     		cmp	r3, #0
 478 0006 35D0     		beq	.L56
 479 0008 40F21B12 		movw	r2, #283
 480 000c 9342     		cmp	r3, r2
 481 000e 2CD1     		bne	.L55
 482              	.LVL44:
 483              	.LBB46:
 484              	.LBB47:
 485              		.loc 1 255 0
 486 0010 438A     		ldrh	r3, [r0, #18]
 487 0012 002B     		cmp	r3, #0
 488 0014 38D0     		beq	.L59
 489              	.L58:
 490              	.LBE47:
 491              	.LBE46:
 492              		.loc 1 285 0
 493 0016 40F20002 		movw	r2, #:lower16:uip_appdata
 494              		.loc 1 286 0
 495 001a 40F20003 		movw	r3, #:lower16:uip_len
 496 001e C0F20003 		movt	r3, #:upper16:uip_len
 497              		.loc 1 285 0
 498 0022 C0F20002 		movt	r2, #:upper16:uip_appdata
 499              		.loc 1 286 0
 500 0026 1C88     		ldrh	r4, [r3]
 501              		.loc 1 285 0
 502 0028 1268     		ldr	r2, [r2]
 503              		.loc 1 284 0
 504 002a 0223     		movs	r3, #2
 505              		.loc 1 285 0
 506 002c 8260     		str	r2, [r0, #8]
 507              		.loc 1 286 0
 508 002e 4482     		strh	r4, [r0, #18]	@ movhi
 509              		.loc 1 284 0
 510 0030 80F82030 		strb	r3, [r0, #32]
ARM GAS  /tmp/ccA389XR.s 			page 10


 511              	.LVL45:
 512              	.L60:
 513 0034 038B     		ldrh	r3, [r0, #24]
 514              	.L64:
 515              	.LBB52:
 516              	.LBB53:
 517              		.loc 1 115 0
 518 0036 002B     		cmp	r3, #0
 519 0038 3AD0     		beq	.L65
 520 003a 14B3     		cbz	r4, .L71
 521              		.loc 1 116 0
 522 003c 8268     		ldr	r2, [r0, #8]
 523 003e 4369     		ldr	r3, [r0, #20]
 524 0040 1278     		ldrb	r2, [r2]	@ zero_extendqisi2
 525 0042 1A70     		strb	r2, [r3]
 526              	.LVL46:
 527              		.loc 1 119 0
 528 0044 448A     		ldrh	r4, [r0, #18]
 529              		.loc 1 120 0
 530 0046 038B     		ldrh	r3, [r0, #24]
 531              		.loc 1 117 0
 532 0048 8668     		ldr	r6, [r0, #8]
 533              		.loc 1 118 0
 534 004a 4569     		ldr	r5, [r0, #20]
 535              		.loc 1 119 0
 536 004c 013C     		subs	r4, r4, #1
 537              		.loc 1 120 0
 538 004e 013B     		subs	r3, r3, #1
 539              		.loc 1 119 0
 540 0050 A4B2     		uxth	r4, r4
 541              		.loc 1 120 0
 542 0052 9BB2     		uxth	r3, r3
 543              		.loc 1 117 0
 544 0054 0136     		adds	r6, r6, #1
 545              		.loc 1 118 0
 546 0056 0135     		adds	r5, r5, #1
 547              		.loc 1 122 0
 548 0058 9142     		cmp	r1, r2
 549              		.loc 1 119 0
 550 005a 4482     		strh	r4, [r0, #18]	@ movhi
 551              		.loc 1 120 0
 552 005c 0383     		strh	r3, [r0, #24]	@ movhi
 553              		.loc 1 117 0
 554 005e 8660     		str	r6, [r0, #8]
 555              		.loc 1 118 0
 556 0060 4561     		str	r5, [r0, #20]
 557              		.loc 1 122 0
 558 0062 E8D1     		bne	.L64
 559              	.LVL47:
 560              	.L63:
 561              	.LBE53:
 562              	.LBE52:
 563              		.loc 1 292 0
 564 0064 828B     		ldrh	r2, [r0, #28]
 565 0066 9342     		cmp	r3, r2
 566 0068 30D0     		beq	.L80
 567              	.LVL48:
ARM GAS  /tmp/ccA389XR.s 			page 11


 568              	.L55:
 569              		.loc 1 296 0
 570 006a 0023     		movs	r3, #0
 571 006c 4380     		strh	r3, [r0, #2]	@ movhi
 572 006e 0220     		movs	r0, #2
 573              	.LVL49:
 574              	.L77:
 575              	.LBE45:
 576              		.loc 1 297 0
 577 0070 70BC     		pop	{r4, r5, r6}
 578 0072 7047     		bx	lr
 579              	.LVL50:
 580              	.L56:
 581              	.LBB60:
 582              		.loc 1 276 0
 583 0074 828B     		ldrh	r2, [r0, #28]
 584              	.LVL51:
 585              	.LBB55:
 586              	.LBB56:
 587              		.loc 1 78 0
 588 0076 C368     		ldr	r3, [r0, #12]
 589 0078 448A     		ldrh	r4, [r0, #18]
 590              		.loc 1 79 0
 591 007a 0283     		strh	r2, [r0, #24]	@ movhi
 592              		.loc 1 78 0
 593 007c 4361     		str	r3, [r0, #20]
 594              	.LBE56:
 595              	.LBE55:
 596              		.loc 1 282 0
 597 007e 002C     		cmp	r4, #0
 598 0080 D8D1     		bne	.L60
 599              	.LVL52:
 600              	.L71:
 601              		.loc 1 283 0
 602 0082 40F21B13 		movw	r3, #283
 603 0086 4380     		strh	r3, [r0, #2]	@ movhi
 604              	.LVL53:
 605              	.L59:
 606              	.LBB57:
 607              	.LBB50:
 608              		.loc 1 259 0
 609 0088 90F82030 		ldrb	r3, [r0, #32]	@ zero_extendqisi2
 610 008c 022B     		cmp	r3, #2
 611 008e 0BD0     		beq	.L81
 612              	.LVL54:
 613              	.LBB48:
 614              	.LBB49:
 615              		.loc 1 263 0
 616 0090 40F20003 		movw	r3, #:lower16:uip_flags
 617 0094 C0F20003 		movt	r3, #:upper16:uip_flags
 618 0098 1B78     		ldrb	r3, [r3]	@ zero_extendqisi2
 619 009a 03F00203 		and	r3, r3, #2
 620              	.LBE49:
 621              	.LBE48:
 622              	.LBE50:
 623              	.LBE57:
 624              		.loc 1 283 0
ARM GAS  /tmp/ccA389XR.s 			page 12


 625 009e 002B     		cmp	r3, #0
 626 00a0 B9D1     		bne	.L58
 627              	.LVL55:
 628              	.L79:
 629 00a2 0020     		movs	r0, #0
 630              	.LVL56:
 631              	.LBE60:
 632              		.loc 1 297 0
 633 00a4 70BC     		pop	{r4, r5, r6}
 634 00a6 7047     		bx	lr
 635              	.LVL57:
 636              	.L81:
 637              	.LBB61:
 638              	.LBB58:
 639              	.LBB51:
 640              		.loc 1 261 0
 641 00a8 0323     		movs	r3, #3
 642 00aa 80F82030 		strb	r3, [r0, #32]
 643 00ae F8E7     		b	.L79
 644              	.LVL58:
 645              	.L65:
 646              	.LBE51:
 647              	.LBE58:
 648              	.LBB59:
 649              	.LBB54:
 650              		.loc 1 127 0
 651 00b0 002C     		cmp	r4, #0
 652 00b2 E6D0     		beq	.L71
 653 00b4 8268     		ldr	r2, [r0, #8]
 654              	.L72:
 655              		.loc 1 132 0
 656 00b6 12F8015B 		ldrb	r5, [r2], #1	@ zero_extendqisi2
 657              	.LVL59:
 658              		.loc 1 133 0
 659 00ba 013C     		subs	r4, r4, #1
 660 00bc A4B2     		uxth	r4, r4
 661              		.loc 1 136 0
 662 00be A942     		cmp	r1, r5
 663              		.loc 1 133 0
 664 00c0 4482     		strh	r4, [r0, #18]	@ movhi
 665              	.LVL60:
 666              		.loc 1 134 0
 667 00c2 8260     		str	r2, [r0, #8]
 668              		.loc 1 136 0
 669 00c4 CED0     		beq	.L63
 670              		.loc 1 131 0
 671 00c6 002C     		cmp	r4, #0
 672 00c8 F5D1     		bne	.L72
 673 00ca DAE7     		b	.L71
 674              	.LVL61:
 675              	.L80:
 676              	.LBE54:
 677              	.LBE59:
 678              		.loc 1 293 0
 679 00cc 0023     		movs	r3, #0
 680 00ce 80F82030 		strb	r3, [r0, #32]
 681              		.loc 1 294 0
ARM GAS  /tmp/ccA389XR.s 			page 13


 682 00d2 4380     		strh	r3, [r0, #2]	@ movhi
 683 00d4 1846     		mov	r0, r3
 684              	.LVL62:
 685 00d6 CBE7     		b	.L77
 686              	.LBE61:
 687              		.cfi_endproc
 688              	.LFE9:
 689              		.size	psock_readto, .-psock_readto
 690 00d8 AFF30080 		.section	.text.psock_readbuf,"ax",%progbits
 690      AFF30080 
 691              		.align	2
 692              		.p2align 4,,15
 693              		.global	psock_readbuf
 694              		.thumb
 695              		.thumb_func
 696              		.type	psock_readbuf, %function
 697              	psock_readbuf:
 698              	.LFB10:
 699              		.loc 1 300 0
 700              		.cfi_startproc
 701              		@ args = 0, pretend = 0, frame = 0
 702              		@ frame_needed = 0, uses_anonymous_args = 0
 703              	.LVL63:
 704 0000 38B5     		push	{r3, r4, r5, lr}
 705              		.cfi_def_cfa_offset 16
 706              		.cfi_offset 3, -16
 707              		.cfi_offset 4, -12
 708              		.cfi_offset 5, -8
 709              		.cfi_offset 14, -4
 710              	.LBB73:
 711              		.loc 1 301 0
 712 0002 4388     		ldrh	r3, [r0, #2]
 713              	.LBE73:
 714              		.loc 1 300 0
 715 0004 0446     		mov	r4, r0
 716              	.LBB92:
 717              		.loc 1 301 0
 718 0006 002B     		cmp	r3, #0
 719 0008 35D0     		beq	.L84
 720 000a B3F59B7F 		cmp	r3, #310
 721 000e 2ED1     		bne	.L83
 722              	.LVL64:
 723              	.LBB74:
 724              	.LBB75:
 725              		.loc 1 255 0
 726 0010 438A     		ldrh	r3, [r0, #18]
 727 0012 002B     		cmp	r3, #0
 728 0014 4AD0     		beq	.L87
 729              	.LVL65:
 730              	.L86:
 731              	.LBE75:
 732              	.LBE74:
 733              		.loc 1 311 0
 734 0016 40F20000 		movw	r0, #:lower16:.LC0
 735 001a C0F20000 		movt	r0, #:upper16:.LC0
 736 001e FFF7FEFF 		bl	puts
 737              	.LVL66:
ARM GAS  /tmp/ccA389XR.s 			page 14


 738              		.loc 1 313 0
 739 0022 40F20002 		movw	r2, #:lower16:uip_appdata
 740              		.loc 1 314 0
 741 0026 40F20003 		movw	r3, #:lower16:uip_len
 742              		.loc 1 313 0
 743 002a C0F20002 		movt	r2, #:upper16:uip_appdata
 744              		.loc 1 314 0
 745 002e C0F20003 		movt	r3, #:upper16:uip_len
 746              		.loc 1 313 0
 747 0032 1168     		ldr	r1, [r2]
 748              		.loc 1 314 0
 749 0034 1B88     		ldrh	r3, [r3]
 750              		.loc 1 312 0
 751 0036 0222     		movs	r2, #2
 752              		.loc 1 313 0
 753 0038 A160     		str	r1, [r4, #8]
 754              		.loc 1 314 0
 755 003a 6382     		strh	r3, [r4, #18]	@ movhi
 756              		.loc 1 312 0
 757 003c 84F82020 		strb	r2, [r4, #32]
 758              	.LVL67:
 759              	.L89:
 760              	.LBB80:
 761              	.LBB81:
 762              		.loc 1 86 0
 763 0040 228B     		ldrh	r2, [r4, #24]
 764 0042 9A42     		cmp	r2, r3
 765 0044 1FD8     		bhi	.L101
 766              		.loc 1 93 0
 767 0046 46D0     		beq	.L102
 768              		.loc 1 101 0
 769 0048 6069     		ldr	r0, [r4, #20]
 770 004a FFF7FEFF 		bl	memcpy
 771              	.LVL68:
 772              		.loc 1 102 0
 773 004e 238B     		ldrh	r3, [r4, #24]
 774 0050 6169     		ldr	r1, [r4, #20]
 775              		.loc 1 103 0
 776 0052 658A     		ldrh	r5, [r4, #18]
 777              		.loc 1 104 0
 778 0054 A268     		ldr	r2, [r4, #8]
 779              		.loc 1 102 0
 780 0056 1944     		add	r1, r1, r3
 781              		.loc 1 103 0
 782 0058 ED1A     		subs	r5, r5, r3
 783              		.loc 1 105 0
 784 005a 0020     		movs	r0, #0
 785              		.loc 1 104 0
 786 005c 1344     		add	r3, r3, r2
 787              		.loc 1 102 0
 788 005e 6161     		str	r1, [r4, #20]
 789              		.loc 1 103 0
 790 0060 6582     		strh	r5, [r4, #18]	@ movhi
 791              		.loc 1 104 0
 792 0062 A360     		str	r3, [r4, #8]
 793              		.loc 1 105 0
 794 0064 2083     		strh	r0, [r4, #24]	@ movhi
ARM GAS  /tmp/ccA389XR.s 			page 15


 795              	.L94:
 796              	.LVL69:
 797              	.LBE81:
 798              	.LBE80:
 799              	.LBB84:
 800              	.LBB85:
 801              		.loc 1 249 0
 802 0066 E369     		ldr	r3, [r4, #28]
 803              	.LBE85:
 804              	.LBE84:
 805              		.loc 1 320 0
 806 0068 98B2     		uxth	r0, r3
 807 006a 0028     		cmp	r0, #0
 808 006c 42D0     		beq	.L103
 809              	.LVL70:
 810              	.L83:
 811              		.loc 1 324 0
 812 006e 0023     		movs	r3, #0
 813 0070 6380     		strh	r3, [r4, #2]	@ movhi
 814 0072 0220     		movs	r0, #2
 815 0074 38BD     		pop	{r3, r4, r5, pc}
 816              	.LVL71:
 817              	.L84:
 818              		.loc 1 303 0
 819 0076 818B     		ldrh	r1, [r0, #28]
 820              	.LVL72:
 821              	.LBB86:
 822              	.LBB87:
 823              		.loc 1 78 0
 824 0078 C268     		ldr	r2, [r0, #12]
 825 007a 438A     		ldrh	r3, [r0, #18]
 826              		.loc 1 79 0
 827 007c 0183     		strh	r1, [r0, #24]	@ movhi
 828              		.loc 1 78 0
 829 007e 4261     		str	r2, [r0, #20]
 830              	.LBE87:
 831              	.LBE86:
 832              		.loc 1 309 0
 833 0080 8BB1     		cbz	r3, .L88
 834 0082 8168     		ldr	r1, [r0, #8]
 835 0084 DCE7     		b	.L89
 836              	.LVL73:
 837              	.L101:
 838              	.LBB88:
 839              	.LBB82:
 840              		.loc 1 87 0
 841 0086 1A46     		mov	r2, r3
 842 0088 6069     		ldr	r0, [r4, #20]
 843 008a FFF7FEFF 		bl	memcpy
 844              	.LVL74:
 845              		.loc 1 88 0
 846 008e 638A     		ldrh	r3, [r4, #18]
 847 0090 6169     		ldr	r1, [r4, #20]
 848              		.loc 1 89 0
 849 0092 258B     		ldrh	r5, [r4, #24]
 850              		.loc 1 90 0
 851 0094 A268     		ldr	r2, [r4, #8]
ARM GAS  /tmp/ccA389XR.s 			page 16


 852              		.loc 1 88 0
 853 0096 1944     		add	r1, r1, r3
 854              		.loc 1 89 0
 855 0098 ED1A     		subs	r5, r5, r3
 856              		.loc 1 91 0
 857 009a 0020     		movs	r0, #0
 858              		.loc 1 90 0
 859 009c 1344     		add	r3, r3, r2
 860              		.loc 1 88 0
 861 009e 6161     		str	r1, [r4, #20]
 862              		.loc 1 89 0
 863 00a0 2583     		strh	r5, [r4, #24]	@ movhi
 864              		.loc 1 90 0
 865 00a2 A360     		str	r3, [r4, #8]
 866              		.loc 1 91 0
 867 00a4 6082     		strh	r0, [r4, #18]	@ movhi
 868              	.LVL75:
 869              	.L88:
 870              	.LBE82:
 871              	.LBE88:
 872              		.loc 1 310 0
 873 00a6 4FF49B73 		mov	r3, #310
 874 00aa 6380     		strh	r3, [r4, #2]	@ movhi
 875              	.LVL76:
 876              	.L87:
 877              	.LBB89:
 878              	.LBB78:
 879              		.loc 1 259 0
 880 00ac 94F82030 		ldrb	r3, [r4, #32]	@ zero_extendqisi2
 881 00b0 022B     		cmp	r3, #2
 882 00b2 0BD0     		beq	.L104
 883              	.LVL77:
 884              	.LBB76:
 885              	.LBB77:
 886              		.loc 1 263 0
 887 00b4 40F20003 		movw	r3, #:lower16:uip_flags
 888 00b8 C0F20003 		movt	r3, #:upper16:uip_flags
 889 00bc 1B78     		ldrb	r3, [r3]	@ zero_extendqisi2
 890 00be 03F00203 		and	r3, r3, #2
 891              	.LBE77:
 892              	.LBE76:
 893              	.LBE78:
 894              	.LBE89:
 895              		.loc 1 310 0
 896 00c2 03F0FF00 		and	r0, r3, #255
 897 00c6 002B     		cmp	r3, #0
 898 00c8 A5D1     		bne	.L86
 899              	.LBE92:
 900              		.loc 1 325 0
 901 00ca 38BD     		pop	{r3, r4, r5, pc}
 902              	.LVL78:
 903              	.L104:
 904              	.LBB93:
 905              	.LBB90:
 906              	.LBB79:
 907              		.loc 1 261 0
 908 00cc 0323     		movs	r3, #3
ARM GAS  /tmp/ccA389XR.s 			page 17


 909 00ce 84F82030 		strb	r3, [r4, #32]
 910              	.LBE79:
 911              	.LBE90:
 912              		.loc 1 310 0
 913 00d2 0020     		movs	r0, #0
 914 00d4 38BD     		pop	{r3, r4, r5, pc}
 915              	.LVL79:
 916              	.L102:
 917              	.LBB91:
 918              	.LBB83:
 919              		.loc 1 94 0
 920 00d6 1A46     		mov	r2, r3
 921 00d8 6069     		ldr	r0, [r4, #20]
 922 00da FFF7FEFF 		bl	memcpy
 923              	.LVL80:
 924              		.loc 1 95 0
 925 00de 638A     		ldrh	r3, [r4, #18]
 926 00e0 6169     		ldr	r1, [r4, #20]
 927              		.loc 1 97 0
 928 00e2 A268     		ldr	r2, [r4, #8]
 929              		.loc 1 95 0
 930 00e4 1944     		add	r1, r1, r3
 931              		.loc 1 97 0
 932 00e6 1A44     		add	r2, r2, r3
 933              		.loc 1 96 0
 934 00e8 0023     		movs	r3, #0
 935              		.loc 1 95 0
 936 00ea 6161     		str	r1, [r4, #20]
 937              		.loc 1 97 0
 938 00ec A260     		str	r2, [r4, #8]
 939              		.loc 1 96 0
 940 00ee 2383     		strh	r3, [r4, #24]	@ movhi
 941              		.loc 1 98 0
 942 00f0 6382     		strh	r3, [r4, #18]	@ movhi
 943 00f2 B8E7     		b	.L94
 944              	.LVL81:
 945              	.L103:
 946              	.LBE83:
 947              	.LBE91:
 948              		.loc 1 321 0
 949 00f4 84F82000 		strb	r0, [r4, #32]
 950              		.loc 1 322 0
 951 00f8 6380     		strh	r3, [r4, #2]	@ movhi
 952 00fa 38BD     		pop	{r3, r4, r5, pc}
 953              	.LBE93:
 954              		.cfi_endproc
 955              	.LFE10:
 956              		.size	psock_readbuf, .-psock_readbuf
 957 00fc AFF30080 		.section	.text.psock_init,"ax",%progbits
 958              		.align	2
 959              		.p2align 4,,15
 960              		.global	psock_init
 961              		.thumb
 962              		.thumb_func
 963              		.type	psock_init, %function
 964              	psock_init:
 965              	.LFB11:
ARM GAS  /tmp/ccA389XR.s 			page 18


 966              		.loc 1 329 0
 967              		.cfi_startproc
 968              		@ args = 0, pretend = 0, frame = 0
 969              		@ frame_needed = 0, uses_anonymous_args = 0
 970              		@ link register save eliminated.
 971              	.LVL82:
 972              		.loc 1 330 0
 973 0000 0023     		movs	r3, #0
 974              		.loc 1 332 0
 975 0002 C160     		str	r1, [r0, #12]
 976              	.LBB94:
 977              	.LBB95:
 978              		.loc 1 78 0
 979 0004 4161     		str	r1, [r0, #20]
 980              	.LBE95:
 981              	.LBE94:
 982              		.loc 1 333 0
 983 0006 C261     		str	r2, [r0, #28]
 984              	.LVL83:
 985              		.loc 1 334 0
 986 0008 0283     		strh	r2, [r0, #24]	@ movhi
 987              		.loc 1 330 0
 988 000a 80F82030 		strb	r3, [r0, #32]
 989              		.loc 1 331 0
 990 000e 4382     		strh	r3, [r0, #18]	@ movhi
 991              		.loc 1 335 0
 992 0010 0380     		strh	r3, [r0]	@ movhi
 993              		.loc 1 336 0
 994 0012 4380     		strh	r3, [r0, #2]	@ movhi
 995 0014 7047     		bx	lr
 996              		.cfi_endproc
 997              	.LFE11:
 998              		.size	psock_init, .-psock_init
 999 0016 00BFAFF3 		.section	.rodata.str1.4,"aMS",%progbits,1
 999      0080AFF3 
 999      0080
 1000              		.align	2
 1001              	.LC0:
 1002 0000 57616974 		.ascii	"Waited for newdata\000"
 1002      65642066 
 1002      6F72206E 
 1002      65776461 
 1002      746100
 1003 0013 00       		.text
 1004              	.Letext0:
 1005              		.file 2 "/usr/include/newlib/machine/_default_types.h"
 1006              		.file 3 "/usr/include/newlib/stdint.h"
 1007              		.file 4 "./modbus_tcp.h"
 1008              		.file 5 "./uip-conf.h"
 1009              		.file 6 "../uip/lc-switch.h"
 1010              		.file 7 "../uip/psock.h"
 1011              		.file 8 "../uip/pt.h"
 1012              		.file 9 "../uip/uip.h"
 1013              		.file 10 "<built-in>"