ARM GAS  /tmp/ccZlHAkp.s 			page 1


   1              		.syntax unified
   2              		.cpu cortex-m3
   3              		.fpu softvfp
   4              		.eabi_attribute 20, 1
   5              		.eabi_attribute 21, 1
   6              		.eabi_attribute 23, 3
   7              		.eabi_attribute 24, 1
   8              		.eabi_attribute 25, 1
   9              		.eabi_attribute 26, 1
  10              		.eabi_attribute 30, 2
  11              		.eabi_attribute 34, 1
  12              		.eabi_attribute 18, 4
  13              		.thumb
  14              		.file	"rfm.c"
  15              		.text
  16              	.Ltext0:
  17              		.cfi_sections	.debug_frame
  18              		.section	.text.rfm_write.isra.0,"ax",%progbits
  19              		.align	2
  20              		.p2align 4,,15
  21              		.thumb
  22              		.thumb_func
  23              		.type	rfm_write.isra.0, %function
  24              	rfm_write.isra.0:
  25              	.LFB66:
  26              		.file 1 "rfm.c"
  27              		.loc 1 26 0
  28              		.cfi_startproc
  29              		@ args = 0, pretend = 0, frame = 16
  30              		@ frame_needed = 0, uses_anonymous_args = 0
  31              	.LVL0:
  32 0000 30B5     		push	{r4, r5, lr}
  33              		.cfi_def_cfa_offset 12
  34              		.cfi_offset 4, -12
  35              		.cfi_offset 5, -8
  36              		.cfi_offset 14, -4
  37 0002 85B0     		sub	sp, sp, #20
  38              		.cfi_def_cfa_offset 32
  39              		.loc 1 28 0
  40 0004 61F07F01 		orn	r1, r1, #127
  41              	.LVL1:
  42 0008 04AD     		add	r5, sp, #16
  43              		.loc 1 26 0
  44 000a 0446     		mov	r4, r0
  45              		.loc 1 28 0
  46 000c 05F8011D 		strb	r1, [r5, #-1]!
  47              		.loc 1 30 0
  48 0010 0068     		ldr	r0, [r0]
  49              		.loc 1 26 0
  50 0012 8DF80720 		strb	r2, [sp, #7]
  51              		.loc 1 30 0
  52 0016 FFF7FEFF 		bl	spiSelect
  53              	.LVL2:
  54              		.loc 1 31 0
  55 001a 2A46     		mov	r2, r5
  56 001c 2068     		ldr	r0, [r4]
  57 001e 0121     		movs	r1, #1
ARM GAS  /tmp/ccZlHAkp.s 			page 2


  58 0020 FFF7FEFF 		bl	spiSend
  59              	.LVL3:
  60              		.loc 1 32 0
  61 0024 2068     		ldr	r0, [r4]
  62 0026 0121     		movs	r1, #1
  63 0028 0DF10702 		add	r2, sp, #7
  64              	.LVL4:
  65 002c FFF7FEFF 		bl	spiSend
  66              	.LVL5:
  67              		.loc 1 33 0
  68 0030 2068     		ldr	r0, [r4]
  69 0032 FFF7FEFF 		bl	spiUnselect
  70              	.LVL6:
  71              		.loc 1 34 0
  72 0036 05B0     		add	sp, sp, #20
  73              		@ sp needed
  74 0038 30BD     		pop	{r4, r5, pc}
  75              		.cfi_endproc
  76              	.LFE66:
  77              		.size	rfm_write.isra.0, .-rfm_write.isra.0
  78 003a 00BFAFF3 		.section	.text.rfm_read.isra.1,"ax",%progbits
  78      0080
  79              		.align	2
  80              		.p2align 4,,15
  81              		.thumb
  82              		.thumb_func
  83              		.type	rfm_read.isra.1, %function
  84              	rfm_read.isra.1:
  85              	.LFB67:
  86              		.loc 1 36 0
  87              		.cfi_startproc
  88              		@ args = 0, pretend = 0, frame = 16
  89              		@ frame_needed = 0, uses_anonymous_args = 0
  90              	.LVL7:
  91 0000 30B5     		push	{r4, r5, lr}
  92              		.cfi_def_cfa_offset 12
  93              		.cfi_offset 4, -12
  94              		.cfi_offset 5, -8
  95              		.cfi_offset 14, -4
  96 0002 85B0     		sub	sp, sp, #20
  97              		.cfi_def_cfa_offset 32
  98              		.loc 1 36 0
  99 0004 04AD     		add	r5, sp, #16
 100 0006 0446     		mov	r4, r0
 101 0008 05F8091D 		strb	r1, [r5, #-9]!
 102              		.loc 1 40 0
 103 000c 0068     		ldr	r0, [r0]
 104 000e FFF7FEFF 		bl	spiSelect
 105              	.LVL8:
 106              		.loc 1 41 0
 107 0012 2A46     		mov	r2, r5
 108 0014 2068     		ldr	r0, [r4]
 109 0016 0121     		movs	r1, #1
 110 0018 FFF7FEFF 		bl	spiSend
 111              	.LVL9:
 112              		.loc 1 42 0
 113 001c 2068     		ldr	r0, [r4]
ARM GAS  /tmp/ccZlHAkp.s 			page 3


 114 001e 0121     		movs	r1, #1
 115 0020 0DF10F02 		add	r2, sp, #15
 116 0024 FFF7FEFF 		bl	spiReceive
 117              	.LVL10:
 118              		.loc 1 43 0
 119 0028 2068     		ldr	r0, [r4]
 120 002a FFF7FEFF 		bl	spiUnselect
 121              	.LVL11:
 122              		.loc 1 46 0
 123 002e 9DF80F00 		ldrb	r0, [sp, #15]	@ zero_extendqisi2
 124 0032 05B0     		add	sp, sp, #20
 125              		@ sp needed
 126 0034 30BD     		pop	{r4, r5, pc}
 127              		.cfi_endproc
 128              	.LFE67:
 129              		.size	rfm_read.isra.1, .-rfm_read.isra.1
 130 0036 00BFAFF3 		.section	.text.rfm_init,"ax",%progbits
 130      0080AFF3 
 130      0080
 131              		.align	2
 132              		.p2align 4,,15
 133              		.global	rfm_init
 134              		.thumb
 135              		.thumb_func
 136              		.type	rfm_init, %function
 137              	rfm_init:
 138              	.LFB59:
 139              		.loc 1 97 0
 140              		.cfi_startproc
 141              		@ args = 0, pretend = 0, frame = 0
 142              		@ frame_needed = 0, uses_anonymous_args = 0
 143              	.LVL12:
 144 0000 70B5     		push	{r4, r5, r6, lr}
 145              		.cfi_def_cfa_offset 16
 146              		.cfi_offset 4, -16
 147              		.cfi_offset 5, -12
 148              		.cfi_offset 6, -8
 149              		.cfi_offset 14, -4
 150              		.loc 1 97 0
 151 0002 0446     		mov	r4, r0
 152              	.LBB4:
 153              	.LBB5:
 154              		.loc 1 17 0
 155              	@ 17 "rfm.c" 1
 156 0004 FFF7FEFF 		bl      _port_lock
 157              	@ 0 "" 2
 158              		.loc 1 18 0
 159              		.thumb
 160 0008 4FF40065 		mov	r5, #2048
 161 000c C4F20105 		movt	r5, 16385
 162 0010 4FF40076 		mov	r6, #512
 163 0014 2E61     		str	r6, [r5, #16]
 164              		.loc 1 19 0
 165 0016 0120     		movs	r0, #1
 166              	.LVL13:
 167 0018 FFF7FEFF 		bl	chThdSleep
 168              	.LVL14:
ARM GAS  /tmp/ccZlHAkp.s 			page 4


 169              		.loc 1 20 0
 170 001c 6E61     		str	r6, [r5, #20]
 171              		.loc 1 21 0
 172              	@ 21 "rfm.c" 1
 173 001e FFF7FEFF 		bl      _port_unlock
 174              	@ 0 "" 2
 175              		.loc 1 23 0
 176              		.thumb
 177 0022 0520     		movs	r0, #5
 178 0024 FFF7FEFF 		bl	chThdSleep
 179              	.LVL15:
 180              	.LBE5:
 181              	.LBE4:
 182              		.loc 1 105 0
 183 0028 2046     		mov	r0, r4
 184 002a 0121     		movs	r1, #1
 185 002c 0422     		movs	r2, #4
 186 002e FFF7FEFF 		bl	rfm_write.isra.0
 187              	.LVL16:
 188              		.loc 1 106 0
 189 0032 2046     		mov	r0, r4
 190 0034 0221     		movs	r1, #2
 191 0036 0122     		movs	r2, #1
 192 0038 FFF7FEFF 		bl	rfm_write.isra.0
 193              	.LVL17:
 194              		.loc 1 108 0
 195 003c 2046     		mov	r0, r4
 196 003e 0521     		movs	r1, #5
 197 0040 0022     		movs	r2, #0
 198 0042 FFF7FEFF 		bl	rfm_write.isra.0
 199              	.LVL18:
 200              		.loc 1 109 0
 201 0046 2046     		mov	r0, r4
 202 0048 0621     		movs	r1, #6
 203 004a A322     		movs	r2, #163
 204 004c FFF7FEFF 		bl	rfm_write.isra.0
 205              	.LVL19:
 206              		.loc 1 111 0
 207 0050 2046     		mov	r0, r4
 208 0052 0321     		movs	r1, #3
 209 0054 0D22     		movs	r2, #13
 210 0056 FFF7FEFF 		bl	rfm_write.isra.0
 211              	.LVL20:
 212              		.loc 1 112 0
 213 005a 2046     		mov	r0, r4
 214 005c 0421     		movs	r1, #4
 215 005e 0522     		movs	r2, #5
 216 0060 FFF7FEFF 		bl	rfm_write.isra.0
 217              	.LVL21:
 218              		.loc 1 114 0
 219 0064 2046     		mov	r0, r4
 220 0066 0721     		movs	r1, #7
 221 0068 D922     		movs	r2, #217
 222 006a FFF7FEFF 		bl	rfm_write.isra.0
 223              	.LVL22:
 224              		.loc 1 115 0
 225 006e 2046     		mov	r0, r4
ARM GAS  /tmp/ccZlHAkp.s 			page 5


 226 0070 0821     		movs	r1, #8
 227 0072 3022     		movs	r2, #48
 228 0074 FFF7FEFF 		bl	rfm_write.isra.0
 229              	.LVL23:
 230              		.loc 1 116 0
 231 0078 2046     		mov	r0, r4
 232 007a 0921     		movs	r1, #9
 233 007c 0622     		movs	r2, #6
 234 007e FFF7FEFF 		bl	rfm_write.isra.0
 235              	.LVL24:
 236              		.loc 1 118 0
 237 0082 2046     		mov	r0, r4
 238 0084 0B21     		movs	r1, #11
 239 0086 0022     		movs	r2, #0
 240 0088 FFF7FEFF 		bl	rfm_write.isra.0
 241              	.LVL25:
 242              		.loc 1 124 0
 243 008c 2046     		mov	r0, r4
 244 008e 1121     		movs	r1, #17
 245 0090 9F22     		movs	r2, #159
 246 0092 FFF7FEFF 		bl	rfm_write.isra.0
 247              	.LVL26:
 248              		.loc 1 125 0
 249 0096 2046     		mov	r0, r4
 250 0098 1221     		movs	r1, #18
 251 009a 0822     		movs	r2, #8
 252 009c FFF7FEFF 		bl	rfm_write.isra.0
 253              	.LVL27:
 254              		.loc 1 126 0
 255 00a0 2046     		mov	r0, r4
 256 00a2 1321     		movs	r1, #19
 257 00a4 1A22     		movs	r2, #26
 258 00a6 FFF7FEFF 		bl	rfm_write.isra.0
 259              	.LVL28:
 260              		.loc 1 127 0
 261 00aa 2046     		mov	r0, r4
 262 00ac 1821     		movs	r1, #24
 263 00ae 8022     		movs	r2, #128
 264 00b0 FFF7FEFF 		bl	rfm_write.isra.0
 265              	.LVL29:
 266              		.loc 1 129 0
 267 00b4 2046     		mov	r0, r4
 268 00b6 1921     		movs	r1, #25
 269 00b8 4322     		movs	r2, #67
 270 00ba FFF7FEFF 		bl	rfm_write.isra.0
 271              	.LVL30:
 272              		.loc 1 130 0
 273 00be 2046     		mov	r0, r4
 274 00c0 1A21     		movs	r1, #26
 275 00c2 4222     		movs	r2, #66
 276 00c4 FFF7FEFF 		bl	rfm_write.isra.0
 277              	.LVL31:
 278              		.loc 1 136 0
 279 00c8 2046     		mov	r0, r4
 280 00ca 1E21     		movs	r1, #30
 281 00cc 0822     		movs	r2, #8
 282 00ce FFF7FEFF 		bl	rfm_write.isra.0
ARM GAS  /tmp/ccZlHAkp.s 			page 6


 283              	.LVL32:
 284              		.loc 1 138 0
 285 00d2 2046     		mov	r0, r4
 286 00d4 2521     		movs	r1, #37
 287 00d6 0922     		movs	r2, #9
 288 00d8 FFF7FEFF 		bl	rfm_write.isra.0
 289              	.LVL33:
 290              		.loc 1 139 0
 291 00dc 2046     		mov	r0, r4
 292 00de 2621     		movs	r1, #38
 293 00e0 0222     		movs	r2, #2
 294 00e2 FFF7FEFF 		bl	rfm_write.isra.0
 295              	.LVL34:
 296              		.loc 1 141 0
 297 00e6 2046     		mov	r0, r4
 298 00e8 2921     		movs	r1, #41
 299 00ea B022     		movs	r2, #176
 300 00ec FFF7FEFF 		bl	rfm_write.isra.0
 301              	.LVL35:
 302              		.loc 1 143 0
 303 00f0 2046     		mov	r0, r4
 304 00f2 2C21     		movs	r1, #44
 305 00f4 0022     		movs	r2, #0
 306 00f6 FFF7FEFF 		bl	rfm_write.isra.0
 307              	.LVL36:
 308              		.loc 1 144 0
 309 00fa 2046     		mov	r0, r4
 310 00fc 2D21     		movs	r1, #45
 311 00fe 0422     		movs	r2, #4
 312 0100 FFF7FEFF 		bl	rfm_write.isra.0
 313              	.LVL37:
 314              		.loc 1 146 0
 315 0104 2046     		mov	r0, r4
 316 0106 2E21     		movs	r1, #46
 317 0108 9A22     		movs	r2, #154
 318 010a FFF7FEFF 		bl	rfm_write.isra.0
 319              	.LVL38:
 320              		.loc 1 147 0
 321 010e 2046     		mov	r0, r4
 322 0110 2F21     		movs	r1, #47
 323 0112 CA22     		movs	r2, #202
 324 0114 FFF7FEFF 		bl	rfm_write.isra.0
 325              	.LVL39:
 326              		.loc 1 148 0
 327 0118 2046     		mov	r0, r4
 328 011a 3021     		movs	r1, #48
 329 011c E122     		movs	r2, #225
 330 011e FFF7FEFF 		bl	rfm_write.isra.0
 331              	.LVL40:
 332              		.loc 1 149 0
 333 0122 2046     		mov	r0, r4
 334 0124 3121     		movs	r1, #49
 335 0126 3B22     		movs	r2, #59
 336 0128 FFF7FEFF 		bl	rfm_write.isra.0
 337              	.LVL41:
 338              		.loc 1 150 0
 339 012c 2046     		mov	r0, r4
ARM GAS  /tmp/ccZlHAkp.s 			page 7


 340 012e 3221     		movs	r1, #50
 341 0130 7522     		movs	r2, #117
 342 0132 FFF7FEFF 		bl	rfm_write.isra.0
 343              	.LVL42:
 344              		.loc 1 151 0
 345 0136 2046     		mov	r0, r4
 346 0138 3321     		movs	r1, #51
 347 013a CA22     		movs	r2, #202
 348 013c FFF7FEFF 		bl	rfm_write.isra.0
 349              	.LVL43:
 350              		.loc 1 152 0
 351 0140 2046     		mov	r0, r4
 352 0142 3421     		movs	r1, #52
 353 0144 E122     		movs	r2, #225
 354 0146 FFF7FEFF 		bl	rfm_write.isra.0
 355              	.LVL44:
 356              		.loc 1 153 0
 357 014a 2046     		mov	r0, r4
 358 014c 3521     		movs	r1, #53
 359 014e 3B22     		movs	r2, #59
 360 0150 FFF7FEFF 		bl	rfm_write.isra.0
 361              	.LVL45:
 362              		.loc 1 154 0
 363 0154 2046     		mov	r0, r4
 364 0156 3621     		movs	r1, #54
 365 0158 7522     		movs	r2, #117
 366 015a FFF7FEFF 		bl	rfm_write.isra.0
 367              	.LVL46:
 368              		.loc 1 156 0
 369 015e 2046     		mov	r0, r4
 370 0160 3721     		movs	r1, #55
 371 0162 9422     		movs	r2, #148
 372 0164 FFF7FEFF 		bl	rfm_write.isra.0
 373              	.LVL47:
 374              		.loc 1 157 0
 375 0168 2046     		mov	r0, r4
 376 016a 3821     		movs	r1, #56
 377 016c FF22     		movs	r2, #255
 378 016e FFF7FEFF 		bl	rfm_write.isra.0
 379              	.LVL48:
 380              		.loc 1 158 0
 381 0172 2046     		mov	r0, r4
 382 0174 3921     		movs	r1, #57
 383 0176 0522     		movs	r2, #5
 384 0178 FFF7FEFF 		bl	rfm_write.isra.0
 385              	.LVL49:
 386              		.loc 1 159 0
 387 017c 2046     		mov	r0, r4
 388 017e 3A21     		movs	r1, #58
 389 0180 FF22     		movs	r2, #255
 390 0182 FFF7FEFF 		bl	rfm_write.isra.0
 391              	.LVL50:
 392              		.loc 1 160 0
 393 0186 2046     		mov	r0, r4
 394 0188 3B21     		movs	r1, #59
 395 018a 0022     		movs	r2, #0
 396 018c FFF7FEFF 		bl	rfm_write.isra.0
ARM GAS  /tmp/ccZlHAkp.s 			page 8


 397              	.LVL51:
 398              		.loc 1 162 0
 399 0190 2046     		mov	r0, r4
 400 0192 3C21     		movs	r1, #60
 401 0194 A022     		movs	r2, #160
 402 0196 FFF7FEFF 		bl	rfm_write.isra.0
 403              	.LVL52:
 404              		.loc 1 163 0
 405 019a 2046     		mov	r0, r4
 406 019c 3D21     		movs	r1, #61
 407 019e 3222     		movs	r2, #50
 408 01a0 FFF7FEFF 		bl	rfm_write.isra.0
 409              	.LVL53:
 410              		.loc 1 182 0
 411 01a4 2046     		mov	r0, r4
 412 01a6 6F21     		movs	r1, #111
 413 01a8 3022     		movs	r2, #48
 414 01aa FFF7FEFF 		bl	rfm_write.isra.0
 415              	.LVL54:
 416              		.loc 1 183 0
 417 01ae 1022     		movs	r2, #16
 418 01b0 2046     		mov	r0, r4
 419 01b2 2821     		movs	r1, #40
 420 01b4 FFF7FEFF 		bl	rfm_write.isra.0
 421              	.LVL55:
 422              		.loc 1 188 0
 423 01b8 2046     		mov	r0, r4
 424 01ba 1921     		movs	r1, #25
 425 01bc FFF7FEFF 		bl	rfm_read.isra.1
 426              	.LVL56:
 427 01c0 4328     		cmp	r0, #67
 428              		.loc 1 190 0
 429 01c2 1FBF     		itttt	ne
 430 01c4 40F20003 		movwne	r3, #:lower16:.LANCHOR0
 431 01c8 C0F20003 		movtne	r3, #:upper16:.LANCHOR0
 432 01cc 0122     		movne	r2, #1
 433              		.loc 1 191 0
 434 01ce FF20     		movne	r0, #255
 435              		.loc 1 190 0
 436 01d0 14BF     		ite	ne
 437 01d2 1A70     		strbne	r2, [r3]
 438              		.loc 1 193 0
 439 01d4 0020     		moveq	r0, #0
 440              		.loc 1 194 0
 441 01d6 70BD     		pop	{r4, r5, r6, pc}
 442              		.cfi_endproc
 443              	.LFE59:
 444              		.size	rfm_init, .-rfm_init
 445 01d8 AFF30080 		.section	.text.rfm_transmit_start,"ax",%progbits
 445      AFF30080 
 446              		.align	2
 447              		.p2align 4,,15
 448              		.global	rfm_transmit_start
 449              		.thumb
 450              		.thumb_func
 451              		.type	rfm_transmit_start, %function
 452              	rfm_transmit_start:
ARM GAS  /tmp/ccZlHAkp.s 			page 9


 453              	.LFB60:
 454              		.loc 1 197 0
 455              		.cfi_startproc
 456              		@ args = 0, pretend = 0, frame = 0
 457              		@ frame_needed = 0, uses_anonymous_args = 0
 458              	.LVL57:
 459 0000 F8B5     		push	{r3, r4, r5, r6, r7, lr}
 460              		.cfi_def_cfa_offset 24
 461              		.cfi_offset 3, -24
 462              		.cfi_offset 4, -20
 463              		.cfi_offset 5, -16
 464              		.cfi_offset 6, -12
 465              		.cfi_offset 7, -8
 466              		.cfi_offset 14, -4
 467              		.loc 1 200 0
 468 0002 40F20005 		movw	r5, #:lower16:.LANCHOR1
 469 0006 C0F20005 		movt	r5, #:upper16:.LANCHOR1
 470              		.loc 1 201 0
 471 000a 4229     		cmp	r1, #66
 472              		.loc 1 197 0
 473 000c 1446     		mov	r4, r2
 474              		.loc 1 200 0
 475 000e 2970     		strb	r1, [r5]
 476              		.loc 1 197 0
 477 0010 0646     		mov	r6, r0
 478              		.loc 1 201 0
 479 0012 27D8     		bhi	.L11
 480              		.loc 1 203 0
 481 0014 40F20003 		movw	r3, #:lower16:.LANCHOR0
 482 0018 C0F20003 		movt	r3, #:upper16:.LANCHOR0
 483 001c 0527     		movs	r7, #5
 484              		.loc 1 204 0
 485 001e 0121     		movs	r1, #1
 486              	.LVL58:
 487 0020 0C22     		movs	r2, #12
 488              	.LVL59:
 489              		.loc 1 203 0
 490 0022 1F70     		strb	r7, [r3]
 491              		.loc 1 204 0
 492 0024 FFF7FEFF 		bl	rfm_write.isra.0
 493              	.LVL60:
 494              		.loc 1 206 0
 495 0028 2A78     		ldrb	r2, [r5]	@ zero_extendqisi2
 496 002a 3046     		mov	r0, r6
 497 002c 0132     		adds	r2, r2, #1
 498 002e D2B2     		uxtb	r2, r2
 499 0030 0021     		movs	r1, #0
 500 0032 FFF7FEFF 		bl	rfm_write.isra.0
 501              	.LVL61:
 502              		.loc 1 207 0
 503 0036 2246     		mov	r2, r4
 504 0038 3046     		mov	r0, r6
 505 003a 0021     		movs	r1, #0
 506 003c FFF7FEFF 		bl	rfm_write.isra.0
 507              	.LVL62:
 508              		.loc 1 209 0
 509 0040 2B78     		ldrb	r3, [r5]	@ zero_extendqisi2
ARM GAS  /tmp/ccZlHAkp.s 			page 10


 510 0042 40F20007 		movw	r7, #:lower16:.LANCHOR2
 511 0046 C0F20007 		movt	r7, #:upper16:.LANCHOR2
 512 004a 0024     		movs	r4, #0
 513 004c 43B1     		cbz	r3, .L9
 514              	.LVL63:
 515              	.L10:
 516              		.loc 1 211 0 discriminator 2
 517 004e 3A5D     		ldrb	r2, [r7, r4]	@ zero_extendqisi2
 518 0050 3046     		mov	r0, r6
 519 0052 0021     		movs	r1, #0
 520 0054 FFF7FEFF 		bl	rfm_write.isra.0
 521              	.LVL64:
 522              		.loc 1 209 0 discriminator 2
 523 0058 2B78     		ldrb	r3, [r5]	@ zero_extendqisi2
 524 005a 0134     		adds	r4, r4, #1
 525              	.LVL65:
 526 005c A342     		cmp	r3, r4
 527 005e F6DC     		bgt	.L10
 528              	.LVL66:
 529              	.L9:
 530              		.loc 1 214 0
 531 0060 0020     		movs	r0, #0
 532 0062 F8BD     		pop	{r3, r4, r5, r6, r7, pc}
 533              	.LVL67:
 534              	.L11:
 535              		.loc 1 201 0
 536 0064 4FF0FF30 		mov	r0, #-1
 537              	.LVL68:
 538              		.loc 1 215 0
 539 0068 F8BD     		pop	{r3, r4, r5, r6, r7, pc}
 540              		.cfi_endproc
 541              	.LFE60:
 542              		.size	rfm_transmit_start, .-rfm_transmit_start
 543 006a 00BFAFF3 		.section	.text.rfm_receive_start,"ax",%progbits
 543      0080
 544              		.align	2
 545              		.p2align 4,,15
 546              		.global	rfm_receive_start
 547              		.thumb
 548              		.thumb_func
 549              		.type	rfm_receive_start, %function
 550              	rfm_receive_start:
 551              	.LFB61:
 552              		.loc 1 218 0
 553              		.cfi_startproc
 554              		@ args = 0, pretend = 0, frame = 0
 555              		@ frame_needed = 0, uses_anonymous_args = 0
 556              		@ link register save eliminated.
 557              	.LVL69:
 558              		.loc 1 219 0
 559 0000 40F20003 		movw	r3, #:lower16:.LANCHOR0
 560              		.loc 1 218 0
 561 0004 10B4     		push	{r4}
 562              		.cfi_def_cfa_offset 4
 563              		.cfi_offset 4, -4
 564              		.loc 1 219 0
 565 0006 C0F20003 		movt	r3, #:upper16:.LANCHOR0
ARM GAS  /tmp/ccZlHAkp.s 			page 11


 566 000a 0424     		movs	r4, #4
 567 000c 1C70     		strb	r4, [r3]
 568              		.loc 1 220 0
 569 000e 0121     		movs	r1, #1
 570 0010 1022     		movs	r2, #16
 571              		.loc 1 221 0
 572 0012 5DF8044B 		ldr	r4, [sp], #4
 573              		.loc 1 220 0
 574 0016 FFF7FEBF 		b	rfm_write.isra.0
 575              	.LVL70:
 576              		.cfi_endproc
 577              	.LFE61:
 578              		.size	rfm_receive_start, .-rfm_receive_start
 579 001a 00BFAFF3 		.section	.text.rfm_receive_small_packet,"ax",%progbits
 579      0080
 580              		.align	2
 581              		.p2align 4,,15
 582              		.global	rfm_receive_small_packet
 583              		.thumb
 584              		.thumb_func
 585              		.type	rfm_receive_small_packet, %function
 586              	rfm_receive_small_packet:
 587              	.LFB62:
 588              		.loc 1 224 0
 589              		.cfi_startproc
 590              		@ args = 0, pretend = 0, frame = 0
 591              		@ frame_needed = 0, uses_anonymous_args = 0
 592              	.LVL71:
 593 0000 F8B5     		push	{r3, r4, r5, r6, r7, lr}
 594              		.cfi_def_cfa_offset 24
 595              		.cfi_offset 3, -24
 596              		.cfi_offset 4, -20
 597              		.cfi_offset 5, -16
 598              		.cfi_offset 6, -12
 599              		.cfi_offset 7, -8
 600              		.cfi_offset 14, -4
 601              		.loc 1 227 0
 602 0002 0021     		movs	r1, #0
 603              		.loc 1 224 0
 604 0004 0746     		mov	r7, r0
 605              		.loc 1 227 0
 606 0006 FFF7FEFF 		bl	rfm_read.isra.1
 607              	.LVL72:
 608 000a 40F20005 		movw	r5, #:lower16:.LANCHOR1
 609 000e C0F20005 		movt	r5, #:upper16:.LANCHOR1
 610              		.loc 1 228 0
 611 0012 4228     		cmp	r0, #66
 612              		.loc 1 227 0
 613 0014 2870     		strb	r0, [r5]
 614              		.loc 1 228 0
 615 0016 18D8     		bhi	.L17
 616              		.loc 1 230 0
 617 0018 3846     		mov	r0, r7
 618 001a 0021     		movs	r1, #0
 619 001c FFF7FEFF 		bl	rfm_read.isra.1
 620              	.LVL73:
 621              		.loc 1 231 0
ARM GAS  /tmp/ccZlHAkp.s 			page 12


 622 0020 2B78     		ldrb	r3, [r5]	@ zero_extendqisi2
 623 0022 013B     		subs	r3, r3, #1
 624 0024 DBB2     		uxtb	r3, r3
 625 0026 2B70     		strb	r3, [r5]
 626              	.LVL74:
 627              		.loc 1 233 0
 628 0028 6BB1     		cbz	r3, .L15
 629 002a 40F20006 		movw	r6, #:lower16:.LANCHOR2
 630 002e C0F20006 		movt	r6, #:upper16:.LANCHOR2
 631 0032 0024     		movs	r4, #0
 632              	.LVL75:
 633              	.L16:
 634              		.loc 1 235 0 discriminator 2
 635 0034 3846     		mov	r0, r7
 636 0036 0021     		movs	r1, #0
 637 0038 FFF7FEFF 		bl	rfm_read.isra.1
 638              	.LVL76:
 639              		.loc 1 233 0 discriminator 2
 640 003c 2B78     		ldrb	r3, [r5]	@ zero_extendqisi2
 641              		.loc 1 235 0 discriminator 2
 642 003e 3055     		strb	r0, [r6, r4]
 643              		.loc 1 233 0 discriminator 2
 644 0040 0134     		adds	r4, r4, #1
 645              	.LVL77:
 646 0042 A342     		cmp	r3, r4
 647 0044 F6DC     		bgt	.L16
 648              	.LVL78:
 649              	.L15:
 650              		.loc 1 239 0
 651 0046 1846     		mov	r0, r3
 652 0048 F8BD     		pop	{r3, r4, r5, r6, r7, pc}
 653              	.LVL79:
 654              	.L17:
 655              		.loc 1 228 0
 656 004a 4FF0FF33 		mov	r3, #-1
 657 004e FAE7     		b	.L15
 658              		.cfi_endproc
 659              	.LFE62:
 660              		.size	rfm_receive_small_packet, .-rfm_receive_small_packet
 661              		.section	.text.rfm_sleep,"ax",%progbits
 662              		.align	2
 663              		.p2align 4,,15
 664              		.global	rfm_sleep
 665              		.thumb
 666              		.thumb_func
 667              		.type	rfm_sleep, %function
 668              	rfm_sleep:
 669              	.LFB63:
 670              		.loc 1 242 0
 671              		.cfi_startproc
 672              		@ args = 0, pretend = 0, frame = 0
 673              		@ frame_needed = 0, uses_anonymous_args = 0
 674              	.LVL80:
 675 0000 08B5     		push	{r3, lr}
 676              		.cfi_def_cfa_offset 8
 677              		.cfi_offset 3, -8
 678              		.cfi_offset 14, -4
ARM GAS  /tmp/ccZlHAkp.s 			page 13


 679              		.loc 1 243 0
 680 0002 0022     		movs	r2, #0
 681 0004 0121     		movs	r1, #1
 682 0006 FFF7FEFF 		bl	rfm_write.isra.0
 683              	.LVL81:
 684              		.loc 1 244 0
 685 000a 40F20003 		movw	r3, #:lower16:.LANCHOR0
 686 000e C0F20003 		movt	r3, #:upper16:.LANCHOR0
 687 0012 0222     		movs	r2, #2
 688 0014 1A70     		strb	r2, [r3]
 689 0016 08BD     		pop	{r3, pc}
 690              		.cfi_endproc
 691              	.LFE63:
 692              		.size	rfm_sleep, .-rfm_sleep
 693 0018 AFF30080 		.section	.text.rfm_stby,"ax",%progbits
 693      AFF30080 
 694              		.align	2
 695              		.p2align 4,,15
 696              		.global	rfm_stby
 697              		.thumb
 698              		.thumb_func
 699              		.type	rfm_stby, %function
 700              	rfm_stby:
 701              	.LFB64:
 702              		.loc 1 248 0
 703              		.cfi_startproc
 704              		@ args = 0, pretend = 0, frame = 0
 705              		@ frame_needed = 0, uses_anonymous_args = 0
 706              	.LVL82:
 707 0000 08B5     		push	{r3, lr}
 708              		.cfi_def_cfa_offset 8
 709              		.cfi_offset 3, -8
 710              		.cfi_offset 14, -4
 711              		.loc 1 249 0
 712 0002 0422     		movs	r2, #4
 713 0004 0121     		movs	r1, #1
 714 0006 FFF7FEFF 		bl	rfm_write.isra.0
 715              	.LVL83:
 716              		.loc 1 250 0
 717 000a 40F20003 		movw	r3, #:lower16:.LANCHOR0
 718 000e C0F20003 		movt	r3, #:upper16:.LANCHOR0
 719 0012 0322     		movs	r2, #3
 720 0014 1A70     		strb	r2, [r3]
 721 0016 08BD     		pop	{r3, pc}
 722              		.cfi_endproc
 723              	.LFE64:
 724              		.size	rfm_stby, .-rfm_stby
 725 0018 AFF30080 		.section	.text.rfm_clear_fifo,"ax",%progbits
 725      AFF30080 
 726              		.align	2
 727              		.p2align 4,,15
 728              		.global	rfm_clear_fifo
 729              		.thumb
 730              		.thumb_func
 731              		.type	rfm_clear_fifo, %function
 732              	rfm_clear_fifo:
 733              	.LFB65:
ARM GAS  /tmp/ccZlHAkp.s 			page 14


 734              		.loc 1 254 0
 735              		.cfi_startproc
 736              		@ args = 0, pretend = 0, frame = 0
 737              		@ frame_needed = 0, uses_anonymous_args = 0
 738              	.LVL84:
 739 0000 38B5     		push	{r3, r4, r5, lr}
 740              		.cfi_def_cfa_offset 16
 741              		.cfi_offset 3, -16
 742              		.cfi_offset 4, -12
 743              		.cfi_offset 5, -8
 744              		.cfi_offset 14, -4
 745              		.loc 1 254 0
 746 0002 0546     		mov	r5, r0
 747 0004 4224     		movs	r4, #66
 748              	.LVL85:
 749              	.L23:
 750              		.loc 1 258 0 discriminator 2
 751 0006 2846     		mov	r0, r5
 752 0008 0021     		movs	r1, #0
 753 000a FFF7FEFF 		bl	rfm_read.isra.1
 754              	.LVL86:
 755              		.loc 1 256 0 discriminator 2
 756 000e 013C     		subs	r4, r4, #1
 757              	.LVL87:
 758 0010 F9D1     		bne	.L23
 759              		.loc 1 260 0
 760 0012 2846     		mov	r0, r5
 761 0014 2821     		movs	r1, #40
 762 0016 1022     		movs	r2, #16
 763              		.loc 1 261 0
 764 0018 BDE83840 		pop	{r3, r4, r5, lr}
 765              	.LVL88:
 766              		.loc 1 260 0
 767 001c FFF7FEBF 		b	rfm_write.isra.0
 768              	.LVL89:
 769              		.cfi_endproc
 770              	.LFE65:
 771              		.size	rfm_clear_fifo, .-rfm_clear_fifo
 772              		.global	packet_size
 773              		.global	rfm69_condition
 774              		.global	packet_buffer
 775              		.section	.bss.packet_buffer,"aw",%nobits
 776              		.align	2
 777              		.set	.LANCHOR2,. + 0
 778              		.type	packet_buffer, %object
 779              		.size	packet_buffer, 64
 780              	packet_buffer:
 781 0000 00000000 		.space	64
 781      00000000 
 781      00000000 
 781      00000000 
 781      00000000 
 782              		.section	.bss.rfm69_condition,"aw",%nobits
 783              		.set	.LANCHOR0,. + 0
 784              		.type	rfm69_condition, %object
 785              		.size	rfm69_condition, 1
 786              	rfm69_condition:
ARM GAS  /tmp/ccZlHAkp.s 			page 15


 787 0000 00       		.space	1
 788              		.section	.bss.packet_size,"aw",%nobits
 789              		.set	.LANCHOR1,. + 0
 790              		.type	packet_size, %object
 791              		.size	packet_size, 1
 792              	packet_size:
 793 0000 00       		.space	1
 794              		.text
 795              	.Letext0:
 796              		.file 2 "/usr/lib/gcc/arm-none-eabi/4.8.2/include/stddef.h"
 797              		.file 3 "/usr/include/newlib/machine/_default_types.h"
 798              		.file 4 "/usr/include/newlib/stdint.h"
 799              		.file 5 "../os/ports/GCC/ARMCMx/chtypes.h"
 800              		.file 6 "../os/kernel/include/chlists.h"
 801              		.file 7 "../os/kernel/include/chthreads.h"
 802              		.file 8 "../os/ports/GCC/ARMCMx/chcore_v7m.h"
 803              		.file 9 "../os/kernel/include/chmtx.h"
 804              		.file 10 "../os/hal/platforms/STM32F1xx/stm32f10x.h"
 805              		.file 11 "../os/hal/platforms/STM32F1xx/stm32_dma.h"
 806              		.file 12 "../os/hal/platforms/STM32/GPIOv1/pal_lld.h"
 807              		.file 13 "../os/hal/include/spi.h"
 808              		.file 14 "../os/hal/platforms/STM32/SPIv1/spi_lld.h"
 809              		.file 15 "rfm.h"
 810              		.file 16 "../os/ports/common/ARMCMx/CMSIS/include/core_cm3.h"