ARM GAS  /tmp/ccuqxLVc.s 			page 1


   1              		.syntax unified
   2              		.cpu cortex-m3
   3              		.fpu softvfp
   4              		.eabi_attribute 20, 1
   5              		.eabi_attribute 21, 1
   6              		.eabi_attribute 23, 3
   7              		.eabi_attribute 24, 1
   8              		.eabi_attribute 25, 1
   9              		.eabi_attribute 26, 1
  10              		.eabi_attribute 30, 2
  11              		.eabi_attribute 34, 1
  12              		.eabi_attribute 18, 4
  13              		.thumb
  14              		.file	"spi.c"
  15              		.text
  16              	.Ltext0:
  17              		.cfi_sections	.debug_frame
  18              		.section	.text.spiInit,"ax",%progbits
  19              		.align	2
  20              		.p2align 4,,15
  21              		.global	spiInit
  22              		.thumb
  23              		.thumb_func
  24              		.type	spiInit, %function
  25              	spiInit:
  26              	.LFB56:
  27              		.file 1 "../os/hal/src/spi.c"
  28              		.loc 1 68 0
  29              		.cfi_startproc
  30              		@ args = 0, pretend = 0, frame = 0
  31              		@ frame_needed = 0, uses_anonymous_args = 0
  32              		@ link register save eliminated.
  33              		.loc 1 70 0
  34 0000 FFF7FEBF 		b	spi_lld_init
  35              	.LVL0:
  36              		.cfi_endproc
  37              	.LFE56:
  38              		.size	spiInit, .-spiInit
  39 0004 AFF30080 		.section	.text.spiObjectInit,"ax",%progbits
  39      AFF30080 
  39      AFF30080 
  40              		.align	2
  41              		.p2align 4,,15
  42              		.global	spiObjectInit
  43              		.thumb
  44              		.thumb_func
  45              		.type	spiObjectInit, %function
  46              	spiObjectInit:
  47              	.LFB57:
  48              		.loc 1 80 0
  49              		.cfi_startproc
  50              		@ args = 0, pretend = 0, frame = 0
  51              		@ frame_needed = 0, uses_anonymous_args = 0
  52              		@ link register save eliminated.
  53              	.LVL1:
  54              		.loc 1 83 0
  55 0000 0023     		movs	r3, #0
ARM GAS  /tmp/ccuqxLVc.s 			page 2


  56              		.loc 1 82 0
  57 0002 0122     		movs	r2, #1
  58 0004 0270     		strb	r2, [r0]
  59              		.loc 1 83 0
  60 0006 4360     		str	r3, [r0, #4]
  61              		.loc 1 85 0
  62 0008 8360     		str	r3, [r0, #8]
  63              		.loc 1 89 0
  64 000a 0C30     		adds	r0, r0, #12
  65              	.LVL2:
  66 000c FFF7FEBF 		b	chMtxInit
  67              	.LVL3:
  68              		.cfi_endproc
  69              	.LFE57:
  70              		.size	spiObjectInit, .-spiObjectInit
  71              		.section	.text.spiStart,"ax",%progbits
  72              		.align	2
  73              		.p2align 4,,15
  74              		.global	spiStart
  75              		.thumb
  76              		.thumb_func
  77              		.type	spiStart, %function
  78              	spiStart:
  79              	.LFB58:
  80              		.loc 1 107 0
  81              		.cfi_startproc
  82              		@ args = 0, pretend = 0, frame = 0
  83              		@ frame_needed = 0, uses_anonymous_args = 0
  84              	.LVL4:
  85 0000 10B5     		push	{r4, lr}
  86              		.cfi_def_cfa_offset 8
  87              		.cfi_offset 4, -8
  88              		.cfi_offset 14, -4
  89              		.loc 1 107 0
  90 0002 0446     		mov	r4, r0
  91              		.loc 1 111 0
  92              	@ 111 "../os/hal/src/spi.c" 1
  93 0004 FFF7FEFF 		bl      _port_lock
  94              	@ 0 "" 2
  95              		.loc 1 114 0
  96              		.thumb
  97 0008 4160     		str	r1, [r0, #4]
  98              		.loc 1 115 0
  99 000a FFF7FEFF 		bl	spi_lld_start
 100              	.LVL5:
 101              		.loc 1 116 0
 102 000e 0223     		movs	r3, #2
 103 0010 2370     		strb	r3, [r4]
 104              		.loc 1 117 0
 105              	@ 117 "../os/hal/src/spi.c" 1
 106 0012 FFF7FEFF 		bl      _port_unlock
 107              	@ 0 "" 2
 108              		.thumb
 109 0016 10BD     		pop	{r4, pc}
 110              		.cfi_endproc
 111              	.LFE58:
 112              		.size	spiStart, .-spiStart
ARM GAS  /tmp/ccuqxLVc.s 			page 3


 113 0018 AFF30080 		.section	.text.spiStop,"ax",%progbits
 113      AFF30080 
 114              		.align	2
 115              		.p2align 4,,15
 116              		.global	spiStop
 117              		.thumb
 118              		.thumb_func
 119              		.type	spiStop, %function
 120              	spiStop:
 121              	.LFB59:
 122              		.loc 1 129 0
 123              		.cfi_startproc
 124              		@ args = 0, pretend = 0, frame = 0
 125              		@ frame_needed = 0, uses_anonymous_args = 0
 126              	.LVL6:
 127 0000 10B5     		push	{r4, lr}
 128              		.cfi_def_cfa_offset 8
 129              		.cfi_offset 4, -8
 130              		.cfi_offset 14, -4
 131              		.loc 1 129 0
 132 0002 0446     		mov	r4, r0
 133              		.loc 1 133 0
 134              	@ 133 "../os/hal/src/spi.c" 1
 135 0004 FFF7FEFF 		bl      _port_lock
 136              	@ 0 "" 2
 137              		.loc 1 136 0
 138              		.thumb
 139 0008 FFF7FEFF 		bl	spi_lld_unselect
 140              	.LVL7:
 141              		.loc 1 137 0
 142 000c 2046     		mov	r0, r4
 143 000e FFF7FEFF 		bl	spi_lld_stop
 144              	.LVL8:
 145              		.loc 1 138 0
 146 0012 0123     		movs	r3, #1
 147 0014 2370     		strb	r3, [r4]
 148              		.loc 1 139 0
 149              	@ 139 "../os/hal/src/spi.c" 1
 150 0016 FFF7FEFF 		bl      _port_unlock
 151              	@ 0 "" 2
 152              		.thumb
 153 001a 10BD     		pop	{r4, pc}
 154              		.cfi_endproc
 155              	.LFE59:
 156              		.size	spiStop, .-spiStop
 157 001c AFF30080 		.section	.text.spiSelect,"ax",%progbits
 158              		.align	2
 159              		.p2align 4,,15
 160              		.global	spiSelect
 161              		.thumb
 162              		.thumb_func
 163              		.type	spiSelect, %function
 164              	spiSelect:
 165              	.LFB60:
 166              		.loc 1 149 0
 167              		.cfi_startproc
 168              		@ args = 0, pretend = 0, frame = 0
ARM GAS  /tmp/ccuqxLVc.s 			page 4


 169              		@ frame_needed = 0, uses_anonymous_args = 0
 170              	.LVL9:
 171 0000 08B5     		push	{r3, lr}
 172              		.cfi_def_cfa_offset 8
 173              		.cfi_offset 3, -8
 174              		.cfi_offset 14, -4
 175              		.loc 1 153 0
 176              	@ 153 "../os/hal/src/spi.c" 1
 177 0002 FFF7FEFF 		bl      _port_lock
 178              	@ 0 "" 2
 179              		.loc 1 155 0
 180              		.thumb
 181 0006 FFF7FEFF 		bl	spi_lld_select
 182              	.LVL10:
 183              		.loc 1 156 0
 184              	@ 156 "../os/hal/src/spi.c" 1
 185 000a FFF7FEFF 		bl      _port_unlock
 186              	@ 0 "" 2
 187              		.thumb
 188 000e 08BD     		pop	{r3, pc}
 189              		.cfi_endproc
 190              	.LFE60:
 191              		.size	spiSelect, .-spiSelect
 192              		.section	.text.spiUnselect,"ax",%progbits
 193              		.align	2
 194              		.p2align 4,,15
 195              		.global	spiUnselect
 196              		.thumb
 197              		.thumb_func
 198              		.type	spiUnselect, %function
 199              	spiUnselect:
 200              	.LFB61:
 201              		.loc 1 167 0
 202              		.cfi_startproc
 203              		@ args = 0, pretend = 0, frame = 0
 204              		@ frame_needed = 0, uses_anonymous_args = 0
 205              	.LVL11:
 206 0000 08B5     		push	{r3, lr}
 207              		.cfi_def_cfa_offset 8
 208              		.cfi_offset 3, -8
 209              		.cfi_offset 14, -4
 210              		.loc 1 171 0
 211              	@ 171 "../os/hal/src/spi.c" 1
 212 0002 FFF7FEFF 		bl      _port_lock
 213              	@ 0 "" 2
 214              		.loc 1 173 0
 215              		.thumb
 216 0006 FFF7FEFF 		bl	spi_lld_unselect
 217              	.LVL12:
 218              		.loc 1 174 0
 219              	@ 174 "../os/hal/src/spi.c" 1
 220 000a FFF7FEFF 		bl      _port_unlock
 221              	@ 0 "" 2
 222              		.thumb
 223 000e 08BD     		pop	{r3, pc}
 224              		.cfi_endproc
 225              	.LFE61:
ARM GAS  /tmp/ccuqxLVc.s 			page 5


 226              		.size	spiUnselect, .-spiUnselect
 227              		.section	.text.spiStartIgnore,"ax",%progbits
 228              		.align	2
 229              		.p2align 4,,15
 230              		.global	spiStartIgnore
 231              		.thumb
 232              		.thumb_func
 233              		.type	spiStartIgnore, %function
 234              	spiStartIgnore:
 235              	.LFB62:
 236              		.loc 1 190 0
 237              		.cfi_startproc
 238              		@ args = 0, pretend = 0, frame = 0
 239              		@ frame_needed = 0, uses_anonymous_args = 0
 240              	.LVL13:
 241 0000 08B5     		push	{r3, lr}
 242              		.cfi_def_cfa_offset 8
 243              		.cfi_offset 3, -8
 244              		.cfi_offset 14, -4
 245              		.loc 1 194 0
 246              	@ 194 "../os/hal/src/spi.c" 1
 247 0002 FFF7FEFF 		bl      _port_lock
 248              	@ 0 "" 2
 249              		.loc 1 196 0
 250              		.thumb
 251 0006 0323     		movs	r3, #3
 252 0008 0370     		strb	r3, [r0]
 253 000a FFF7FEFF 		bl	spi_lld_ignore
 254              	.LVL14:
 255              		.loc 1 197 0
 256              	@ 197 "../os/hal/src/spi.c" 1
 257 000e FFF7FEFF 		bl      _port_unlock
 258              	@ 0 "" 2
 259              		.thumb
 260 0012 08BD     		pop	{r3, pc}
 261              		.cfi_endproc
 262              	.LFE62:
 263              		.size	spiStartIgnore, .-spiStartIgnore
 264 0014 AFF30080 		.section	.text.spiStartExchange,"ax",%progbits
 264      AFF30080 
 264      AFF30080 
 265              		.align	2
 266              		.p2align 4,,15
 267              		.global	spiStartExchange
 268              		.thumb
 269              		.thumb_func
 270              		.type	spiStartExchange, %function
 271              	spiStartExchange:
 272              	.LFB63:
 273              		.loc 1 218 0
 274              		.cfi_startproc
 275              		@ args = 0, pretend = 0, frame = 0
 276              		@ frame_needed = 0, uses_anonymous_args = 0
 277              	.LVL15:
 278 0000 38B5     		push	{r3, r4, r5, lr}
 279              		.cfi_def_cfa_offset 16
 280              		.cfi_offset 3, -16
ARM GAS  /tmp/ccuqxLVc.s 			page 6


 281              		.cfi_offset 4, -12
 282              		.cfi_offset 5, -8
 283              		.cfi_offset 14, -4
 284              		.loc 1 218 0
 285 0002 1C46     		mov	r4, r3
 286              		.loc 1 223 0
 287              	@ 223 "../os/hal/src/spi.c" 1
 288 0004 FFF7FEFF 		bl      _port_lock
 289              	@ 0 "" 2
 290              	.LVL16:
 291              		.loc 1 225 0
 292              		.thumb
 293 0008 0325     		movs	r5, #3
 294 000a 2346     		mov	r3, r4
 295 000c 0570     		strb	r5, [r0]
 296 000e FFF7FEFF 		bl	spi_lld_exchange
 297              	.LVL17:
 298              		.loc 1 226 0
 299              	@ 226 "../os/hal/src/spi.c" 1
 300 0012 FFF7FEFF 		bl      _port_unlock
 301              	@ 0 "" 2
 302              		.thumb
 303 0016 38BD     		pop	{r3, r4, r5, pc}
 304              		.cfi_endproc
 305              	.LFE63:
 306              		.size	spiStartExchange, .-spiStartExchange
 307 0018 AFF30080 		.section	.text.spiStartSend,"ax",%progbits
 307      AFF30080 
 308              		.align	2
 309              		.p2align 4,,15
 310              		.global	spiStartSend
 311              		.thumb
 312              		.thumb_func
 313              		.type	spiStartSend, %function
 314              	spiStartSend:
 315              	.LFB64:
 316              		.loc 1 244 0
 317              		.cfi_startproc
 318              		@ args = 0, pretend = 0, frame = 0
 319              		@ frame_needed = 0, uses_anonymous_args = 0
 320              	.LVL18:
 321 0000 08B5     		push	{r3, lr}
 322              		.cfi_def_cfa_offset 8
 323              		.cfi_offset 3, -8
 324              		.cfi_offset 14, -4
 325              		.loc 1 249 0
 326              	@ 249 "../os/hal/src/spi.c" 1
 327 0002 FFF7FEFF 		bl      _port_lock
 328              	@ 0 "" 2
 329              		.loc 1 251 0
 330              		.thumb
 331 0006 0323     		movs	r3, #3
 332 0008 0370     		strb	r3, [r0]
 333 000a FFF7FEFF 		bl	spi_lld_send
 334              	.LVL19:
 335              		.loc 1 252 0
 336              	@ 252 "../os/hal/src/spi.c" 1
ARM GAS  /tmp/ccuqxLVc.s 			page 7


 337 000e FFF7FEFF 		bl      _port_unlock
 338              	@ 0 "" 2
 339              		.thumb
 340 0012 08BD     		pop	{r3, pc}
 341              		.cfi_endproc
 342              	.LFE64:
 343              		.size	spiStartSend, .-spiStartSend
 344 0014 AFF30080 		.section	.text.spiStartReceive,"ax",%progbits
 344      AFF30080 
 344      AFF30080 
 345              		.align	2
 346              		.p2align 4,,15
 347              		.global	spiStartReceive
 348              		.thumb
 349              		.thumb_func
 350              		.type	spiStartReceive, %function
 351              	spiStartReceive:
 352              	.LFB65:
 353              		.loc 1 270 0
 354              		.cfi_startproc
 355              		@ args = 0, pretend = 0, frame = 0
 356              		@ frame_needed = 0, uses_anonymous_args = 0
 357              	.LVL20:
 358 0000 08B5     		push	{r3, lr}
 359              		.cfi_def_cfa_offset 8
 360              		.cfi_offset 3, -8
 361              		.cfi_offset 14, -4
 362              		.loc 1 275 0
 363              	@ 275 "../os/hal/src/spi.c" 1
 364 0002 FFF7FEFF 		bl      _port_lock
 365              	@ 0 "" 2
 366              		.loc 1 277 0
 367              		.thumb
 368 0006 0323     		movs	r3, #3
 369 0008 0370     		strb	r3, [r0]
 370 000a FFF7FEFF 		bl	spi_lld_receive
 371              	.LVL21:
 372              		.loc 1 278 0
 373              	@ 278 "../os/hal/src/spi.c" 1
 374 000e FFF7FEFF 		bl      _port_unlock
 375              	@ 0 "" 2
 376              		.thumb
 377 0012 08BD     		pop	{r3, pc}
 378              		.cfi_endproc
 379              	.LFE65:
 380              		.size	spiStartReceive, .-spiStartReceive
 381 0014 AFF30080 		.section	.text.spiIgnore,"ax",%progbits
 381      AFF30080 
 381      AFF30080 
 382              		.align	2
 383              		.p2align 4,,15
 384              		.global	spiIgnore
 385              		.thumb
 386              		.thumb_func
 387              		.type	spiIgnore, %function
 388              	spiIgnore:
 389              	.LFB66:
ARM GAS  /tmp/ccuqxLVc.s 			page 8


 390              		.loc 1 296 0
 391              		.cfi_startproc
 392              		@ args = 0, pretend = 0, frame = 0
 393              		@ frame_needed = 0, uses_anonymous_args = 0
 394              	.LVL22:
 395 0000 10B5     		push	{r4, lr}
 396              		.cfi_def_cfa_offset 8
 397              		.cfi_offset 4, -8
 398              		.cfi_offset 14, -4
 399              		.loc 1 296 0
 400 0002 0446     		mov	r4, r0
 401              		.loc 1 300 0
 402              	@ 300 "../os/hal/src/spi.c" 1
 403 0004 FFF7FEFF 		bl      _port_lock
 404              	@ 0 "" 2
 405              		.loc 1 303 0
 406              		.thumb
 407 0008 0323     		movs	r3, #3
 408 000a 0370     		strb	r3, [r0]
 409 000c FFF7FEFF 		bl	spi_lld_ignore
 410              	.LVL23:
 411              		.loc 1 304 0
 412 0010 40F20003 		movw	r3, #:lower16:rlist
 413 0014 C0F20003 		movt	r3, #:upper16:rlist
 414 0018 1B69     		ldr	r3, [r3, #16]
 415 001a 0220     		movs	r0, #2
 416 001c A360     		str	r3, [r4, #8]
 417 001e FFF7FEFF 		bl	chSchGoSleepS
 418              	.LVL24:
 419              		.loc 1 305 0
 420              	@ 305 "../os/hal/src/spi.c" 1
 421 0022 FFF7FEFF 		bl      _port_unlock
 422              	@ 0 "" 2
 423              		.thumb
 424 0026 10BD     		pop	{r4, pc}
 425              		.cfi_endproc
 426              	.LFE66:
 427              		.size	spiIgnore, .-spiIgnore
 428 0028 AFF30080 		.section	.text.spiExchange,"ax",%progbits
 428      AFF30080 
 429              		.align	2
 430              		.p2align 4,,15
 431              		.global	spiExchange
 432              		.thumb
 433              		.thumb_func
 434              		.type	spiExchange, %function
 435              	spiExchange:
 436              	.LFB67:
 437              		.loc 1 327 0
 438              		.cfi_startproc
 439              		@ args = 0, pretend = 0, frame = 0
 440              		@ frame_needed = 0, uses_anonymous_args = 0
 441              	.LVL25:
 442 0000 38B5     		push	{r3, r4, r5, lr}
 443              		.cfi_def_cfa_offset 16
 444              		.cfi_offset 3, -16
 445              		.cfi_offset 4, -12
ARM GAS  /tmp/ccuqxLVc.s 			page 9


 446              		.cfi_offset 5, -8
 447              		.cfi_offset 14, -4
 448              		.loc 1 327 0
 449 0002 0446     		mov	r4, r0
 450 0004 1846     		mov	r0, r3
 451              	.LVL26:
 452              		.loc 1 332 0
 453              	@ 332 "../os/hal/src/spi.c" 1
 454 0006 FFF7FEFF 		bl      _port_lock
 455              	@ 0 "" 2
 456              	.LVL27:
 457              		.loc 1 336 0
 458              		.thumb
 459 000a 0325     		movs	r5, #3
 460 000c 0346     		mov	r3, r0
 461 000e 2570     		strb	r5, [r4]
 462 0010 2046     		mov	r0, r4
 463              	.LVL28:
 464 0012 FFF7FEFF 		bl	spi_lld_exchange
 465              	.LVL29:
 466              		.loc 1 337 0
 467 0016 40F20003 		movw	r3, #:lower16:rlist
 468 001a C0F20003 		movt	r3, #:upper16:rlist
 469 001e 1B69     		ldr	r3, [r3, #16]
 470 0020 0220     		movs	r0, #2
 471 0022 A360     		str	r3, [r4, #8]
 472 0024 FFF7FEFF 		bl	chSchGoSleepS
 473              	.LVL30:
 474              		.loc 1 338 0
 475              	@ 338 "../os/hal/src/spi.c" 1
 476 0028 FFF7FEFF 		bl      _port_unlock
 477              	@ 0 "" 2
 478              		.thumb
 479 002c 38BD     		pop	{r3, r4, r5, pc}
 480              		.cfi_endproc
 481              	.LFE67:
 482              		.size	spiExchange, .-spiExchange
 483 002e 00BF     		.section	.text.spiSend,"ax",%progbits
 484              		.align	2
 485              		.p2align 4,,15
 486              		.global	spiSend
 487              		.thumb
 488              		.thumb_func
 489              		.type	spiSend, %function
 490              	spiSend:
 491              	.LFB68:
 492              		.loc 1 357 0
 493              		.cfi_startproc
 494              		@ args = 0, pretend = 0, frame = 0
 495              		@ frame_needed = 0, uses_anonymous_args = 0
 496              	.LVL31:
 497 0000 10B5     		push	{r4, lr}
 498              		.cfi_def_cfa_offset 8
 499              		.cfi_offset 4, -8
 500              		.cfi_offset 14, -4
 501              		.loc 1 357 0
 502 0002 0446     		mov	r4, r0
ARM GAS  /tmp/ccuqxLVc.s 			page 10


 503              		.loc 1 361 0
 504              	@ 361 "../os/hal/src/spi.c" 1
 505 0004 FFF7FEFF 		bl      _port_lock
 506              	@ 0 "" 2
 507              		.loc 1 364 0
 508              		.thumb
 509 0008 0323     		movs	r3, #3
 510 000a 0370     		strb	r3, [r0]
 511 000c FFF7FEFF 		bl	spi_lld_send
 512              	.LVL32:
 513              		.loc 1 365 0
 514 0010 40F20003 		movw	r3, #:lower16:rlist
 515 0014 C0F20003 		movt	r3, #:upper16:rlist
 516 0018 1B69     		ldr	r3, [r3, #16]
 517 001a 0220     		movs	r0, #2
 518 001c A360     		str	r3, [r4, #8]
 519 001e FFF7FEFF 		bl	chSchGoSleepS
 520              	.LVL33:
 521              		.loc 1 366 0
 522              	@ 366 "../os/hal/src/spi.c" 1
 523 0022 FFF7FEFF 		bl      _port_unlock
 524              	@ 0 "" 2
 525              		.thumb
 526 0026 10BD     		pop	{r4, pc}
 527              		.cfi_endproc
 528              	.LFE68:
 529              		.size	spiSend, .-spiSend
 530 0028 AFF30080 		.section	.text.spiReceive,"ax",%progbits
 530      AFF30080 
 531              		.align	2
 532              		.p2align 4,,15
 533              		.global	spiReceive
 534              		.thumb
 535              		.thumb_func
 536              		.type	spiReceive, %function
 537              	spiReceive:
 538              	.LFB69:
 539              		.loc 1 385 0
 540              		.cfi_startproc
 541              		@ args = 0, pretend = 0, frame = 0
 542              		@ frame_needed = 0, uses_anonymous_args = 0
 543              	.LVL34:
 544 0000 10B5     		push	{r4, lr}
 545              		.cfi_def_cfa_offset 8
 546              		.cfi_offset 4, -8
 547              		.cfi_offset 14, -4
 548              		.loc 1 385 0
 549 0002 0446     		mov	r4, r0
 550              		.loc 1 390 0
 551              	@ 390 "../os/hal/src/spi.c" 1
 552 0004 FFF7FEFF 		bl      _port_lock
 553              	@ 0 "" 2
 554              		.loc 1 394 0
 555              		.thumb
 556 0008 0323     		movs	r3, #3
 557 000a 0370     		strb	r3, [r0]
 558 000c FFF7FEFF 		bl	spi_lld_receive
ARM GAS  /tmp/ccuqxLVc.s 			page 11


 559              	.LVL35:
 560              		.loc 1 395 0
 561 0010 40F20003 		movw	r3, #:lower16:rlist
 562 0014 C0F20003 		movt	r3, #:upper16:rlist
 563 0018 1B69     		ldr	r3, [r3, #16]
 564 001a 0220     		movs	r0, #2
 565 001c A360     		str	r3, [r4, #8]
 566 001e FFF7FEFF 		bl	chSchGoSleepS
 567              	.LVL36:
 568              		.loc 1 396 0
 569              	@ 396 "../os/hal/src/spi.c" 1
 570 0022 FFF7FEFF 		bl      _port_unlock
 571              	@ 0 "" 2
 572              		.thumb
 573 0026 10BD     		pop	{r4, pc}
 574              		.cfi_endproc
 575              	.LFE69:
 576              		.size	spiReceive, .-spiReceive
 577 0028 AFF30080 		.section	.text.spiAcquireBus,"ax",%progbits
 577      AFF30080 
 578              		.align	2
 579              		.p2align 4,,15
 580              		.global	spiAcquireBus
 581              		.thumb
 582              		.thumb_func
 583              		.type	spiAcquireBus, %function
 584              	spiAcquireBus:
 585              	.LFB70:
 586              		.loc 1 412 0
 587              		.cfi_startproc
 588              		@ args = 0, pretend = 0, frame = 0
 589              		@ frame_needed = 0, uses_anonymous_args = 0
 590              		@ link register save eliminated.
 591              	.LVL37:
 592              		.loc 1 417 0
 593 0000 0C30     		adds	r0, r0, #12
 594              	.LVL38:
 595 0002 FFF7FEBF 		b	chMtxLock
 596              	.LVL39:
 597              		.cfi_endproc
 598              	.LFE70:
 599              		.size	spiAcquireBus, .-spiAcquireBus
 600 0006 00BFAFF3 		.section	.text.spiReleaseBus,"ax",%progbits
 600      0080AFF3 
 600      0080
 601              		.align	2
 602              		.p2align 4,,15
 603              		.global	spiReleaseBus
 604              		.thumb
 605              		.thumb_func
 606              		.type	spiReleaseBus, %function
 607              	spiReleaseBus:
 608              	.LFB71:
 609              		.loc 1 432 0
 610              		.cfi_startproc
 611              		@ args = 0, pretend = 0, frame = 0
 612              		@ frame_needed = 0, uses_anonymous_args = 0
ARM GAS  /tmp/ccuqxLVc.s 			page 12


 613              		@ link register save eliminated.
 614              	.LVL40:
 615              		.loc 1 438 0
 616 0000 FFF7FEBF 		b	chMtxUnlock
 617              	.LVL41:
 618              		.cfi_endproc
 619              	.LFE71:
 620              		.size	spiReleaseBus, .-spiReleaseBus
 621 0004 AFF30080 		.text
 621      AFF30080 
 621      AFF30080 
 622              	.Letext0:
 623              		.file 2 "/usr/lib/gcc/arm-none-eabi/4.8.2/include/stddef.h"
 624              		.file 3 "/usr/include/newlib/machine/_default_types.h"
 625              		.file 4 "/usr/include/newlib/stdint.h"
 626              		.file 5 "../os/ports/GCC/ARMCMx/chtypes.h"
 627              		.file 6 "../os/kernel/include/chlists.h"
 628              		.file 7 "../os/kernel/include/chthreads.h"
 629              		.file 8 "../os/ports/GCC/ARMCMx/chcore_v7m.h"
 630              		.file 9 "../os/kernel/include/chschd.h"
 631              		.file 10 "../os/kernel/include/chmtx.h"
 632              		.file 11 "../os/hal/platforms/STM32F1xx/stm32f10x.h"
 633              		.file 12 "../os/hal/platforms/STM32F1xx/stm32_dma.h"
 634              		.file 13 "../os/hal/platforms/STM32/GPIOv1/pal_lld.h"
 635              		.file 14 "../os/hal/include/spi.h"
 636              		.file 15 "../os/hal/platforms/STM32/SPIv1/spi_lld.h"
 637              		.file 16 "../os/ports/common/ARMCMx/CMSIS/include/core_cm3.h"