ARM GAS  /tmp/ccuqxLVc.s 			page 1


   1              		.syntax unified
   2              		.cpu cortex-m3
   3              		.fpu softvfp
   4              		.eabi_attribute 20, 1
   5              		.eabi_attribute 21, 1
   6              		.eabi_attribute 23, 3
   7              		.eabi_attribute 24, 1
   8              		.eabi_attribute 25, 1
   9              		.eabi_attribute 26, 1
  10              		.eabi_attribute 30, 2
  11              		.eabi_attribute 34, 1
  12              		.eabi_attribute 18, 4
  13              		.thumb
  14              		.file	"spi.c"
  15              		.text
  16              	.Ltext0:
  17              		.cfi_sections	.debug_frame
  18              		.section	.text.spiInit,"ax",%progbits
  19              		.align	2
  20              		.p2align 4,,15
  21              		.global	spiInit
  22              		.thumb
  23              		.thumb_func
  24              		.type	spiInit, %function
  25              	spiInit:
  26              	.LFB56:
  27              		.file 1 "../os/hal/src/spi.c"
  28              		.loc 1 68 0
  29              		.cfi_startproc
  30              		@ args = 0, pretend = 0, frame = 0
  31              		@ frame_needed = 0, uses_anonymous_args = 0
  32              		@ link register save eliminated.
  33              		.loc 1 70 0
  34 0000 FFF7FEBF 		b	spi_lld_init
  35              	.LVL0:
  36              		.cfi_endproc
  37              	.LFE56:
  38              		.size	spiInit, .-spiInit
  39 0004 AFF30080 		.section	.text.spiObjectInit,"ax",%progbits
  39      AFF30080 
  39      AFF30080 
  40              		.align	2
  41              		.p2align 4,,15
  42              		.global	spiObjectInit
  43              		.thumb
  44              		.thumb_func
  45              		.type	spiObjectInit, %function
  46              	spiObjectInit:
  47              	.LFB57:
  48              		.loc 1 80 0
  49              		.cfi_startproc
  50              		@ args = 0, pretend = 0, frame = 0
  51              		@ frame_needed = 0, uses_anonymous_args = 0
  52              		@ link register save eliminated.
  53              	.LVL1:
  54              		.loc 1 83 0
  55 0000 0023     		movs	r3, #0
ARM GAS  /tmp/ccuqxLVc.s 			page 2


  56              		.loc 1 82 0
  57 0002 0122     		movs	r2, #1
  58 0004 0270     		strb	r2, [r0]
  59              		.loc 1 83 0
  60 0006 4360     		str	r3, [r0, #4]
  61              		.loc 1 85 0
  62 0008 8360     		str	r3, [r0, #8]
  63              		.loc 1 89 0
  64 000a 0C30     		adds	r0, r0, #12
  65              	.LVL2:
  66 000c FFF7FEBF 		b	chMtxInit
  67              	.LVL3:
  68              		.cfi_endproc
  69              	.LFE57:
  70              		.size	spiObjectInit, .-spiObjectInit
  71              		.section	.text.spiStart,"ax",%progbits
  72              		.align	2
  73              		.p2align 4,,15
  74              		.global	spiStart
  75              		.thumb
  76              		.thumb_func
  77              		.type	spiStart, %function
  78              	spiStart:
  79              	.LFB58:
  80              		.loc 1 107 0
  81              		.cfi_startproc
  82              		@ args = 0, pretend = 0, frame = 0
  83              		@ frame_needed = 0, uses_anonymous_args = 0
  84              	.LVL4:
  85 0000 10B5     		push	{r4, lr}
  86              		.cfi_def_cfa_offset 8
  87              		.cfi_offset 4, -8
  88              		.cfi_offset 14, -4
  89              		.loc 1 107 0
  90 0002 0446     		mov	r4, r0
  91              		.loc 1 111 0
  92              	@ 111 "../os/hal/src/spi.c" 1
  93 0004 FFF7FEFF 		bl      _port_lock
  94              	@ 0 "" 2
  95              		.loc 1 114 0
  96              		.thumb
  97 0008 4160     		str	r1, [r0, #4]
  98              		.loc 1 115 0
  99 000a FFF7FEFF 		bl	spi_lld_start
 100              	.LVL5:
 101              		.loc 1 116 0
 102 000e 0223     		movs	r3, #2
 103 0010 2370     		strb	r3, [r4]
 104              		.loc 1 117 0
 105              	@ 117 "../os/hal/src/spi.c" 1
 106 0012 FFF7FEFF 		bl      _port_unlock
 107              	@ 0 "" 2
 108              		.thumb
 109 0016 10BD     		pop	{r4, pc}
 110              		.cfi_endproc
 111              	.LFE58:
 112              		.size	spiStart, .-spiStart
ARM GAS  /tmp/ccuqxLVc.s 			page 3


 113 0018 AFF30080 		.section	.text.spiStop,"ax",%progbits
 113      AFF30080 
 114              		.align	2
 115              		.p2align 4,,15
 116              		.global	spiStop
 117              		.thumb
 118              		.thumb_func
 119              		.type	spiStop, %function
 120              	spiStop:
 121              	.LFB59:
 122              		.loc 1 129 0
 123              		.cfi_startproc
 124              		@ args = 0, pretend = 0, frame = 0
 125              		@ frame_needed = 0, uses_anonymous_args = 0
 126              	.LVL6:
 127 0000 10B5     		push	{r4, lr}
 128              		.cfi_def_cfa_offset 8
 129              		.cfi_offset 4, -8
 130              		.cfi_offset 14, -4
 131              		.loc 1 129 0
 132 0002 0446     		mov	r4, r0
 133              		.loc 1 133 0
 134              	@ 133 "../os/hal/src/spi.c" 1
 135 0004 FFF7FEFF 		bl      _port_lock
 136              	@ 0 "" 2
 137              		.loc 1 136 0
 138              		.thumb
 139 0008 FFF7FEFF 		bl	spi_lld_unselect
 140              	.LVL7:
 141              		.loc 1 137 0
 142 000c 2046     		mov	r0, r4
 143 000e FFF7FEFF 		bl	spi_lld_stop
 144              	.LVL8:
 145              		.loc 1 138 0
 146 0012 0123     		movs	r3, #1
 147 0014 2370     		strb	r3, [r4]
 148              		.loc 1 139 0
 149              	@ 139 "../os/hal/src/spi.c" 1
 150 0016 FFF7FEFF 		bl      _port_unlock
 151              	@ 0 "" 2
 152              		.thumb
 153 001a 10BD     		pop	{r4, pc}
 154              		.cfi_endproc
 155              	.LFE59:
 156              		.size	spiStop, .-spiStop
 157 001c AFF30080 		.section	.text.spiSelect,"ax",%progbits
 158              		.align	2
 159              		.p2align 4,,15
 160              		.global	spiSelect
 161              		.thumb
 162              		.thumb_func
 163              		.type	spiSelect, %function
 164              	spiSelect:
 165              	.LFB60:
 166              		.loc 1 149 0
 167              		.cfi_startproc
 168              		@ args = 0, pretend = 0, frame = 0
ARM GAS  /tmp/ccuqxLVc.s 			page 4


 169              		@ frame_needed = 0, uses_anonymous_args = 0
 170              	.LVL9:
 171 0000 08B5     		push	{r3, lr}
 172              		.cfi_def_cfa_offset 8
 173              		.cfi_offset 3, -8
 174              		.cfi_offset 14, -4
 175              		.loc 1 153 0
 176              	@ 153 "../os/hal/src/spi.c" 1
 177 0002 FFF7FEFF 		bl      _port_lock
 178              	@ 0 "" 2
 179              		.loc 1 155 0
 180              		.thumb
 181 0006 FFF7FEFF 		bl	spi_lld_select
 182              	.LVL10:
 183              		.loc 1 156 0
 184              	@ 156 "../os/hal/src/spi.c" 1
 185 000a FFF7FEFF 		bl      _port_unlock
 186              	@ 0 "" 2
 187              		.thumb
 188 000e 08BD     		pop	{r3, pc}
 189              		.cfi_endproc
 190              	.LFE60:
 191              		.size	spiSelect, .-spiSelect
 192              		.section	.text.spiUnselect,"ax",%progbits
 193              		.align	2
 194              		.p2align 4,,15
 195              		.global	spiUnselect
 196              		.thumb
 197              		.thumb_func
 198              		.type	spiUnselect, %function
 199              	spiUnselect:
 200              	.LFB61:
 201              		.loc 1 167 0
 202              		.cfi_startproc
 203              		@ args = 0, pretend = 0, frame = 0
 204              		@ frame_needed = 0, uses_anonymous_args = 0
 205              	.LVL11:
 206 0000 08B5     		push	{r3, lr}
 207              		.cfi_def_cfa_offset 8
 208              		.cfi_offset 3, -8
 209              		.cfi_offset 14, -4
 210              		.loc 1 171 0
 211              	@ 171 "../os/hal/src/spi.c" 1
 212 0002 FFF7FEFF 		bl      _port_lock
 213              	@ 0 "" 2
 214              		.loc 1 173 0
 215              		.thumb
 216 0006 FFF7FEFF 		bl	spi_lld_unselect
 217              	.LVL12:
 218              		.loc 1 174 0
 219              	@ 174 "../os/hal/src/spi.c" 1
 220 000a FFF7FEFF 		bl      _port_unlock
 221              	@ 0 "" 2
 222              		.thumb
 223 000e 08BD     		pop	{r3, pc}
 224              		.cfi_endproc
 225              	.LFE61:
ARM GAS  /tmp/ccuqxLVc.s 			page 5


 226              		.size	spiUnselect, .-spiUnselect
 227              		.section	.text.spiStartIgnore,"ax",%progbits
 228              		.align	2
 229              		.p2align 4,,15
 230              		.global	spiStartIgnore
 231              		.thumb
 232              		.thumb_func
 233              		.type	spiStartIgnore, %function
 234              	spiStartIgnore:
 235              	.LFB62:
 236              		.loc 1 190 0
 237              		.cfi_startproc
 238              		@ args = 0, pretend = 0, frame = 0
 239              		@ frame_needed = 0, uses_anonymous_args = 0
 240              	.LVL13:
 241 0000 08B5     		push	{r3, lr}
 242              		.cfi_def_cfa_offset 8
 243              		.cfi_offset 3, -8
 244              		.cfi_offset 14, -4
 245              		.loc 1 194 0
 246              	@ 194 "../os/hal/src/spi.c" 1
 247 0002 FFF7FEFF 		bl      _port_lock
 248              	@ 0 "" 2
 249              		.loc 1 196 0
 250              		.thumb
 251 0006 0323     		movs	r3, #3
 252 0008 0370     		strb	r3, [r0]
 253 000a FFF7FEFF 		bl	spi_lld_ignore
 254              	.LVL14:
 255              		.loc 1 197 0
 256              	@ 197 "../os/hal/src/spi.c" 1
 257 000e FFF7FEFF 		bl      _port_unlock
 258              	@ 0 "" 2
 259              		.thumb
 260 0012 08BD     		pop	{r3, pc}
 261              		.cfi_endproc
 262              	.LFE62:
 263              		.size	spiStartIgnore, .-spiStartIgnore
 264 0014 AFF30080 		.section	.text.spiStartExchange,"ax",%progbits
 264      AFF30080 
 264      AFF30080 
 265              		.align	2
 266              		.p2align 4,,15
 267              		.global	spiStartExchange
 268              		.thumb
 269              		.thumb_func
 270              		.type	spiStartExchange, %function
 271              	spiStartExchange:
 272              	.LFB63:
 273              		.loc 1 218 0
 274              		.cfi_startproc
 275              		@ args = 0, pretend = 0, frame = 0
 276              		@ frame_needed = 0, uses_anonymous_args = 0
 277              	.LVL15:
 278 0000 38B5     		push	{r3, r4, r5, lr}
 279              		.cfi_def_cfa_offset 16
 280              		.cfi_offset 3, -16
ARM GAS  /tmp/ccuqxLVc.s 			page 6


 281              		.cfi_offset 4, -12
 282              		.cfi_offset 5, -8
 283              		.cfi_offset 14, -4
 284              		.loc 1 218 0
 285 0002 1C46     		mov	r4, r3
 286              		.loc 1 223 0
 287              	@ 223 "../os/hal/src/spi.c" 1
 288 0004 FFF7FEFF 		bl      _port_lock
 289              	@ 0 "" 2
 290              	.LVL16:
 291              		.loc 1 225 0
 292              		.thumb
 293 0008 0325     		movs	r5, #3
 294 000a 2346     		mov	r3, r4
 295 000c 0570     		strb	r5, [r0]
 296 000e FFF7FEFF 		bl	spi_lld_exchange
 297              	.LVL17:
 298              		.loc 1 226 0
 299              	@ 226 "../os/hal/src/spi.c" 1
 300 0012 FFF7FEFF 		bl      _port_unlock
 301              	@ 0 "" 2
 302              		.thumb
 303 0016 38BD     		pop	{r3, r4, r5, pc}
 304              		.cfi_endproc
 305              	.LFE63:
 306              		.size	spiStartExchange, .-spiStartExchange
 307 0018 AFF30080 		.section	.text.spiStartSend,"ax",%progbits
 307      AFF30080 
 308              		.align	2
 309              		.p2align 4,,15
 310              		.global	spiStartSend
 311              		.thumb
 312              		.thumb_func
 313              		.type	spiStartSend, %function
 314              	spiStartSend:
 315              	.LFB64:
 316              		.loc 1 244 0
 317              		.cfi_startproc
 318              		@ args = 0, pretend = 0, frame = 0
 319              		@ frame_needed = 0, uses_anonymous_args = 0
 320              	.LVL18:
 321 0000 08B5     		push	{r3, lr}
 322              		.cfi_def_cfa_offset 8
 323              		.cfi_offset 3, -8
 324              		.cfi_offset 14, -4
 325              		.loc 1 249 0
 326              	@ 249 "../os/hal/src/spi.c" 1
 327 0002 FFF7FEFF 		bl      _port_lock
 328              	@ 0 "" 2
 329              		.loc 1 251 0
 330              		.thumb
 331 0006 0323     		movs	r3, #3
 332 0008 0370     		strb	r3, [r0]
 333 000a FFF7FEFF 		bl	spi_lld_send
 334              	.LVL19:
 335              		.loc 1 252 0
 336              	@ 252 "../os/hal/src/spi.c" 1
ARM GAS  /tmp/ccuqxLVc.s 			page 7


 337 000e FFF7FEFF 		bl      _port_unlock
 338              	@ 0 "" 2
 339              		.thumb
 340 0012 08BD     		pop	{r3, pc}
 341              		.cfi_endproc
 342              	.LFE64:
 343              		.size	spiStartSend, .-spiStartSend
 344 0014 AFF30080 		.section	.text.spiStartReceive,"ax",%progbits
 344      AFF30080 
 344      AFF30080 
 345              		.align	2
 346              		.p2align 4,,15
 347              		.global	spiStartReceive
 348              		.thumb
 349              		.thumb_func
 350              		.type	spiStartReceive, %function
 351              	spiStartReceive:
 352              	.LFB65:
 353              		.loc 1 270 0
 354              		.cfi_startproc
 355              		@ args = 0, pretend = 0, frame = 0
 356              		@ frame_needed = 0, uses_anonymous_args = 0
 357              	.LVL20:
 358 0000 08B5     		push	{r3, lr}
 359              		.cfi_def_cfa_offset 8
 360              		.cfi_offset 3, -8
 361              		.cfi_offset 14, -4
 362              		.loc 1 275 0
 363              	@ 275 "../os/hal/src/spi.c" 1
 364 0002 FFF7FEFF 		bl      _port_lock
 365              	@ 0 "" 2
 366              		.loc 1 277 0
 367              		.thumb
 368 0006 0323     		movs	r3, #3
 369 0008 0370     		strb	r3, [r0]
 370 000a FFF7FEFF 		bl	spi_lld_receive
 371              	.LVL21:
 372              		.loc 1 278 0
 373              	@ 278 "../os/hal/src/spi.c" 1
 374 000e FFF7FEFF 		bl      _port_unlock
 375              	@ 0 "" 2
 376              		.thumb
 377 0012 08BD     		pop	{r3, pc}
 378              		.cfi_endproc
 379              	.LFE65:
 380              		.size	spiStartReceive, .-spiStartReceive
 381 0014 AFF30080 		.section	.text.spiIgnore,"ax",%progbits
 381      AFF30080 
 381      AFF30080 
 382              		.align	2
 383              		.p2align 4,,15
 384              		.global	spiIgnore
 385              		.thumb
 386              		.thumb_func
 387              		.type	spiIgnore, %function
 388              	spiIgnore:
 389              	.LFB66:
ARM GAS  /tmp/ccuqxLVc.s 			page 8


 390              		.loc 1 296 0
 391              		.cfi_startproc
 392              		@ args = 0, pretend = 0, frame = 0
 393              		@ frame_needed = 0, uses_anonymous_args = 0
 394              	.LVL22:
 395 0000 10B5     		push	{r4, lr}
 396              		.cfi_def_cfa_offset 8
 397              		.cfi_offset 4, -8
 398              		.cfi_offset 14, -4
 399              		.loc 1 296 0
 400 0002 0446     		mov	r4, r0
 401              		.loc 1 300 0
 402              	@ 300 "../os/hal/src/spi.c" 1
 403 0004 FFF7FEFF 		bl      _port_lock
 404              	@ 0 "" 2
 405              		.loc 1 303 0
 406              		.thumb
 407 0008 0323     		movs	r3, #3
 408 000a 0370     		strb	r3, [r0]
 409 000c FFF7FEFF 		bl	spi_lld_ignore
 410              	.LVL23:
 411              		.loc 1 304 0
 412 0010 40F20003 		movw	r3, #:lower16:rlist
 413 0014 C0F20003 		movt	r3, #:upper16:rlist
 414 0018 1B69     		ldr	r3, [r3, #16]
 415 001a 0220     		movs	r0, #2
 416 001c A360     		str	r3, [r4, #8]
 417 001e FFF7FEFF 		bl	chSchGoSleepS
 418              	.LVL24:
 419              		.loc 1 305 0
 420              	@ 305 "../os/hal/src/spi.c" 1
 421 0022 FFF7FEFF 		bl      _port_unlock
 422              	@ 0 "" 2
 423              		.thumb
 424 0026 10BD     		pop	{r4, pc}
 425              		.cfi_endproc
 426              	.LFE66:
 427              		.size	spiIgnore, .-spiIgnore
 428 0028 AFF30080 		.section	.text.spiExchange,"ax",%progbits
 428      AFF30080 
 429              		.align	2
 430              		.p2align 4,,15
 431              		.global	spiExchange
 432              		.thumb
 433              		.thumb_func
 434              		.type	spiExchange, %function
 435              	spiExchange:
 436              	.LFB67:
 437              		.loc 1 327 0
 438              		.cfi_startproc
 439              		@ args = 0, pretend = 0, frame = 0
 440              		@ frame_needed = 0, uses_anonymous_args = 0
 441              	.LVL25:
 442 0000 38B5     		push	{r3, r4, r5, lr}
 443              		.cfi_def_cfa_offset 16
 444              		.cfi_offset 3, -16
 445              		.cfi_offset 4, -12
ARM GAS  /tmp/ccuqxLVc.s 			page 9


 446              		.cfi_offset 5, -8
 447              		.cfi_offset 14, -4
 448              		.loc 1 327 0
 449 0002 0446     		mov	r4, r0
 450 0004 1846     		mov	r0, r3
 451              	.LVL26:
 452              		.loc 1 332 0
 453              	@ 332 "../os/hal/src/spi.c" 1
 454 0006 FFF7FEFF 		bl      _port_lock
 455              	@ 0 "" 2
 456              	.LVL27:
 457              		.loc 1 336 0
 458              		.thumb
 459 000a 0325     		movs	r5, #3
 460 000c 0346     		mov	r3, r0
 461 000e 2570     		strb	r5, [r4]
 462 0010 2046     		mov	r0, r4
 463              	.LVL28:
 464 0012 FFF7FEFF 		bl	spi_lld_exchange
 465              	.LVL29:
 466              		.loc 1 337 0
 467 0016 40F20003 		movw	r3, #:lower16:rlist
 468 001a C0F20003 		movt	r3, #:upper16:rlist
 469 001e 1B69     		ldr	r3, [r3, #16]
 470 0020 0220     		movs	r0, #2
 471 0022 A360     		str	r3, [r4, #8]
 472 0024 FFF7FEFF 		bl	chSchGoSleepS
 473              	.LVL30:
 474              		.loc 1 338 0
 475              	@ 338 "../os/hal/src/spi.c" 1
 476 0028 FFF7FEFF 		bl      _port_unlock
 477              	@ 0 "" 2
 478              		.thumb
 479 002c 38BD     		pop	{r3, r4, r5, pc}
 480              		.cfi_endproc
 481              	.LFE67:
 482              		.size	spiExchange, .-spiExchange
 483 002e 00BF     		.section	.text.spiSend,"ax",%progbits
 484              		.align	2
 485              		.p2align 4,,15
 486              		.global	spiSend
 487              		.thumb
 488              		.thumb_func
 489              		.type	spiSend, %function
 490              	spiSend:
 491              	.LFB68:
 492              		.loc 1 357 0
 493              		.cfi_startproc
 494              		@ args = 0, pretend = 0, frame = 0
 495              		@ frame_needed = 0, uses_anonymous_args = 0
 496              	.LVL31:
 497 0000 10B5     		push	{r4, lr}
 498              		.cfi_def_cfa_offset 8
 499              		.cfi_offset 4, -8
 500              		.cfi_offset 14, -4
 501              		.loc 1 357 0
 502 0002 0446     		mov	r4, r0
ARM GAS  /tmp/ccuqxLVc.s 			page 10


 503              		.loc 1 361 0
 504              	@ 361 "../os/hal/src/spi.c" 1
 505 0004 FFF7FEFF 		bl      _port_lock
 506              	@ 0 "" 2
 507              		.loc 1 364 0
 508              		.thumb
 509 0008 0323     		movs	r3, #3
 510 000a 0370     		strb	r3, [r0]
 511 000c FFF7FEFF 		bl	spi_lld_send
 512              	.LVL32:
 513              		.loc 1 365 0
 514 0010 40F20003 		movw	r3, #:lower16:rlist
 515 0014 C0F20003 		movt	r3, #:upper16:rlist
 516 0018 1B69     		ldr	r3, [r3, #16]
 517 001a 0220     		movs	r0, #2
 518 001c A360     		str	r3, [r4, #8]
 519 001e FFF7FEFF 		bl	chSchGoSleepS
 520              	.LVL33:
 521              		.loc 1 366 0
 522              	@ 366 "../os/hal/src/spi.c" 1
 523 0022 FFF7FEFF 		bl      _port_unlock
 524              	@ 0 "" 2
 525              		.thumb
 526 0026 10BD     		pop	{r4, pc}
 527              		.cfi_endproc
 528              	.LFE68:
 529              		.size	spiSend, .-spiSend
 530 0028 AFF30080 		.section	.text.spiReceive,"ax",%progbits
 530      AFF30080 
 531              		.align	2
 532              		.p2align 4,,15
 533              		.global	spiReceive
 534              		.thumb
 535              		.thumb_func
 536              		.type	spiReceive, %function
 537              	spiReceive:
 538              	.LFB69:
 539              		.loc 1 385 0
 540              		.cfi_startproc
 541              		@ args = 0, pretend = 0, frame = 0
 542              		@ frame_needed = 0, uses_anonymous_args = 0
 543              	.LVL34:
 544 0000 10B5     		push	{r4, lr}
 545              		.cfi_def_cfa_offset 8
 546              		.cfi_offset 4, -8
 547              		.cfi_offset 14, -4
 548              		.loc 1 385 0
 549 0002 0446     		mov	r4, r0
 550              		.loc 1 390 0
 551              	@ 390 "../os/hal/src/spi.c" 1
 552 0004 FFF7FEFF 		bl      _port_lock
 553              	@ 0 "" 2
 554              		.loc 1 394 0
 555              		.thumb
 556 0008 0323     		movs	r3, #3
 557 000a 0370     		strb	r3, [r0]
 558 000c FFF7FEFF 		bl	spi_lld_receive
ARM GAS  /tmp/ccuqxLVc.s 			page 11


 559              	.LVL35:
 560              		.loc 1 395 0
 561 0010 40F20003 		movw	r3, #:lower16:rlist
 562 0014 C0F20003 		movt	r3, #:upper16:rlist
 563 0018 1B69     		ldr	r3, [r3, #16]
 564 001a 0220     		movs	r0, #2
 565 001c A360     		str	r3, [r4, #8]
 566 001e FFF7FEFF 		bl	chSchGoSleepS
 567              	.LVL36:
 568              		.loc 1 396 0
 569              	@ 396 "../os/hal/src/spi.c" 1
 570 0022 FFF7FEFF 		bl      _port_unlock
 571              	@ 0 "" 2
 572              		.thumb
 573 0026 10BD     		pop	{r4, pc}
 574              		.cfi_endproc
 575              	.LFE69:
 576              		.size	spiReceive, .-spiReceive
 577 0028 AFF30080 		.section	.text.spiAcquireBus,"ax",%progbits
 577      AFF30080 
 578              		.align	2
 579              		.p2align 4,,15
 580              		.global	spiAcquireBus
 581              		.thumb
 582              		.thumb_func
 583              		.type	spiAcquireBus, %function
 584              	spiAcquireBus:
 585              	.LFB70:
 586              		.loc 1 412 0
 587              		.cfi_startproc
 588              		@ args = 0, pretend = 0, frame = 0
 589              		@ frame_needed = 0, uses_anonymous_args = 0
 590              		@ link register save eliminated.
 591              	.LVL37:
 592              		.loc 1 417 0
 593 0000 0C30     		adds	r0, r0, #12
 594              	.LVL38:
 595 0002 FFF7FEBF 		b	chMtxLock
 596              	.LVL39:
 597              		.cfi_endproc
 598              	.LFE70:
 599              		.size	spiAcquireBus, .-spiAcquireBus
 600 0006 00BFAFF3 		.section	.text.spiReleaseBus,"ax",%progbits
 600      0080AFF3 
 600      0080
 601              		.align	2
 602              		.p2align 4,,15
 603              		.global	spiReleaseBus
 604              		.thumb
 605              		.thumb_func
 606              		.type	spiReleaseBus, %function
 607              	spiReleaseBus:
 608              	.LFB71:
 609              		.loc 1 432 0
 610              		.cfi_startproc
 611              		@ args = 0, pretend = 0, frame = 0
 612              		@ frame_needed = 0, uses_anonymous_args = 0
ARM GAS  /tmp/ccuqxLVc.s 			page 12


 613              		@ link register save eliminated.
 614              	.LVL40:
 615              		.loc 1 438 0
 616 0000 FFF7FEBF 		b	chMtxUnlock
 617              	.LVL41:
 618              		.cfi_endproc
 619              	.LFE71:
 620              		.size	spiReleaseBus, .-spiReleaseBus
 621 0004 AFF30080 		.text
 621      AFF30080 
 621      AFF30080 
 622              	.Letext0:
 623              		.file 2 "/usr/lib/gcc/arm-none-eabi/4.8.2/include/stddef.h"
 624              		.file 3 "/usr/include/newlib/machine/_default_types.h"
 625              		.file 4 "/usr/include/newlib/stdint.h"
 626              		.file 5 "../os/ports/GCC/ARMCMx/chtypes.h"
 627              		.file 6 "../os/kernel/include/chlists.h"
 628              		.file 7 "../os/kernel/include/chthreads.h"
 629              		.file 8 "../os/ports/GCC/ARMCMx/chcore_v7m.h"
 630              		.file 9 "../os/kernel/include/chschd.h"
 631              		.file 10 "../os/kernel/include/chmtx.h"
 632              		.file 11 "../os/hal/platforms/STM32F1xx/stm32f10x.h"
 633              		.file 12 "../os/hal/platforms/STM32F1xx/stm32_dma.h"
 634              		.file 13 "../os/hal/platforms/STM32/GPIOv1/pal_lld.h"
 635              		.file 14 "../os/hal/include/spi.h"
 636              		.file 15 "../os/hal/platforms/STM32/SPIv1/spi_lld.h"
 637              		.file 16 "../os/ports/common/ARMCMx/CMSIS/include/core_cm3.h"
 638              		.section	.debug_info,"",%progbits
 639              	.Ldebug_info0:
 640 0000 480D0000 		.4byte	0xd48
 641 0004 0400     		.2byte	0x4
 642 0006 00000000 		.4byte	.Ldebug_abbrev0
 643 000a 04       		.byte	0x4
 644 000b 01       		.uleb128 0x1
 645 000c 32040000 		.4byte	.LASF139
 646 0010 01       		.byte	0x1
 647 0011 1D020000 		.4byte	.LASF140
 648 0015 A8020000 		.4byte	.LASF141
 649 0019 00000000 		.4byte	.Ldebug_ranges0+0
 650 001d 00000000 		.4byte	0
 651 0021 00000000 		.4byte	.Ldebug_line0
 652 0025 02       		.uleb128 0x2
 653 0026 04       		.byte	0x4
 654 0027 05       		.byte	0x5
 655 0028 696E7400 		.ascii	"int\000"
 656 002c 03       		.uleb128 0x3
 657 002d 06000000 		.4byte	.LASF2
 658 0031 02       		.byte	0x2
 659 0032 D4       		.byte	0xd4
 660 0033 37000000 		.4byte	0x37
 661 0037 04       		.uleb128 0x4
 662 0038 04       		.byte	0x4
 663 0039 07       		.byte	0x7
 664 003a 9D010000 		.4byte	.LASF0
 665 003e 04       		.uleb128 0x4
 666 003f 01       		.byte	0x1
 667 0040 06       		.byte	0x6
ARM GAS  /tmp/ccuqxLVc.s 			page 13


 668 0041 9B000000 		.4byte	.LASF1
 669 0045 03       		.uleb128 0x3
 670 0046 14000000 		.4byte	.LASF3
 671 004a 03       		.byte	0x3
 672 004b 1C       		.byte	0x1c
 673 004c 50000000 		.4byte	0x50
 674 0050 04       		.uleb128 0x4
 675 0051 01       		.byte	0x1
 676 0052 08       		.byte	0x8
 677 0053 C7030000 		.4byte	.LASF4
 678 0057 04       		.uleb128 0x4
 679 0058 02       		.byte	0x2
 680 0059 05       		.byte	0x5
 681 005a F2030000 		.4byte	.LASF5
 682 005e 03       		.uleb128 0x3
 683 005f 64050000 		.4byte	.LASF6
 684 0063 03       		.byte	0x3
 685 0064 26       		.byte	0x26
 686 0065 69000000 		.4byte	0x69
 687 0069 04       		.uleb128 0x4
 688 006a 02       		.byte	0x2
 689 006b 07       		.byte	0x7
 690 006c 0A020000 		.4byte	.LASF7
 691 0070 03       		.uleb128 0x3
 692 0071 8C050000 		.4byte	.LASF8
 693 0075 03       		.byte	0x3
 694 0076 37       		.byte	0x37
 695 0077 7B000000 		.4byte	0x7b
 696 007b 04       		.uleb128 0x4
 697 007c 04       		.byte	0x4
 698 007d 05       		.byte	0x5
 699 007e F0000000 		.4byte	.LASF9
 700 0082 03       		.uleb128 0x3
 701 0083 60010000 		.4byte	.LASF10
 702 0087 03       		.byte	0x3
 703 0088 38       		.byte	0x38
 704 0089 8D000000 		.4byte	0x8d
 705 008d 04       		.uleb128 0x4
 706 008e 04       		.byte	0x4
 707 008f 07       		.byte	0x7
 708 0090 25050000 		.4byte	.LASF11
 709 0094 04       		.uleb128 0x4
 710 0095 08       		.byte	0x8
 711 0096 05       		.byte	0x5
 712 0097 23010000 		.4byte	.LASF12
 713 009b 04       		.uleb128 0x4
 714 009c 08       		.byte	0x8
 715 009d 07       		.byte	0x7
 716 009e 3D000000 		.4byte	.LASF13
 717 00a2 03       		.uleb128 0x3
 718 00a3 48060000 		.4byte	.LASF14
 719 00a7 04       		.byte	0x4
 720 00a8 2A       		.byte	0x2a
 721 00a9 45000000 		.4byte	0x45
 722 00ad 03       		.uleb128 0x3
 723 00ae 31010000 		.4byte	.LASF15
 724 00b2 04       		.byte	0x4
ARM GAS  /tmp/ccuqxLVc.s 			page 14


 725 00b3 36       		.byte	0x36
 726 00b4 5E000000 		.4byte	0x5e
 727 00b8 03       		.uleb128 0x3
 728 00b9 BF030000 		.4byte	.LASF16
 729 00bd 04       		.byte	0x4
 730 00be 41       		.byte	0x41
 731 00bf 70000000 		.4byte	0x70
 732 00c3 03       		.uleb128 0x3
 733 00c4 14050000 		.4byte	.LASF17
 734 00c8 04       		.byte	0x4
 735 00c9 42       		.byte	0x42
 736 00ca 82000000 		.4byte	0x82
 737 00ce 04       		.uleb128 0x4
 738 00cf 01       		.byte	0x1
 739 00d0 02       		.byte	0x2
 740 00d1 B9030000 		.4byte	.LASF18
 741 00d5 03       		.uleb128 0x3
 742 00d6 37020000 		.4byte	.LASF19
 743 00da 05       		.byte	0x5
 744 00db 2C       		.byte	0x2c
 745 00dc A2000000 		.4byte	0xa2
 746 00e0 03       		.uleb128 0x3
 747 00e1 F9000000 		.4byte	.LASF20
 748 00e5 05       		.byte	0x5
 749 00e6 2D       		.byte	0x2d
 750 00e7 A2000000 		.4byte	0xa2
 751 00eb 03       		.uleb128 0x3
 752 00ec D2000000 		.4byte	.LASF21
 753 00f0 05       		.byte	0x5
 754 00f1 2F       		.byte	0x2f
 755 00f2 A2000000 		.4byte	0xa2
 756 00f6 03       		.uleb128 0x3
 757 00f7 AB030000 		.4byte	.LASF22
 758 00fb 05       		.byte	0x5
 759 00fc 30       		.byte	0x30
 760 00fd C3000000 		.4byte	0xc3
 761 0101 03       		.uleb128 0x3
 762 0102 31020000 		.4byte	.LASF23
 763 0106 05       		.byte	0x5
 764 0107 31       		.byte	0x31
 765 0108 B8000000 		.4byte	0xb8
 766 010c 03       		.uleb128 0x3
 767 010d 4B020000 		.4byte	.LASF24
 768 0111 05       		.byte	0x5
 769 0112 33       		.byte	0x33
 770 0113 C3000000 		.4byte	0xc3
 771 0117 03       		.uleb128 0x3
 772 0118 69020000 		.4byte	.LASF25
 773 011c 06       		.byte	0x6
 774 011d 2A       		.byte	0x2a
 775 011e 22010000 		.4byte	0x122
 776 0122 05       		.uleb128 0x5
 777 0123 69020000 		.4byte	.LASF25
 778 0127 34       		.byte	0x34
 779 0128 07       		.byte	0x7
 780 0129 5E       		.byte	0x5e
 781 012a D7010000 		.4byte	0x1d7
ARM GAS  /tmp/ccuqxLVc.s 			page 15


 782 012e 06       		.uleb128 0x6
 783 012f 23040000 		.4byte	.LASF26
 784 0133 07       		.byte	0x7
 785 0134 5F       		.byte	0x5f
 786 0135 F8010000 		.4byte	0x1f8
 787 0139 00       		.byte	0
 788 013a 06       		.uleb128 0x6
 789 013b 86030000 		.4byte	.LASF27
 790 013f 07       		.byte	0x7
 791 0140 61       		.byte	0x61
 792 0141 F8010000 		.4byte	0x1f8
 793 0145 04       		.byte	0x4
 794 0146 06       		.uleb128 0x6
 795 0147 88000000 		.4byte	.LASF28
 796 014b 07       		.byte	0x7
 797 014c 63       		.byte	0x63
 798 014d F6000000 		.4byte	0xf6
 799 0151 08       		.byte	0x8
 800 0152 06       		.uleb128 0x6
 801 0153 7C060000 		.4byte	.LASF29
 802 0157 07       		.byte	0x7
 803 0158 64       		.byte	0x64
 804 0159 B2020000 		.4byte	0x2b2
 805 015d 0C       		.byte	0xc
 806 015e 06       		.uleb128 0x6
 807 015f FC030000 		.4byte	.LASF30
 808 0163 07       		.byte	0x7
 809 0164 79       		.byte	0x79
 810 0165 E0000000 		.4byte	0xe0
 811 0169 10       		.byte	0x10
 812 016a 06       		.uleb128 0x6
 813 016b 2A040000 		.4byte	.LASF31
 814 016f 07       		.byte	0x7
 815 0170 7D       		.byte	0x7d
 816 0171 D5000000 		.4byte	0xd5
 817 0175 11       		.byte	0x11
 818 0176 06       		.uleb128 0x6
 819 0177 04040000 		.4byte	.LASF32
 820 017b 07       		.byte	0x7
 821 017c 88       		.byte	0x88
 822 017d EB000000 		.4byte	0xeb
 823 0181 12       		.byte	0x12
 824 0182 07       		.uleb128 0x7
 825 0183 705F7500 		.ascii	"p_u\000"
 826 0187 07       		.byte	0x7
 827 0188 B4       		.byte	0xb4
 828 0189 65030000 		.4byte	0x365
 829 018d 14       		.byte	0x14
 830 018e 06       		.uleb128 0x6
 831 018f 82060000 		.4byte	.LASF33
 832 0193 07       		.byte	0x7
 833 0194 B9       		.byte	0xb9
 834 0195 1E020000 		.4byte	0x21e
 835 0199 18       		.byte	0x18
 836 019a 06       		.uleb128 0x6
 837 019b D1010000 		.4byte	.LASF34
 838 019f 07       		.byte	0x7
ARM GAS  /tmp/ccuqxLVc.s 			page 16


 839 01a0 BF       		.byte	0xbf
 840 01a1 FE010000 		.4byte	0x1fe
 841 01a5 1C       		.byte	0x1c
 842 01a6 06       		.uleb128 0x6
 843 01a7 6E060000 		.4byte	.LASF35
 844 01ab 07       		.byte	0x7
 845 01ac C3       		.byte	0xc3
 846 01ad 01010000 		.4byte	0x101
 847 01b1 24       		.byte	0x24
 848 01b2 06       		.uleb128 0x6
 849 01b3 FA040000 		.4byte	.LASF36
 850 01b7 07       		.byte	0x7
 851 01b8 C9       		.byte	0xc9
 852 01b9 0C010000 		.4byte	0x10c
 853 01bd 28       		.byte	0x28
 854 01be 06       		.uleb128 0x6
 855 01bf E8030000 		.4byte	.LASF37
 856 01c3 07       		.byte	0x7
 857 01c4 D0       		.byte	0xd0
 858 01c5 9A030000 		.4byte	0x39a
 859 01c9 2C       		.byte	0x2c
 860 01ca 06       		.uleb128 0x6
 861 01cb 81050000 		.4byte	.LASF38
 862 01cf 07       		.byte	0x7
 863 01d0 D4       		.byte	0xd4
 864 01d1 F6000000 		.4byte	0xf6
 865 01d5 30       		.byte	0x30
 866 01d6 00       		.byte	0
 867 01d7 08       		.uleb128 0x8
 868 01d8 08       		.byte	0x8
 869 01d9 06       		.byte	0x6
 870 01da 61       		.byte	0x61
 871 01db F8010000 		.4byte	0x1f8
 872 01df 06       		.uleb128 0x6
 873 01e0 23040000 		.4byte	.LASF26
 874 01e4 06       		.byte	0x6
 875 01e5 62       		.byte	0x62
 876 01e6 F8010000 		.4byte	0x1f8
 877 01ea 00       		.byte	0
 878 01eb 06       		.uleb128 0x6
 879 01ec 86030000 		.4byte	.LASF27
 880 01f0 06       		.byte	0x6
 881 01f1 64       		.byte	0x64
 882 01f2 F8010000 		.4byte	0x1f8
 883 01f6 04       		.byte	0x4
 884 01f7 00       		.byte	0
 885 01f8 09       		.uleb128 0x9
 886 01f9 04       		.byte	0x4
 887 01fa 17010000 		.4byte	0x117
 888 01fe 03       		.uleb128 0x3
 889 01ff 18030000 		.4byte	.LASF39
 890 0203 06       		.byte	0x6
 891 0204 66       		.byte	0x66
 892 0205 D7010000 		.4byte	0x1d7
 893 0209 08       		.uleb128 0x8
 894 020a 04       		.byte	0x4
 895 020b 06       		.byte	0x6
ARM GAS  /tmp/ccuqxLVc.s 			page 17


 896 020c 6B       		.byte	0x6b
 897 020d 1E020000 		.4byte	0x21e
 898 0211 06       		.uleb128 0x6
 899 0212 23040000 		.4byte	.LASF26
 900 0216 06       		.byte	0x6
 901 0217 6D       		.byte	0x6d
 902 0218 F8010000 		.4byte	0x1f8
 903 021c 00       		.byte	0
 904 021d 00       		.byte	0
 905 021e 03       		.uleb128 0x3
 906 021f 3F020000 		.4byte	.LASF40
 907 0223 06       		.byte	0x6
 908 0224 70       		.byte	0x70
 909 0225 09020000 		.4byte	0x209
 910 0229 03       		.uleb128 0x3
 911 022a 6B010000 		.4byte	.LASF41
 912 022e 08       		.byte	0x8
 913 022f E5       		.byte	0xe5
 914 0230 34020000 		.4byte	0x234
 915 0234 0A       		.uleb128 0xa
 916 0235 04       		.byte	0x4
 917 0236 0B       		.uleb128 0xb
 918 0237 E2050000 		.4byte	.LASF42
 919 023b 24       		.byte	0x24
 920 023c 08       		.byte	0x8
 921 023d 0C01     		.2byte	0x10c
 922 023f B2020000 		.4byte	0x2b2
 923 0243 0C       		.uleb128 0xc
 924 0244 723400   		.ascii	"r4\000"
 925 0247 08       		.byte	0x8
 926 0248 1F01     		.2byte	0x11f
 927 024a 29020000 		.4byte	0x229
 928 024e 00       		.byte	0
 929 024f 0C       		.uleb128 0xc
 930 0250 723500   		.ascii	"r5\000"
 931 0253 08       		.byte	0x8
 932 0254 2001     		.2byte	0x120
 933 0256 29020000 		.4byte	0x229
 934 025a 04       		.byte	0x4
 935 025b 0C       		.uleb128 0xc
 936 025c 723600   		.ascii	"r6\000"
 937 025f 08       		.byte	0x8
 938 0260 2101     		.2byte	0x121
 939 0262 29020000 		.4byte	0x229
 940 0266 08       		.byte	0x8
 941 0267 0C       		.uleb128 0xc
 942 0268 723700   		.ascii	"r7\000"
 943 026b 08       		.byte	0x8
 944 026c 2201     		.2byte	0x122
 945 026e 29020000 		.4byte	0x229
 946 0272 0C       		.byte	0xc
 947 0273 0C       		.uleb128 0xc
 948 0274 723800   		.ascii	"r8\000"
 949 0277 08       		.byte	0x8
 950 0278 2301     		.2byte	0x123
 951 027a 29020000 		.4byte	0x229
 952 027e 10       		.byte	0x10
ARM GAS  /tmp/ccuqxLVc.s 			page 18


 953 027f 0C       		.uleb128 0xc
 954 0280 723900   		.ascii	"r9\000"
 955 0283 08       		.byte	0x8
 956 0284 2401     		.2byte	0x124
 957 0286 29020000 		.4byte	0x229
 958 028a 14       		.byte	0x14
 959 028b 0C       		.uleb128 0xc
 960 028c 72313000 		.ascii	"r10\000"
 961 0290 08       		.byte	0x8
 962 0291 2501     		.2byte	0x125
 963 0293 29020000 		.4byte	0x229
 964 0297 18       		.byte	0x18
 965 0298 0C       		.uleb128 0xc
 966 0299 72313100 		.ascii	"r11\000"
 967 029d 08       		.byte	0x8
 968 029e 2601     		.2byte	0x126
 969 02a0 29020000 		.4byte	0x229
 970 02a4 1C       		.byte	0x1c
 971 02a5 0C       		.uleb128 0xc
 972 02a6 6C7200   		.ascii	"lr\000"
 973 02a9 08       		.byte	0x8
 974 02aa 2701     		.2byte	0x127
 975 02ac 29020000 		.4byte	0x229
 976 02b0 20       		.byte	0x20
 977 02b1 00       		.byte	0
 978 02b2 0B       		.uleb128 0xb
 979 02b3 02020000 		.4byte	.LASF43
 980 02b7 04       		.byte	0x4
 981 02b8 08       		.byte	0x8
 982 02b9 3101     		.2byte	0x131
 983 02bb CD020000 		.4byte	0x2cd
 984 02bf 0C       		.uleb128 0xc
 985 02c0 72313300 		.ascii	"r13\000"
 986 02c4 08       		.byte	0x8
 987 02c5 3201     		.2byte	0x132
 988 02c7 CD020000 		.4byte	0x2cd
 989 02cb 00       		.byte	0
 990 02cc 00       		.byte	0
 991 02cd 09       		.uleb128 0x9
 992 02ce 04       		.byte	0x4
 993 02cf 36020000 		.4byte	0x236
 994 02d3 0D       		.uleb128 0xd
 995 02d4 C3000000 		.4byte	0xc3
 996 02d8 04       		.uleb128 0x4
 997 02d9 04       		.byte	0x4
 998 02da 07       		.byte	0x7
 999 02db 99020000 		.4byte	.LASF44
 1000 02df 08       		.uleb128 0x8
 1001 02e0 14       		.byte	0x14
 1002 02e1 09       		.byte	0x9
 1003 02e2 5E       		.byte	0x5e
 1004 02e3 18030000 		.4byte	0x318
 1005 02e7 06       		.uleb128 0x6
 1006 02e8 1D050000 		.4byte	.LASF45
 1007 02ec 09       		.byte	0x9
 1008 02ed 5F       		.byte	0x5f
 1009 02ee FE010000 		.4byte	0x1fe
ARM GAS  /tmp/ccuqxLVc.s 			page 19


 1010 02f2 00       		.byte	0
 1011 02f3 06       		.uleb128 0x6
 1012 02f4 70020000 		.4byte	.LASF46
 1013 02f8 09       		.byte	0x9
 1014 02f9 60       		.byte	0x60
 1015 02fa F6000000 		.4byte	0xf6
 1016 02fe 08       		.byte	0x8
 1017 02ff 06       		.uleb128 0x6
 1018 0300 12030000 		.4byte	.LASF47
 1019 0304 09       		.byte	0x9
 1020 0305 62       		.byte	0x62
 1021 0306 B2020000 		.4byte	0x2b2
 1022 030a 0C       		.byte	0xc
 1023 030b 06       		.uleb128 0x6
 1024 030c 2F030000 		.4byte	.LASF48
 1025 0310 09       		.byte	0x9
 1026 0311 69       		.byte	0x69
 1027 0312 F8010000 		.4byte	0x1f8
 1028 0316 10       		.byte	0x10
 1029 0317 00       		.byte	0
 1030 0318 03       		.uleb128 0x3
 1031 0319 57020000 		.4byte	.LASF49
 1032 031d 09       		.byte	0x9
 1033 031e 6B       		.byte	0x6b
 1034 031f DF020000 		.4byte	0x2df
 1035 0323 05       		.uleb128 0x5
 1036 0324 A2020000 		.4byte	.LASF50
 1037 0328 10       		.byte	0x10
 1038 0329 0A       		.byte	0xa
 1039 032a 2C       		.byte	0x2c
 1040 032b 54030000 		.4byte	0x354
 1041 032f 06       		.uleb128 0x6
 1042 0330 CA000000 		.4byte	.LASF51
 1043 0334 0A       		.byte	0xa
 1044 0335 2D       		.byte	0x2d
 1045 0336 FE010000 		.4byte	0x1fe
 1046 033a 00       		.byte	0
 1047 033b 06       		.uleb128 0x6
 1048 033c 74060000 		.4byte	.LASF52
 1049 0340 0A       		.byte	0xa
 1050 0341 2F       		.byte	0x2f
 1051 0342 F8010000 		.4byte	0x1f8
 1052 0346 08       		.byte	0x8
 1053 0347 06       		.uleb128 0x6
 1054 0348 7A050000 		.4byte	.LASF53
 1055 034c 0A       		.byte	0xa
 1056 034d 31       		.byte	0x31
 1057 034e 54030000 		.4byte	0x354
 1058 0352 0C       		.byte	0xc
 1059 0353 00       		.byte	0
 1060 0354 09       		.uleb128 0x9
 1061 0355 04       		.byte	0x4
 1062 0356 23030000 		.4byte	0x323
 1063 035a 03       		.uleb128 0x3
 1064 035b A2020000 		.4byte	.LASF50
 1065 035f 0A       		.byte	0xa
 1066 0360 33       		.byte	0x33
ARM GAS  /tmp/ccuqxLVc.s 			page 20


 1067 0361 23030000 		.4byte	0x323
 1068 0365 0E       		.uleb128 0xe
 1069 0366 04       		.byte	0x4
 1070 0367 07       		.byte	0x7
 1071 0368 96       		.byte	0x96
 1072 0369 9A030000 		.4byte	0x39a
 1073 036d 0F       		.uleb128 0xf
 1074 036e 0D000000 		.4byte	.LASF54
 1075 0372 07       		.byte	0x7
 1076 0373 9D       		.byte	0x9d
 1077 0374 01010000 		.4byte	0x101
 1078 0378 0F       		.uleb128 0xf
 1079 0379 5A000000 		.4byte	.LASF55
 1080 037d 07       		.byte	0x7
 1081 037e A4       		.byte	0xa4
 1082 037f 01010000 		.4byte	0x101
 1083 0383 0F       		.uleb128 0xf
 1084 0384 55060000 		.4byte	.LASF56
 1085 0388 07       		.byte	0x7
 1086 0389 AB       		.byte	0xab
 1087 038a 34020000 		.4byte	0x234
 1088 038e 0F       		.uleb128 0xf
 1089 038f 1C040000 		.4byte	.LASF57
 1090 0393 07       		.byte	0x7
 1091 0394 B2       		.byte	0xb2
 1092 0395 0C010000 		.4byte	0x10c
 1093 0399 00       		.byte	0
 1094 039a 09       		.uleb128 0x9
 1095 039b 04       		.byte	0x4
 1096 039c 5A030000 		.4byte	0x35a
 1097 03a0 0D       		.uleb128 0xd
 1098 03a1 AD000000 		.4byte	0xad
 1099 03a5 0D       		.uleb128 0xd
 1100 03a6 B8000000 		.4byte	0xb8
 1101 03aa 10       		.uleb128 0x10
 1102 03ab 10       		.byte	0x10
 1103 03ac 0B       		.byte	0xb
 1104 03ad 2D03     		.2byte	0x32d
 1105 03af E8030000 		.4byte	0x3e8
 1106 03b3 0C       		.uleb128 0xc
 1107 03b4 43435200 		.ascii	"CCR\000"
 1108 03b8 0B       		.byte	0xb
 1109 03b9 2F03     		.2byte	0x32f
 1110 03bb D3020000 		.4byte	0x2d3
 1111 03bf 00       		.byte	0
 1112 03c0 11       		.uleb128 0x11
 1113 03c1 28060000 		.4byte	.LASF58
 1114 03c5 0B       		.byte	0xb
 1115 03c6 3003     		.2byte	0x330
 1116 03c8 D3020000 		.4byte	0x2d3
 1117 03cc 04       		.byte	0x4
 1118 03cd 11       		.uleb128 0x11
 1119 03ce CC010000 		.4byte	.LASF59
 1120 03d2 0B       		.byte	0xb
 1121 03d3 3103     		.2byte	0x331
 1122 03d5 D3020000 		.4byte	0x2d3
 1123 03d9 08       		.byte	0x8
ARM GAS  /tmp/ccuqxLVc.s 			page 21


 1124 03da 11       		.uleb128 0x11
 1125 03db 2E060000 		.4byte	.LASF60
 1126 03df 0B       		.byte	0xb
 1127 03e0 3203     		.2byte	0x332
 1128 03e2 D3020000 		.4byte	0x2d3
 1129 03e6 0C       		.byte	0xc
 1130 03e7 00       		.byte	0
 1131 03e8 12       		.uleb128 0x12
 1132 03e9 39030000 		.4byte	.LASF61
 1133 03ed 0B       		.byte	0xb
 1134 03ee 3303     		.2byte	0x333
 1135 03f0 AA030000 		.4byte	0x3aa
 1136 03f4 10       		.uleb128 0x10
 1137 03f5 1C       		.byte	0x1c
 1138 03f6 0B       		.byte	0xb
 1139 03f7 F803     		.2byte	0x3f8
 1140 03f9 59040000 		.4byte	0x459
 1141 03fd 0C       		.uleb128 0xc
 1142 03fe 43524C00 		.ascii	"CRL\000"
 1143 0402 0B       		.byte	0xb
 1144 0403 FA03     		.2byte	0x3fa
 1145 0405 D3020000 		.4byte	0x2d3
 1146 0409 00       		.byte	0
 1147 040a 0C       		.uleb128 0xc
 1148 040b 43524800 		.ascii	"CRH\000"
 1149 040f 0B       		.byte	0xb
 1150 0410 FB03     		.2byte	0x3fb
 1151 0412 D3020000 		.4byte	0x2d3
 1152 0416 04       		.byte	0x4
 1153 0417 0C       		.uleb128 0xc
 1154 0418 49445200 		.ascii	"IDR\000"
 1155 041c 0B       		.byte	0xb
 1156 041d FC03     		.2byte	0x3fc
 1157 041f D3020000 		.4byte	0x2d3
 1158 0423 08       		.byte	0x8
 1159 0424 0C       		.uleb128 0xc
 1160 0425 4F445200 		.ascii	"ODR\000"
 1161 0429 0B       		.byte	0xb
 1162 042a FD03     		.2byte	0x3fd
 1163 042c D3020000 		.4byte	0x2d3
 1164 0430 0C       		.byte	0xc
 1165 0431 11       		.uleb128 0x11
 1166 0432 A7000000 		.4byte	.LASF62
 1167 0436 0B       		.byte	0xb
 1168 0437 FE03     		.2byte	0x3fe
 1169 0439 D3020000 		.4byte	0x2d3
 1170 043d 10       		.byte	0x10
 1171 043e 0C       		.uleb128 0xc
 1172 043f 42525200 		.ascii	"BRR\000"
 1173 0443 0B       		.byte	0xb
 1174 0444 FF03     		.2byte	0x3ff
 1175 0446 D3020000 		.4byte	0x2d3
 1176 044a 14       		.byte	0x14
 1177 044b 11       		.uleb128 0x11
 1178 044c E9010000 		.4byte	.LASF63
 1179 0450 0B       		.byte	0xb
 1180 0451 0004     		.2byte	0x400
ARM GAS  /tmp/ccuqxLVc.s 			page 22


 1181 0453 D3020000 		.4byte	0x2d3
 1182 0457 18       		.byte	0x18
 1183 0458 00       		.byte	0
 1184 0459 12       		.uleb128 0x12
 1185 045a DC010000 		.4byte	.LASF64
 1186 045e 0B       		.byte	0xb
 1187 045f 0104     		.2byte	0x401
 1188 0461 F4030000 		.4byte	0x3f4
 1189 0465 10       		.uleb128 0x10
 1190 0466 24       		.byte	0x24
 1191 0467 0B       		.byte	0xb
 1192 0468 9704     		.2byte	0x497
 1193 046a 57050000 		.4byte	0x557
 1194 046e 0C       		.uleb128 0xc
 1195 046f 43523100 		.ascii	"CR1\000"
 1196 0473 0B       		.byte	0xb
 1197 0474 9904     		.2byte	0x499
 1198 0476 A0030000 		.4byte	0x3a0
 1199 047a 00       		.byte	0
 1200 047b 11       		.uleb128 0x11
 1201 047c 54030000 		.4byte	.LASF65
 1202 0480 0B       		.byte	0xb
 1203 0481 9A04     		.2byte	0x49a
 1204 0483 AD000000 		.4byte	0xad
 1205 0487 02       		.byte	0x2
 1206 0488 0C       		.uleb128 0xc
 1207 0489 43523200 		.ascii	"CR2\000"
 1208 048d 0B       		.byte	0xb
 1209 048e 9B04     		.2byte	0x49b
 1210 0490 A0030000 		.4byte	0x3a0
 1211 0494 04       		.byte	0x4
 1212 0495 11       		.uleb128 0x11
 1213 0496 5E030000 		.4byte	.LASF66
 1214 049a 0B       		.byte	0xb
 1215 049b 9C04     		.2byte	0x49c
 1216 049d AD000000 		.4byte	0xad
 1217 04a1 06       		.byte	0x6
 1218 04a2 0C       		.uleb128 0xc
 1219 04a3 535200   		.ascii	"SR\000"
 1220 04a6 0B       		.byte	0xb
 1221 04a7 9D04     		.2byte	0x49d
 1222 04a9 A0030000 		.4byte	0x3a0
 1223 04ad 08       		.byte	0x8
 1224 04ae 11       		.uleb128 0x11
 1225 04af 68030000 		.4byte	.LASF67
 1226 04b3 0B       		.byte	0xb
 1227 04b4 9E04     		.2byte	0x49e
 1228 04b6 AD000000 		.4byte	0xad
 1229 04ba 0A       		.byte	0xa
 1230 04bb 0C       		.uleb128 0xc
 1231 04bc 445200   		.ascii	"DR\000"
 1232 04bf 0B       		.byte	0xb
 1233 04c0 9F04     		.2byte	0x49f
 1234 04c2 A0030000 		.4byte	0x3a0
 1235 04c6 0C       		.byte	0xc
 1236 04c7 11       		.uleb128 0x11
 1237 04c8 72030000 		.4byte	.LASF68
ARM GAS  /tmp/ccuqxLVc.s 			page 23


 1238 04cc 0B       		.byte	0xb
 1239 04cd A004     		.2byte	0x4a0
 1240 04cf AD000000 		.4byte	0xad
 1241 04d3 0E       		.byte	0xe
 1242 04d4 11       		.uleb128 0x11
 1243 04d5 54000000 		.4byte	.LASF69
 1244 04d9 0B       		.byte	0xb
 1245 04da A104     		.2byte	0x4a1
 1246 04dc A0030000 		.4byte	0x3a0
 1247 04e0 10       		.byte	0x10
 1248 04e1 11       		.uleb128 0x11
 1249 04e2 7C030000 		.4byte	.LASF70
 1250 04e6 0B       		.byte	0xb
 1251 04e7 A204     		.2byte	0x4a2
 1252 04e9 AD000000 		.4byte	0xad
 1253 04ed 12       		.byte	0x12
 1254 04ee 11       		.uleb128 0x11
 1255 04ef 33060000 		.4byte	.LASF71
 1256 04f3 0B       		.byte	0xb
 1257 04f4 A304     		.2byte	0x4a3
 1258 04f6 A0030000 		.4byte	0x3a0
 1259 04fa 14       		.byte	0x14
 1260 04fb 11       		.uleb128 0x11
 1261 04fc 0A050000 		.4byte	.LASF72
 1262 0500 0B       		.byte	0xb
 1263 0501 A404     		.2byte	0x4a4
 1264 0503 AD000000 		.4byte	0xad
 1265 0507 16       		.byte	0x16
 1266 0508 11       		.uleb128 0x11
 1267 0509 4D030000 		.4byte	.LASF73
 1268 050d 0B       		.byte	0xb
 1269 050e A504     		.2byte	0x4a5
 1270 0510 A0030000 		.4byte	0x3a0
 1271 0514 18       		.byte	0x18
 1272 0515 11       		.uleb128 0x11
 1273 0516 8D030000 		.4byte	.LASF74
 1274 051a 0B       		.byte	0xb
 1275 051b A604     		.2byte	0x4a6
 1276 051d AD000000 		.4byte	0xad
 1277 0521 1A       		.byte	0x1a
 1278 0522 11       		.uleb128 0x11
 1279 0523 B5000000 		.4byte	.LASF75
 1280 0527 0B       		.byte	0xb
 1281 0528 A704     		.2byte	0x4a7
 1282 052a A0030000 		.4byte	0x3a0
 1283 052e 1C       		.byte	0x1c
 1284 052f 11       		.uleb128 0x11
 1285 0530 97030000 		.4byte	.LASF76
 1286 0534 0B       		.byte	0xb
 1287 0535 A804     		.2byte	0x4a8
 1288 0537 AD000000 		.4byte	0xad
 1289 053b 1E       		.byte	0x1e
 1290 053c 11       		.uleb128 0x11
 1291 053d 93020000 		.4byte	.LASF77
 1292 0541 0B       		.byte	0xb
 1293 0542 A904     		.2byte	0x4a9
 1294 0544 A0030000 		.4byte	0x3a0
ARM GAS  /tmp/ccuqxLVc.s 			page 24


 1295 0548 20       		.byte	0x20
 1296 0549 11       		.uleb128 0x11
 1297 054a A1030000 		.4byte	.LASF78
 1298 054e 0B       		.byte	0xb
 1299 054f AA04     		.2byte	0x4aa
 1300 0551 AD000000 		.4byte	0xad
 1301 0555 22       		.byte	0x22
 1302 0556 00       		.byte	0
 1303 0557 12       		.uleb128 0x12
 1304 0558 37050000 		.4byte	.LASF79
 1305 055c 0B       		.byte	0xb
 1306 055d AB04     		.2byte	0x4ab
 1307 055f 65040000 		.4byte	0x465
 1308 0563 08       		.uleb128 0x8
 1309 0564 0C       		.byte	0xc
 1310 0565 0C       		.byte	0xc
 1311 0566 C1       		.byte	0xc1
 1312 0567 A8050000 		.4byte	0x5a8
 1313 056b 06       		.uleb128 0x6
 1314 056c E4040000 		.4byte	.LASF80
 1315 0570 0C       		.byte	0xc
 1316 0571 C2       		.byte	0xc2
 1317 0572 A8050000 		.4byte	0x5a8
 1318 0576 00       		.byte	0
 1319 0577 06       		.uleb128 0x6
 1320 0578 05050000 		.4byte	.LASF81
 1321 057c 0C       		.byte	0xc
 1322 057d C3       		.byte	0xc3
 1323 057e AE050000 		.4byte	0x5ae
 1324 0582 04       		.byte	0x4
 1325 0583 06       		.uleb128 0x6
 1326 0584 EE010000 		.4byte	.LASF82
 1327 0588 0C       		.byte	0xc
 1328 0589 C4       		.byte	0xc4
 1329 058a A2000000 		.4byte	0xa2
 1330 058e 08       		.byte	0x8
 1331 058f 06       		.uleb128 0x6
 1332 0590 74010000 		.4byte	.LASF83
 1333 0594 0C       		.byte	0xc
 1334 0595 C6       		.byte	0xc6
 1335 0596 A2000000 		.4byte	0xa2
 1336 059a 09       		.byte	0x9
 1337 059b 06       		.uleb128 0x6
 1338 059c 63000000 		.4byte	.LASF84
 1339 05a0 0C       		.byte	0xc
 1340 05a1 C7       		.byte	0xc7
 1341 05a2 A2000000 		.4byte	0xa2
 1342 05a6 0A       		.byte	0xa
 1343 05a7 00       		.byte	0
 1344 05a8 09       		.uleb128 0x9
 1345 05a9 04       		.byte	0x4
 1346 05aa E8030000 		.4byte	0x3e8
 1347 05ae 09       		.uleb128 0x9
 1348 05af 04       		.byte	0x4
 1349 05b0 D3020000 		.4byte	0x2d3
 1350 05b4 03       		.uleb128 0x3
 1351 05b5 D5030000 		.4byte	.LASF85
ARM GAS  /tmp/ccuqxLVc.s 			page 25


 1352 05b9 0C       		.byte	0xc
 1353 05ba C8       		.byte	0xc8
 1354 05bb 63050000 		.4byte	0x563
 1355 05bf 03       		.uleb128 0x3
 1356 05c0 B5050000 		.4byte	.LASF86
 1357 05c4 0D       		.byte	0xd
 1358 05c5 7A       		.byte	0x7a
 1359 05c6 CA050000 		.4byte	0x5ca
 1360 05ca 09       		.uleb128 0x9
 1361 05cb 04       		.byte	0x4
 1362 05cc 59040000 		.4byte	0x459
 1363 05d0 13       		.uleb128 0x13
 1364 05d1 01       		.byte	0x1
 1365 05d2 0E       		.byte	0xe
 1366 05d3 55       		.byte	0x55
 1367 05d4 F7050000 		.4byte	0x5f7
 1368 05d8 14       		.uleb128 0x14
 1369 05d9 F3050000 		.4byte	.LASF87
 1370 05dd 00       		.sleb128 0
 1371 05de 14       		.uleb128 0x14
 1372 05df AC000000 		.4byte	.LASF88
 1373 05e3 01       		.sleb128 1
 1374 05e4 14       		.uleb128 0x14
 1375 05e5 E9050000 		.4byte	.LASF89
 1376 05e9 02       		.sleb128 2
 1377 05ea 14       		.uleb128 0x14
 1378 05eb 1E000000 		.4byte	.LASF90
 1379 05ef 03       		.sleb128 3
 1380 05f0 14       		.uleb128 0x14
 1381 05f1 50050000 		.4byte	.LASF91
 1382 05f5 04       		.sleb128 4
 1383 05f6 00       		.byte	0
 1384 05f7 03       		.uleb128 0x3
 1385 05f8 6F050000 		.4byte	.LASF92
 1386 05fc 0E       		.byte	0xe
 1387 05fd 5B       		.byte	0x5b
 1388 05fe D0050000 		.4byte	0x5d0
 1389 0602 12       		.uleb128 0x12
 1390 0603 6A000000 		.4byte	.LASF93
 1391 0607 0F       		.byte	0xf
 1392 0608 E701     		.2byte	0x1e7
 1393 060a 0E060000 		.4byte	0x60e
 1394 060e 0B       		.uleb128 0xb
 1395 060f 6A000000 		.4byte	.LASF93
 1396 0613 30       		.byte	0x30
 1397 0614 0F       		.byte	0xf
 1398 0615 0B02     		.2byte	0x20b
 1399 0617 91060000 		.4byte	0x691
 1400 061b 11       		.uleb128 0x11
 1401 061c EA000000 		.4byte	.LASF94
 1402 0620 0F       		.byte	0xf
 1403 0621 0F02     		.2byte	0x20f
 1404 0623 F7050000 		.4byte	0x5f7
 1405 0627 00       		.byte	0
 1406 0628 11       		.uleb128 0x11
 1407 0629 5D050000 		.4byte	.LASF95
 1408 062d 0F       		.byte	0xf
ARM GAS  /tmp/ccuqxLVc.s 			page 26


 1409 062e 1302     		.2byte	0x213
 1410 0630 FE060000 		.4byte	0x6fe
 1411 0634 04       		.byte	0x4
 1412 0635 11       		.uleb128 0x11
 1413 0636 96050000 		.4byte	.LASF96
 1414 063a 0F       		.byte	0xf
 1415 063b 1802     		.2byte	0x218
 1416 063d F8010000 		.4byte	0x1f8
 1417 0641 08       		.byte	0x8
 1418 0642 11       		.uleb128 0x11
 1419 0643 B3030000 		.4byte	.LASF97
 1420 0647 0F       		.byte	0xf
 1421 0648 1F02     		.2byte	0x21f
 1422 064a 5A030000 		.4byte	0x35a
 1423 064e 0C       		.byte	0xc
 1424 064f 0C       		.uleb128 0xc
 1425 0650 73706900 		.ascii	"spi\000"
 1426 0654 0F       		.byte	0xf
 1427 0655 2B02     		.2byte	0x22b
 1428 0657 09070000 		.4byte	0x709
 1429 065b 1C       		.byte	0x1c
 1430 065c 11       		.uleb128 0x11
 1431 065d 00000000 		.4byte	.LASF98
 1432 0661 0F       		.byte	0xf
 1433 0662 2F02     		.2byte	0x22f
 1434 0664 0F070000 		.4byte	0x70f
 1435 0668 20       		.byte	0x20
 1436 0669 11       		.uleb128 0x11
 1437 066a 5A010000 		.4byte	.LASF99
 1438 066e 0F       		.byte	0xf
 1439 066f 3302     		.2byte	0x233
 1440 0671 0F070000 		.4byte	0x70f
 1441 0675 24       		.byte	0x24
 1442 0676 11       		.uleb128 0x11
 1443 0677 50010000 		.4byte	.LASF100
 1444 067b 0F       		.byte	0xf
 1445 067c 3702     		.2byte	0x237
 1446 067e C3000000 		.4byte	0xc3
 1447 0682 28       		.byte	0x28
 1448 0683 11       		.uleb128 0x11
 1449 0684 25030000 		.4byte	.LASF101
 1450 0688 0F       		.byte	0xf
 1451 0689 3B02     		.2byte	0x23b
 1452 068b C3000000 		.4byte	0xc3
 1453 068f 2C       		.byte	0x2c
 1454 0690 00       		.byte	0
 1455 0691 12       		.uleb128 0x12
 1456 0692 DC000000 		.4byte	.LASF102
 1457 0696 0F       		.byte	0xf
 1458 0697 EF01     		.2byte	0x1ef
 1459 0699 9D060000 		.4byte	0x69d
 1460 069d 09       		.uleb128 0x9
 1461 069e 04       		.byte	0x4
 1462 069f A3060000 		.4byte	0x6a3
 1463 06a3 15       		.uleb128 0x15
 1464 06a4 AE060000 		.4byte	0x6ae
 1465 06a8 16       		.uleb128 0x16
ARM GAS  /tmp/ccuqxLVc.s 			page 27


 1466 06a9 AE060000 		.4byte	0x6ae
 1467 06ad 00       		.byte	0
 1468 06ae 09       		.uleb128 0x9
 1469 06af 04       		.byte	0x4
 1470 06b0 02060000 		.4byte	0x602
 1471 06b4 10       		.uleb128 0x10
 1472 06b5 0C       		.byte	0xc
 1473 06b6 0F       		.byte	0xf
 1474 06b7 F401     		.2byte	0x1f4
 1475 06b9 F2060000 		.4byte	0x6f2
 1476 06bd 11       		.uleb128 0x11
 1477 06be 49010000 		.4byte	.LASF103
 1478 06c2 0F       		.byte	0xf
 1479 06c3 F801     		.2byte	0x1f8
 1480 06c5 91060000 		.4byte	0x691
 1481 06c9 00       		.byte	0
 1482 06ca 11       		.uleb128 0x11
 1483 06cb 74000000 		.4byte	.LASF104
 1484 06cf 0F       		.byte	0xf
 1485 06d0 FD01     		.2byte	0x1fd
 1486 06d2 BF050000 		.4byte	0x5bf
 1487 06d6 04       		.byte	0x4
 1488 06d7 11       		.uleb128 0x11
 1489 06d8 37000000 		.4byte	.LASF105
 1490 06dc 0F       		.byte	0xf
 1491 06dd 0102     		.2byte	0x201
 1492 06df AD000000 		.4byte	0xad
 1493 06e3 08       		.byte	0x8
 1494 06e4 0C       		.uleb128 0xc
 1495 06e5 63723100 		.ascii	"cr1\000"
 1496 06e9 0F       		.byte	0xf
 1497 06ea 0502     		.2byte	0x205
 1498 06ec AD000000 		.4byte	0xad
 1499 06f0 0A       		.byte	0xa
 1500 06f1 00       		.byte	0
 1501 06f2 12       		.uleb128 0x12
 1502 06f3 64060000 		.4byte	.LASF106
 1503 06f7 0F       		.byte	0xf
 1504 06f8 0602     		.2byte	0x206
 1505 06fa B4060000 		.4byte	0x6b4
 1506 06fe 09       		.uleb128 0x9
 1507 06ff 04       		.byte	0x4
 1508 0700 04070000 		.4byte	0x704
 1509 0704 17       		.uleb128 0x17
 1510 0705 F2060000 		.4byte	0x6f2
 1511 0709 09       		.uleb128 0x9
 1512 070a 04       		.byte	0x4
 1513 070b 57050000 		.4byte	0x557
 1514 070f 09       		.uleb128 0x9
 1515 0710 04       		.byte	0x4
 1516 0711 15070000 		.4byte	0x715
 1517 0715 17       		.uleb128 0x17
 1518 0716 B4050000 		.4byte	0x5b4
 1519 071a 18       		.uleb128 0x18
 1520 071b 61020000 		.4byte	.LASF107
 1521 071f 01       		.byte	0x1
 1522 0720 44       		.byte	0x44
ARM GAS  /tmp/ccuqxLVc.s 			page 28


 1523 0721 00000000 		.4byte	.LFB56
 1524 0725 04000000 		.4byte	.LFE56-.LFB56
 1525 0729 01       		.uleb128 0x1
 1526 072a 9C       		.byte	0x9c
 1527 072b 39070000 		.4byte	0x739
 1528 072f 19       		.uleb128 0x19
 1529 0730 04000000 		.4byte	.LVL0
 1530 0734 4D0C0000 		.4byte	0xc4d
 1531 0738 00       		.byte	0
 1532 0739 18       		.uleb128 0x18
 1533 073a 0E040000 		.4byte	.LASF108
 1534 073e 01       		.byte	0x1
 1535 073f 50       		.byte	0x50
 1536 0740 00000000 		.4byte	.LFB57
 1537 0744 10000000 		.4byte	.LFE57-.LFB57
 1538 0748 01       		.uleb128 0x1
 1539 0749 9C       		.byte	0x9c
 1540 074a 71070000 		.4byte	0x771
 1541 074e 1A       		.uleb128 0x1a
 1542 074f 50060000 		.4byte	.LASF110
 1543 0753 01       		.byte	0x1
 1544 0754 50       		.byte	0x50
 1545 0755 AE060000 		.4byte	0x6ae
 1546 0759 00000000 		.4byte	.LLST0
 1547 075d 1B       		.uleb128 0x1b
 1548 075e 10000000 		.4byte	.LVL3
 1549 0762 550C0000 		.4byte	0xc55
 1550 0766 1C       		.uleb128 0x1c
 1551 0767 01       		.uleb128 0x1
 1552 0768 50       		.byte	0x50
 1553 0769 05       		.uleb128 0x5
 1554 076a F3       		.byte	0xf3
 1555 076b 01       		.uleb128 0x1
 1556 076c 50       		.byte	0x50
 1557 076d 23       		.byte	0x23
 1558 076e 0C       		.uleb128 0xc
 1559 076f 00       		.byte	0
 1560 0770 00       		.byte	0
 1561 0771 18       		.uleb128 0x18
 1562 0772 CF050000 		.4byte	.LASF109
 1563 0776 01       		.byte	0x1
 1564 0777 6B       		.byte	0x6b
 1565 0778 00000000 		.4byte	.LFB58
 1566 077c 18000000 		.4byte	.LFE58-.LFB58
 1567 0780 01       		.uleb128 0x1
 1568 0781 9C       		.byte	0x9c
 1569 0782 B5070000 		.4byte	0x7b5
 1570 0786 1A       		.uleb128 0x1a
 1571 0787 50060000 		.4byte	.LASF110
 1572 078b 01       		.byte	0x1
 1573 078c 6B       		.byte	0x6b
 1574 078d AE060000 		.4byte	0x6ae
 1575 0791 2E000000 		.4byte	.LLST1
 1576 0795 1A       		.uleb128 0x1a
 1577 0796 5D050000 		.4byte	.LASF95
 1578 079a 01       		.byte	0x1
 1579 079b 6B       		.byte	0x6b
ARM GAS  /tmp/ccuqxLVc.s 			page 29


 1580 079c FE060000 		.4byte	0x6fe
 1581 07a0 4C000000 		.4byte	.LLST2
 1582 07a4 1D       		.uleb128 0x1d
 1583 07a5 0E000000 		.4byte	.LVL5
 1584 07a9 660C0000 		.4byte	0xc66
 1585 07ad 1C       		.uleb128 0x1c
 1586 07ae 01       		.uleb128 0x1
 1587 07af 50       		.byte	0x50
 1588 07b0 02       		.uleb128 0x2
 1589 07b1 74       		.byte	0x74
 1590 07b2 00       		.sleb128 0
 1591 07b3 00       		.byte	0
 1592 07b4 00       		.byte	0
 1593 07b5 18       		.uleb128 0x18
 1594 07b6 29000000 		.4byte	.LASF111
 1595 07ba 01       		.byte	0x1
 1596 07bb 81       		.byte	0x81
 1597 07bc 00000000 		.4byte	.LFB59
 1598 07c0 1C000000 		.4byte	.LFE59-.LFB59
 1599 07c4 01       		.uleb128 0x1
 1600 07c5 9C       		.byte	0x9c
 1601 07c6 FE070000 		.4byte	0x7fe
 1602 07ca 1A       		.uleb128 0x1a
 1603 07cb 50060000 		.4byte	.LASF110
 1604 07cf 01       		.byte	0x1
 1605 07d0 81       		.byte	0x81
 1606 07d1 AE060000 		.4byte	0x6ae
 1607 07d5 6D000000 		.4byte	.LLST3
 1608 07d9 1E       		.uleb128 0x1e
 1609 07da 0C000000 		.4byte	.LVL7
 1610 07de 780C0000 		.4byte	0xc78
 1611 07e2 ED070000 		.4byte	0x7ed
 1612 07e6 1C       		.uleb128 0x1c
 1613 07e7 01       		.uleb128 0x1
 1614 07e8 50       		.byte	0x50
 1615 07e9 02       		.uleb128 0x2
 1616 07ea 74       		.byte	0x74
 1617 07eb 00       		.sleb128 0
 1618 07ec 00       		.byte	0
 1619 07ed 1D       		.uleb128 0x1d
 1620 07ee 12000000 		.4byte	.LVL8
 1621 07f2 8A0C0000 		.4byte	0xc8a
 1622 07f6 1C       		.uleb128 0x1c
 1623 07f7 01       		.uleb128 0x1
 1624 07f8 50       		.byte	0x50
 1625 07f9 02       		.uleb128 0x2
 1626 07fa 74       		.byte	0x74
 1627 07fb 00       		.sleb128 0
 1628 07fc 00       		.byte	0
 1629 07fd 00       		.byte	0
 1630 07fe 18       		.uleb128 0x18
 1631 07ff D8050000 		.4byte	.LASF112
 1632 0803 01       		.byte	0x1
 1633 0804 95       		.byte	0x95
 1634 0805 00000000 		.4byte	.LFB60
 1635 0809 10000000 		.4byte	.LFE60-.LFB60
 1636 080d 01       		.uleb128 0x1
ARM GAS  /tmp/ccuqxLVc.s 			page 30


 1637 080e 9C       		.byte	0x9c
 1638 080f 34080000 		.4byte	0x834
 1639 0813 1A       		.uleb128 0x1a
 1640 0814 50060000 		.4byte	.LASF110
 1641 0818 01       		.byte	0x1
 1642 0819 95       		.byte	0x95
 1643 081a AE060000 		.4byte	0x6ae
 1644 081e 8B000000 		.4byte	.LLST4
 1645 0822 1D       		.uleb128 0x1d
 1646 0823 0A000000 		.4byte	.LVL10
 1647 0827 9C0C0000 		.4byte	0xc9c
 1648 082b 1C       		.uleb128 0x1c
 1649 082c 01       		.uleb128 0x1
 1650 082d 50       		.byte	0x50
 1651 082e 03       		.uleb128 0x3
 1652 082f F3       		.byte	0xf3
 1653 0830 01       		.uleb128 0x1
 1654 0831 50       		.byte	0x50
 1655 0832 00       		.byte	0
 1656 0833 00       		.byte	0
 1657 0834 18       		.uleb128 0x18
 1658 0835 7E010000 		.4byte	.LASF113
 1659 0839 01       		.byte	0x1
 1660 083a A7       		.byte	0xa7
 1661 083b 00000000 		.4byte	.LFB61
 1662 083f 10000000 		.4byte	.LFE61-.LFB61
 1663 0843 01       		.uleb128 0x1
 1664 0844 9C       		.byte	0x9c
 1665 0845 6A080000 		.4byte	0x86a
 1666 0849 1A       		.uleb128 0x1a
 1667 084a 50060000 		.4byte	.LASF110
 1668 084e 01       		.byte	0x1
 1669 084f A7       		.byte	0xa7
 1670 0850 AE060000 		.4byte	0x6ae
 1671 0854 AC000000 		.4byte	.LLST5
 1672 0858 1D       		.uleb128 0x1d
 1673 0859 0A000000 		.4byte	.LVL12
 1674 085d 780C0000 		.4byte	0xc78
 1675 0861 1C       		.uleb128 0x1c
 1676 0862 01       		.uleb128 0x1
 1677 0863 50       		.byte	0x50
 1678 0864 03       		.uleb128 0x3
 1679 0865 F3       		.byte	0xf3
 1680 0866 01       		.uleb128 0x1
 1681 0867 50       		.byte	0x50
 1682 0868 00       		.byte	0
 1683 0869 00       		.byte	0
 1684 086a 18       		.uleb128 0x18
 1685 086b 3A010000 		.4byte	.LASF114
 1686 086f 01       		.byte	0x1
 1687 0870 BE       		.byte	0xbe
 1688 0871 00000000 		.4byte	.LFB62
 1689 0875 14000000 		.4byte	.LFE62-.LFB62
 1690 0879 01       		.uleb128 0x1
 1691 087a 9C       		.byte	0x9c
 1692 087b B4080000 		.4byte	0x8b4
 1693 087f 1A       		.uleb128 0x1a
ARM GAS  /tmp/ccuqxLVc.s 			page 31


 1694 0880 50060000 		.4byte	.LASF110
 1695 0884 01       		.byte	0x1
 1696 0885 BE       		.byte	0xbe
 1697 0886 AE060000 		.4byte	0x6ae
 1698 088a CD000000 		.4byte	.LLST6
 1699 088e 1F       		.uleb128 0x1f
 1700 088f 6E00     		.ascii	"n\000"
 1701 0891 01       		.byte	0x1
 1702 0892 BE       		.byte	0xbe
 1703 0893 2C000000 		.4byte	0x2c
 1704 0897 EE000000 		.4byte	.LLST7
 1705 089b 1D       		.uleb128 0x1d
 1706 089c 0E000000 		.4byte	.LVL14
 1707 08a0 AE0C0000 		.4byte	0xcae
 1708 08a4 1C       		.uleb128 0x1c
 1709 08a5 01       		.uleb128 0x1
 1710 08a6 51       		.byte	0x51
 1711 08a7 03       		.uleb128 0x3
 1712 08a8 F3       		.byte	0xf3
 1713 08a9 01       		.uleb128 0x1
 1714 08aa 51       		.byte	0x51
 1715 08ab 1C       		.uleb128 0x1c
 1716 08ac 01       		.uleb128 0x1
 1717 08ad 50       		.byte	0x50
 1718 08ae 03       		.uleb128 0x3
 1719 08af F3       		.byte	0xf3
 1720 08b0 01       		.uleb128 0x1
 1721 08b1 50       		.byte	0x50
 1722 08b2 00       		.byte	0
 1723 08b3 00       		.byte	0
 1724 08b4 18       		.uleb128 0x18
 1725 08b5 17060000 		.4byte	.LASF115
 1726 08b9 01       		.byte	0x1
 1727 08ba D9       		.byte	0xd9
 1728 08bb 00000000 		.4byte	.LFB63
 1729 08bf 18000000 		.4byte	.LFE63-.LFB63
 1730 08c3 01       		.uleb128 0x1
 1731 08c4 9C       		.byte	0x9c
 1732 08c5 29090000 		.4byte	0x929
 1733 08c9 1A       		.uleb128 0x1a
 1734 08ca 50060000 		.4byte	.LASF110
 1735 08ce 01       		.byte	0x1
 1736 08cf D9       		.byte	0xd9
 1737 08d0 AE060000 		.4byte	0x6ae
 1738 08d4 0F010000 		.4byte	.LLST8
 1739 08d8 1F       		.uleb128 0x1f
 1740 08d9 6E00     		.ascii	"n\000"
 1741 08db 01       		.byte	0x1
 1742 08dc D9       		.byte	0xd9
 1743 08dd 2C000000 		.4byte	0x2c
 1744 08e1 30010000 		.4byte	.LLST9
 1745 08e5 1A       		.uleb128 0x1a
 1746 08e6 BB010000 		.4byte	.LASF116
 1747 08ea 01       		.byte	0x1
 1748 08eb DA       		.byte	0xda
 1749 08ec 29090000 		.4byte	0x929
 1750 08f0 51010000 		.4byte	.LLST10
ARM GAS  /tmp/ccuqxLVc.s 			page 32


 1751 08f4 1A       		.uleb128 0x1a
 1752 08f5 31000000 		.4byte	.LASF117
 1753 08f9 01       		.byte	0x1
 1754 08fa DA       		.byte	0xda
 1755 08fb 34020000 		.4byte	0x234
 1756 08ff 72010000 		.4byte	.LLST11
 1757 0903 1D       		.uleb128 0x1d
 1758 0904 12000000 		.4byte	.LVL17
 1759 0908 C50C0000 		.4byte	0xcc5
 1760 090c 1C       		.uleb128 0x1c
 1761 090d 01       		.uleb128 0x1
 1762 090e 53       		.byte	0x53
 1763 090f 02       		.uleb128 0x2
 1764 0910 74       		.byte	0x74
 1765 0911 00       		.sleb128 0
 1766 0912 1C       		.uleb128 0x1c
 1767 0913 01       		.uleb128 0x1
 1768 0914 52       		.byte	0x52
 1769 0915 03       		.uleb128 0x3
 1770 0916 F3       		.byte	0xf3
 1771 0917 01       		.uleb128 0x1
 1772 0918 52       		.byte	0x52
 1773 0919 1C       		.uleb128 0x1c
 1774 091a 01       		.uleb128 0x1
 1775 091b 51       		.byte	0x51
 1776 091c 03       		.uleb128 0x3
 1777 091d F3       		.byte	0xf3
 1778 091e 01       		.uleb128 0x1
 1779 091f 51       		.byte	0x51
 1780 0920 1C       		.uleb128 0x1c
 1781 0921 01       		.uleb128 0x1
 1782 0922 50       		.byte	0x50
 1783 0923 03       		.uleb128 0x3
 1784 0924 F3       		.byte	0xf3
 1785 0925 01       		.uleb128 0x1
 1786 0926 50       		.byte	0x50
 1787 0927 00       		.byte	0
 1788 0928 00       		.byte	0
 1789 0929 09       		.uleb128 0x9
 1790 092a 04       		.byte	0x4
 1791 092b 2F090000 		.4byte	0x92f
 1792 092f 20       		.uleb128 0x20
 1793 0930 18       		.uleb128 0x18
 1794 0931 F5010000 		.4byte	.LASF118
 1795 0935 01       		.byte	0x1
 1796 0936 F4       		.byte	0xf4
 1797 0937 00000000 		.4byte	.LFB64
 1798 093b 14000000 		.4byte	.LFE64-.LFB64
 1799 093f 01       		.uleb128 0x1
 1800 0940 9C       		.byte	0x9c
 1801 0941 90090000 		.4byte	0x990
 1802 0945 1A       		.uleb128 0x1a
 1803 0946 50060000 		.4byte	.LASF110
 1804 094a 01       		.byte	0x1
 1805 094b F4       		.byte	0xf4
 1806 094c AE060000 		.4byte	0x6ae
 1807 0950 90010000 		.4byte	.LLST12
ARM GAS  /tmp/ccuqxLVc.s 			page 33


 1808 0954 1F       		.uleb128 0x1f
 1809 0955 6E00     		.ascii	"n\000"
 1810 0957 01       		.byte	0x1
 1811 0958 F4       		.byte	0xf4
 1812 0959 2C000000 		.4byte	0x2c
 1813 095d B1010000 		.4byte	.LLST13
 1814 0961 1A       		.uleb128 0x1a
 1815 0962 BB010000 		.4byte	.LASF116
 1816 0966 01       		.byte	0x1
 1817 0967 F4       		.byte	0xf4
 1818 0968 29090000 		.4byte	0x929
 1819 096c D2010000 		.4byte	.LLST14
 1820 0970 1D       		.uleb128 0x1d
 1821 0971 0E000000 		.4byte	.LVL19
 1822 0975 E60C0000 		.4byte	0xce6
 1823 0979 1C       		.uleb128 0x1c
 1824 097a 01       		.uleb128 0x1
 1825 097b 52       		.byte	0x52
 1826 097c 03       		.uleb128 0x3
 1827 097d F3       		.byte	0xf3
 1828 097e 01       		.uleb128 0x1
 1829 097f 52       		.byte	0x52
 1830 0980 1C       		.uleb128 0x1c
 1831 0981 01       		.uleb128 0x1
 1832 0982 51       		.byte	0x51
 1833 0983 03       		.uleb128 0x3
 1834 0984 F3       		.byte	0xf3
 1835 0985 01       		.uleb128 0x1
 1836 0986 51       		.byte	0x51
 1837 0987 1C       		.uleb128 0x1c
 1838 0988 01       		.uleb128 0x1
 1839 0989 50       		.byte	0x50
 1840 098a 03       		.uleb128 0x3
 1841 098b F3       		.byte	0xf3
 1842 098c 01       		.uleb128 0x1
 1843 098d 50       		.byte	0x50
 1844 098e 00       		.byte	0
 1845 098f 00       		.byte	0
 1846 0990 21       		.uleb128 0x21
 1847 0991 02010000 		.4byte	.LASF119
 1848 0995 01       		.byte	0x1
 1849 0996 0E01     		.2byte	0x10e
 1850 0998 00000000 		.4byte	.LFB65
 1851 099c 14000000 		.4byte	.LFE65-.LFB65
 1852 09a0 01       		.uleb128 0x1
 1853 09a1 9C       		.byte	0x9c
 1854 09a2 F4090000 		.4byte	0x9f4
 1855 09a6 22       		.uleb128 0x22
 1856 09a7 50060000 		.4byte	.LASF110
 1857 09ab 01       		.byte	0x1
 1858 09ac 0E01     		.2byte	0x10e
 1859 09ae AE060000 		.4byte	0x6ae
 1860 09b2 F3010000 		.4byte	.LLST15
 1861 09b6 23       		.uleb128 0x23
 1862 09b7 6E00     		.ascii	"n\000"
 1863 09b9 01       		.byte	0x1
 1864 09ba 0E01     		.2byte	0x10e
ARM GAS  /tmp/ccuqxLVc.s 			page 34


 1865 09bc 2C000000 		.4byte	0x2c
 1866 09c0 14020000 		.4byte	.LLST16
 1867 09c4 22       		.uleb128 0x22
 1868 09c5 31000000 		.4byte	.LASF117
 1869 09c9 01       		.byte	0x1
 1870 09ca 0E01     		.2byte	0x10e
 1871 09cc 34020000 		.4byte	0x234
 1872 09d0 35020000 		.4byte	.LLST17
 1873 09d4 1D       		.uleb128 0x1d
 1874 09d5 0E000000 		.4byte	.LVL21
 1875 09d9 020D0000 		.4byte	0xd02
 1876 09dd 1C       		.uleb128 0x1c
 1877 09de 01       		.uleb128 0x1
 1878 09df 52       		.byte	0x52
 1879 09e0 03       		.uleb128 0x3
 1880 09e1 F3       		.byte	0xf3
 1881 09e2 01       		.uleb128 0x1
 1882 09e3 52       		.byte	0x52
 1883 09e4 1C       		.uleb128 0x1c
 1884 09e5 01       		.uleb128 0x1
 1885 09e6 51       		.byte	0x51
 1886 09e7 03       		.uleb128 0x3
 1887 09e8 F3       		.byte	0xf3
 1888 09e9 01       		.uleb128 0x1
 1889 09ea 51       		.byte	0x51
 1890 09eb 1C       		.uleb128 0x1c
 1891 09ec 01       		.uleb128 0x1
 1892 09ed 50       		.byte	0x50
 1893 09ee 03       		.uleb128 0x3
 1894 09ef F3       		.byte	0xf3
 1895 09f0 01       		.uleb128 0x1
 1896 09f1 50       		.byte	0x50
 1897 09f2 00       		.byte	0
 1898 09f3 00       		.byte	0
 1899 09f4 21       		.uleb128 0x21
 1900 09f5 AB050000 		.4byte	.LASF120
 1901 09f9 01       		.byte	0x1
 1902 09fa 2801     		.2byte	0x128
 1903 09fc 00000000 		.4byte	.LFB66
 1904 0a00 28000000 		.4byte	.LFE66-.LFB66
 1905 0a04 01       		.uleb128 0x1
 1906 0a05 9C       		.byte	0x9c
 1907 0a06 530A0000 		.4byte	0xa53
 1908 0a0a 22       		.uleb128 0x22
 1909 0a0b 50060000 		.4byte	.LASF110
 1910 0a0f 01       		.byte	0x1
 1911 0a10 2801     		.2byte	0x128
 1912 0a12 AE060000 		.4byte	0x6ae
 1913 0a16 56020000 		.4byte	.LLST18
 1914 0a1a 23       		.uleb128 0x23
 1915 0a1b 6E00     		.ascii	"n\000"
 1916 0a1d 01       		.byte	0x1
 1917 0a1e 2801     		.2byte	0x128
 1918 0a20 2C000000 		.4byte	0x2c
 1919 0a24 74020000 		.4byte	.LLST19
 1920 0a28 1E       		.uleb128 0x1e
 1921 0a29 10000000 		.4byte	.LVL23
ARM GAS  /tmp/ccuqxLVc.s 			page 35


 1922 0a2d AE0C0000 		.4byte	0xcae
 1923 0a31 430A0000 		.4byte	0xa43
 1924 0a35 1C       		.uleb128 0x1c
 1925 0a36 01       		.uleb128 0x1
 1926 0a37 51       		.byte	0x51
 1927 0a38 03       		.uleb128 0x3
 1928 0a39 F3       		.byte	0xf3
 1929 0a3a 01       		.uleb128 0x1
 1930 0a3b 51       		.byte	0x51
 1931 0a3c 1C       		.uleb128 0x1c
 1932 0a3d 01       		.uleb128 0x1
 1933 0a3e 50       		.byte	0x50
 1934 0a3f 02       		.uleb128 0x2
 1935 0a40 74       		.byte	0x74
 1936 0a41 00       		.sleb128 0
 1937 0a42 00       		.byte	0
 1938 0a43 1D       		.uleb128 0x1d
 1939 0a44 22000000 		.4byte	.LVL24
 1940 0a48 1E0D0000 		.4byte	0xd1e
 1941 0a4c 1C       		.uleb128 0x1c
 1942 0a4d 01       		.uleb128 0x1
 1943 0a4e 50       		.byte	0x50
 1944 0a4f 01       		.uleb128 0x1
 1945 0a50 32       		.byte	0x32
 1946 0a51 00       		.byte	0
 1947 0a52 00       		.byte	0
 1948 0a53 21       		.uleb128 0x21
 1949 0a54 77020000 		.4byte	.LASF121
 1950 0a58 01       		.byte	0x1
 1951 0a59 4601     		.2byte	0x146
 1952 0a5b 00000000 		.4byte	.LFB67
 1953 0a5f 2E000000 		.4byte	.LFE67-.LFB67
 1954 0a63 01       		.uleb128 0x1
 1955 0a64 9C       		.byte	0x9c
 1956 0a65 E00A0000 		.4byte	0xae0
 1957 0a69 22       		.uleb128 0x22
 1958 0a6a 50060000 		.4byte	.LASF110
 1959 0a6e 01       		.byte	0x1
 1960 0a6f 4601     		.2byte	0x146
 1961 0a71 AE060000 		.4byte	0x6ae
 1962 0a75 95020000 		.4byte	.LLST20
 1963 0a79 23       		.uleb128 0x23
 1964 0a7a 6E00     		.ascii	"n\000"
 1965 0a7c 01       		.byte	0x1
 1966 0a7d 4601     		.2byte	0x146
 1967 0a7f 2C000000 		.4byte	0x2c
 1968 0a83 B3020000 		.4byte	.LLST21
 1969 0a87 22       		.uleb128 0x22
 1970 0a88 BB010000 		.4byte	.LASF116
 1971 0a8c 01       		.byte	0x1
 1972 0a8d 4701     		.2byte	0x147
 1973 0a8f 29090000 		.4byte	0x929
 1974 0a93 D4020000 		.4byte	.LLST22
 1975 0a97 22       		.uleb128 0x22
 1976 0a98 31000000 		.4byte	.LASF117
 1977 0a9c 01       		.byte	0x1
 1978 0a9d 4701     		.2byte	0x147
ARM GAS  /tmp/ccuqxLVc.s 			page 36


 1979 0a9f 34020000 		.4byte	0x234
 1980 0aa3 F5020000 		.4byte	.LLST23
 1981 0aa7 1E       		.uleb128 0x1e
 1982 0aa8 16000000 		.4byte	.LVL29
 1983 0aac C50C0000 		.4byte	0xcc5
 1984 0ab0 D00A0000 		.4byte	0xad0
 1985 0ab4 1C       		.uleb128 0x1c
 1986 0ab5 01       		.uleb128 0x1
 1987 0ab6 53       		.byte	0x53
 1988 0ab7 03       		.uleb128 0x3
 1989 0ab8 F3       		.byte	0xf3
 1990 0ab9 01       		.uleb128 0x1
 1991 0aba 53       		.byte	0x53
 1992 0abb 1C       		.uleb128 0x1c
 1993 0abc 01       		.uleb128 0x1
 1994 0abd 52       		.byte	0x52
 1995 0abe 03       		.uleb128 0x3
 1996 0abf F3       		.byte	0xf3
 1997 0ac0 01       		.uleb128 0x1
 1998 0ac1 52       		.byte	0x52
 1999 0ac2 1C       		.uleb128 0x1c
 2000 0ac3 01       		.uleb128 0x1
 2001 0ac4 51       		.byte	0x51
 2002 0ac5 03       		.uleb128 0x3
 2003 0ac6 F3       		.byte	0xf3
 2004 0ac7 01       		.uleb128 0x1
 2005 0ac8 51       		.byte	0x51
 2006 0ac9 1C       		.uleb128 0x1c
 2007 0aca 01       		.uleb128 0x1
 2008 0acb 50       		.byte	0x50
 2009 0acc 02       		.uleb128 0x2
 2010 0acd 74       		.byte	0x74
 2011 0ace 00       		.sleb128 0
 2012 0acf 00       		.byte	0
 2013 0ad0 1D       		.uleb128 0x1d
 2014 0ad1 28000000 		.4byte	.LVL30
 2015 0ad5 1E0D0000 		.4byte	0xd1e
 2016 0ad9 1C       		.uleb128 0x1c
 2017 0ada 01       		.uleb128 0x1
 2018 0adb 50       		.byte	0x50
 2019 0adc 01       		.uleb128 0x1
 2020 0add 32       		.byte	0x32
 2021 0ade 00       		.byte	0
 2022 0adf 00       		.byte	0
 2023 0ae0 21       		.uleb128 0x21
 2024 0ae1 5C060000 		.4byte	.LASF122
 2025 0ae5 01       		.byte	0x1
 2026 0ae6 6501     		.2byte	0x165
 2027 0ae8 00000000 		.4byte	.LFB68
 2028 0aec 28000000 		.4byte	.LFE68-.LFB68
 2029 0af0 01       		.uleb128 0x1
 2030 0af1 9C       		.byte	0x9c
 2031 0af2 560B0000 		.4byte	0xb56
 2032 0af6 22       		.uleb128 0x22
 2033 0af7 50060000 		.4byte	.LASF110
 2034 0afb 01       		.byte	0x1
 2035 0afc 6501     		.2byte	0x165
ARM GAS  /tmp/ccuqxLVc.s 			page 37


 2036 0afe AE060000 		.4byte	0x6ae
 2037 0b02 2C030000 		.4byte	.LLST24
 2038 0b06 23       		.uleb128 0x23
 2039 0b07 6E00     		.ascii	"n\000"
 2040 0b09 01       		.byte	0x1
 2041 0b0a 6501     		.2byte	0x165
 2042 0b0c 2C000000 		.4byte	0x2c
 2043 0b10 4A030000 		.4byte	.LLST25
 2044 0b14 22       		.uleb128 0x22
 2045 0b15 BB010000 		.4byte	.LASF116
 2046 0b19 01       		.byte	0x1
 2047 0b1a 6501     		.2byte	0x165
 2048 0b1c 29090000 		.4byte	0x929
 2049 0b20 6B030000 		.4byte	.LLST26
 2050 0b24 1E       		.uleb128 0x1e
 2051 0b25 10000000 		.4byte	.LVL32
 2052 0b29 E60C0000 		.4byte	0xce6
 2053 0b2d 460B0000 		.4byte	0xb46
 2054 0b31 1C       		.uleb128 0x1c
 2055 0b32 01       		.uleb128 0x1
 2056 0b33 52       		.byte	0x52
 2057 0b34 03       		.uleb128 0x3
 2058 0b35 F3       		.byte	0xf3
 2059 0b36 01       		.uleb128 0x1
 2060 0b37 52       		.byte	0x52
 2061 0b38 1C       		.uleb128 0x1c
 2062 0b39 01       		.uleb128 0x1
 2063 0b3a 51       		.byte	0x51
 2064 0b3b 03       		.uleb128 0x3
 2065 0b3c F3       		.byte	0xf3
 2066 0b3d 01       		.uleb128 0x1
 2067 0b3e 51       		.byte	0x51
 2068 0b3f 1C       		.uleb128 0x1c
 2069 0b40 01       		.uleb128 0x1
 2070 0b41 50       		.byte	0x50
 2071 0b42 02       		.uleb128 0x2
 2072 0b43 74       		.byte	0x74
 2073 0b44 00       		.sleb128 0
 2074 0b45 00       		.byte	0
 2075 0b46 1D       		.uleb128 0x1d
 2076 0b47 22000000 		.4byte	.LVL33
 2077 0b4b 1E0D0000 		.4byte	0xd1e
 2078 0b4f 1C       		.uleb128 0x1c
 2079 0b50 01       		.uleb128 0x1
 2080 0b51 50       		.byte	0x50
 2081 0b52 01       		.uleb128 0x1
 2082 0b53 32       		.byte	0x32
 2083 0b54 00       		.byte	0
 2084 0b55 00       		.byte	0
 2085 0b56 21       		.uleb128 0x21
 2086 0b57 C1010000 		.4byte	.LASF123
 2087 0b5b 01       		.byte	0x1
 2088 0b5c 8101     		.2byte	0x181
 2089 0b5e 00000000 		.4byte	.LFB69
 2090 0b62 28000000 		.4byte	.LFE69-.LFB69
 2091 0b66 01       		.uleb128 0x1
 2092 0b67 9C       		.byte	0x9c
ARM GAS  /tmp/ccuqxLVc.s 			page 38


 2093 0b68 CC0B0000 		.4byte	0xbcc
 2094 0b6c 22       		.uleb128 0x22
 2095 0b6d 50060000 		.4byte	.LASF110
 2096 0b71 01       		.byte	0x1
 2097 0b72 8101     		.2byte	0x181
 2098 0b74 AE060000 		.4byte	0x6ae
 2099 0b78 8C030000 		.4byte	.LLST27
 2100 0b7c 23       		.uleb128 0x23
 2101 0b7d 6E00     		.ascii	"n\000"
 2102 0b7f 01       		.byte	0x1
 2103 0b80 8101     		.2byte	0x181
 2104 0b82 2C000000 		.4byte	0x2c
 2105 0b86 AA030000 		.4byte	.LLST28
 2106 0b8a 22       		.uleb128 0x22
 2107 0b8b 31000000 		.4byte	.LASF117
 2108 0b8f 01       		.byte	0x1
 2109 0b90 8101     		.2byte	0x181
 2110 0b92 34020000 		.4byte	0x234
 2111 0b96 CB030000 		.4byte	.LLST29
 2112 0b9a 1E       		.uleb128 0x1e
 2113 0b9b 10000000 		.4byte	.LVL35
 2114 0b9f 020D0000 		.4byte	0xd02
 2115 0ba3 BC0B0000 		.4byte	0xbbc
 2116 0ba7 1C       		.uleb128 0x1c
 2117 0ba8 01       		.uleb128 0x1
 2118 0ba9 52       		.byte	0x52
 2119 0baa 03       		.uleb128 0x3
 2120 0bab F3       		.byte	0xf3
 2121 0bac 01       		.uleb128 0x1
 2122 0bad 52       		.byte	0x52
 2123 0bae 1C       		.uleb128 0x1c
 2124 0baf 01       		.uleb128 0x1
 2125 0bb0 51       		.byte	0x51
 2126 0bb1 03       		.uleb128 0x3
 2127 0bb2 F3       		.byte	0xf3
 2128 0bb3 01       		.uleb128 0x1
 2129 0bb4 51       		.byte	0x51
 2130 0bb5 1C       		.uleb128 0x1c
 2131 0bb6 01       		.uleb128 0x1
 2132 0bb7 50       		.byte	0x50
 2133 0bb8 02       		.uleb128 0x2
 2134 0bb9 74       		.byte	0x74
 2135 0bba 00       		.sleb128 0
 2136 0bbb 00       		.byte	0
 2137 0bbc 1D       		.uleb128 0x1d
 2138 0bbd 22000000 		.4byte	.LVL36
 2139 0bc1 1E0D0000 		.4byte	0xd1e
 2140 0bc5 1C       		.uleb128 0x1c
 2141 0bc6 01       		.uleb128 0x1
 2142 0bc7 50       		.byte	0x50
 2143 0bc8 01       		.uleb128 0x1
 2144 0bc9 32       		.byte	0x32
 2145 0bca 00       		.byte	0
 2146 0bcb 00       		.byte	0
 2147 0bcc 21       		.uleb128 0x21
 2148 0bcd FA020000 		.4byte	.LASF124
 2149 0bd1 01       		.byte	0x1
ARM GAS  /tmp/ccuqxLVc.s 			page 39


 2150 0bd2 9C01     		.2byte	0x19c
 2151 0bd4 00000000 		.4byte	.LFB70
 2152 0bd8 06000000 		.4byte	.LFE70-.LFB70
 2153 0bdc 01       		.uleb128 0x1
 2154 0bdd 9C       		.byte	0x9c
 2155 0bde 060C0000 		.4byte	0xc06
 2156 0be2 22       		.uleb128 0x22
 2157 0be3 50060000 		.4byte	.LASF110
 2158 0be7 01       		.byte	0x1
 2159 0be8 9C01     		.2byte	0x19c
 2160 0bea AE060000 		.4byte	0x6ae
 2161 0bee EC030000 		.4byte	.LLST30
 2162 0bf2 1B       		.uleb128 0x1b
 2163 0bf3 06000000 		.4byte	.LVL39
 2164 0bf7 2F0D0000 		.4byte	0xd2f
 2165 0bfb 1C       		.uleb128 0x1c
 2166 0bfc 01       		.uleb128 0x1
 2167 0bfd 50       		.byte	0x50
 2168 0bfe 05       		.uleb128 0x5
 2169 0bff F3       		.byte	0xf3
 2170 0c00 01       		.uleb128 0x1
 2171 0c01 50       		.byte	0x50
 2172 0c02 23       		.byte	0x23
 2173 0c03 0C       		.uleb128 0xc
 2174 0c04 00       		.byte	0
 2175 0c05 00       		.byte	0
 2176 0c06 21       		.uleb128 0x21
 2177 0c07 9D050000 		.4byte	.LASF125
 2178 0c0b 01       		.byte	0x1
 2179 0c0c B001     		.2byte	0x1b0
 2180 0c0e 00000000 		.4byte	.LFB71
 2181 0c12 04000000 		.4byte	.LFE71-.LFB71
 2182 0c16 01       		.uleb128 0x1
 2183 0c17 9C       		.byte	0x9c
 2184 0c18 360C0000 		.4byte	0xc36
 2185 0c1c 22       		.uleb128 0x22
 2186 0c1d 50060000 		.4byte	.LASF110
 2187 0c21 01       		.byte	0x1
 2188 0c22 B001     		.2byte	0x1b0
 2189 0c24 AE060000 		.4byte	0x6ae
 2190 0c28 1A040000 		.4byte	.LLST31
 2191 0c2c 19       		.uleb128 0x19
 2192 0c2d 04000000 		.4byte	.LVL41
 2193 0c31 400D0000 		.4byte	0xd40
 2194 0c35 00       		.byte	0
 2195 0c36 24       		.uleb128 0x24
 2196 0c37 8A010000 		.4byte	.LASF126
 2197 0c3b 09       		.byte	0x9
 2198 0c3c 6F       		.byte	0x6f
 2199 0c3d 18030000 		.4byte	0x318
 2200 0c41 25       		.uleb128 0x25
 2201 0c42 7B000000 		.4byte	.LASF127
 2202 0c46 10       		.byte	0x10
 2203 0c47 0706     		.2byte	0x607
 2204 0c49 A5030000 		.4byte	0x3a5
 2205 0c4d 26       		.uleb128 0x26
 2206 0c4e BD000000 		.4byte	.LASF142
ARM GAS  /tmp/ccuqxLVc.s 			page 40


 2207 0c52 0F       		.byte	0xf
 2208 0c53 6102     		.2byte	0x261
 2209 0c55 27       		.uleb128 0x27
 2210 0c56 FE050000 		.4byte	.LASF128
 2211 0c5a 0A       		.byte	0xa
 2212 0c5b 38       		.byte	0x38
 2213 0c5c 660C0000 		.4byte	0xc66
 2214 0c60 16       		.uleb128 0x16
 2215 0c61 9A030000 		.4byte	0x39a
 2216 0c65 00       		.byte	0
 2217 0c66 28       		.uleb128 0x28
 2218 0c67 3A060000 		.4byte	.LASF129
 2219 0c6b 0F       		.byte	0xf
 2220 0c6c 6202     		.2byte	0x262
 2221 0c6e 780C0000 		.4byte	0xc78
 2222 0c72 16       		.uleb128 0x16
 2223 0c73 AE060000 		.4byte	0x6ae
 2224 0c77 00       		.byte	0
 2225 0c78 28       		.uleb128 0x28
 2226 0c79 AA010000 		.4byte	.LASF130
 2227 0c7d 0F       		.byte	0xf
 2228 0c7e 6502     		.2byte	0x265
 2229 0c80 8A0C0000 		.4byte	0xc8a
 2230 0c84 16       		.uleb128 0x16
 2231 0c85 AE060000 		.4byte	0x6ae
 2232 0c89 00       		.byte	0
 2233 0c8a 28       		.uleb128 0x28
 2234 0c8b 43050000 		.4byte	.LASF131
 2235 0c8f 0F       		.byte	0xf
 2236 0c90 6302     		.2byte	0x263
 2237 0c92 9C0C0000 		.4byte	0xc9c
 2238 0c96 16       		.uleb128 0x16
 2239 0c97 AE060000 		.4byte	0x6ae
 2240 0c9b 00       		.byte	0
 2241 0c9c 28       		.uleb128 0x28
 2242 0c9d C0050000 		.4byte	.LASF132
 2243 0ca1 0F       		.byte	0xf
 2244 0ca2 6402     		.2byte	0x264
 2245 0ca4 AE0C0000 		.4byte	0xcae
 2246 0ca8 16       		.uleb128 0x16
 2247 0ca9 AE060000 		.4byte	0x6ae
 2248 0cad 00       		.byte	0
 2249 0cae 28       		.uleb128 0x28
 2250 0caf 08060000 		.4byte	.LASF133
 2251 0cb3 0F       		.byte	0xf
 2252 0cb4 6602     		.2byte	0x266
 2253 0cb6 C50C0000 		.4byte	0xcc5
 2254 0cba 16       		.uleb128 0x16
 2255 0cbb AE060000 		.4byte	0x6ae
 2256 0cbf 16       		.uleb128 0x16
 2257 0cc0 2C000000 		.4byte	0x2c
 2258 0cc4 00       		.byte	0
 2259 0cc5 28       		.uleb128 0x28
 2260 0cc6 12010000 		.4byte	.LASF134
 2261 0cca 0F       		.byte	0xf
 2262 0ccb 6702     		.2byte	0x267
 2263 0ccd E60C0000 		.4byte	0xce6
ARM GAS  /tmp/ccuqxLVc.s 			page 41


 2264 0cd1 16       		.uleb128 0x16
 2265 0cd2 AE060000 		.4byte	0x6ae
 2266 0cd6 16       		.uleb128 0x16
 2267 0cd7 2C000000 		.4byte	0x2c
 2268 0cdb 16       		.uleb128 0x16
 2269 0cdc 29090000 		.4byte	0x929
 2270 0ce0 16       		.uleb128 0x16
 2271 0ce1 34020000 		.4byte	0x234
 2272 0ce5 00       		.byte	0
 2273 0ce6 28       		.uleb128 0x28
 2274 0ce7 90010000 		.4byte	.LASF135
 2275 0ceb 0F       		.byte	0xf
 2276 0cec 6902     		.2byte	0x269
 2277 0cee 020D0000 		.4byte	0xd02
 2278 0cf2 16       		.uleb128 0x16
 2279 0cf3 AE060000 		.4byte	0x6ae
 2280 0cf7 16       		.uleb128 0x16
 2281 0cf8 2C000000 		.4byte	0x2c
 2282 0cfc 16       		.uleb128 0x16
 2283 0cfd 29090000 		.4byte	0x929
 2284 0d01 00       		.byte	0
 2285 0d02 28       		.uleb128 0x28
 2286 0d03 83020000 		.4byte	.LASF136
 2287 0d07 0F       		.byte	0xf
 2288 0d08 6A02     		.2byte	0x26a
 2289 0d0a 1E0D0000 		.4byte	0xd1e
 2290 0d0e 16       		.uleb128 0x16
 2291 0d0f AE060000 		.4byte	0x6ae
 2292 0d13 16       		.uleb128 0x16
 2293 0d14 2C000000 		.4byte	0x2c
 2294 0d18 16       		.uleb128 0x16
 2295 0d19 34020000 		.4byte	0x234
 2296 0d1d 00       		.byte	0
 2297 0d1e 27       		.uleb128 0x27
 2298 0d1f EC040000 		.4byte	.LASF137
 2299 0d23 09       		.byte	0x9
 2300 0d24 93       		.byte	0x93
 2301 0d25 2F0D0000 		.4byte	0xd2f
 2302 0d29 16       		.uleb128 0x16
 2303 0d2a E0000000 		.4byte	0xe0
 2304 0d2e 00       		.byte	0
 2305 0d2f 27       		.uleb128 0x27
 2306 0d30 08030000 		.4byte	.LASF138
 2307 0d34 0A       		.byte	0xa
 2308 0d35 39       		.byte	0x39
 2309 0d36 400D0000 		.4byte	0xd40
 2310 0d3a 16       		.uleb128 0x16
 2311 0d3b 9A030000 		.4byte	0x39a
 2312 0d3f 00       		.byte	0
 2313 0d40 29       		.uleb128 0x29
 2314 0d41 8F000000 		.4byte	.LASF143
 2315 0d45 0A       		.byte	0xa
 2316 0d46 3D       		.byte	0x3d
 2317 0d47 9A030000 		.4byte	0x39a
 2318 0d4b 00       		.byte	0
 2319              		.section	.debug_abbrev,"",%progbits
 2320              	.Ldebug_abbrev0:
ARM GAS  /tmp/ccuqxLVc.s 			page 42


 2321 0000 01       		.uleb128 0x1
 2322 0001 11       		.uleb128 0x11
 2323 0002 01       		.byte	0x1
 2324 0003 25       		.uleb128 0x25
 2325 0004 0E       		.uleb128 0xe
 2326 0005 13       		.uleb128 0x13
 2327 0006 0B       		.uleb128 0xb
 2328 0007 03       		.uleb128 0x3
 2329 0008 0E       		.uleb128 0xe
 2330 0009 1B       		.uleb128 0x1b
 2331 000a 0E       		.uleb128 0xe
 2332 000b 55       		.uleb128 0x55
 2333 000c 17       		.uleb128 0x17
 2334 000d 11       		.uleb128 0x11
 2335 000e 01       		.uleb128 0x1
 2336 000f 10       		.uleb128 0x10
 2337 0010 17       		.uleb128 0x17
 2338 0011 00       		.byte	0
 2339 0012 00       		.byte	0
 2340 0013 02       		.uleb128 0x2
 2341 0014 24       		.uleb128 0x24
 2342 0015 00       		.byte	0
 2343 0016 0B       		.uleb128 0xb
 2344 0017 0B       		.uleb128 0xb
 2345 0018 3E       		.uleb128 0x3e
 2346 0019 0B       		.uleb128 0xb
 2347 001a 03       		.uleb128 0x3
 2348 001b 08       		.uleb128 0x8
 2349 001c 00       		.byte	0
 2350 001d 00       		.byte	0
 2351 001e 03       		.uleb128 0x3
 2352 001f 16       		.uleb128 0x16
 2353 0020 00       		.byte	0
 2354 0021 03       		.uleb128 0x3
 2355 0022 0E       		.uleb128 0xe
 2356 0023 3A       		.uleb128 0x3a
 2357 0024 0B       		.uleb128 0xb
 2358 0025 3B       		.uleb128 0x3b
 2359 0026 0B       		.uleb128 0xb
 2360 0027 49       		.uleb128 0x49
 2361 0028 13       		.uleb128 0x13
 2362 0029 00       		.byte	0
 2363 002a 00       		.byte	0
 2364 002b 04       		.uleb128 0x4
 2365 002c 24       		.uleb128 0x24
 2366 002d 00       		.byte	0
 2367 002e 0B       		.uleb128 0xb
 2368 002f 0B       		.uleb128 0xb
 2369 0030 3E       		.uleb128 0x3e
 2370 0031 0B       		.uleb128 0xb
 2371 0032 03       		.uleb128 0x3
 2372 0033 0E       		.uleb128 0xe
 2373 0034 00       		.byte	0
 2374 0035 00       		.byte	0
 2375 0036 05       		.uleb128 0x5
 2376 0037 13       		.uleb128 0x13
 2377 0038 01       		.byte	0x1
ARM GAS  /tmp/ccuqxLVc.s 			page 43


 2378 0039 03       		.uleb128 0x3
 2379 003a 0E       		.uleb128 0xe
 2380 003b 0B       		.uleb128 0xb
 2381 003c 0B       		.uleb128 0xb
 2382 003d 3A       		.uleb128 0x3a
 2383 003e 0B       		.uleb128 0xb
 2384 003f 3B       		.uleb128 0x3b
 2385 0040 0B       		.uleb128 0xb
 2386 0041 01       		.uleb128 0x1
 2387 0042 13       		.uleb128 0x13
 2388 0043 00       		.byte	0
 2389 0044 00       		.byte	0
 2390 0045 06       		.uleb128 0x6
 2391 0046 0D       		.uleb128 0xd
 2392 0047 00       		.byte	0
 2393 0048 03       		.uleb128 0x3
 2394 0049 0E       		.uleb128 0xe
 2395 004a 3A       		.uleb128 0x3a
 2396 004b 0B       		.uleb128 0xb
 2397 004c 3B       		.uleb128 0x3b
 2398 004d 0B       		.uleb128 0xb
 2399 004e 49       		.uleb128 0x49
 2400 004f 13       		.uleb128 0x13
 2401 0050 38       		.uleb128 0x38
 2402 0051 0B       		.uleb128 0xb
 2403 0052 00       		.byte	0
 2404 0053 00       		.byte	0
 2405 0054 07       		.uleb128 0x7
 2406 0055 0D       		.uleb128 0xd
 2407 0056 00       		.byte	0
 2408 0057 03       		.uleb128 0x3
 2409 0058 08       		.uleb128 0x8
 2410 0059 3A       		.uleb128 0x3a
 2411 005a 0B       		.uleb128 0xb
 2412 005b 3B       		.uleb128 0x3b
 2413 005c 0B       		.uleb128 0xb
 2414 005d 49       		.uleb128 0x49
 2415 005e 13       		.uleb128 0x13
 2416 005f 38       		.uleb128 0x38
 2417 0060 0B       		.uleb128 0xb
 2418 0061 00       		.byte	0
 2419 0062 00       		.byte	0
 2420 0063 08       		.uleb128 0x8
 2421 0064 13       		.uleb128 0x13
 2422 0065 01       		.byte	0x1
 2423 0066 0B       		.uleb128 0xb
 2424 0067 0B       		.uleb128 0xb
 2425 0068 3A       		.uleb128 0x3a
 2426 0069 0B       		.uleb128 0xb
 2427 006a 3B       		.uleb128 0x3b
 2428 006b 0B       		.uleb128 0xb
 2429 006c 01       		.uleb128 0x1
 2430 006d 13       		.uleb128 0x13
 2431 006e 00       		.byte	0
 2432 006f 00       		.byte	0
 2433 0070 09       		.uleb128 0x9
 2434 0071 0F       		.uleb128 0xf
ARM GAS  /tmp/ccuqxLVc.s 			page 44


 2435 0072 00       		.byte	0
 2436 0073 0B       		.uleb128 0xb
 2437 0074 0B       		.uleb128 0xb
 2438 0075 49       		.uleb128 0x49
 2439 0076 13       		.uleb128 0x13
 2440 0077 00       		.byte	0
 2441 0078 00       		.byte	0
 2442 0079 0A       		.uleb128 0xa
 2443 007a 0F       		.uleb128 0xf
 2444 007b 00       		.byte	0
 2445 007c 0B       		.uleb128 0xb
 2446 007d 0B       		.uleb128 0xb
 2447 007e 00       		.byte	0
 2448 007f 00       		.byte	0
 2449 0080 0B       		.uleb128 0xb
 2450 0081 13       		.uleb128 0x13
 2451 0082 01       		.byte	0x1
 2452 0083 03       		.uleb128 0x3
 2453 0084 0E       		.uleb128 0xe
 2454 0085 0B       		.uleb128 0xb
 2455 0086 0B       		.uleb128 0xb
 2456 0087 3A       		.uleb128 0x3a
 2457 0088 0B       		.uleb128 0xb
 2458 0089 3B       		.uleb128 0x3b
 2459 008a 05       		.uleb128 0x5
 2460 008b 01       		.uleb128 0x1
 2461 008c 13       		.uleb128 0x13
 2462 008d 00       		.byte	0
 2463 008e 00       		.byte	0
 2464 008f 0C       		.uleb128 0xc
 2465 0090 0D       		.uleb128 0xd
 2466 0091 00       		.byte	0
 2467 0092 03       		.uleb128 0x3
 2468 0093 08       		.uleb128 0x8
 2469 0094 3A       		.uleb128 0x3a
 2470 0095 0B       		.uleb128 0xb
 2471 0096 3B       		.uleb128 0x3b
 2472 0097 05       		.uleb128 0x5
 2473 0098 49       		.uleb128 0x49
 2474 0099 13       		.uleb128 0x13
 2475 009a 38       		.uleb128 0x38
 2476 009b 0B       		.uleb128 0xb
 2477 009c 00       		.byte	0
 2478 009d 00       		.byte	0
 2479 009e 0D       		.uleb128 0xd
 2480 009f 35       		.uleb128 0x35
 2481 00a0 00       		.byte	0
 2482 00a1 49       		.uleb128 0x49
 2483 00a2 13       		.uleb128 0x13
 2484 00a3 00       		.byte	0
 2485 00a4 00       		.byte	0
 2486 00a5 0E       		.uleb128 0xe
 2487 00a6 17       		.uleb128 0x17
 2488 00a7 01       		.byte	0x1
 2489 00a8 0B       		.uleb128 0xb
 2490 00a9 0B       		.uleb128 0xb
 2491 00aa 3A       		.uleb128 0x3a
ARM GAS  /tmp/ccuqxLVc.s 			page 45


 2492 00ab 0B       		.uleb128 0xb
 2493 00ac 3B       		.uleb128 0x3b
 2494 00ad 0B       		.uleb128 0xb
 2495 00ae 01       		.uleb128 0x1
 2496 00af 13       		.uleb128 0x13
 2497 00b0 00       		.byte	0
 2498 00b1 00       		.byte	0
 2499 00b2 0F       		.uleb128 0xf
 2500 00b3 0D       		.uleb128 0xd
 2501 00b4 00       		.byte	0
 2502 00b5 03       		.uleb128 0x3
 2503 00b6 0E       		.uleb128 0xe
 2504 00b7 3A       		.uleb128 0x3a
 2505 00b8 0B       		.uleb128 0xb
 2506 00b9 3B       		.uleb128 0x3b
 2507 00ba 0B       		.uleb128 0xb
 2508 00bb 49       		.uleb128 0x49
 2509 00bc 13       		.uleb128 0x13
 2510 00bd 00       		.byte	0
 2511 00be 00       		.byte	0
 2512 00bf 10       		.uleb128 0x10
 2513 00c0 13       		.uleb128 0x13
 2514 00c1 01       		.byte	0x1
 2515 00c2 0B       		.uleb128 0xb
 2516 00c3 0B       		.uleb128 0xb
 2517 00c4 3A       		.uleb128 0x3a
 2518 00c5 0B       		.uleb128 0xb
 2519 00c6 3B       		.uleb128 0x3b
 2520 00c7 05       		.uleb128 0x5
 2521 00c8 01       		.uleb128 0x1
 2522 00c9 13       		.uleb128 0x13
 2523 00ca 00       		.byte	0
 2524 00cb 00       		.byte	0
 2525 00cc 11       		.uleb128 0x11
 2526 00cd 0D       		.uleb128 0xd
 2527 00ce 00       		.byte	0
 2528 00cf 03       		.uleb128 0x3
 2529 00d0 0E       		.uleb128 0xe
 2530 00d1 3A       		.uleb128 0x3a
 2531 00d2 0B       		.uleb128 0xb
 2532 00d3 3B       		.uleb128 0x3b
 2533 00d4 05       		.uleb128 0x5
 2534 00d5 49       		.uleb128 0x49
 2535 00d6 13       		.uleb128 0x13
 2536 00d7 38       		.uleb128 0x38
 2537 00d8 0B       		.uleb128 0xb
 2538 00d9 00       		.byte	0
 2539 00da 00       		.byte	0
 2540 00db 12       		.uleb128 0x12
 2541 00dc 16       		.uleb128 0x16
 2542 00dd 00       		.byte	0
 2543 00de 03       		.uleb128 0x3
 2544 00df 0E       		.uleb128 0xe
 2545 00e0 3A       		.uleb128 0x3a
 2546 00e1 0B       		.uleb128 0xb
 2547 00e2 3B       		.uleb128 0x3b
 2548 00e3 05       		.uleb128 0x5
ARM GAS  /tmp/ccuqxLVc.s 			page 46


 2549 00e4 49       		.uleb128 0x49
 2550 00e5 13       		.uleb128 0x13
 2551 00e6 00       		.byte	0
 2552 00e7 00       		.byte	0
 2553 00e8 13       		.uleb128 0x13
 2554 00e9 04       		.uleb128 0x4
 2555 00ea 01       		.byte	0x1
 2556 00eb 0B       		.uleb128 0xb
 2557 00ec 0B       		.uleb128 0xb
 2558 00ed 3A       		.uleb128 0x3a
 2559 00ee 0B       		.uleb128 0xb
 2560 00ef 3B       		.uleb128 0x3b
 2561 00f0 0B       		.uleb128 0xb
 2562 00f1 01       		.uleb128 0x1
 2563 00f2 13       		.uleb128 0x13
 2564 00f3 00       		.byte	0
 2565 00f4 00       		.byte	0
 2566 00f5 14       		.uleb128 0x14
 2567 00f6 28       		.uleb128 0x28
 2568 00f7 00       		.byte	0
 2569 00f8 03       		.uleb128 0x3
 2570 00f9 0E       		.uleb128 0xe
 2571 00fa 1C       		.uleb128 0x1c
 2572 00fb 0D       		.uleb128 0xd
 2573 00fc 00       		.byte	0
 2574 00fd 00       		.byte	0
 2575 00fe 15       		.uleb128 0x15
 2576 00ff 15       		.uleb128 0x15
 2577 0100 01       		.byte	0x1
 2578 0101 27       		.uleb128 0x27
 2579 0102 19       		.uleb128 0x19
 2580 0103 01       		.uleb128 0x1
 2581 0104 13       		.uleb128 0x13
 2582 0105 00       		.byte	0
 2583 0106 00       		.byte	0
 2584 0107 16       		.uleb128 0x16
 2585 0108 05       		.uleb128 0x5
 2586 0109 00       		.byte	0
 2587 010a 49       		.uleb128 0x49
 2588 010b 13       		.uleb128 0x13
 2589 010c 00       		.byte	0
 2590 010d 00       		.byte	0
 2591 010e 17       		.uleb128 0x17
 2592 010f 26       		.uleb128 0x26
 2593 0110 00       		.byte	0
 2594 0111 49       		.uleb128 0x49
 2595 0112 13       		.uleb128 0x13
 2596 0113 00       		.byte	0
 2597 0114 00       		.byte	0
 2598 0115 18       		.uleb128 0x18
 2599 0116 2E       		.uleb128 0x2e
 2600 0117 01       		.byte	0x1
 2601 0118 3F       		.uleb128 0x3f
 2602 0119 19       		.uleb128 0x19
 2603 011a 03       		.uleb128 0x3
 2604 011b 0E       		.uleb128 0xe
 2605 011c 3A       		.uleb128 0x3a
ARM GAS  /tmp/ccuqxLVc.s 			page 47


 2606 011d 0B       		.uleb128 0xb
 2607 011e 3B       		.uleb128 0x3b
 2608 011f 0B       		.uleb128 0xb
 2609 0120 27       		.uleb128 0x27
 2610 0121 19       		.uleb128 0x19
 2611 0122 11       		.uleb128 0x11
 2612 0123 01       		.uleb128 0x1
 2613 0124 12       		.uleb128 0x12
 2614 0125 06       		.uleb128 0x6
 2615 0126 40       		.uleb128 0x40
 2616 0127 18       		.uleb128 0x18
 2617 0128 9742     		.uleb128 0x2117
 2618 012a 19       		.uleb128 0x19
 2619 012b 01       		.uleb128 0x1
 2620 012c 13       		.uleb128 0x13
 2621 012d 00       		.byte	0
 2622 012e 00       		.byte	0
 2623 012f 19       		.uleb128 0x19
 2624 0130 898201   		.uleb128 0x4109
 2625 0133 00       		.byte	0
 2626 0134 11       		.uleb128 0x11
 2627 0135 01       		.uleb128 0x1
 2628 0136 9542     		.uleb128 0x2115
 2629 0138 19       		.uleb128 0x19
 2630 0139 31       		.uleb128 0x31
 2631 013a 13       		.uleb128 0x13
 2632 013b 00       		.byte	0
 2633 013c 00       		.byte	0
 2634 013d 1A       		.uleb128 0x1a
 2635 013e 05       		.uleb128 0x5
 2636 013f 00       		.byte	0
 2637 0140 03       		.uleb128 0x3
 2638 0141 0E       		.uleb128 0xe
 2639 0142 3A       		.uleb128 0x3a
 2640 0143 0B       		.uleb128 0xb
 2641 0144 3B       		.uleb128 0x3b
 2642 0145 0B       		.uleb128 0xb
 2643 0146 49       		.uleb128 0x49
 2644 0147 13       		.uleb128 0x13
 2645 0148 02       		.uleb128 0x2
 2646 0149 17       		.uleb128 0x17
 2647 014a 00       		.byte	0
 2648 014b 00       		.byte	0
 2649 014c 1B       		.uleb128 0x1b
 2650 014d 898201   		.uleb128 0x4109
 2651 0150 01       		.byte	0x1
 2652 0151 11       		.uleb128 0x11
 2653 0152 01       		.uleb128 0x1
 2654 0153 9542     		.uleb128 0x2115
 2655 0155 19       		.uleb128 0x19
 2656 0156 31       		.uleb128 0x31
 2657 0157 13       		.uleb128 0x13
 2658 0158 00       		.byte	0
 2659 0159 00       		.byte	0
 2660 015a 1C       		.uleb128 0x1c
 2661 015b 8A8201   		.uleb128 0x410a
 2662 015e 00       		.byte	0
ARM GAS  /tmp/ccuqxLVc.s 			page 48


 2663 015f 02       		.uleb128 0x2
 2664 0160 18       		.uleb128 0x18
 2665 0161 9142     		.uleb128 0x2111
 2666 0163 18       		.uleb128 0x18
 2667 0164 00       		.byte	0
 2668 0165 00       		.byte	0
 2669 0166 1D       		.uleb128 0x1d
 2670 0167 898201   		.uleb128 0x4109
 2671 016a 01       		.byte	0x1
 2672 016b 11       		.uleb128 0x11
 2673 016c 01       		.uleb128 0x1
 2674 016d 31       		.uleb128 0x31
 2675 016e 13       		.uleb128 0x13
 2676 016f 00       		.byte	0
 2677 0170 00       		.byte	0
 2678 0171 1E       		.uleb128 0x1e
 2679 0172 898201   		.uleb128 0x4109
 2680 0175 01       		.byte	0x1
 2681 0176 11       		.uleb128 0x11
 2682 0177 01       		.uleb128 0x1
 2683 0178 31       		.uleb128 0x31
 2684 0179 13       		.uleb128 0x13
 2685 017a 01       		.uleb128 0x1
 2686 017b 13       		.uleb128 0x13
 2687 017c 00       		.byte	0
 2688 017d 00       		.byte	0
 2689 017e 1F       		.uleb128 0x1f
 2690 017f 05       		.uleb128 0x5
 2691 0180 00       		.byte	0
 2692 0181 03       		.uleb128 0x3
 2693 0182 08       		.uleb128 0x8
 2694 0183 3A       		.uleb128 0x3a
 2695 0184 0B       		.uleb128 0xb
 2696 0185 3B       		.uleb128 0x3b
 2697 0186 0B       		.uleb128 0xb
 2698 0187 49       		.uleb128 0x49
 2699 0188 13       		.uleb128 0x13
 2700 0189 02       		.uleb128 0x2
 2701 018a 17       		.uleb128 0x17
 2702 018b 00       		.byte	0
 2703 018c 00       		.byte	0
 2704 018d 20       		.uleb128 0x20
 2705 018e 26       		.uleb128 0x26
 2706 018f 00       		.byte	0
 2707 0190 00       		.byte	0
 2708 0191 00       		.byte	0
 2709 0192 21       		.uleb128 0x21
 2710 0193 2E       		.uleb128 0x2e
 2711 0194 01       		.byte	0x1
 2712 0195 3F       		.uleb128 0x3f
 2713 0196 19       		.uleb128 0x19
 2714 0197 03       		.uleb128 0x3
 2715 0198 0E       		.uleb128 0xe
 2716 0199 3A       		.uleb128 0x3a
 2717 019a 0B       		.uleb128 0xb
 2718 019b 3B       		.uleb128 0x3b
 2719 019c 05       		.uleb128 0x5
ARM GAS  /tmp/ccuqxLVc.s 			page 49


 2720 019d 27       		.uleb128 0x27
 2721 019e 19       		.uleb128 0x19
 2722 019f 11       		.uleb128 0x11
 2723 01a0 01       		.uleb128 0x1
 2724 01a1 12       		.uleb128 0x12
 2725 01a2 06       		.uleb128 0x6
 2726 01a3 40       		.uleb128 0x40
 2727 01a4 18       		.uleb128 0x18
 2728 01a5 9742     		.uleb128 0x2117
 2729 01a7 19       		.uleb128 0x19
 2730 01a8 01       		.uleb128 0x1
 2731 01a9 13       		.uleb128 0x13
 2732 01aa 00       		.byte	0
 2733 01ab 00       		.byte	0
 2734 01ac 22       		.uleb128 0x22
 2735 01ad 05       		.uleb128 0x5
 2736 01ae 00       		.byte	0
 2737 01af 03       		.uleb128 0x3
 2738 01b0 0E       		.uleb128 0xe
 2739 01b1 3A       		.uleb128 0x3a
 2740 01b2 0B       		.uleb128 0xb
 2741 01b3 3B       		.uleb128 0x3b
 2742 01b4 05       		.uleb128 0x5
 2743 01b5 49       		.uleb128 0x49
 2744 01b6 13       		.uleb128 0x13
 2745 01b7 02       		.uleb128 0x2
 2746 01b8 17       		.uleb128 0x17
 2747 01b9 00       		.byte	0
 2748 01ba 00       		.byte	0
 2749 01bb 23       		.uleb128 0x23
 2750 01bc 05       		.uleb128 0x5
 2751 01bd 00       		.byte	0
 2752 01be 03       		.uleb128 0x3
 2753 01bf 08       		.uleb128 0x8
 2754 01c0 3A       		.uleb128 0x3a
 2755 01c1 0B       		.uleb128 0xb
 2756 01c2 3B       		.uleb128 0x3b
 2757 01c3 05       		.uleb128 0x5
 2758 01c4 49       		.uleb128 0x49
 2759 01c5 13       		.uleb128 0x13
 2760 01c6 02       		.uleb128 0x2
 2761 01c7 17       		.uleb128 0x17
 2762 01c8 00       		.byte	0
 2763 01c9 00       		.byte	0
 2764 01ca 24       		.uleb128 0x24
 2765 01cb 34       		.uleb128 0x34
 2766 01cc 00       		.byte	0
 2767 01cd 03       		.uleb128 0x3
 2768 01ce 0E       		.uleb128 0xe
 2769 01cf 3A       		.uleb128 0x3a
 2770 01d0 0B       		.uleb128 0xb
 2771 01d1 3B       		.uleb128 0x3b
 2772 01d2 0B       		.uleb128 0xb
 2773 01d3 49       		.uleb128 0x49
 2774 01d4 13       		.uleb128 0x13
 2775 01d5 3F       		.uleb128 0x3f
 2776 01d6 19       		.uleb128 0x19
ARM GAS  /tmp/ccuqxLVc.s 			page 50


 2777 01d7 3C       		.uleb128 0x3c
 2778 01d8 19       		.uleb128 0x19
 2779 01d9 00       		.byte	0
 2780 01da 00       		.byte	0
 2781 01db 25       		.uleb128 0x25
 2782 01dc 34       		.uleb128 0x34
 2783 01dd 00       		.byte	0
 2784 01de 03       		.uleb128 0x3
 2785 01df 0E       		.uleb128 0xe
 2786 01e0 3A       		.uleb128 0x3a
 2787 01e1 0B       		.uleb128 0xb
 2788 01e2 3B       		.uleb128 0x3b
 2789 01e3 05       		.uleb128 0x5
 2790 01e4 49       		.uleb128 0x49
 2791 01e5 13       		.uleb128 0x13
 2792 01e6 3F       		.uleb128 0x3f
 2793 01e7 19       		.uleb128 0x19
 2794 01e8 3C       		.uleb128 0x3c
 2795 01e9 19       		.uleb128 0x19
 2796 01ea 00       		.byte	0
 2797 01eb 00       		.byte	0
 2798 01ec 26       		.uleb128 0x26
 2799 01ed 2E       		.uleb128 0x2e
 2800 01ee 00       		.byte	0
 2801 01ef 3F       		.uleb128 0x3f
 2802 01f0 19       		.uleb128 0x19
 2803 01f1 03       		.uleb128 0x3
 2804 01f2 0E       		.uleb128 0xe
 2805 01f3 3A       		.uleb128 0x3a
 2806 01f4 0B       		.uleb128 0xb
 2807 01f5 3B       		.uleb128 0x3b
 2808 01f6 05       		.uleb128 0x5
 2809 01f7 27       		.uleb128 0x27
 2810 01f8 19       		.uleb128 0x19
 2811 01f9 3C       		.uleb128 0x3c
 2812 01fa 19       		.uleb128 0x19
 2813 01fb 00       		.byte	0
 2814 01fc 00       		.byte	0
 2815 01fd 27       		.uleb128 0x27
 2816 01fe 2E       		.uleb128 0x2e
 2817 01ff 01       		.byte	0x1
 2818 0200 3F       		.uleb128 0x3f
 2819 0201 19       		.uleb128 0x19
 2820 0202 03       		.uleb128 0x3
 2821 0203 0E       		.uleb128 0xe
 2822 0204 3A       		.uleb128 0x3a
 2823 0205 0B       		.uleb128 0xb
 2824 0206 3B       		.uleb128 0x3b
 2825 0207 0B       		.uleb128 0xb
 2826 0208 27       		.uleb128 0x27
 2827 0209 19       		.uleb128 0x19
 2828 020a 3C       		.uleb128 0x3c
 2829 020b 19       		.uleb128 0x19
 2830 020c 01       		.uleb128 0x1
 2831 020d 13       		.uleb128 0x13
 2832 020e 00       		.byte	0
 2833 020f 00       		.byte	0
ARM GAS  /tmp/ccuqxLVc.s 			page 51


 2834 0210 28       		.uleb128 0x28
 2835 0211 2E       		.uleb128 0x2e
 2836 0212 01       		.byte	0x1
 2837 0213 3F       		.uleb128 0x3f
 2838 0214 19       		.uleb128 0x19
 2839 0215 03       		.uleb128 0x3
 2840 0216 0E       		.uleb128 0xe
 2841 0217 3A       		.uleb128 0x3a
 2842 0218 0B       		.uleb128 0xb
 2843 0219 3B       		.uleb128 0x3b
 2844 021a 05       		.uleb128 0x5
 2845 021b 27       		.uleb128 0x27
 2846 021c 19       		.uleb128 0x19
 2847 021d 3C       		.uleb128 0x3c
 2848 021e 19       		.uleb128 0x19
 2849 021f 01       		.uleb128 0x1
 2850 0220 13       		.uleb128 0x13
 2851 0221 00       		.byte	0
 2852 0222 00       		.byte	0
 2853 0223 29       		.uleb128 0x29
 2854 0224 2E       		.uleb128 0x2e
 2855 0225 00       		.byte	0
 2856 0226 3F       		.uleb128 0x3f
 2857 0227 19       		.uleb128 0x19
 2858 0228 03       		.uleb128 0x3
 2859 0229 0E       		.uleb128 0xe
 2860 022a 3A       		.uleb128 0x3a
 2861 022b 0B       		.uleb128 0xb
 2862 022c 3B       		.uleb128 0x3b
 2863 022d 0B       		.uleb128 0xb
 2864 022e 27       		.uleb128 0x27
 2865 022f 19       		.uleb128 0x19
 2866 0230 49       		.uleb128 0x49
 2867 0231 13       		.uleb128 0x13
 2868 0232 3C       		.uleb128 0x3c
 2869 0233 19       		.uleb128 0x19
 2870 0234 00       		.byte	0
 2871 0235 00       		.byte	0
 2872 0236 00       		.byte	0
 2873              		.section	.debug_loc,"",%progbits
 2874              	.Ldebug_loc0:
 2875              	.LLST0:
 2876 0000 00000000 		.4byte	.LVL1
 2877 0004 0C000000 		.4byte	.LVL2
 2878 0008 0100     		.2byte	0x1
 2879 000a 50       		.byte	0x50
 2880 000b 0C000000 		.4byte	.LVL2
 2881 000f 0F000000 		.4byte	.LVL3-1
 2882 0013 0300     		.2byte	0x3
 2883 0015 70       		.byte	0x70
 2884 0016 74       		.sleb128 -12
 2885 0017 9F       		.byte	0x9f
 2886 0018 0F000000 		.4byte	.LVL3-1
 2887 001c 10000000 		.4byte	.LFE57
 2888 0020 0400     		.2byte	0x4
 2889 0022 F3       		.byte	0xf3
 2890 0023 01       		.uleb128 0x1
ARM GAS  /tmp/ccuqxLVc.s 			page 52


 2891 0024 50       		.byte	0x50
 2892 0025 9F       		.byte	0x9f
 2893 0026 00000000 		.4byte	0
 2894 002a 00000000 		.4byte	0
 2895              	.LLST1:
 2896 002e 00000000 		.4byte	.LVL4
 2897 0032 0D000000 		.4byte	.LVL5-1
 2898 0036 0100     		.2byte	0x1
 2899 0038 50       		.byte	0x50
 2900 0039 0D000000 		.4byte	.LVL5-1
 2901 003d 18000000 		.4byte	.LFE58
 2902 0041 0100     		.2byte	0x1
 2903 0043 54       		.byte	0x54
 2904 0044 00000000 		.4byte	0
 2905 0048 00000000 		.4byte	0
 2906              	.LLST2:
 2907 004c 00000000 		.4byte	.LVL4
 2908 0050 0D000000 		.4byte	.LVL5-1
 2909 0054 0100     		.2byte	0x1
 2910 0056 51       		.byte	0x51
 2911 0057 0D000000 		.4byte	.LVL5-1
 2912 005b 18000000 		.4byte	.LFE58
 2913 005f 0400     		.2byte	0x4
 2914 0061 F3       		.byte	0xf3
 2915 0062 01       		.uleb128 0x1
 2916 0063 51       		.byte	0x51
 2917 0064 9F       		.byte	0x9f
 2918 0065 00000000 		.4byte	0
 2919 0069 00000000 		.4byte	0
 2920              	.LLST3:
 2921 006d 00000000 		.4byte	.LVL6
 2922 0071 0B000000 		.4byte	.LVL7-1
 2923 0075 0100     		.2byte	0x1
 2924 0077 50       		.byte	0x50
 2925 0078 0B000000 		.4byte	.LVL7-1
 2926 007c 1C000000 		.4byte	.LFE59
 2927 0080 0100     		.2byte	0x1
 2928 0082 54       		.byte	0x54
 2929 0083 00000000 		.4byte	0
 2930 0087 00000000 		.4byte	0
 2931              	.LLST4:
 2932 008b 00000000 		.4byte	.LVL9
 2933 008f 09000000 		.4byte	.LVL10-1
 2934 0093 0100     		.2byte	0x1
 2935 0095 50       		.byte	0x50
 2936 0096 09000000 		.4byte	.LVL10-1
 2937 009a 10000000 		.4byte	.LFE60
 2938 009e 0400     		.2byte	0x4
 2939 00a0 F3       		.byte	0xf3
 2940 00a1 01       		.uleb128 0x1
 2941 00a2 50       		.byte	0x50
 2942 00a3 9F       		.byte	0x9f
 2943 00a4 00000000 		.4byte	0
 2944 00a8 00000000 		.4byte	0
 2945              	.LLST5:
 2946 00ac 00000000 		.4byte	.LVL11
 2947 00b0 09000000 		.4byte	.LVL12-1
ARM GAS  /tmp/ccuqxLVc.s 			page 53


 2948 00b4 0100     		.2byte	0x1
 2949 00b6 50       		.byte	0x50
 2950 00b7 09000000 		.4byte	.LVL12-1
 2951 00bb 10000000 		.4byte	.LFE61
 2952 00bf 0400     		.2byte	0x4
 2953 00c1 F3       		.byte	0xf3
 2954 00c2 01       		.uleb128 0x1
 2955 00c3 50       		.byte	0x50
 2956 00c4 9F       		.byte	0x9f
 2957 00c5 00000000 		.4byte	0
 2958 00c9 00000000 		.4byte	0
 2959              	.LLST6:
 2960 00cd 00000000 		.4byte	.LVL13
 2961 00d1 0D000000 		.4byte	.LVL14-1
 2962 00d5 0100     		.2byte	0x1
 2963 00d7 50       		.byte	0x50
 2964 00d8 0D000000 		.4byte	.LVL14-1
 2965 00dc 14000000 		.4byte	.LFE62
 2966 00e0 0400     		.2byte	0x4
 2967 00e2 F3       		.byte	0xf3
 2968 00e3 01       		.uleb128 0x1
 2969 00e4 50       		.byte	0x50
 2970 00e5 9F       		.byte	0x9f
 2971 00e6 00000000 		.4byte	0
 2972 00ea 00000000 		.4byte	0
 2973              	.LLST7:
 2974 00ee 00000000 		.4byte	.LVL13
 2975 00f2 0D000000 		.4byte	.LVL14-1
 2976 00f6 0100     		.2byte	0x1
 2977 00f8 51       		.byte	0x51
 2978 00f9 0D000000 		.4byte	.LVL14-1
 2979 00fd 14000000 		.4byte	.LFE62
 2980 0101 0400     		.2byte	0x4
 2981 0103 F3       		.byte	0xf3
 2982 0104 01       		.uleb128 0x1
 2983 0105 51       		.byte	0x51
 2984 0106 9F       		.byte	0x9f
 2985 0107 00000000 		.4byte	0
 2986 010b 00000000 		.4byte	0
 2987              	.LLST8:
 2988 010f 00000000 		.4byte	.LVL15
 2989 0113 11000000 		.4byte	.LVL17-1
 2990 0117 0100     		.2byte	0x1
 2991 0119 50       		.byte	0x50
 2992 011a 11000000 		.4byte	.LVL17-1
 2993 011e 18000000 		.4byte	.LFE63
 2994 0122 0400     		.2byte	0x4
 2995 0124 F3       		.byte	0xf3
 2996 0125 01       		.uleb128 0x1
 2997 0126 50       		.byte	0x50
 2998 0127 9F       		.byte	0x9f
 2999 0128 00000000 		.4byte	0
 3000 012c 00000000 		.4byte	0
 3001              	.LLST9:
 3002 0130 00000000 		.4byte	.LVL15
 3003 0134 11000000 		.4byte	.LVL17-1
 3004 0138 0100     		.2byte	0x1
ARM GAS  /tmp/ccuqxLVc.s 			page 54


 3005 013a 51       		.byte	0x51
 3006 013b 11000000 		.4byte	.LVL17-1
 3007 013f 18000000 		.4byte	.LFE63
 3008 0143 0400     		.2byte	0x4
 3009 0145 F3       		.byte	0xf3
 3010 0146 01       		.uleb128 0x1
 3011 0147 51       		.byte	0x51
 3012 0148 9F       		.byte	0x9f
 3013 0149 00000000 		.4byte	0
 3014 014d 00000000 		.4byte	0
 3015              	.LLST10:
 3016 0151 00000000 		.4byte	.LVL15
 3017 0155 11000000 		.4byte	.LVL17-1
 3018 0159 0100     		.2byte	0x1
 3019 015b 52       		.byte	0x52
 3020 015c 11000000 		.4byte	.LVL17-1
 3021 0160 18000000 		.4byte	.LFE63
 3022 0164 0400     		.2byte	0x4
 3023 0166 F3       		.byte	0xf3
 3024 0167 01       		.uleb128 0x1
 3025 0168 52       		.byte	0x52
 3026 0169 9F       		.byte	0x9f
 3027 016a 00000000 		.4byte	0
 3028 016e 00000000 		.4byte	0
 3029              	.LLST11:
 3030 0172 00000000 		.4byte	.LVL15
 3031 0176 08000000 		.4byte	.LVL16
 3032 017a 0100     		.2byte	0x1
 3033 017c 53       		.byte	0x53
 3034 017d 08000000 		.4byte	.LVL16
 3035 0181 18000000 		.4byte	.LFE63
 3036 0185 0100     		.2byte	0x1
 3037 0187 54       		.byte	0x54
 3038 0188 00000000 		.4byte	0
 3039 018c 00000000 		.4byte	0
 3040              	.LLST12:
 3041 0190 00000000 		.4byte	.LVL18
 3042 0194 0D000000 		.4byte	.LVL19-1
 3043 0198 0100     		.2byte	0x1
 3044 019a 50       		.byte	0x50
 3045 019b 0D000000 		.4byte	.LVL19-1
 3046 019f 14000000 		.4byte	.LFE64
 3047 01a3 0400     		.2byte	0x4
 3048 01a5 F3       		.byte	0xf3
 3049 01a6 01       		.uleb128 0x1
 3050 01a7 50       		.byte	0x50
 3051 01a8 9F       		.byte	0x9f
 3052 01a9 00000000 		.4byte	0
 3053 01ad 00000000 		.4byte	0
 3054              	.LLST13:
 3055 01b1 00000000 		.4byte	.LVL18
 3056 01b5 0D000000 		.4byte	.LVL19-1
 3057 01b9 0100     		.2byte	0x1
 3058 01bb 51       		.byte	0x51
 3059 01bc 0D000000 		.4byte	.LVL19-1
 3060 01c0 14000000 		.4byte	.LFE64
 3061 01c4 0400     		.2byte	0x4
ARM GAS  /tmp/ccuqxLVc.s 			page 55


 3062 01c6 F3       		.byte	0xf3
 3063 01c7 01       		.uleb128 0x1
 3064 01c8 51       		.byte	0x51
 3065 01c9 9F       		.byte	0x9f
 3066 01ca 00000000 		.4byte	0
 3067 01ce 00000000 		.4byte	0
 3068              	.LLST14:
 3069 01d2 00000000 		.4byte	.LVL18
 3070 01d6 0D000000 		.4byte	.LVL19-1
 3071 01da 0100     		.2byte	0x1
 3072 01dc 52       		.byte	0x52
 3073 01dd 0D000000 		.4byte	.LVL19-1
 3074 01e1 14000000 		.4byte	.LFE64
 3075 01e5 0400     		.2byte	0x4
 3076 01e7 F3       		.byte	0xf3
 3077 01e8 01       		.uleb128 0x1
 3078 01e9 52       		.byte	0x52
 3079 01ea 9F       		.byte	0x9f
 3080 01eb 00000000 		.4byte	0
 3081 01ef 00000000 		.4byte	0
 3082              	.LLST15:
 3083 01f3 00000000 		.4byte	.LVL20
 3084 01f7 0D000000 		.4byte	.LVL21-1
 3085 01fb 0100     		.2byte	0x1
 3086 01fd 50       		.byte	0x50
 3087 01fe 0D000000 		.4byte	.LVL21-1
 3088 0202 14000000 		.4byte	.LFE65
 3089 0206 0400     		.2byte	0x4
 3090 0208 F3       		.byte	0xf3
 3091 0209 01       		.uleb128 0x1
 3092 020a 50       		.byte	0x50
 3093 020b 9F       		.byte	0x9f
 3094 020c 00000000 		.4byte	0
 3095 0210 00000000 		.4byte	0
 3096              	.LLST16:
 3097 0214 00000000 		.4byte	.LVL20
 3098 0218 0D000000 		.4byte	.LVL21-1
 3099 021c 0100     		.2byte	0x1
 3100 021e 51       		.byte	0x51
 3101 021f 0D000000 		.4byte	.LVL21-1
 3102 0223 14000000 		.4byte	.LFE65
 3103 0227 0400     		.2byte	0x4
 3104 0229 F3       		.byte	0xf3
 3105 022a 01       		.uleb128 0x1
 3106 022b 51       		.byte	0x51
 3107 022c 9F       		.byte	0x9f
 3108 022d 00000000 		.4byte	0
 3109 0231 00000000 		.4byte	0
 3110              	.LLST17:
 3111 0235 00000000 		.4byte	.LVL20
 3112 0239 0D000000 		.4byte	.LVL21-1
 3113 023d 0100     		.2byte	0x1
 3114 023f 52       		.byte	0x52
 3115 0240 0D000000 		.4byte	.LVL21-1
 3116 0244 14000000 		.4byte	.LFE65
 3117 0248 0400     		.2byte	0x4
 3118 024a F3       		.byte	0xf3
ARM GAS  /tmp/ccuqxLVc.s 			page 56


 3119 024b 01       		.uleb128 0x1
 3120 024c 52       		.byte	0x52
 3121 024d 9F       		.byte	0x9f
 3122 024e 00000000 		.4byte	0
 3123 0252 00000000 		.4byte	0
 3124              	.LLST18:
 3125 0256 00000000 		.4byte	.LVL22
 3126 025a 0F000000 		.4byte	.LVL23-1
 3127 025e 0100     		.2byte	0x1
 3128 0260 50       		.byte	0x50
 3129 0261 0F000000 		.4byte	.LVL23-1
 3130 0265 28000000 		.4byte	.LFE66
 3131 0269 0100     		.2byte	0x1
 3132 026b 54       		.byte	0x54
 3133 026c 00000000 		.4byte	0
 3134 0270 00000000 		.4byte	0
 3135              	.LLST19:
 3136 0274 00000000 		.4byte	.LVL22
 3137 0278 0F000000 		.4byte	.LVL23-1
 3138 027c 0100     		.2byte	0x1
 3139 027e 51       		.byte	0x51
 3140 027f 0F000000 		.4byte	.LVL23-1
 3141 0283 28000000 		.4byte	.LFE66
 3142 0287 0400     		.2byte	0x4
 3143 0289 F3       		.byte	0xf3
 3144 028a 01       		.uleb128 0x1
 3145 028b 51       		.byte	0x51
 3146 028c 9F       		.byte	0x9f
 3147 028d 00000000 		.4byte	0
 3148 0291 00000000 		.4byte	0
 3149              	.LLST20:
 3150 0295 00000000 		.4byte	.LVL25
 3151 0299 06000000 		.4byte	.LVL26
 3152 029d 0100     		.2byte	0x1
 3153 029f 50       		.byte	0x50
 3154 02a0 06000000 		.4byte	.LVL26
 3155 02a4 2E000000 		.4byte	.LFE67
 3156 02a8 0100     		.2byte	0x1
 3157 02aa 54       		.byte	0x54
 3158 02ab 00000000 		.4byte	0
 3159 02af 00000000 		.4byte	0
 3160              	.LLST21:
 3161 02b3 00000000 		.4byte	.LVL25
 3162 02b7 15000000 		.4byte	.LVL29-1
 3163 02bb 0100     		.2byte	0x1
 3164 02bd 51       		.byte	0x51
 3165 02be 15000000 		.4byte	.LVL29-1
 3166 02c2 2E000000 		.4byte	.LFE67
 3167 02c6 0400     		.2byte	0x4
 3168 02c8 F3       		.byte	0xf3
 3169 02c9 01       		.uleb128 0x1
 3170 02ca 51       		.byte	0x51
 3171 02cb 9F       		.byte	0x9f
 3172 02cc 00000000 		.4byte	0
 3173 02d0 00000000 		.4byte	0
 3174              	.LLST22:
 3175 02d4 00000000 		.4byte	.LVL25
ARM GAS  /tmp/ccuqxLVc.s 			page 57


 3176 02d8 15000000 		.4byte	.LVL29-1
 3177 02dc 0100     		.2byte	0x1
 3178 02de 52       		.byte	0x52
 3179 02df 15000000 		.4byte	.LVL29-1
 3180 02e3 2E000000 		.4byte	.LFE67
 3181 02e7 0400     		.2byte	0x4
 3182 02e9 F3       		.byte	0xf3
 3183 02ea 01       		.uleb128 0x1
 3184 02eb 52       		.byte	0x52
 3185 02ec 9F       		.byte	0x9f
 3186 02ed 00000000 		.4byte	0
 3187 02f1 00000000 		.4byte	0
 3188              	.LLST23:
 3189 02f5 00000000 		.4byte	.LVL25
 3190 02f9 0A000000 		.4byte	.LVL27
 3191 02fd 0100     		.2byte	0x1
 3192 02ff 53       		.byte	0x53
 3193 0300 0A000000 		.4byte	.LVL27
 3194 0304 12000000 		.4byte	.LVL28
 3195 0308 0100     		.2byte	0x1
 3196 030a 50       		.byte	0x50
 3197 030b 12000000 		.4byte	.LVL28
 3198 030f 15000000 		.4byte	.LVL29-1
 3199 0313 0100     		.2byte	0x1
 3200 0315 53       		.byte	0x53
 3201 0316 15000000 		.4byte	.LVL29-1
 3202 031a 2E000000 		.4byte	.LFE67
 3203 031e 0400     		.2byte	0x4
 3204 0320 F3       		.byte	0xf3
 3205 0321 01       		.uleb128 0x1
 3206 0322 53       		.byte	0x53
 3207 0323 9F       		.byte	0x9f
 3208 0324 00000000 		.4byte	0
 3209 0328 00000000 		.4byte	0
 3210              	.LLST24:
 3211 032c 00000000 		.4byte	.LVL31
 3212 0330 0F000000 		.4byte	.LVL32-1
 3213 0334 0100     		.2byte	0x1
 3214 0336 50       		.byte	0x50
 3215 0337 0F000000 		.4byte	.LVL32-1
 3216 033b 28000000 		.4byte	.LFE68
 3217 033f 0100     		.2byte	0x1
 3218 0341 54       		.byte	0x54
 3219 0342 00000000 		.4byte	0
 3220 0346 00000000 		.4byte	0
 3221              	.LLST25:
 3222 034a 00000000 		.4byte	.LVL31
 3223 034e 0F000000 		.4byte	.LVL32-1
 3224 0352 0100     		.2byte	0x1
 3225 0354 51       		.byte	0x51
 3226 0355 0F000000 		.4byte	.LVL32-1
 3227 0359 28000000 		.4byte	.LFE68
 3228 035d 0400     		.2byte	0x4
 3229 035f F3       		.byte	0xf3
 3230 0360 01       		.uleb128 0x1
 3231 0361 51       		.byte	0x51
 3232 0362 9F       		.byte	0x9f
ARM GAS  /tmp/ccuqxLVc.s 			page 58


 3233 0363 00000000 		.4byte	0
 3234 0367 00000000 		.4byte	0
 3235              	.LLST26:
 3236 036b 00000000 		.4byte	.LVL31
 3237 036f 0F000000 		.4byte	.LVL32-1
 3238 0373 0100     		.2byte	0x1
 3239 0375 52       		.byte	0x52
 3240 0376 0F000000 		.4byte	.LVL32-1
 3241 037a 28000000 		.4byte	.LFE68
 3242 037e 0400     		.2byte	0x4
 3243 0380 F3       		.byte	0xf3
 3244 0381 01       		.uleb128 0x1
 3245 0382 52       		.byte	0x52
 3246 0383 9F       		.byte	0x9f
 3247 0384 00000000 		.4byte	0
 3248 0388 00000000 		.4byte	0
 3249              	.LLST27:
 3250 038c 00000000 		.4byte	.LVL34
 3251 0390 0F000000 		.4byte	.LVL35-1
 3252 0394 0100     		.2byte	0x1
 3253 0396 50       		.byte	0x50
 3254 0397 0F000000 		.4byte	.LVL35-1
 3255 039b 28000000 		.4byte	.LFE69
 3256 039f 0100     		.2byte	0x1
 3257 03a1 54       		.byte	0x54
 3258 03a2 00000000 		.4byte	0
 3259 03a6 00000000 		.4byte	0
 3260              	.LLST28:
 3261 03aa 00000000 		.4byte	.LVL34
 3262 03ae 0F000000 		.4byte	.LVL35-1
 3263 03b2 0100     		.2byte	0x1
 3264 03b4 51       		.byte	0x51
 3265 03b5 0F000000 		.4byte	.LVL35-1
 3266 03b9 28000000 		.4byte	.LFE69
 3267 03bd 0400     		.2byte	0x4
 3268 03bf F3       		.byte	0xf3
 3269 03c0 01       		.uleb128 0x1
 3270 03c1 51       		.byte	0x51
 3271 03c2 9F       		.byte	0x9f
 3272 03c3 00000000 		.4byte	0
 3273 03c7 00000000 		.4byte	0
 3274              	.LLST29:
 3275 03cb 00000000 		.4byte	.LVL34
 3276 03cf 0F000000 		.4byte	.LVL35-1
 3277 03d3 0100     		.2byte	0x1
 3278 03d5 52       		.byte	0x52
 3279 03d6 0F000000 		.4byte	.LVL35-1
 3280 03da 28000000 		.4byte	.LFE69
 3281 03de 0400     		.2byte	0x4
 3282 03e0 F3       		.byte	0xf3
 3283 03e1 01       		.uleb128 0x1
 3284 03e2 52       		.byte	0x52
 3285 03e3 9F       		.byte	0x9f
 3286 03e4 00000000 		.4byte	0
 3287 03e8 00000000 		.4byte	0
 3288              	.LLST30:
 3289 03ec 00000000 		.4byte	.LVL37
ARM GAS  /tmp/ccuqxLVc.s 			page 59


 3290 03f0 02000000 		.4byte	.LVL38
 3291 03f4 0100     		.2byte	0x1
 3292 03f6 50       		.byte	0x50
 3293 03f7 02000000 		.4byte	.LVL38
 3294 03fb 05000000 		.4byte	.LVL39-1
 3295 03ff 0300     		.2byte	0x3
 3296 0401 70       		.byte	0x70
 3297 0402 74       		.sleb128 -12
 3298 0403 9F       		.byte	0x9f
 3299 0404 05000000 		.4byte	.LVL39-1
 3300 0408 06000000 		.4byte	.LFE70
 3301 040c 0400     		.2byte	0x4
 3302 040e F3       		.byte	0xf3
 3303 040f 01       		.uleb128 0x1
 3304 0410 50       		.byte	0x50
 3305 0411 9F       		.byte	0x9f
 3306 0412 00000000 		.4byte	0
 3307 0416 00000000 		.4byte	0
 3308              	.LLST31:
 3309 041a 00000000 		.4byte	.LVL40
 3310 041e 03000000 		.4byte	.LVL41-1
 3311 0422 0100     		.2byte	0x1
 3312 0424 50       		.byte	0x50
 3313 0425 03000000 		.4byte	.LVL41-1
 3314 0429 04000000 		.4byte	.LFE71
 3315 042d 0400     		.2byte	0x4
 3316 042f F3       		.byte	0xf3
 3317 0430 01       		.uleb128 0x1
 3318 0431 50       		.byte	0x50
 3319 0432 9F       		.byte	0x9f
 3320 0433 00000000 		.4byte	0
 3321 0437 00000000 		.4byte	0
 3322              		.section	.debug_aranges,"",%progbits
 3323 0000 94000000 		.4byte	0x94
 3324 0004 0200     		.2byte	0x2
 3325 0006 00000000 		.4byte	.Ldebug_info0
 3326 000a 04       		.byte	0x4
 3327 000b 00       		.byte	0
 3328 000c 0000     		.2byte	0
 3329 000e 0000     		.2byte	0
 3330 0010 00000000 		.4byte	.LFB56
 3331 0014 04000000 		.4byte	.LFE56-.LFB56
 3332 0018 00000000 		.4byte	.LFB57
 3333 001c 10000000 		.4byte	.LFE57-.LFB57
 3334 0020 00000000 		.4byte	.LFB58
 3335 0024 18000000 		.4byte	.LFE58-.LFB58
 3336 0028 00000000 		.4byte	.LFB59
 3337 002c 1C000000 		.4byte	.LFE59-.LFB59
 3338 0030 00000000 		.4byte	.LFB60
 3339 0034 10000000 		.4byte	.LFE60-.LFB60
 3340 0038 00000000 		.4byte	.LFB61
 3341 003c 10000000 		.4byte	.LFE61-.LFB61
 3342 0040 00000000 		.4byte	.LFB62
 3343 0044 14000000 		.4byte	.LFE62-.LFB62
 3344 0048 00000000 		.4byte	.LFB63
 3345 004c 18000000 		.4byte	.LFE63-.LFB63
 3346 0050 00000000 		.4byte	.LFB64
ARM GAS  /tmp/ccuqxLVc.s 			page 60


 3347 0054 14000000 		.4byte	.LFE64-.LFB64
 3348 0058 00000000 		.4byte	.LFB65
 3349 005c 14000000 		.4byte	.LFE65-.LFB65
 3350 0060 00000000 		.4byte	.LFB66
 3351 0064 28000000 		.4byte	.LFE66-.LFB66
 3352 0068 00000000 		.4byte	.LFB67
 3353 006c 2E000000 		.4byte	.LFE67-.LFB67
 3354 0070 00000000 		.4byte	.LFB68
 3355 0074 28000000 		.4byte	.LFE68-.LFB68
 3356 0078 00000000 		.4byte	.LFB69
 3357 007c 28000000 		.4byte	.LFE69-.LFB69
 3358 0080 00000000 		.4byte	.LFB70
 3359 0084 06000000 		.4byte	.LFE70-.LFB70
 3360 0088 00000000 		.4byte	.LFB71
 3361 008c 04000000 		.4byte	.LFE71-.LFB71
 3362 0090 00000000 		.4byte	0
 3363 0094 00000000 		.4byte	0
 3364              		.section	.debug_ranges,"",%progbits
 3365              	.Ldebug_ranges0:
 3366 0000 00000000 		.4byte	.LFB56
 3367 0004 04000000 		.4byte	.LFE56
 3368 0008 00000000 		.4byte	.LFB57
 3369 000c 10000000 		.4byte	.LFE57
 3370 0010 00000000 		.4byte	.LFB58
 3371 0014 18000000 		.4byte	.LFE58
 3372 0018 00000000 		.4byte	.LFB59
 3373 001c 1C000000 		.4byte	.LFE59
 3374 0020 00000000 		.4byte	.LFB60
 3375 0024 10000000 		.4byte	.LFE60
 3376 0028 00000000 		.4byte	.LFB61
 3377 002c 10000000 		.4byte	.LFE61
 3378 0030 00000000 		.4byte	.LFB62
 3379 0034 14000000 		.4byte	.LFE62
 3380 0038 00000000 		.4byte	.LFB63
 3381 003c 18000000 		.4byte	.LFE63
 3382 0040 00000000 		.4byte	.LFB64
 3383 0044 14000000 		.4byte	.LFE64
 3384 0048 00000000 		.4byte	.LFB65
 3385 004c 14000000 		.4byte	.LFE65
 3386 0050 00000000 		.4byte	.LFB66
 3387 0054 28000000 		.4byte	.LFE66
 3388 0058 00000000 		.4byte	.LFB67
 3389 005c 2E000000 		.4byte	.LFE67
 3390 0060 00000000 		.4byte	.LFB68
 3391 0064 28000000 		.4byte	.LFE68
 3392 0068 00000000 		.4byte	.LFB69
 3393 006c 28000000 		.4byte	.LFE69
 3394 0070 00000000 		.4byte	.LFB70
 3395 0074 06000000 		.4byte	.LFE70
 3396 0078 00000000 		.4byte	.LFB71
 3397 007c 04000000 		.4byte	.LFE71
 3398 0080 00000000 		.4byte	0
 3399 0084 00000000 		.4byte	0
 3400              		.section	.debug_line,"",%progbits
 3401              	.Ldebug_line0:
 3402 0000 54030000 		.section	.debug_str,"MS",%progbits,1
 3402      02001302 
ARM GAS  /tmp/ccuqxLVc.s 			page 61


 3402      00000201 
 3402      FB0E0D00 
 3402      01010101 
 3403              	.LASF98:
 3404 0000 646D6172 		.ascii	"dmarx\000"
 3404      7800
 3405              	.LASF2:
 3406 0006 73697A65 		.ascii	"size_t\000"
 3406      5F7400
 3407              	.LASF54:
 3408 000d 7264796D 		.ascii	"rdymsg\000"
 3408      736700
 3409              	.LASF3:
 3410 0014 5F5F7569 		.ascii	"__uint8_t\000"
 3410      6E74385F 
 3410      7400
 3411              	.LASF90:
 3412 001e 5350495F 		.ascii	"SPI_ACTIVE\000"
 3412      41435449 
 3412      564500
 3413              	.LASF111:
 3414 0029 73706953 		.ascii	"spiStop\000"
 3414      746F7000 
 3415              	.LASF117:
 3416 0031 72786275 		.ascii	"rxbuf\000"
 3416      6600
 3417              	.LASF105:
 3418 0037 73737061 		.ascii	"sspad\000"
 3418      6400
 3419              	.LASF13:
 3420 003d 6C6F6E67 		.ascii	"long long unsigned int\000"
 3420      206C6F6E 
 3420      6720756E 
 3420      7369676E 
 3420      65642069 
 3421              	.LASF69:
 3422 0054 43524350 		.ascii	"CRCPR\000"
 3422      5200
 3423              	.LASF55:
 3424 005a 65786974 		.ascii	"exitcode\000"
 3424      636F6465 
 3424      00
 3425              	.LASF84:
 3426 0063 76656374 		.ascii	"vector\000"
 3426      6F7200
 3427              	.LASF93:
 3428 006a 53504944 		.ascii	"SPIDriver\000"
 3428      72697665 
 3428      7200
 3429              	.LASF104:
 3430 0074 7373706F 		.ascii	"ssport\000"
 3430      727400
 3431              	.LASF127:
 3432 007b 49544D5F 		.ascii	"ITM_RxBuffer\000"
 3432      52784275 
 3432      66666572 
 3432      00
ARM GAS  /tmp/ccuqxLVc.s 			page 62


 3433              	.LASF28:
 3434 0088 705F7072 		.ascii	"p_prio\000"
 3434      696F00
 3435              	.LASF143:
 3436 008f 63684D74 		.ascii	"chMtxUnlock\000"
 3436      78556E6C 
 3436      6F636B00 
 3437              	.LASF1:
 3438 009b 7369676E 		.ascii	"signed char\000"
 3438      65642063 
 3438      68617200 
 3439              	.LASF62:
 3440 00a7 42535252 		.ascii	"BSRR\000"
 3440      00
 3441              	.LASF88:
 3442 00ac 5350495F 		.ascii	"SPI_STOP\000"
 3442      53544F50 
 3442      00
 3443              	.LASF75:
 3444 00b5 49325343 		.ascii	"I2SCFGR\000"
 3444      46475200 
 3445              	.LASF142:
 3446 00bd 7370695F 		.ascii	"spi_lld_init\000"
 3446      6C6C645F 
 3446      696E6974 
 3446      00
 3447              	.LASF51:
 3448 00ca 6D5F7175 		.ascii	"m_queue\000"
 3448      65756500 
 3449              	.LASF21:
 3450 00d2 74736C69 		.ascii	"tslices_t\000"
 3450      6365735F 
 3450      7400
 3451              	.LASF102:
 3452 00dc 73706963 		.ascii	"spicallback_t\000"
 3452      616C6C62 
 3452      61636B5F 
 3452      7400
 3453              	.LASF94:
 3454 00ea 73746174 		.ascii	"state\000"
 3454      6500
 3455              	.LASF9:
 3456 00f0 6C6F6E67 		.ascii	"long int\000"
 3456      20696E74 
 3456      00
 3457              	.LASF20:
 3458 00f9 74737461 		.ascii	"tstate_t\000"
 3458      74655F74 
 3458      00
 3459              	.LASF119:
 3460 0102 73706953 		.ascii	"spiStartReceive\000"
 3460      74617274 
 3460      52656365 
 3460      69766500 
 3461              	.LASF134:
 3462 0112 7370695F 		.ascii	"spi_lld_exchange\000"
 3462      6C6C645F 
ARM GAS  /tmp/ccuqxLVc.s 			page 63


 3462      65786368 
 3462      616E6765 
 3462      00
 3463              	.LASF12:
 3464 0123 6C6F6E67 		.ascii	"long long int\000"
 3464      206C6F6E 
 3464      6720696E 
 3464      7400
 3465              	.LASF15:
 3466 0131 75696E74 		.ascii	"uint16_t\000"
 3466      31365F74 
 3466      00
 3467              	.LASF114:
 3468 013a 73706953 		.ascii	"spiStartIgnore\000"
 3468      74617274 
 3468      49676E6F 
 3468      726500
 3469              	.LASF103:
 3470 0149 656E645F 		.ascii	"end_cb\000"
 3470      636200
 3471              	.LASF100:
 3472 0150 7278646D 		.ascii	"rxdmamode\000"
 3472      616D6F64 
 3472      6500
 3473              	.LASF99:
 3474 015a 646D6174 		.ascii	"dmatx\000"
 3474      7800
 3475              	.LASF10:
 3476 0160 5F5F7569 		.ascii	"__uint32_t\000"
 3476      6E743332 
 3476      5F7400
 3477              	.LASF41:
 3478 016b 72656761 		.ascii	"regarm_t\000"
 3478      726D5F74 
 3478      00
 3479              	.LASF83:
 3480 0174 73656C66 		.ascii	"selfindex\000"
 3480      696E6465 
 3480      7800
 3481              	.LASF113:
 3482 017e 73706955 		.ascii	"spiUnselect\000"
 3482      6E73656C 
 3482      65637400 
 3483              	.LASF126:
 3484 018a 726C6973 		.ascii	"rlist\000"
 3484      7400
 3485              	.LASF135:
 3486 0190 7370695F 		.ascii	"spi_lld_send\000"
 3486      6C6C645F 
 3486      73656E64 
 3486      00
 3487              	.LASF0:
 3488 019d 756E7369 		.ascii	"unsigned int\000"
 3488      676E6564 
 3488      20696E74 
 3488      00
 3489              	.LASF130:
ARM GAS  /tmp/ccuqxLVc.s 			page 64


 3490 01aa 7370695F 		.ascii	"spi_lld_unselect\000"
 3490      6C6C645F 
 3490      756E7365 
 3490      6C656374 
 3490      00
 3491              	.LASF116:
 3492 01bb 74786275 		.ascii	"txbuf\000"
 3492      6600
 3493              	.LASF123:
 3494 01c1 73706952 		.ascii	"spiReceive\000"
 3494      65636569 
 3494      766500
 3495              	.LASF59:
 3496 01cc 43504152 		.ascii	"CPAR\000"
 3496      00
 3497              	.LASF34:
 3498 01d1 705F6D73 		.ascii	"p_msgqueue\000"
 3498      67717565 
 3498      756500
 3499              	.LASF64:
 3500 01dc 4750494F 		.ascii	"GPIO_TypeDef\000"
 3500      5F547970 
 3500      65446566 
 3500      00
 3501              	.LASF63:
 3502 01e9 4C434B52 		.ascii	"LCKR\000"
 3502      00
 3503              	.LASF82:
 3504 01ee 69736869 		.ascii	"ishift\000"
 3504      667400
 3505              	.LASF118:
 3506 01f5 73706953 		.ascii	"spiStartSend\000"
 3506      74617274 
 3506      53656E64 
 3506      00
 3507              	.LASF43:
 3508 0202 636F6E74 		.ascii	"context\000"
 3508      65787400 
 3509              	.LASF7:
 3510 020a 73686F72 		.ascii	"short unsigned int\000"
 3510      7420756E 
 3510      7369676E 
 3510      65642069 
 3510      6E7400
 3511              	.LASF140:
 3512 021d 2E2E2F6F 		.ascii	"../os/hal/src/spi.c\000"
 3512      732F6861 
 3512      6C2F7372 
 3512      632F7370 
 3512      692E6300 
 3513              	.LASF23:
 3514 0231 6D73675F 		.ascii	"msg_t\000"
 3514      7400
 3515              	.LASF19:
 3516 0237 746D6F64 		.ascii	"tmode_t\000"
 3516      655F7400 
 3517              	.LASF40:
ARM GAS  /tmp/ccuqxLVc.s 			page 65


 3518 023f 54687265 		.ascii	"ThreadsList\000"
 3518      6164734C 
 3518      69737400 
 3519              	.LASF24:
 3520 024b 6576656E 		.ascii	"eventmask_t\000"
 3520      746D6173 
 3520      6B5F7400 
 3521              	.LASF49:
 3522 0257 52656164 		.ascii	"ReadyList\000"
 3522      794C6973 
 3522      7400
 3523              	.LASF107:
 3524 0261 73706949 		.ascii	"spiInit\000"
 3524      6E697400 
 3525              	.LASF25:
 3526 0269 54687265 		.ascii	"Thread\000"
 3526      616400
 3527              	.LASF46:
 3528 0270 725F7072 		.ascii	"r_prio\000"
 3528      696F00
 3529              	.LASF121:
 3530 0277 73706945 		.ascii	"spiExchange\000"
 3530      78636861 
 3530      6E676500 
 3531              	.LASF136:
 3532 0283 7370695F 		.ascii	"spi_lld_receive\000"
 3532      6C6C645F 
 3532      72656365 
 3532      69766500 
 3533              	.LASF77:
 3534 0293 49325350 		.ascii	"I2SPR\000"
 3534      5200
 3535              	.LASF44:
 3536 0299 73697A65 		.ascii	"sizetype\000"
 3536      74797065 
 3536      00
 3537              	.LASF50:
 3538 02a2 4D757465 		.ascii	"Mutex\000"
 3538      7800
 3539              	.LASF141:
 3540 02a8 2F686F6D 		.ascii	"/home/dltech/gdrive/Projects/RFM_to_Modbus_TCP/Chib"
 3540      652F646C 
 3540      74656368 
 3540      2F676472 
 3540      6976652F 
 3541 02db 694F532F 		.ascii	"iOS/F103_ChibiOS_ENC60J28/main\000"
 3541      46313033 
 3541      5F436869 
 3541      62694F53 
 3541      5F454E43 
 3542              	.LASF124:
 3543 02fa 73706941 		.ascii	"spiAcquireBus\000"
 3543      63717569 
 3543      72654275 
 3543      7300
 3544              	.LASF138:
 3545 0308 63684D74 		.ascii	"chMtxLock\000"
ARM GAS  /tmp/ccuqxLVc.s 			page 66


 3545      784C6F63 
 3545      6B00
 3546              	.LASF47:
 3547 0312 725F6374 		.ascii	"r_ctx\000"
 3547      7800
 3548              	.LASF39:
 3549 0318 54687265 		.ascii	"ThreadsQueue\000"
 3549      61647351 
 3549      75657565 
 3549      00
 3550              	.LASF101:
 3551 0325 7478646D 		.ascii	"txdmamode\000"
 3551      616D6F64 
 3551      6500
 3552              	.LASF48:
 3553 032f 725F6375 		.ascii	"r_current\000"
 3553      7272656E 
 3553      7400
 3554              	.LASF61:
 3555 0339 444D415F 		.ascii	"DMA_Channel_TypeDef\000"
 3555      4368616E 
 3555      6E656C5F 
 3555      54797065 
 3555      44656600 
 3556              	.LASF73:
 3557 034d 54584352 		.ascii	"TXCRCR\000"
 3557      435200
 3558              	.LASF65:
 3559 0354 52455345 		.ascii	"RESERVED0\000"
 3559      52564544 
 3559      3000
 3560              	.LASF66:
 3561 035e 52455345 		.ascii	"RESERVED1\000"
 3561      52564544 
 3561      3100
 3562              	.LASF67:
 3563 0368 52455345 		.ascii	"RESERVED2\000"
 3563      52564544 
 3563      3200
 3564              	.LASF68:
 3565 0372 52455345 		.ascii	"RESERVED3\000"
 3565      52564544 
 3565      3300
 3566              	.LASF70:
 3567 037c 52455345 		.ascii	"RESERVED4\000"
 3567      52564544 
 3567      3400
 3568              	.LASF27:
 3569 0386 705F7072 		.ascii	"p_prev\000"
 3569      657600
 3570              	.LASF74:
 3571 038d 52455345 		.ascii	"RESERVED6\000"
 3571      52564544 
 3571      3600
 3572              	.LASF76:
 3573 0397 52455345 		.ascii	"RESERVED7\000"
 3573      52564544 
ARM GAS  /tmp/ccuqxLVc.s 			page 67


 3573      3700
 3574              	.LASF78:
 3575 03a1 52455345 		.ascii	"RESERVED8\000"
 3575      52564544 
 3575      3800
 3576              	.LASF22:
 3577 03ab 74707269 		.ascii	"tprio_t\000"
 3577      6F5F7400 
 3578              	.LASF97:
 3579 03b3 6D757465 		.ascii	"mutex\000"
 3579      7800
 3580              	.LASF18:
 3581 03b9 5F426F6F 		.ascii	"_Bool\000"
 3581      6C00
 3582              	.LASF16:
 3583 03bf 696E7433 		.ascii	"int32_t\000"
 3583      325F7400 
 3584              	.LASF4:
 3585 03c7 756E7369 		.ascii	"unsigned char\000"
 3585      676E6564 
 3585      20636861 
 3585      7200
 3586              	.LASF85:
 3587 03d5 73746D33 		.ascii	"stm32_dma_stream_t\000"
 3587      325F646D 
 3587      615F7374 
 3587      7265616D 
 3587      5F7400
 3588              	.LASF37:
 3589 03e8 705F6D74 		.ascii	"p_mtxlist\000"
 3589      786C6973 
 3589      7400
 3590              	.LASF5:
 3591 03f2 73686F72 		.ascii	"short int\000"
 3591      7420696E 
 3591      7400
 3592              	.LASF30:
 3593 03fc 705F7374 		.ascii	"p_state\000"
 3593      61746500 
 3594              	.LASF32:
 3595 0404 705F7072 		.ascii	"p_preempt\000"
 3595      65656D70 
 3595      7400
 3596              	.LASF108:
 3597 040e 7370694F 		.ascii	"spiObjectInit\000"
 3597      626A6563 
 3597      74496E69 
 3597      7400
 3598              	.LASF57:
 3599 041c 65776D61 		.ascii	"ewmask\000"
 3599      736B00
 3600              	.LASF26:
 3601 0423 705F6E65 		.ascii	"p_next\000"
 3601      787400
 3602              	.LASF31:
 3603 042a 705F666C 		.ascii	"p_flags\000"
 3603      61677300 
ARM GAS  /tmp/ccuqxLVc.s 			page 68


 3604              	.LASF139:
 3605 0432 474E5520 		.ascii	"GNU C 4.8.2 -mcpu=cortex-m3 -mno-thumb-interwork -m"
 3605      4320342E 
 3605      382E3220 
 3605      2D6D6370 
 3605      753D636F 
 3606 0465 7468756D 		.ascii	"thumb -ggdb -O2 -fomit-frame-pointer -falign-functi"
 3606      62202D67 
 3606      67646220 
 3606      2D4F3220 
 3606      2D666F6D 
 3607 0498 6F6E733D 		.ascii	"ons=16 -ffunction-sections -fdata-sections -fno-com"
 3607      3136202D 
 3607      6666756E 
 3607      6374696F 
 3607      6E2D7365 
 3608 04cb 6D6F6E20 		.ascii	"mon -fno-strict-aliasing\000"
 3608      2D666E6F 
 3608      2D737472 
 3608      6963742D 
 3608      616C6961 
 3609              	.LASF80:
 3610 04e4 6368616E 		.ascii	"channel\000"
 3610      6E656C00 
 3611              	.LASF137:
 3612 04ec 63685363 		.ascii	"chSchGoSleepS\000"
 3612      68476F53 
 3612      6C656570 
 3612      5300
 3613              	.LASF36:
 3614 04fa 705F6570 		.ascii	"p_epending\000"
 3614      656E6469 
 3614      6E6700
 3615              	.LASF81:
 3616 0505 69666372 		.ascii	"ifcr\000"
 3616      00
 3617              	.LASF72:
 3618 050a 52455345 		.ascii	"RESERVED5\000"
 3618      52564544 
 3618      3500
 3619              	.LASF17:
 3620 0514 75696E74 		.ascii	"uint32_t\000"
 3620      33325F74 
 3620      00
 3621              	.LASF45:
 3622 051d 725F7175 		.ascii	"r_queue\000"
 3622      65756500 
 3623              	.LASF11:
 3624 0525 6C6F6E67 		.ascii	"long unsigned int\000"
 3624      20756E73 
 3624      69676E65 
 3624      6420696E 
 3624      7400
 3625              	.LASF79:
 3626 0537 5350495F 		.ascii	"SPI_TypeDef\000"
 3626      54797065 
 3626      44656600 
ARM GAS  /tmp/ccuqxLVc.s 			page 69


 3627              	.LASF131:
 3628 0543 7370695F 		.ascii	"spi_lld_stop\000"
 3628      6C6C645F 
 3628      73746F70 
 3628      00
 3629              	.LASF91:
 3630 0550 5350495F 		.ascii	"SPI_COMPLETE\000"
 3630      434F4D50 
 3630      4C455445 
 3630      00
 3631              	.LASF95:
 3632 055d 636F6E66 		.ascii	"config\000"
 3632      696700
 3633              	.LASF6:
 3634 0564 5F5F7569 		.ascii	"__uint16_t\000"
 3634      6E743136 
 3634      5F7400
 3635              	.LASF92:
 3636 056f 73706973 		.ascii	"spistate_t\000"
 3636      74617465 
 3636      5F7400
 3637              	.LASF53:
 3638 057a 6D5F6E65 		.ascii	"m_next\000"
 3638      787400
 3639              	.LASF38:
 3640 0581 705F7265 		.ascii	"p_realprio\000"
 3640      616C7072 
 3640      696F00
 3641              	.LASF8:
 3642 058c 5F5F696E 		.ascii	"__int32_t\000"
 3642      7433325F 
 3642      7400
 3643              	.LASF96:
 3644 0596 74687265 		.ascii	"thread\000"
 3644      616400
 3645              	.LASF125:
 3646 059d 73706952 		.ascii	"spiReleaseBus\000"
 3646      656C6561 
 3646      73654275 
 3646      7300
 3647              	.LASF120:
 3648 05ab 73706949 		.ascii	"spiIgnore\000"
 3648      676E6F72 
 3648      6500
 3649              	.LASF86:
 3650 05b5 696F706F 		.ascii	"ioportid_t\000"
 3650      72746964 
 3650      5F7400
 3651              	.LASF132:
 3652 05c0 7370695F 		.ascii	"spi_lld_select\000"
 3652      6C6C645F 
 3652      73656C65 
 3652      637400
 3653              	.LASF109:
 3654 05cf 73706953 		.ascii	"spiStart\000"
 3654      74617274 
 3654      00
ARM GAS  /tmp/ccuqxLVc.s 			page 70


 3655              	.LASF112:
 3656 05d8 73706953 		.ascii	"spiSelect\000"
 3656      656C6563 
 3656      7400
 3657              	.LASF42:
 3658 05e2 696E7463 		.ascii	"intctx\000"
 3658      747800
 3659              	.LASF89:
 3660 05e9 5350495F 		.ascii	"SPI_READY\000"
 3660      52454144 
 3660      5900
 3661              	.LASF87:
 3662 05f3 5350495F 		.ascii	"SPI_UNINIT\000"
 3662      554E494E 
 3662      495400
 3663              	.LASF128:
 3664 05fe 63684D74 		.ascii	"chMtxInit\000"
 3664      78496E69 
 3664      7400
 3665              	.LASF133:
 3666 0608 7370695F 		.ascii	"spi_lld_ignore\000"
 3666      6C6C645F 
 3666      69676E6F 
 3666      726500
 3667              	.LASF115:
 3668 0617 73706953 		.ascii	"spiStartExchange\000"
 3668      74617274 
 3668      45786368 
 3668      616E6765 
 3668      00
 3669              	.LASF58:
 3670 0628 434E4454 		.ascii	"CNDTR\000"
 3670      5200
 3671              	.LASF60:
 3672 062e 434D4152 		.ascii	"CMAR\000"
 3672      00
 3673              	.LASF71:
 3674 0633 52584352 		.ascii	"RXCRCR\000"
 3674      435200
 3675              	.LASF129:
 3676 063a 7370695F 		.ascii	"spi_lld_start\000"
 3676      6C6C645F 
 3676      73746172 
 3676      7400
 3677              	.LASF14:
 3678 0648 75696E74 		.ascii	"uint8_t\000"
 3678      385F7400 
 3679              	.LASF110:
 3680 0650 73706970 		.ascii	"spip\000"
 3680      00
 3681              	.LASF56:
 3682 0655 77746F62 		.ascii	"wtobjp\000"
 3682      6A7000
 3683              	.LASF122:
 3684 065c 73706953 		.ascii	"spiSend\000"
 3684      656E6400 
 3685              	.LASF106:
ARM GAS  /tmp/ccuqxLVc.s 			page 71


 3686 0664 53504943 		.ascii	"SPIConfig\000"
 3686      6F6E6669 
 3686      6700
 3687              	.LASF35:
 3688 066e 705F6D73 		.ascii	"p_msg\000"
 3688      6700
 3689              	.LASF52:
 3690 0674 6D5F6F77 		.ascii	"m_owner\000"
 3690      6E657200 
 3691              	.LASF29:
 3692 067c 705F6374 		.ascii	"p_ctx\000"
 3692      7800
 3693              	.LASF33:
 3694 0682 705F7761 		.ascii	"p_waiting\000"
 3694      6974696E 
 3694      6700
 3695              		.ident	"GCC: (4.8.2-14ubuntu1+6) 4.8.2"
ARM GAS  /tmp/ccuqxLVc.s 			page 72


DEFINED SYMBOLS
                            *ABS*:0000000000000000 spi.c
     /tmp/ccuqxLVc.s:19     .text.spiInit:0000000000000000 $t
     /tmp/ccuqxLVc.s:25     .text.spiInit:0000000000000000 spiInit
     /tmp/ccuqxLVc.s:40     .text.spiObjectInit:0000000000000000 $t
     /tmp/ccuqxLVc.s:46     .text.spiObjectInit:0000000000000000 spiObjectInit
     /tmp/ccuqxLVc.s:72     .text.spiStart:0000000000000000 $t
     /tmp/ccuqxLVc.s:78     .text.spiStart:0000000000000000 spiStart
     /tmp/ccuqxLVc.s:114    .text.spiStop:0000000000000000 $t
     /tmp/ccuqxLVc.s:120    .text.spiStop:0000000000000000 spiStop
     /tmp/ccuqxLVc.s:158    .text.spiSelect:0000000000000000 $t
     /tmp/ccuqxLVc.s:164    .text.spiSelect:0000000000000000 spiSelect
     /tmp/ccuqxLVc.s:193    .text.spiUnselect:0000000000000000 $t
     /tmp/ccuqxLVc.s:199    .text.spiUnselect:0000000000000000 spiUnselect
     /tmp/ccuqxLVc.s:228    .text.spiStartIgnore:0000000000000000 $t
     /tmp/ccuqxLVc.s:234    .text.spiStartIgnore:0000000000000000 spiStartIgnore
     /tmp/ccuqxLVc.s:265    .text.spiStartExchange:0000000000000000 $t
     /tmp/ccuqxLVc.s:271    .text.spiStartExchange:0000000000000000 spiStartExchange
     /tmp/ccuqxLVc.s:308    .text.spiStartSend:0000000000000000 $t
     /tmp/ccuqxLVc.s:314    .text.spiStartSend:0000000000000000 spiStartSend
     /tmp/ccuqxLVc.s:345    .text.spiStartReceive:0000000000000000 $t
     /tmp/ccuqxLVc.s:351    .text.spiStartReceive:0000000000000000 spiStartReceive
     /tmp/ccuqxLVc.s:382    .text.spiIgnore:0000000000000000 $t
     /tmp/ccuqxLVc.s:388    .text.spiIgnore:0000000000000000 spiIgnore
     /tmp/ccuqxLVc.s:429    .text.spiExchange:0000000000000000 $t
     /tmp/ccuqxLVc.s:435    .text.spiExchange:0000000000000000 spiExchange
     /tmp/ccuqxLVc.s:484    .text.spiSend:0000000000000000 $t
     /tmp/ccuqxLVc.s:490    .text.spiSend:0000000000000000 spiSend
     /tmp/ccuqxLVc.s:531    .text.spiReceive:0000000000000000 $t
     /tmp/ccuqxLVc.s:537    .text.spiReceive:0000000000000000 spiReceive
     /tmp/ccuqxLVc.s:578    .text.spiAcquireBus:0000000000000000 $t
     /tmp/ccuqxLVc.s:584    .text.spiAcquireBus:0000000000000000 spiAcquireBus
     /tmp/ccuqxLVc.s:601    .text.spiReleaseBus:0000000000000000 $t
     /tmp/ccuqxLVc.s:607    .text.spiReleaseBus:0000000000000000 spiReleaseBus
                     .debug_frame:0000000000000010 $d

UNDEFINED SYMBOLS
spi_lld_init
chMtxInit
_port_lock
spi_lld_start
_port_unlock
spi_lld_unselect
spi_lld_stop
spi_lld_select
spi_lld_ignore
spi_lld_exchange
spi_lld_send
spi_lld_receive
rlist
chSchGoSleepS
chMtxLock
chMtxUnlock
