ARM GAS  /tmp/ccCQeDME.s 			page 1


   1              		.syntax unified
   2              		.cpu cortex-m3
   3              		.fpu softvfp
   4              		.eabi_attribute 20, 1
   5              		.eabi_attribute 21, 1
   6              		.eabi_attribute 23, 3
   7              		.eabi_attribute 24, 1
   8              		.eabi_attribute 25, 1
   9              		.eabi_attribute 26, 1
  10              		.eabi_attribute 30, 2
  11              		.eabi_attribute 34, 1
  12              		.eabi_attribute 18, 4
  13              		.thumb
  14              		.file	"stm32_dma.c"
  15              		.text
  16              	.Ltext0:
  17              		.cfi_sections	.debug_frame
  18              		.section	.text.Vector6C,"ax",%progbits
  19              		.align	2
  20              		.p2align 4,,15
  21              		.global	Vector6C
  22              		.thumb
  23              		.thumb_func
  24              		.type	Vector6C, %function
  25              	Vector6C:
  26              	.LFB56:
  27              		.file 1 "../os/hal/platforms/STM32F1xx/stm32_dma.c"
  28              		.loc 1 126 0
  29              		.cfi_startproc
  30              		@ args = 0, pretend = 0, frame = 0
  31              		@ frame_needed = 0, uses_anonymous_args = 0
  32 0000 08B5     		push	{r3, lr}
  33              		.cfi_def_cfa_offset 8
  34              		.cfi_offset 3, -8
  35              		.cfi_offset 14, -4
  36              		.loc 1 131 0
  37 0002 0022     		movs	r2, #0
  38 0004 C4F20202 		movt	r2, 16386
  39 0008 1168     		ldr	r1, [r2]
  40              		.loc 1 133 0
  41 000a 40F20003 		movw	r3, #:lower16:.LANCHOR0
  42              		.loc 1 131 0
  43 000e 01F00F01 		and	r1, r1, #15
  44              	.LVL0:
  45              		.loc 1 132 0
  46 0012 5160     		str	r1, [r2, #4]
  47              		.loc 1 133 0
  48 0014 C0F20003 		movt	r3, #:upper16:.LANCHOR0
  49 0018 1A68     		ldr	r2, [r3]
  50 001a 0AB1     		cbz	r2, .L2
  51              		.loc 1 134 0
  52 001c 5868     		ldr	r0, [r3, #4]
  53 001e 9047     		blx	r2
  54              	.LVL1:
  55              	.L2:
  56              		.loc 1 137 0
  57 0020 BDE80840 		pop	{r3, lr}
ARM GAS  /tmp/ccCQeDME.s 			page 2


  58              		.loc 1 136 0
  59 0024 FFF7FEBF 		b	_port_irq_epilogue
  60              	.LVL2:
  61              		.cfi_endproc
  62              	.LFE56:
  63              		.size	Vector6C, .-Vector6C
  64 0028 AFF30080 		.section	.text.Vector70,"ax",%progbits
  64      AFF30080 
  65              		.align	2
  66              		.p2align 4,,15
  67              		.global	Vector70
  68              		.thumb
  69              		.thumb_func
  70              		.type	Vector70, %function
  71              	Vector70:
  72              	.LFB57:
  73              		.loc 1 144 0
  74              		.cfi_startproc
  75              		@ args = 0, pretend = 0, frame = 0
  76              		@ frame_needed = 0, uses_anonymous_args = 0
  77 0000 08B5     		push	{r3, lr}
  78              		.cfi_def_cfa_offset 8
  79              		.cfi_offset 3, -8
  80              		.cfi_offset 14, -4
  81              		.loc 1 149 0
  82 0002 0022     		movs	r2, #0
  83 0004 C4F20202 		movt	r2, 16386
  84 0008 1168     		ldr	r1, [r2]
  85              		.loc 1 151 0
  86 000a 40F20003 		movw	r3, #:lower16:.LANCHOR0
  87              		.loc 1 149 0
  88 000e C1F30311 		ubfx	r1, r1, #4, #4
  89              	.LVL3:
  90              		.loc 1 150 0
  91 0012 0801     		lsls	r0, r1, #4
  92 0014 5060     		str	r0, [r2, #4]
  93              		.loc 1 151 0
  94 0016 C0F20003 		movt	r3, #:upper16:.LANCHOR0
  95 001a 9A68     		ldr	r2, [r3, #8]
  96 001c 0AB1     		cbz	r2, .L8
  97              		.loc 1 152 0
  98 001e D868     		ldr	r0, [r3, #12]
  99 0020 9047     		blx	r2
 100              	.LVL4:
 101              	.L8:
 102              		.loc 1 155 0
 103 0022 BDE80840 		pop	{r3, lr}
 104              		.loc 1 154 0
 105 0026 FFF7FEBF 		b	_port_irq_epilogue
 106              	.LVL5:
 107              		.cfi_endproc
 108              	.LFE57:
 109              		.size	Vector70, .-Vector70
 110 002a 00BFAFF3 		.section	.text.Vector74,"ax",%progbits
 110      0080
 111              		.align	2
 112              		.p2align 4,,15
ARM GAS  /tmp/ccCQeDME.s 			page 3


 113              		.global	Vector74
 114              		.thumb
 115              		.thumb_func
 116              		.type	Vector74, %function
 117              	Vector74:
 118              	.LFB58:
 119              		.loc 1 162 0
 120              		.cfi_startproc
 121              		@ args = 0, pretend = 0, frame = 0
 122              		@ frame_needed = 0, uses_anonymous_args = 0
 123 0000 08B5     		push	{r3, lr}
 124              		.cfi_def_cfa_offset 8
 125              		.cfi_offset 3, -8
 126              		.cfi_offset 14, -4
 127              		.loc 1 167 0
 128 0002 0022     		movs	r2, #0
 129 0004 C4F20202 		movt	r2, 16386
 130 0008 1168     		ldr	r1, [r2]
 131              		.loc 1 169 0
 132 000a 40F20003 		movw	r3, #:lower16:.LANCHOR0
 133              		.loc 1 167 0
 134 000e C1F30321 		ubfx	r1, r1, #8, #4
 135              	.LVL6:
 136              		.loc 1 168 0
 137 0012 0802     		lsls	r0, r1, #8
 138 0014 5060     		str	r0, [r2, #4]
 139              		.loc 1 169 0
 140 0016 C0F20003 		movt	r3, #:upper16:.LANCHOR0
 141 001a 1A69     		ldr	r2, [r3, #16]
 142 001c 0AB1     		cbz	r2, .L13
 143              		.loc 1 170 0
 144 001e 5869     		ldr	r0, [r3, #20]
 145 0020 9047     		blx	r2
 146              	.LVL7:
 147              	.L13:
 148              		.loc 1 173 0
 149 0022 BDE80840 		pop	{r3, lr}
 150              		.loc 1 172 0
 151 0026 FFF7FEBF 		b	_port_irq_epilogue
 152              	.LVL8:
 153              		.cfi_endproc
 154              	.LFE58:
 155              		.size	Vector74, .-Vector74
 156 002a 00BFAFF3 		.section	.text.Vector78,"ax",%progbits
 156      0080
 157              		.align	2
 158              		.p2align 4,,15
 159              		.global	Vector78
 160              		.thumb
 161              		.thumb_func
 162              		.type	Vector78, %function
 163              	Vector78:
 164              	.LFB59:
 165              		.loc 1 180 0
 166              		.cfi_startproc
 167              		@ args = 0, pretend = 0, frame = 0
 168              		@ frame_needed = 0, uses_anonymous_args = 0
ARM GAS  /tmp/ccCQeDME.s 			page 4


 169 0000 08B5     		push	{r3, lr}
 170              		.cfi_def_cfa_offset 8
 171              		.cfi_offset 3, -8
 172              		.cfi_offset 14, -4
 173              		.loc 1 185 0
 174 0002 0022     		movs	r2, #0
 175 0004 C4F20202 		movt	r2, 16386
 176 0008 1168     		ldr	r1, [r2]
 177              		.loc 1 187 0
 178 000a 40F20003 		movw	r3, #:lower16:.LANCHOR0
 179              		.loc 1 185 0
 180 000e C1F30331 		ubfx	r1, r1, #12, #4
 181              	.LVL9:
 182              		.loc 1 186 0
 183 0012 0803     		lsls	r0, r1, #12
 184 0014 5060     		str	r0, [r2, #4]
 185              		.loc 1 187 0
 186 0016 C0F20003 		movt	r3, #:upper16:.LANCHOR0
 187 001a 9A69     		ldr	r2, [r3, #24]
 188 001c 0AB1     		cbz	r2, .L18
 189              		.loc 1 188 0
 190 001e D869     		ldr	r0, [r3, #28]
 191 0020 9047     		blx	r2
 192              	.LVL10:
 193              	.L18:
 194              		.loc 1 191 0
 195 0022 BDE80840 		pop	{r3, lr}
 196              		.loc 1 190 0
 197 0026 FFF7FEBF 		b	_port_irq_epilogue
 198              	.LVL11:
 199              		.cfi_endproc
 200              	.LFE59:
 201              		.size	Vector78, .-Vector78
 202 002a 00BFAFF3 		.section	.text.Vector7C,"ax",%progbits
 202      0080
 203              		.align	2
 204              		.p2align 4,,15
 205              		.global	Vector7C
 206              		.thumb
 207              		.thumb_func
 208              		.type	Vector7C, %function
 209              	Vector7C:
 210              	.LFB60:
 211              		.loc 1 198 0
 212              		.cfi_startproc
 213              		@ args = 0, pretend = 0, frame = 0
 214              		@ frame_needed = 0, uses_anonymous_args = 0
 215 0000 08B5     		push	{r3, lr}
 216              		.cfi_def_cfa_offset 8
 217              		.cfi_offset 3, -8
 218              		.cfi_offset 14, -4
 219              		.loc 1 203 0
 220 0002 0022     		movs	r2, #0
 221 0004 C4F20202 		movt	r2, 16386
 222 0008 1168     		ldr	r1, [r2]
 223              		.loc 1 205 0
 224 000a 40F20003 		movw	r3, #:lower16:.LANCHOR0
ARM GAS  /tmp/ccCQeDME.s 			page 5


 225              		.loc 1 203 0
 226 000e C1F30341 		ubfx	r1, r1, #16, #4
 227              	.LVL12:
 228              		.loc 1 204 0
 229 0012 0804     		lsls	r0, r1, #16
 230 0014 5060     		str	r0, [r2, #4]
 231              		.loc 1 205 0
 232 0016 C0F20003 		movt	r3, #:upper16:.LANCHOR0
 233 001a 1A6A     		ldr	r2, [r3, #32]
 234 001c 0AB1     		cbz	r2, .L23
 235              		.loc 1 206 0
 236 001e 586A     		ldr	r0, [r3, #36]
 237 0020 9047     		blx	r2
 238              	.LVL13:
 239              	.L23:
 240              		.loc 1 209 0
 241 0022 BDE80840 		pop	{r3, lr}
 242              		.loc 1 208 0
 243 0026 FFF7FEBF 		b	_port_irq_epilogue
 244              	.LVL14:
 245              		.cfi_endproc
 246              	.LFE60:
 247              		.size	Vector7C, .-Vector7C
 248 002a 00BFAFF3 		.section	.text.Vector80,"ax",%progbits
 248      0080
 249              		.align	2
 250              		.p2align 4,,15
 251              		.global	Vector80
 252              		.thumb
 253              		.thumb_func
 254              		.type	Vector80, %function
 255              	Vector80:
 256              	.LFB61:
 257              		.loc 1 216 0
 258              		.cfi_startproc
 259              		@ args = 0, pretend = 0, frame = 0
 260              		@ frame_needed = 0, uses_anonymous_args = 0
 261 0000 08B5     		push	{r3, lr}
 262              		.cfi_def_cfa_offset 8
 263              		.cfi_offset 3, -8
 264              		.cfi_offset 14, -4
 265              		.loc 1 221 0
 266 0002 0022     		movs	r2, #0
 267 0004 C4F20202 		movt	r2, 16386
 268 0008 1168     		ldr	r1, [r2]
 269              		.loc 1 223 0
 270 000a 40F20003 		movw	r3, #:lower16:.LANCHOR0
 271              		.loc 1 221 0
 272 000e C1F30351 		ubfx	r1, r1, #20, #4
 273              	.LVL15:
 274              		.loc 1 222 0
 275 0012 0805     		lsls	r0, r1, #20
 276 0014 5060     		str	r0, [r2, #4]
 277              		.loc 1 223 0
 278 0016 C0F20003 		movt	r3, #:upper16:.LANCHOR0
 279 001a 9A6A     		ldr	r2, [r3, #40]
 280 001c 0AB1     		cbz	r2, .L28
ARM GAS  /tmp/ccCQeDME.s 			page 6


 281              		.loc 1 224 0
 282 001e D86A     		ldr	r0, [r3, #44]
 283 0020 9047     		blx	r2
 284              	.LVL16:
 285              	.L28:
 286              		.loc 1 227 0
 287 0022 BDE80840 		pop	{r3, lr}
 288              		.loc 1 226 0
 289 0026 FFF7FEBF 		b	_port_irq_epilogue
 290              	.LVL17:
 291              		.cfi_endproc
 292              	.LFE61:
 293              		.size	Vector80, .-Vector80
 294 002a 00BFAFF3 		.section	.text.Vector84,"ax",%progbits
 294      0080
 295              		.align	2
 296              		.p2align 4,,15
 297              		.global	Vector84
 298              		.thumb
 299              		.thumb_func
 300              		.type	Vector84, %function
 301              	Vector84:
 302              	.LFB62:
 303              		.loc 1 234 0
 304              		.cfi_startproc
 305              		@ args = 0, pretend = 0, frame = 0
 306              		@ frame_needed = 0, uses_anonymous_args = 0
 307 0000 08B5     		push	{r3, lr}
 308              		.cfi_def_cfa_offset 8
 309              		.cfi_offset 3, -8
 310              		.cfi_offset 14, -4
 311              		.loc 1 239 0
 312 0002 0022     		movs	r2, #0
 313 0004 C4F20202 		movt	r2, 16386
 314 0008 1168     		ldr	r1, [r2]
 315              		.loc 1 241 0
 316 000a 40F20003 		movw	r3, #:lower16:.LANCHOR0
 317              		.loc 1 239 0
 318 000e C1F30361 		ubfx	r1, r1, #24, #4
 319              	.LVL18:
 320              		.loc 1 240 0
 321 0012 0806     		lsls	r0, r1, #24
 322 0014 5060     		str	r0, [r2, #4]
 323              		.loc 1 241 0
 324 0016 C0F20003 		movt	r3, #:upper16:.LANCHOR0
 325 001a 1A6B     		ldr	r2, [r3, #48]
 326 001c 0AB1     		cbz	r2, .L33
 327              		.loc 1 242 0
 328 001e 586B     		ldr	r0, [r3, #52]
 329 0020 9047     		blx	r2
 330              	.LVL19:
 331              	.L33:
 332              		.loc 1 245 0
 333 0022 BDE80840 		pop	{r3, lr}
 334              		.loc 1 244 0
 335 0026 FFF7FEBF 		b	_port_irq_epilogue
 336              	.LVL20:
ARM GAS  /tmp/ccCQeDME.s 			page 7


 337              		.cfi_endproc
 338              	.LFE62:
 339              		.size	Vector84, .-Vector84
 340 002a 00BFAFF3 		.section	.text.dmaInit,"ax",%progbits
 340      0080
 341              		.align	2
 342              		.p2align 4,,15
 343              		.global	dmaInit
 344              		.thumb
 345              		.thumb_func
 346              		.type	dmaInit, %function
 347              	dmaInit:
 348              	.LFB63:
 349              		.loc 1 381 0
 350              		.cfi_startproc
 351              		@ args = 0, pretend = 0, frame = 0
 352              		@ frame_needed = 0, uses_anonymous_args = 0
 353              		@ link register save eliminated.
 354              		.loc 1 384 0
 355 0000 40F20003 		movw	r3, #:lower16:.LANCHOR1
 356              		.loc 1 381 0
 357 0004 30B4     		push	{r4, r5}
 358              		.cfi_def_cfa_offset 8
 359              		.cfi_offset 4, -8
 360              		.cfi_offset 5, -4
 361              		.loc 1 384 0
 362 0006 0021     		movs	r1, #0
 363 0008 C0F20003 		movt	r3, #:upper16:.LANCHOR1
 364 000c 40F20005 		movw	r5, #:lower16:.LANCHOR2
 365 0010 40F20004 		movw	r4, #:lower16:.LANCHOR0
 366 0014 1960     		str	r1, [r3]
 367              	.LVL21:
 368 0016 0A46     		mov	r2, r1
 369 0018 0B46     		mov	r3, r1
 370 001a C0F20005 		movt	r5, #:upper16:.LANCHOR2
 371 001e C0F20004 		movt	r4, #:upper16:.LANCHOR0
 372              	.LVL22:
 373              	.L39:
 374              		.loc 1 386 0 discriminator 2
 375 0022 E858     		ldr	r0, [r5, r3]
 376 0024 0C33     		adds	r3, r3, #12
 377              		.loc 1 385 0 discriminator 2
 378 0026 542B     		cmp	r3, #84
 379              		.loc 1 386 0 discriminator 2
 380 0028 0160     		str	r1, [r0]
 381              		.loc 1 387 0 discriminator 2
 382 002a A150     		str	r1, [r4, r2]
 383 002c 02F10802 		add	r2, r2, #8
 384              		.loc 1 385 0 discriminator 2
 385 0030 F7D1     		bne	.L39
 386              		.loc 1 389 0
 387 0032 0023     		movs	r3, #0
 388 0034 C4F20203 		movt	r3, 16386
 389 0038 4FF0FF32 		mov	r2, #-1
 390 003c 5A60     		str	r2, [r3, #4]
 391              		.loc 1 393 0
 392 003e 30BC     		pop	{r4, r5}
ARM GAS  /tmp/ccCQeDME.s 			page 8


 393 0040 7047     		bx	lr
 394              		.cfi_endproc
 395              	.LFE63:
 396              		.size	dmaInit, .-dmaInit
 397 0042 00BFAFF3 		.section	.text.dmaStreamAllocate,"ax",%progbits
 397      0080AFF3 
 397      0080AFF3 
 397      0080
 398              		.align	2
 399              		.p2align 4,,15
 400              		.global	dmaStreamAllocate
 401              		.thumb
 402              		.thumb_func
 403              		.type	dmaStreamAllocate, %function
 404              	dmaStreamAllocate:
 405              	.LFB64:
 406              		.loc 1 422 0
 407              		.cfi_startproc
 408              		@ args = 0, pretend = 0, frame = 0
 409              		@ frame_needed = 0, uses_anonymous_args = 0
 410              	.LVL23:
 411 0000 F8B5     		push	{r3, r4, r5, r6, r7, lr}
 412              		.cfi_def_cfa_offset 24
 413              		.cfi_offset 3, -24
 414              		.cfi_offset 4, -20
 415              		.cfi_offset 5, -16
 416              		.cfi_offset 6, -12
 417              		.cfi_offset 7, -8
 418              		.cfi_offset 14, -4
 419              		.loc 1 427 0
 420 0002 90F809C0 		ldrb	ip, [r0, #9]	@ zero_extendqisi2
 421 0006 0126     		movs	r6, #1
 422 0008 06FA0CF5 		lsl	r5, r6, ip
 423 000c 40F20004 		movw	r4, #:lower16:.LANCHOR1
 424 0010 C0F20004 		movt	r4, #:upper16:.LANCHOR1
 425 0014 2768     		ldr	r7, [r4]
 426 0016 3D42     		tst	r5, r7
 427 0018 30D1     		bne	.L44
 428              		.loc 1 431 0
 429 001a 40F20005 		movw	r5, #:lower16:.LANCHOR0
 430 001e C0F20005 		movt	r5, #:upper16:.LANCHOR0
 431 0022 45F83C20 		str	r2, [r5, ip, lsl #3]
 432              		.loc 1 432 0
 433 0026 90F809C0 		ldrb	ip, [r0, #9]	@ zero_extendqisi2
 434 002a 05EBCC05 		add	r5, r5, ip, lsl #3
 435 002e 6B60     		str	r3, [r5, #4]
 436              		.loc 1 433 0
 437 0030 437A     		ldrb	r3, [r0, #9]	@ zero_extendqisi2
 438              	.LVL24:
 439              		.loc 1 444 0
 440 0032 0F25     		movs	r5, #15
 441              	.LVL25:
 442              		.loc 1 433 0
 443 0034 9E40     		lsls	r6, r6, r3
 444 0036 3743     		orrs	r7, r7, r6
 445              		.loc 1 436 0
 446 0038 7B06     		lsls	r3, r7, #25
ARM GAS  /tmp/ccCQeDME.s 			page 9


 447              		.loc 1 437 0
 448 003a 18BF     		it	ne
 449 003c 4FF48053 		movne	r3, #4096
 450              		.loc 1 433 0
 451 0040 2760     		str	r7, [r4]
 452              		.loc 1 437 0
 453 0042 1CBF     		itt	ne
 454 0044 C4F20203 		movtne	r3, 16386
 455 0048 5C69     		ldrne	r4, [r3, #20]
 456              		.loc 1 445 0
 457 004a 4FF00006 		mov	r6, #0
 458              		.loc 1 437 0
 459 004e 1CBF     		itt	ne
 460 0050 44F00104 		orrne	r4, r4, #1
 461 0054 5C61     		strne	r4, [r3, #20]
 462              		.loc 1 444 0
 463 0056 0368     		ldr	r3, [r0]
 464 0058 1C68     		ldr	r4, [r3]
 465 005a 24F00F04 		bic	r4, r4, #15
 466 005e 1C60     		str	r4, [r3]
 467              	.LVL26:
 468 0060 047A     		ldrb	r4, [r0, #8]	@ zero_extendqisi2
 469 0062 4368     		ldr	r3, [r0, #4]
 470 0064 05FA04F4 		lsl	r4, r5, r4
 471 0068 1C60     		str	r4, [r3]
 472              		.loc 1 445 0
 473 006a 0368     		ldr	r3, [r0]
 474 006c 1E60     		str	r6, [r3]
 475              		.loc 1 448 0
 476 006e 3AB1     		cbz	r2, .L45
 477              		.loc 1 449 0
 478 0070 807A     		ldrb	r0, [r0, #10]	@ zero_extendqisi2
 479              	.LVL27:
 480 0072 0901     		lsls	r1, r1, #4
 481              	.LVL28:
 482 0074 FFF7FEFF 		bl	nvicEnableVector
 483              	.LVL29:
 484              		.loc 1 451 0
 485 0078 3046     		mov	r0, r6
 486 007a F8BD     		pop	{r3, r4, r5, r6, r7, pc}
 487              	.LVL30:
 488              	.L44:
 489              		.loc 1 428 0
 490 007c 3046     		mov	r0, r6
 491              	.LVL31:
 492 007e F8BD     		pop	{r3, r4, r5, r6, r7, pc}
 493              	.LVL32:
 494              	.L45:
 495              		.loc 1 451 0
 496 0080 1046     		mov	r0, r2
 497              	.LVL33:
 498              		.loc 1 452 0
 499 0082 F8BD     		pop	{r3, r4, r5, r6, r7, pc}
 500              		.cfi_endproc
 501              	.LFE64:
 502              		.size	dmaStreamAllocate, .-dmaStreamAllocate
 503 0084 AFF30080 		.section	.text.dmaStreamRelease,"ax",%progbits
ARM GAS  /tmp/ccCQeDME.s 			page 10


 503      AFF30080 
 503      AFF30080 
 504              		.align	2
 505              		.p2align 4,,15
 506              		.global	dmaStreamRelease
 507              		.thumb
 508              		.thumb_func
 509              		.type	dmaStreamRelease, %function
 510              	dmaStreamRelease:
 511              	.LFB65:
 512              		.loc 1 467 0
 513              		.cfi_startproc
 514              		@ args = 0, pretend = 0, frame = 0
 515              		@ frame_needed = 0, uses_anonymous_args = 0
 516              	.LVL34:
 517 0000 10B5     		push	{r4, lr}
 518              		.cfi_def_cfa_offset 8
 519              		.cfi_offset 4, -8
 520              		.cfi_offset 14, -4
 521              		.loc 1 476 0
 522 0002 437A     		ldrb	r3, [r0, #9]	@ zero_extendqisi2
 523 0004 0122     		movs	r2, #1
 524 0006 9A40     		lsls	r2, r2, r3
 525 0008 40F20004 		movw	r4, #:lower16:.LANCHOR1
 526 000c C0F20004 		movt	r4, #:upper16:.LANCHOR1
 527 0010 2368     		ldr	r3, [r4]
 528              		.loc 1 480 0
 529 0012 807A     		ldrb	r0, [r0, #10]	@ zero_extendqisi2
 530              	.LVL35:
 531              		.loc 1 476 0
 532 0014 23EA0203 		bic	r3, r3, r2
 533 0018 2360     		str	r3, [r4]
 534              		.loc 1 480 0
 535 001a FFF7FEFF 		bl	nvicDisableVector
 536              	.LVL36:
 537              		.loc 1 493 0
 538 001e 2368     		ldr	r3, [r4]
 539 0020 5A06     		lsls	r2, r3, #25
 540              		.loc 1 494 0
 541 0022 01BF     		itttt	eq
 542 0024 4FF48053 		moveq	r3, #4096
 543 0028 C4F20203 		movteq	r3, 16386
 544 002c 5A69     		ldreq	r2, [r3, #20]
 545 002e 22F00102 		biceq	r2, r2, #1
 546 0032 08BF     		it	eq
 547 0034 5A61     		streq	r2, [r3, #20]
 548 0036 10BD     		pop	{r4, pc}
 549              		.cfi_endproc
 550              	.LFE65:
 551              		.size	dmaStreamRelease, .-dmaStreamRelease
 552              		.global	_stm32_dma_streams
 553 0038 AFF30080 		.section	.bss.dma_isr_redir,"aw",%nobits
 553      AFF30080 
 554              		.align	2
 555              		.set	.LANCHOR0,. + 0
 556              		.type	dma_isr_redir, %object
 557              		.size	dma_isr_redir, 56
ARM GAS  /tmp/ccCQeDME.s 			page 11


 558              	dma_isr_redir:
 559 0000 00000000 		.space	56
 559      00000000 
 559      00000000 
 559      00000000 
 559      00000000 
 560              		.section	.rodata._stm32_dma_streams,"a",%progbits
 561              		.align	2
 562              		.set	.LANCHOR2,. + 0
 563              		.type	_stm32_dma_streams, %object
 564              		.size	_stm32_dma_streams, 84
 565              	_stm32_dma_streams:
 566 0000 08000240 		.word	1073872904
 567 0004 04000240 		.word	1073872900
 568 0008 00       		.byte	0
 569 0009 00       		.byte	0
 570 000a 0B       		.byte	11
 571 000b 00       		.space	1
 572 000c 1C000240 		.word	1073872924
 573 0010 04000240 		.word	1073872900
 574 0014 04       		.byte	4
 575 0015 01       		.byte	1
 576 0016 0C       		.byte	12
 577 0017 00       		.space	1
 578 0018 30000240 		.word	1073872944
 579 001c 04000240 		.word	1073872900
 580 0020 08       		.byte	8
 581 0021 02       		.byte	2
 582 0022 0D       		.byte	13
 583 0023 00       		.space	1
 584 0024 44000240 		.word	1073872964
 585 0028 04000240 		.word	1073872900
 586 002c 0C       		.byte	12
 587 002d 03       		.byte	3
 588 002e 0E       		.byte	14
 589 002f 00       		.space	1
 590 0030 58000240 		.word	1073872984
 591 0034 04000240 		.word	1073872900
 592 0038 10       		.byte	16
 593 0039 04       		.byte	4
 594 003a 0F       		.byte	15
 595 003b 00       		.space	1
 596 003c 6C000240 		.word	1073873004
 597 0040 04000240 		.word	1073872900
 598 0044 14       		.byte	20
 599 0045 05       		.byte	5
 600 0046 10       		.byte	16
 601 0047 00       		.space	1
 602 0048 80000240 		.word	1073873024
 603 004c 04000240 		.word	1073872900
 604 0050 18       		.byte	24
 605 0051 06       		.byte	6
 606 0052 11       		.byte	17
 607 0053 00       		.space	1
 608              		.section	.bss.dma_streams_mask,"aw",%nobits
 609              		.align	2
 610              		.set	.LANCHOR1,. + 0
ARM GAS  /tmp/ccCQeDME.s 			page 12


 611              		.type	dma_streams_mask, %object
 612              		.size	dma_streams_mask, 4
 613              	dma_streams_mask:
 614 0000 00000000 		.space	4
 615              		.text
 616              	.Letext0:
 617              		.file 2 "/usr/include/newlib/machine/_default_types.h"
 618              		.file 3 "/usr/include/newlib/stdint.h"
 619              		.file 4 "../os/ports/GCC/ARMCMx/chtypes.h"
 620              		.file 5 "../os/hal/platforms/STM32F1xx/stm32f10x.h"
 621              		.file 6 "../os/hal/platforms/STM32F1xx/stm32_dma.h"
 622              		.file 7 "../os/ports/common/ARMCMx/CMSIS/include/core_cm3.h"
 623              		.file 8 "../os/ports/GCC/ARMCMx/chcore_v7m.h"
 624              		.file 9 "../os/ports/common/ARMCMx/nvic.h"