ARM GAS  /tmp/cc96HzGn.s 			page 1


   1              		.syntax unified
   2              		.cpu cortex-m3
   3              		.fpu softvfp
   4              		.eabi_attribute 20, 1
   5              		.eabi_attribute 21, 1
   6              		.eabi_attribute 23, 3
   7              		.eabi_attribute 24, 1
   8              		.eabi_attribute 25, 1
   9              		.eabi_attribute 26, 1
  10              		.eabi_attribute 30, 2
  11              		.eabi_attribute 34, 1
  12              		.eabi_attribute 18, 4
  13              		.thumb
  14              		.file	"tm.c"
  15              		.text
  16              	.Ltext0:
  17              		.cfi_sections	.debug_frame
  18              		.section	.text.tm_start,"ax",%progbits
  19              		.align	2
  20              		.p2align 4,,15
  21              		.thumb
  22              		.thumb_func
  23              		.type	tm_start, %function
  24              	tm_start:
  25              	.LFB56:
  26              		.file 1 "../os/hal/src/tm.c"
  27              		.loc 1 69 0
  28              		.cfi_startproc
  29              		@ args = 0, pretend = 0, frame = 0
  30              		@ frame_needed = 0, uses_anonymous_args = 0
  31              		@ link register save eliminated.
  32              	.LVL0:
  33              		.loc 1 71 0
  34 0000 4FF48053 		mov	r3, #4096
  35 0004 CEF20003 		movt	r3, 57344
  36 0008 5B68     		ldr	r3, [r3, #4]
  37 000a 8360     		str	r3, [r0, #8]
  38 000c 7047     		bx	lr
  39              		.cfi_endproc
  40              	.LFE56:
  41              		.size	tm_start, .-tm_start
  42 000e 00BF     		.section	.text.tm_stop,"ax",%progbits
  43              		.align	2
  44              		.p2align 4,,15
  45              		.thumb
  46              		.thumb_func
  47              		.type	tm_stop, %function
  48              	tm_stop:
  49              	.LFB57:
  50              		.loc 1 81 0
  51              		.cfi_startproc
  52              		@ args = 0, pretend = 0, frame = 0
  53              		@ frame_needed = 0, uses_anonymous_args = 0
  54              		@ link register save eliminated.
  55              	.LVL1:
  56 0000 10B4     		push	{r4}
  57              		.cfi_def_cfa_offset 4
ARM GAS  /tmp/cc96HzGn.s 			page 2


  58              		.cfi_offset 4, -4
  59              		.loc 1 83 0
  60 0002 4FF48053 		mov	r3, #4096
  61 0006 CEF20003 		movt	r3, 57344
  62              		.loc 1 84 0
  63 000a 40F20002 		movw	r2, #:lower16:.LANCHOR0
  64              		.loc 1 83 0
  65 000e 5B68     		ldr	r3, [r3, #4]
  66              	.LVL2:
  67              		.loc 1 84 0
  68 0010 8168     		ldr	r1, [r0, #8]
  69 0012 C0F20002 		movt	r2, #:upper16:.LANCHOR0
  70 0016 1468     		ldr	r4, [r2]
  71 0018 5B1A     		subs	r3, r3, r1
  72              	.LVL3:
  73              		.loc 1 85 0
  74 001a C268     		ldr	r2, [r0, #12]
  75              		.loc 1 84 0
  76 001c 1B1B     		subs	r3, r3, r4
  77              		.loc 1 85 0
  78 001e 9342     		cmp	r3, r2
  79              		.loc 1 84 0
  80 0020 8360     		str	r3, [r0, #8]
  81              		.loc 1 86 0
  82 0022 88BF     		it	hi
  83 0024 C360     		strhi	r3, [r0, #12]
  84              		.loc 1 85 0
  85 0026 03D8     		bhi	.L2
  86              		.loc 1 87 0
  87 0028 0269     		ldr	r2, [r0, #16]
  88 002a 9342     		cmp	r3, r2
  89              		.loc 1 88 0
  90 002c 38BF     		it	cc
  91 002e 0361     		strcc	r3, [r0, #16]
  92              	.L2:
  93              		.loc 1 89 0
  94 0030 5DF8044B 		ldr	r4, [sp], #4
  95 0034 7047     		bx	lr
  96              		.cfi_endproc
  97              	.LFE57:
  98              		.size	tm_stop, .-tm_stop
  99              		.section	.text.tmInit,"ax",%progbits
 100              		.align	2
 101              		.p2align 4,,15
 102              		.global	tmInit
 103              		.thumb
 104              		.thumb_func
 105              		.type	tmInit, %function
 106              	tmInit:
 107              	.LFB58:
 108              		.loc 1 104 0
 109              		.cfi_startproc
 110              		@ args = 0, pretend = 0, frame = 24
 111              		@ frame_needed = 0, uses_anonymous_args = 0
 112 0000 30B5     		push	{r4, r5, lr}
 113              		.cfi_def_cfa_offset 12
 114              		.cfi_offset 4, -12
ARM GAS  /tmp/cc96HzGn.s 			page 3


 115              		.cfi_offset 5, -8
 116              		.cfi_offset 14, -4
 117              	.LBB8:
 118              	.LBB9:
 119              		.loc 1 126 0
 120 0002 40F20002 		movw	r2, #:lower16:tm_start
 121              	.LBE9:
 122              	.LBE8:
 123              		.loc 1 110 0
 124 0006 40F20004 		movw	r4, #:lower16:.LANCHOR0
 125              	.LBB14:
 126              	.LBB10:
 127              		.loc 1 127 0
 128 000a 40F20003 		movw	r3, #:lower16:tm_stop
 129              	.LBE10:
 130              	.LBE14:
 131              		.loc 1 104 0
 132 000e 87B0     		sub	sp, sp, #28
 133              		.cfi_def_cfa_offset 40
 134              		.loc 1 110 0
 135 0010 0021     		movs	r1, #0
 136 0012 C0F20004 		movt	r4, #:upper16:.LANCHOR0
 137              	.LBB15:
 138              	.LBB11:
 139              		.loc 1 126 0
 140 0016 C0F20002 		movt	r2, #:upper16:tm_start
 141              		.loc 1 127 0
 142 001a C0F20003 		movt	r3, #:upper16:tm_stop
 143              		.loc 1 130 0
 144 001e 4FF0FF35 		mov	r5, #-1
 145              	.LBE11:
 146              	.LBE15:
 147              	.LBB16:
 148              	.LBB17:
 149              		.loc 1 71 0
 150 0022 4FF48050 		mov	r0, #4096
 151              	.LBE17:
 152              	.LBE16:
 153              	.LBB20:
 154              	.LBB12:
 155              		.loc 1 128 0
 156 0026 0391     		str	r1, [sp, #12]
 157              	.LBE12:
 158              	.LBE20:
 159              		.loc 1 110 0
 160 0028 2160     		str	r1, [r4]
 161              	.LVL4:
 162              	.LBB21:
 163              	.LBB13:
 164              		.loc 1 129 0
 165 002a 0491     		str	r1, [sp, #16]
 166              		.loc 1 126 0
 167 002c 0192     		str	r2, [sp, #4]
 168              		.loc 1 127 0
 169 002e 0293     		str	r3, [sp, #8]
 170              		.loc 1 130 0
 171 0030 0595     		str	r5, [sp, #20]
ARM GAS  /tmp/cc96HzGn.s 			page 4


 172              	.LVL5:
 173              	.LBE13:
 174              	.LBE21:
 175              	.LBB22:
 176              	.LBB18:
 177              		.loc 1 71 0
 178 0032 CEF20000 		movt	r0, 57344
 179 0036 4368     		ldr	r3, [r0, #4]
 180              	.LBE18:
 181              	.LBE22:
 182              		.loc 1 113 0
 183 0038 01A8     		add	r0, sp, #4
 184              	.LVL6:
 185              	.LBB23:
 186              	.LBB19:
 187              		.loc 1 71 0
 188 003a 0393     		str	r3, [sp, #12]
 189              	.LBE19:
 190              	.LBE23:
 191              		.loc 1 113 0
 192 003c FFF7FEFF 		bl	tm_stop
 193              	.LVL7:
 194              		.loc 1 114 0
 195 0040 039B     		ldr	r3, [sp, #12]
 196 0042 2360     		str	r3, [r4]
 197              		.loc 1 115 0
 198 0044 07B0     		add	sp, sp, #28
 199              		@ sp needed
 200 0046 30BD     		pop	{r4, r5, pc}
 201              		.cfi_endproc
 202              	.LFE58:
 203              		.size	tmInit, .-tmInit
 204 0048 AFF30080 		.section	.text.tmObjectInit,"ax",%progbits
 204      AFF30080 
 205              		.align	2
 206              		.p2align 4,,15
 207              		.global	tmObjectInit
 208              		.thumb
 209              		.thumb_func
 210              		.type	tmObjectInit, %function
 211              	tmObjectInit:
 212              	.LFB59:
 213              		.loc 1 124 0
 214              		.cfi_startproc
 215              		@ args = 0, pretend = 0, frame = 0
 216              		@ frame_needed = 0, uses_anonymous_args = 0
 217              		@ link register save eliminated.
 218              	.LVL8:
 219              		.loc 1 126 0
 220 0000 40F20002 		movw	r2, #:lower16:tm_start
 221              		.loc 1 127 0
 222 0004 40F20003 		movw	r3, #:lower16:tm_stop
 223              		.loc 1 124 0
 224 0008 10B4     		push	{r4}
 225              		.cfi_def_cfa_offset 4
 226              		.cfi_offset 4, -4
 227              		.loc 1 128 0
ARM GAS  /tmp/cc96HzGn.s 			page 5


 228 000a 0021     		movs	r1, #0
 229              		.loc 1 130 0
 230 000c 4FF0FF34 		mov	r4, #-1
 231              		.loc 1 126 0
 232 0010 C0F20002 		movt	r2, #:upper16:tm_start
 233              		.loc 1 127 0
 234 0014 C0F20003 		movt	r3, #:upper16:tm_stop
 235              		.loc 1 130 0
 236 0018 0461     		str	r4, [r0, #16]
 237              		.loc 1 127 0
 238 001a 80E80C00 		stmia	r0, {r2, r3}
 239              		.loc 1 128 0
 240 001e 8160     		str	r1, [r0, #8]
 241              		.loc 1 129 0
 242 0020 C160     		str	r1, [r0, #12]
 243              		.loc 1 131 0
 244 0022 5DF8044B 		ldr	r4, [sp], #4
 245 0026 7047     		bx	lr
 246              		.cfi_endproc
 247              	.LFE59:
 248              		.size	tmObjectInit, .-tmObjectInit
 249              		.section	.bss.measurement_offset,"aw",%nobits
 250              		.align	2
 251              		.set	.LANCHOR0,. + 0
 252              		.type	measurement_offset, %object
 253              		.size	measurement_offset, 4
 254              	measurement_offset:
 255 0000 00000000 		.space	4
 256              		.text
 257              	.Letext0:
 258              		.file 2 "/usr/include/newlib/machine/_default_types.h"
 259              		.file 3 "/usr/include/newlib/stdint.h"
 260              		.file 4 "../os/ports/common/ARMCMx/nvic.h"
 261              		.file 5 "../os/hal/platforms/STM32F1xx/hal_lld.h"
 262              		.file 6 "../os/hal/include/tm.h"
 263              		.file 7 "../os/ports/common/ARMCMx/CMSIS/include/core_cm3.h"