ARM GAS  /tmp/ccJfjU4P.s 			page 1


   1              		.syntax unified
   2              		.cpu cortex-m3
   3              		.fpu softvfp
   4              		.eabi_attribute 20, 1
   5              		.eabi_attribute 21, 1
   6              		.eabi_attribute 23, 3
   7              		.eabi_attribute 24, 1
   8              		.eabi_attribute 25, 1
   9              		.eabi_attribute 26, 1
  10              		.eabi_attribute 30, 2
  11              		.eabi_attribute 34, 1
  12              		.eabi_attribute 18, 4
  13              		.thumb
  14              		.file	"uart_lld.c"
  15              		.text
  16              	.Ltext0:
  17              		.cfi_sections	.debug_frame
  18              		.section	.text.set_rx_idle_loop,"ax",%progbits
  19              		.align	2
  20              		.p2align 4,,15
  21              		.thumb
  22              		.thumb_func
  23              		.type	set_rx_idle_loop, %function
  24              	set_rx_idle_loop:
  25              	.LFB57:
  26              		.file 1 "../os/hal/platforms/STM32/USARTv1/uart_lld.c"
  27              		.loc 1 160 0
  28              		.cfi_startproc
  29              		@ args = 0, pretend = 0, frame = 0
  30              		@ frame_needed = 0, uses_anonymous_args = 0
  31              		@ link register save eliminated.
  32              	.LVL0:
  33 0000 10B4     		push	{r4}
  34              		.cfi_def_cfa_offset 4
  35              		.cfi_offset 4, -4
  36              		.loc 1 169 0
  37 0002 0269     		ldr	r2, [r0, #16]
  38              		.loc 1 165 0
  39 0004 4368     		ldr	r3, [r0, #4]
  40              		.loc 1 169 0
  41 0006 1268     		ldr	r2, [r2]
  42 0008 00F11804 		add	r4, r0, #24
  43              		.loc 1 165 0
  44 000c D968     		ldr	r1, [r3, #12]
  45              		.loc 1 169 0
  46 000e D460     		str	r4, [r2, #12]
  47              		.loc 1 170 0
  48 0010 0269     		ldr	r2, [r0, #16]
  49 0012 0124     		movs	r4, #1
  50 0014 1268     		ldr	r2, [r2]
  51              		.loc 1 166 0
  52 0016 0029     		cmp	r1, #0
  53 0018 14BF     		ite	ne
  54 001a 2221     		movne	r1, #34
  55 001c 2021     		moveq	r1, #32
  56              	.LVL1:
  57              		.loc 1 170 0
ARM GAS  /tmp/ccJfjU4P.s 			page 2


  58 001e 5460     		str	r4, [r2, #4]
  59              		.loc 1 171 0
  60 0020 0269     		ldr	r2, [r0, #16]
  61 0022 C368     		ldr	r3, [r0, #12]
  62 0024 1268     		ldr	r2, [r2]
  63 0026 0B43     		orrs	r3, r3, r1
  64 0028 1360     		str	r3, [r2]
  65              		.loc 1 172 0
  66 002a 0369     		ldr	r3, [r0, #16]
  67 002c 1B68     		ldr	r3, [r3]
  68 002e 1A68     		ldr	r2, [r3]
  69 0030 2243     		orrs	r2, r2, r4
  70 0032 1A60     		str	r2, [r3]
  71              		.loc 1 173 0
  72 0034 5DF8044B 		ldr	r4, [sp], #4
  73 0038 7047     		bx	lr
  74              		.cfi_endproc
  75              	.LFE57:
  76              		.size	set_rx_idle_loop, .-set_rx_idle_loop
  77 003a 00BFAFF3 		.section	.text.usart_stop,"ax",%progbits
  77      0080
  78              		.align	2
  79              		.p2align 4,,15
  80              		.thumb
  81              		.thumb_func
  82              		.type	usart_stop, %function
  83              	usart_stop:
  84              	.LFB58:
  85              		.loc 1 181 0
  86              		.cfi_startproc
  87              		@ args = 0, pretend = 0, frame = 0
  88              		@ frame_needed = 0, uses_anonymous_args = 0
  89              		@ link register save eliminated.
  90              	.LVL2:
  91 0000 10B4     		push	{r4}
  92              		.cfi_def_cfa_offset 4
  93              		.cfi_offset 4, -4
  94              		.loc 1 184 0
  95 0002 0369     		ldr	r3, [r0, #16]
  96 0004 0F22     		movs	r2, #15
  97 0006 1968     		ldr	r1, [r3]
  98              		.loc 1 188 0
  99 0008 0023     		movs	r3, #0
 100              		.loc 1 184 0
 101 000a 0C68     		ldr	r4, [r1]
 102 000c 24F00F04 		bic	r4, r4, #15
 103 0010 0C60     		str	r4, [r1]
 104 0012 0169     		ldr	r1, [r0, #16]
 105 0014 0C7A     		ldrb	r4, [r1, #8]	@ zero_extendqisi2
 106 0016 4968     		ldr	r1, [r1, #4]
 107 0018 02FA04F4 		lsl	r4, r2, r4
 108 001c 0C60     		str	r4, [r1]
 109              		.loc 1 185 0
 110 001e 4169     		ldr	r1, [r0, #20]
 111 0020 0968     		ldr	r1, [r1]
 112 0022 0C68     		ldr	r4, [r1]
 113 0024 24F00F04 		bic	r4, r4, #15
ARM GAS  /tmp/ccJfjU4P.s 			page 3


 114 0028 0C60     		str	r4, [r1]
 115 002a 4169     		ldr	r1, [r0, #20]
 116 002c 0C7A     		ldrb	r4, [r1, #8]	@ zero_extendqisi2
 117 002e 4968     		ldr	r1, [r1, #4]
 118 0030 A240     		lsls	r2, r2, r4
 119 0032 0A60     		str	r2, [r1]
 120              		.loc 1 188 0
 121 0034 8268     		ldr	r2, [r0, #8]
 122 0036 9381     		strh	r3, [r2, #12]	@ movhi
 123              		.loc 1 189 0
 124 0038 8268     		ldr	r2, [r0, #8]
 125 003a 1382     		strh	r3, [r2, #16]	@ movhi
 126              		.loc 1 190 0
 127 003c 8268     		ldr	r2, [r0, #8]
 128 003e 9382     		strh	r3, [r2, #20]	@ movhi
 129              		.loc 1 191 0
 130 0040 5DF8044B 		ldr	r4, [sp], #4
 131 0044 7047     		bx	lr
 132              		.cfi_endproc
 133              	.LFE58:
 134              		.size	usart_stop, .-usart_stop
 135 0046 00BFAFF3 		.section	.text.uart_lld_serve_tx_end_irq,"ax",%progbits
 135      0080AFF3 
 135      0080
 136              		.align	2
 137              		.p2align 4,,15
 138              		.thumb
 139              		.thumb_func
 140              		.type	uart_lld_serve_tx_end_irq, %function
 141              	uart_lld_serve_tx_end_irq:
 142              	.LFB61:
 143              		.loc 1 282 0
 144              		.cfi_startproc
 145              		@ args = 0, pretend = 0, frame = 0
 146              		@ frame_needed = 0, uses_anonymous_args = 0
 147              	.LVL3:
 148              		.loc 1 286 0
 149 0000 0B07     		lsls	r3, r1, #28
 150              		.loc 1 282 0
 151 0002 10B5     		push	{r4, lr}
 152              		.cfi_def_cfa_offset 8
 153              		.cfi_offset 4, -8
 154              		.cfi_offset 14, -4
 155              		.loc 1 282 0
 156 0004 0446     		mov	r4, r0
 157              		.loc 1 286 0
 158 0006 23D4     		bmi	.L21
 159              	.LVL4:
 160              	.L6:
 161              		.loc 1 293 0
 162 0008 6369     		ldr	r3, [r4, #20]
 163 000a 0F21     		movs	r1, #15
 164 000c 1B68     		ldr	r3, [r3]
 165 000e 1A68     		ldr	r2, [r3]
 166 0010 22F00F02 		bic	r2, r2, #15
 167 0014 1A60     		str	r2, [r3]
 168 0016 6369     		ldr	r3, [r4, #20]
ARM GAS  /tmp/ccJfjU4P.s 			page 4


 169 0018 1A7A     		ldrb	r2, [r3, #8]	@ zero_extendqisi2
 170 001a 5B68     		ldr	r3, [r3, #4]
 171 001c 01FA02F2 		lsl	r2, r1, r2
 172 0020 1A60     		str	r2, [r3]
 173              		.loc 1 298 0
 174 0022 6368     		ldr	r3, [r4, #4]
 175 0024 5A68     		ldr	r2, [r3, #4]
 176 0026 32B1     		cbz	r2, .L7
 177              		.loc 1 299 0
 178 0028 A368     		ldr	r3, [r4, #8]
 179 002a 9A89     		ldrh	r2, [r3, #12]
 180 002c 92B2     		uxth	r2, r2
 181 002e 42F04002 		orr	r2, r2, #64
 182 0032 9A81     		strh	r2, [r3, #12]	@ movhi
 183 0034 6368     		ldr	r3, [r4, #4]
 184              	.L7:
 185              		.loc 1 302 0
 186 0036 0222     		movs	r2, #2
 187 0038 6270     		strb	r2, [r4, #1]
 188              		.loc 1 303 0
 189 003a 1B68     		ldr	r3, [r3]
 190 003c 2BB1     		cbz	r3, .L10
 191              		.loc 1 304 0
 192 003e 2046     		mov	r0, r4
 193 0040 9847     		blx	r3
 194              	.LVL5:
 195              		.loc 1 308 0
 196 0042 6378     		ldrb	r3, [r4, #1]	@ zero_extendqisi2
 197 0044 022B     		cmp	r3, #2
 198 0046 00D0     		beq	.L10
 199 0048 10BD     		pop	{r4, pc}
 200              	.LVL6:
 201              	.L10:
 202              		.loc 1 309 0
 203 004a 0023     		movs	r3, #0
 204 004c 6370     		strb	r3, [r4, #1]
 205 004e 10BD     		pop	{r4, pc}
 206              	.LVL7:
 207              	.L21:
 208              		.loc 1 287 0
 209 0050 FFF7FEFF 		bl	port_halt
 210              	.LVL8:
 211 0054 D8E7     		b	.L6
 212              		.cfi_endproc
 213              	.LFE61:
 214              		.size	uart_lld_serve_tx_end_irq, .-uart_lld_serve_tx_end_irq
 215              		.section	.text.uart_lld_serve_rx_end_irq,"ax",%progbits
 216              		.align	2
 217              		.p2align 4,,15
 218              		.thumb
 219              		.thumb_func
 220              		.type	uart_lld_serve_rx_end_irq, %function
 221              	uart_lld_serve_rx_end_irq:
 222              	.LFB60:
 223              		.loc 1 242 0
 224              		.cfi_startproc
 225              		@ args = 0, pretend = 0, frame = 0
ARM GAS  /tmp/ccJfjU4P.s 			page 5


 226              		@ frame_needed = 0, uses_anonymous_args = 0
 227              	.LVL9:
 228              		.loc 1 246 0
 229 0000 0A07     		lsls	r2, r1, #28
 230              		.loc 1 242 0
 231 0002 10B5     		push	{r4, lr}
 232              		.cfi_def_cfa_offset 8
 233              		.cfi_offset 4, -8
 234              		.cfi_offset 14, -4
 235              		.loc 1 242 0
 236 0004 0446     		mov	r4, r0
 237              		.loc 1 246 0
 238 0006 21D4     		bmi	.L36
 239              	.LVL10:
 240              	.L23:
 241              		.loc 1 253 0
 242 0008 A378     		ldrb	r3, [r4, #2]	@ zero_extendqisi2
 243 000a 3BB9     		cbnz	r3, .L24
 244              		.loc 1 256 0
 245 000c 6368     		ldr	r3, [r4, #4]
 246 000e DB68     		ldr	r3, [r3, #12]
 247 0010 DBB1     		cbz	r3, .L22
 248              		.loc 1 257 0
 249 0012 218B     		ldrh	r1, [r4, #24]
 250 0014 2046     		mov	r0, r4
 251 0016 89B2     		uxth	r1, r1
 252 0018 9847     		blx	r3
 253              	.LVL11:
 254 001a 10BD     		pop	{r4, pc}
 255              	.LVL12:
 256              	.L24:
 257              	.LBB4:
 258              	.LBB5:
 259              		.loc 1 262 0
 260 001c 2369     		ldr	r3, [r4, #16]
 261 001e 0F20     		movs	r0, #15
 262 0020 1B68     		ldr	r3, [r3]
 263              		.loc 1 263 0
 264 0022 0222     		movs	r2, #2
 265              		.loc 1 262 0
 266 0024 1968     		ldr	r1, [r3]
 267 0026 21F00F01 		bic	r1, r1, #15
 268 002a 1960     		str	r1, [r3]
 269 002c 2369     		ldr	r3, [r4, #16]
 270 002e 197A     		ldrb	r1, [r3, #8]	@ zero_extendqisi2
 271 0030 5B68     		ldr	r3, [r3, #4]
 272 0032 00FA01F1 		lsl	r1, r0, r1
 273 0036 1960     		str	r1, [r3]
 274              		.loc 1 264 0
 275 0038 6368     		ldr	r3, [r4, #4]
 276              		.loc 1 263 0
 277 003a A270     		strb	r2, [r4, #2]
 278              		.loc 1 264 0
 279 003c 9B68     		ldr	r3, [r3, #8]
 280 003e 43B1     		cbz	r3, .L28
 281              		.loc 1 265 0
 282 0040 2046     		mov	r0, r4
ARM GAS  /tmp/ccJfjU4P.s 			page 6


 283 0042 9847     		blx	r3
 284              	.LVL13:
 285              		.loc 1 269 0
 286 0044 A378     		ldrb	r3, [r4, #2]	@ zero_extendqisi2
 287 0046 022B     		cmp	r3, #2
 288 0048 03D0     		beq	.L28
 289              	.LVL14:
 290              	.L22:
 291 004a 10BD     		pop	{r4, pc}
 292              	.LVL15:
 293              	.L36:
 294              	.LBE5:
 295              	.LBE4:
 296              		.loc 1 247 0
 297 004c FFF7FEFF 		bl	port_halt
 298              	.LVL16:
 299 0050 DAE7     		b	.L23
 300              	.LVL17:
 301              	.L28:
 302              	.LBB8:
 303              	.LBB6:
 304              		.loc 1 270 0
 305 0052 0023     		movs	r3, #0
 306 0054 A370     		strb	r3, [r4, #2]
 307              		.loc 1 271 0
 308 0056 2046     		mov	r0, r4
 309              	.LBE6:
 310              	.LBE8:
 311              		.loc 1 274 0
 312 0058 BDE81040 		pop	{r4, lr}
 313              	.LVL18:
 314              	.LBB9:
 315              	.LBB7:
 316              		.loc 1 271 0
 317 005c FFF7FEBF 		b	set_rx_idle_loop
 318              	.LVL19:
 319              	.LBE7:
 320              	.LBE9:
 321              		.cfi_endproc
 322              	.LFE60:
 323              		.size	uart_lld_serve_rx_end_irq, .-uart_lld_serve_rx_end_irq
 324              		.section	.text.VectorD8,"ax",%progbits
 325              		.align	2
 326              		.p2align 4,,15
 327              		.global	VectorD8
 328              		.thumb
 329              		.thumb_func
 330              		.type	VectorD8, %function
 331              	VectorD8:
 332              	.LFB63:
 333              		.loc 1 375 0
 334              		.cfi_startproc
 335              		@ args = 0, pretend = 0, frame = 0
 336              		@ frame_needed = 0, uses_anonymous_args = 0
 337              	.LVL20:
 338 0000 F8B5     		push	{r3, r4, r5, r6, r7, lr}
 339              		.cfi_def_cfa_offset 24
ARM GAS  /tmp/ccJfjU4P.s 			page 7


 340              		.cfi_offset 3, -24
 341              		.cfi_offset 4, -20
 342              		.cfi_offset 5, -16
 343              		.cfi_offset 6, -12
 344              		.cfi_offset 7, -8
 345              		.cfi_offset 14, -4
 346              	.LBB14:
 347              	.LBB15:
 348              		.loc 1 319 0
 349 0002 40F20005 		movw	r5, #:lower16:.LANCHOR0
 350 0006 C0F20005 		movt	r5, #:upper16:.LANCHOR0
 351 000a AC68     		ldr	r4, [r5, #8]
 352              	.LVL21:
 353              		.loc 1 325 0
 354 000c 40F20F13 		movw	r3, #271
 355              		.loc 1 320 0
 356 0010 A289     		ldrh	r2, [r4, #12]
 357              		.loc 1 322 0
 358 0012 2688     		ldrh	r6, [r4]
 359              		.loc 1 320 0
 360 0014 97B2     		uxth	r7, r2
 361              	.LVL22:
 362              		.loc 1 322 0
 363 0016 B6B2     		uxth	r6, r6
 364              	.LVL23:
 365              		.loc 1 325 0
 366 0018 3340     		ands	r3, r3, r6
 367              		.loc 1 323 0
 368 001a A288     		ldrh	r2, [r4, #4]
 369              		.loc 1 325 0
 370 001c FBB1     		cbz	r3, .L39
 371              		.loc 1 327 0
 372 001e 4FF6FF63 		movw	r3, #65279
 373 0022 2380     		strh	r3, [r4]	@ movhi
 374              		.loc 1 328 0
 375 0024 6B68     		ldr	r3, [r5, #4]
 376 0026 1B69     		ldr	r3, [r3, #16]
 377 0028 CBB1     		cbz	r3, .L39
 378              	.LVL24:
 379              	.LBB16:
 380              	.LBB17:
 381              		.loc 1 140 0
 382 002a 16F0080F 		tst	r6, #8
 383 002e 14BF     		ite	ne
 384 0030 1021     		movne	r1, #16
 385 0032 0021     		moveq	r1, #0
 386              	.LVL25:
 387              		.loc 1 144 0
 388 0034 F007     		lsls	r0, r6, #31
 389              		.loc 1 145 0
 390 0036 48BF     		it	mi
 391 0038 41F00401 		orrmi	r1, r1, #4
 392              	.LVL26:
 393              		.loc 1 146 0
 394 003c B207     		lsls	r2, r6, #30
 395              		.loc 1 147 0
 396 003e 48BF     		it	mi
ARM GAS  /tmp/ccJfjU4P.s 			page 8


 397 0040 41F00801 		orrmi	r1, r1, #8
 398              	.LVL27:
 399              		.loc 1 148 0
 400 0044 7007     		lsls	r0, r6, #29
 401              		.loc 1 149 0
 402 0046 48BF     		it	mi
 403 0048 41F02001 		orrmi	r1, r1, #32
 404              	.LVL28:
 405              	.LBE17:
 406              	.LBE16:
 407              		.loc 1 329 0
 408 004c 40F20000 		movw	r0, #:lower16:.LANCHOR0
 409              	.LBB19:
 410              	.LBB18:
 411              		.loc 1 150 0
 412 0050 F205     		lsls	r2, r6, #23
 413              		.loc 1 151 0
 414 0052 48BF     		it	mi
 415 0054 41F04001 		orrmi	r1, r1, #64
 416              	.LVL29:
 417              	.LBE18:
 418              	.LBE19:
 419              		.loc 1 329 0
 420 0058 C0F20000 		movt	r0, #:upper16:.LANCHOR0
 421 005c 9847     		blx	r3
 422              	.LVL30:
 423              	.L39:
 424              		.loc 1 332 0
 425 005e 7006     		lsls	r0, r6, #25
 426 0060 0ED5     		bpl	.L47
 427 0062 7906     		lsls	r1, r7, #25
 428 0064 0CD5     		bpl	.L47
 429              		.loc 1 334 0
 430 0066 4FF6BF73 		movw	r3, #65471
 431 006a 2380     		strh	r3, [r4]	@ movhi
 432              		.loc 1 338 0
 433 006c 6A68     		ldr	r2, [r5, #4]
 434              		.loc 1 335 0
 435 006e 3B40     		ands	r3, r3, r7
 436 0070 A381     		strh	r3, [r4, #12]	@ movhi
 437              		.loc 1 338 0
 438 0072 5368     		ldr	r3, [r2, #4]
 439 0074 23B1     		cbz	r3, .L47
 440              		.loc 1 339 0
 441 0076 40F20000 		movw	r0, #:lower16:.LANCHOR0
 442 007a C0F20000 		movt	r0, #:upper16:.LANCHOR0
 443 007e 9847     		blx	r3
 444              	.LVL31:
 445              	.L47:
 446              	.LBE15:
 447              	.LBE14:
 448              		.loc 1 382 0
 449 0080 BDE8F840 		pop	{r3, r4, r5, r6, r7, lr}
 450              	.LVL32:
 451              		.loc 1 381 0
 452 0084 FFF7FEBF 		b	_port_irq_epilogue
 453              	.LVL33:
ARM GAS  /tmp/ccJfjU4P.s 			page 9


 454              		.cfi_endproc
 455              	.LFE63:
 456              		.size	VectorD8, .-VectorD8
 457 0088 AFF30080 		.section	.text.uart_lld_init,"ax",%progbits
 457      AFF30080 
 458              		.align	2
 459              		.p2align 4,,15
 460              		.global	uart_lld_init
 461              		.thumb
 462              		.thumb_func
 463              		.type	uart_lld_init, %function
 464              	uart_lld_init:
 465              	.LFB64:
 466              		.loc 1 470 0
 467              		.cfi_startproc
 468              		@ args = 0, pretend = 0, frame = 0
 469              		@ frame_needed = 0, uses_anonymous_args = 0
 470 0000 10B5     		push	{r4, lr}
 471              		.cfi_def_cfa_offset 8
 472              		.cfi_offset 4, -8
 473              		.cfi_offset 14, -4
 474              		.loc 1 481 0
 475 0002 40F20004 		movw	r4, #:lower16:.LANCHOR0
 476 0006 C0F20004 		movt	r4, #:upper16:.LANCHOR0
 477 000a 2046     		mov	r0, r4
 478 000c FFF7FEFF 		bl	uartObjectInit
 479              	.LVL34:
 480              		.loc 1 484 0
 481 0010 064B     		ldr	r3, .L72
 482              		.loc 1 482 0
 483 0012 4FF48842 		mov	r2, #17408
 484 0016 C4F20002 		movt	r2, 16384
 485              		.loc 1 483 0
 486 001a 0820     		movs	r0, #8
 487              		.loc 1 485 0
 488 001c 03F10C01 		add	r1, r3, #12
 489              		.loc 1 482 0
 490 0020 A260     		str	r2, [r4, #8]
 491              		.loc 1 483 0
 492 0022 E060     		str	r0, [r4, #12]
 493              		.loc 1 484 0
 494 0024 2361     		str	r3, [r4, #16]
 495              		.loc 1 485 0
 496 0026 6161     		str	r1, [r4, #20]
 497 0028 10BD     		pop	{r4, pc}
 498              	.L73:
 499 002a 00BF     		.align	2
 500              	.L72:
 501 002c 3C000000 		.word	_stm32_dma_streams+60
 502              		.cfi_endproc
 503              	.LFE64:
 504              		.size	uart_lld_init, .-uart_lld_init
 505              		.section	.text.uart_lld_start,"ax",%progbits
 506              		.align	2
 507              		.p2align 4,,15
 508              		.global	uart_lld_start
 509              		.thumb
ARM GAS  /tmp/ccJfjU4P.s 			page 10


 510              		.thumb_func
 511              		.type	uart_lld_start, %function
 512              	uart_lld_start:
 513              	.LFB65:
 514              		.loc 1 527 0
 515              		.cfi_startproc
 516              		@ args = 0, pretend = 0, frame = 0
 517              		@ frame_needed = 0, uses_anonymous_args = 0
 518              	.LVL35:
 519 0000 38B5     		push	{r3, r4, r5, lr}
 520              		.cfi_def_cfa_offset 16
 521              		.cfi_offset 3, -16
 522              		.cfi_offset 4, -12
 523              		.cfi_offset 5, -8
 524              		.cfi_offset 14, -4
 525              		.loc 1 529 0
 526 0002 0378     		ldrb	r3, [r0]	@ zero_extendqisi2
 527              		.loc 1 527 0
 528 0004 0446     		mov	r4, r0
 529              		.loc 1 529 0
 530 0006 012B     		cmp	r3, #1
 531 0008 3AD0     		beq	.L80
 532              	.LVL36:
 533              	.L75:
 534              		.loc 1 681 0
 535 000a 0023     		movs	r3, #0
 536 000c A370     		strb	r3, [r4, #2]
 537              		.loc 1 682 0
 538 000e 6370     		strb	r3, [r4, #1]
 539              	.LVL37:
 540              	.LBB23:
 541              	.LBB24:
 542              		.loc 1 204 0
 543 0010 2046     		mov	r0, r4
 544              		.loc 1 201 0
 545 0012 A568     		ldr	r5, [r4, #8]
 546              	.LVL38:
 547              		.loc 1 204 0
 548 0014 FFF7FEFF 		bl	usart_stop
 549              	.LVL39:
 550              		.loc 1 210 0
 551 0018 A268     		ldr	r2, [r4, #8]
 552 001a 4FF46053 		mov	r3, #14336
 553 001e C4F20103 		movt	r3, 16385
 554 0022 9A42     		cmp	r2, r3
 555              		.loc 1 212 0
 556 0024 6268     		ldr	r2, [r4, #4]
 557 0026 07BF     		ittee	eq
 558 0028 4FF45853 		moveq	r3, #13824
 559 002c 5269     		ldreq	r2, [r2, #20]
 560              		.loc 1 214 0
 561 002e 5269     		ldrne	r2, [r2, #20]
 562 0030 4FF4D853 		movne	r3, #6912
 563              		.loc 1 212 0
 564 0034 0CBF     		ite	eq
 565 0036 C0F26E13 		movteq	r3, 366
 566              		.loc 1 214 0
ARM GAS  /tmp/ccJfjU4P.s 			page 11


 567 003a C0F2B703 		movtne	r3, 183
 568 003e B3FBF2F3 		udiv	r3, r3, r2
 569 0042 9BB2     		uxth	r3, r3
 570 0044 2B81     		strh	r3, [r5, #8]	@ movhi
 571              		.loc 1 219 0
 572 0046 0023     		movs	r3, #0
 573              		.loc 1 217 0
 574 0048 2A88     		ldrh	r2, [r5]
 575              		.loc 1 218 0
 576 004a AA88     		ldrh	r2, [r5, #4]
 577              		.loc 1 219 0
 578 004c 2B80     		strh	r3, [r5]	@ movhi
 579              		.loc 1 223 0
 580 004e 6368     		ldr	r3, [r4, #4]
 581              		.loc 1 233 0
 582 0050 2046     		mov	r0, r4
 583              		.loc 1 223 0
 584 0052 5B8B     		ldrh	r3, [r3, #26]
 585 0054 43F04003 		orr	r3, r3, #64
 586 0058 9BB2     		uxth	r3, r3
 587 005a 2B82     		strh	r3, [r5, #16]	@ movhi
 588              		.loc 1 224 0
 589 005c 6368     		ldr	r3, [r4, #4]
 590 005e 9B8B     		ldrh	r3, [r3, #28]
 591 0060 43F0C103 		orr	r3, r3, #193
 592 0064 9BB2     		uxth	r3, r3
 593 0066 AB82     		strh	r3, [r5, #20]	@ movhi
 594              	.LVL40:
 595              		.loc 1 230 0
 596 0068 6368     		ldr	r3, [r4, #4]
 597 006a 1B8B     		ldrh	r3, [r3, #24]
 598 006c 43F40453 		orr	r3, r3, #8448
 599 0070 43F00C03 		orr	r3, r3, #12
 600 0074 9BB2     		uxth	r3, r3
 601 0076 AB81     		strh	r3, [r5, #12]	@ movhi
 602              	.LBE24:
 603              	.LBE23:
 604              		.loc 1 684 0
 605 0078 BDE83840 		pop	{r3, r4, r5, lr}
 606              	.LVL41:
 607              	.LBB26:
 608              	.LBB25:
 609              		.loc 1 233 0
 610 007c FFF7FEBF 		b	set_rx_idle_loop
 611              	.LVL42:
 612              	.L80:
 613              	.LBE25:
 614              	.LBE26:
 615              		.loc 1 552 0
 616 0080 40F20003 		movw	r3, #:lower16:.LANCHOR0
 617 0084 C0F20003 		movt	r3, #:upper16:.LANCHOR0
 618 0088 9842     		cmp	r0, r3
 619 008a 17D0     		beq	.L81
 620              	.LVL43:
 621              	.L76:
 622              		.loc 1 674 0
 623 008c 6368     		ldr	r3, [r4, #4]
ARM GAS  /tmp/ccJfjU4P.s 			page 12


 624              		.loc 1 676 0
 625 008e 2269     		ldr	r2, [r4, #16]
 626              		.loc 1 674 0
 627 0090 1B8B     		ldrh	r3, [r3, #24]
 628 0092 03F4A053 		and	r3, r3, #5120
 629 0096 B3F5805F 		cmp	r3, #4096
 630              		.loc 1 675 0
 631 009a 02BF     		ittt	eq
 632 009c E368     		ldreq	r3, [r4, #12]
 633 009e 43F4A063 		orreq	r3, r3, #1280
 634 00a2 E360     		streq	r3, [r4, #12]
 635              		.loc 1 676 0
 636 00a4 A368     		ldr	r3, [r4, #8]
 637 00a6 1268     		ldr	r2, [r2]
 638 00a8 0433     		adds	r3, r3, #4
 639 00aa 9360     		str	r3, [r2, #8]
 640              		.loc 1 677 0
 641 00ac 6269     		ldr	r2, [r4, #20]
 642 00ae A368     		ldr	r3, [r4, #8]
 643 00b0 1168     		ldr	r1, [r2]
 644 00b2 0433     		adds	r3, r3, #4
 645              		.loc 1 678 0
 646 00b4 0022     		movs	r2, #0
 647              		.loc 1 677 0
 648 00b6 8B60     		str	r3, [r1, #8]
 649              		.loc 1 678 0
 650 00b8 2283     		strh	r2, [r4, #24]	@ movhi
 651 00ba A6E7     		b	.L75
 652              	.LVL44:
 653              	.L81:
 654              	.LBB27:
 655              		.loc 1 554 0
 656 00bc 40F20002 		movw	r2, #:lower16:uart_lld_serve_rx_end_irq
 657 00c0 2346     		mov	r3, r4
 658 00c2 C0F20002 		movt	r2, #:upper16:uart_lld_serve_rx_end_irq
 659 00c6 0C21     		movs	r1, #12
 660 00c8 0069     		ldr	r0, [r0, #16]
 661              	.LVL45:
 662 00ca FFF7FEFF 		bl	dmaStreamAllocate
 663              	.LVL46:
 664              		.loc 1 559 0
 665 00ce 40F20002 		movw	r2, #:lower16:uart_lld_serve_tx_end_irq
 666 00d2 2346     		mov	r3, r4
 667 00d4 C0F20002 		movt	r2, #:upper16:uart_lld_serve_tx_end_irq
 668 00d8 6069     		ldr	r0, [r4, #20]
 669 00da 0C21     		movs	r1, #12
 670 00dc FFF7FEFF 		bl	dmaStreamAllocate
 671              	.LVL47:
 672              		.loc 1 564 0
 673 00e0 4FF48053 		mov	r3, #4096
 674 00e4 C4F20203 		movt	r3, 16386
 675 00e8 DA69     		ldr	r2, [r3, #28]
 676              		.loc 1 565 0
 677 00ea 2620     		movs	r0, #38
 678              		.loc 1 564 0
 679 00ec 42F40032 		orr	r2, r2, #131072
 680 00f0 DA61     		str	r2, [r3, #28]
ARM GAS  /tmp/ccJfjU4P.s 			page 13


 681              		.loc 1 565 0
 682 00f2 C021     		movs	r1, #192
 683 00f4 FFF7FEFF 		bl	nvicEnableVector
 684              	.LVL48:
 685 00f8 C8E7     		b	.L76
 686              	.LBE27:
 687              		.cfi_endproc
 688              	.LFE65:
 689              		.size	uart_lld_start, .-uart_lld_start
 690 00fa 00BFAFF3 		.section	.text.uart_lld_stop,"ax",%progbits
 690      0080
 691              		.align	2
 692              		.p2align 4,,15
 693              		.global	uart_lld_stop
 694              		.thumb
 695              		.thumb_func
 696              		.type	uart_lld_stop, %function
 697              	uart_lld_stop:
 698              	.LFB66:
 699              		.loc 1 693 0
 700              		.cfi_startproc
 701              		@ args = 0, pretend = 0, frame = 0
 702              		@ frame_needed = 0, uses_anonymous_args = 0
 703              	.LVL49:
 704 0000 10B5     		push	{r4, lr}
 705              		.cfi_def_cfa_offset 8
 706              		.cfi_offset 4, -8
 707              		.cfi_offset 14, -4
 708              		.loc 1 695 0
 709 0002 0378     		ldrb	r3, [r0]	@ zero_extendqisi2
 710              		.loc 1 693 0
 711 0004 0446     		mov	r4, r0
 712              		.loc 1 695 0
 713 0006 022B     		cmp	r3, #2
 714 0008 00D0     		beq	.L86
 715              	.LVL50:
 716              	.L82:
 717 000a 10BD     		pop	{r4, pc}
 718              	.LVL51:
 719              	.L86:
 720              		.loc 1 696 0
 721 000c FFF7FEFF 		bl	usart_stop
 722              	.LVL52:
 723              		.loc 1 697 0
 724 0010 2069     		ldr	r0, [r4, #16]
 725 0012 FFF7FEFF 		bl	dmaStreamRelease
 726              	.LVL53:
 727              		.loc 1 698 0
 728 0016 6069     		ldr	r0, [r4, #20]
 729 0018 FFF7FEFF 		bl	dmaStreamRelease
 730              	.LVL54:
 731              		.loc 1 709 0
 732 001c 40F20003 		movw	r3, #:lower16:.LANCHOR0
 733 0020 C0F20003 		movt	r3, #:upper16:.LANCHOR0
 734 0024 9C42     		cmp	r4, r3
 735 0026 F0D1     		bne	.L82
 736              		.loc 1 710 0
ARM GAS  /tmp/ccJfjU4P.s 			page 14


 737 0028 2620     		movs	r0, #38
 738 002a FFF7FEFF 		bl	nvicDisableVector
 739              	.LVL55:
 740              		.loc 1 711 0
 741 002e 4FF48053 		mov	r3, #4096
 742 0032 C4F20203 		movt	r3, 16386
 743 0036 DA69     		ldr	r2, [r3, #28]
 744 0038 22F40032 		bic	r2, r2, #131072
 745 003c DA61     		str	r2, [r3, #28]
 746              		.loc 1 712 0
 747 003e E4E7     		b	.L82
 748              		.cfi_endproc
 749              	.LFE66:
 750              		.size	uart_lld_stop, .-uart_lld_stop
 751              		.section	.text.uart_lld_start_send,"ax",%progbits
 752              		.align	2
 753              		.p2align 4,,15
 754              		.global	uart_lld_start_send
 755              		.thumb
 756              		.thumb_func
 757              		.type	uart_lld_start_send, %function
 758              	uart_lld_start_send:
 759              	.LFB67:
 760              		.loc 1 761 0
 761              		.cfi_startproc
 762              		@ args = 0, pretend = 0, frame = 0
 763              		@ frame_needed = 0, uses_anonymous_args = 0
 764              		@ link register save eliminated.
 765              	.LVL56:
 766              		.loc 1 764 0
 767 0000 4369     		ldr	r3, [r0, #20]
 768 0002 1B68     		ldr	r3, [r3]
 769 0004 DA60     		str	r2, [r3, #12]
 770              		.loc 1 765 0
 771 0006 4369     		ldr	r3, [r0, #20]
 772 0008 1B68     		ldr	r3, [r3]
 773 000a 5960     		str	r1, [r3, #4]
 774              		.loc 1 766 0
 775 000c 4269     		ldr	r2, [r0, #20]
 776              	.LVL57:
 777 000e C368     		ldr	r3, [r0, #12]
 778 0010 1268     		ldr	r2, [r2]
 779 0012 43F09203 		orr	r3, r3, #146
 780 0016 1360     		str	r3, [r2]
 781              		.loc 1 768 0
 782 0018 4369     		ldr	r3, [r0, #20]
 783 001a 1B68     		ldr	r3, [r3]
 784 001c 1A68     		ldr	r2, [r3]
 785 001e 42F00102 		orr	r2, r2, #1
 786 0022 1A60     		str	r2, [r3]
 787 0024 7047     		bx	lr
 788              		.cfi_endproc
 789              	.LFE67:
 790              		.size	uart_lld_start_send, .-uart_lld_start_send
 791 0026 00BFAFF3 		.section	.text.uart_lld_stop_send,"ax",%progbits
 791      0080AFF3 
 791      0080
ARM GAS  /tmp/ccJfjU4P.s 			page 15


 792              		.align	2
 793              		.p2align 4,,15
 794              		.global	uart_lld_stop_send
 795              		.thumb
 796              		.thumb_func
 797              		.type	uart_lld_stop_send, %function
 798              	uart_lld_stop_send:
 799              	.LFB68:
 800              		.loc 1 782 0
 801              		.cfi_startproc
 802              		@ args = 0, pretend = 0, frame = 0
 803              		@ frame_needed = 0, uses_anonymous_args = 0
 804              		@ link register save eliminated.
 805              	.LVL58:
 806              		.loc 1 784 0
 807 0000 4369     		ldr	r3, [r0, #20]
 808 0002 0F21     		movs	r1, #15
 809 0004 1B68     		ldr	r3, [r3]
 810 0006 1A68     		ldr	r2, [r3]
 811 0008 22F00F02 		bic	r2, r2, #15
 812 000c 1A60     		str	r2, [r3]
 813 000e 4369     		ldr	r3, [r0, #20]
 814 0010 1A7A     		ldrb	r2, [r3, #8]	@ zero_extendqisi2
 815 0012 5B68     		ldr	r3, [r3, #4]
 816 0014 01FA02F2 		lsl	r2, r1, r2
 817 0018 1A60     		str	r2, [r3]
 818              		.loc 1 785 0
 819 001a 4369     		ldr	r3, [r0, #20]
 820 001c 1B68     		ldr	r3, [r3]
 821 001e 5868     		ldr	r0, [r3, #4]
 822              	.LVL59:
 823              		.loc 1 786 0
 824 0020 7047     		bx	lr
 825              		.cfi_endproc
 826              	.LFE68:
 827              		.size	uart_lld_stop_send, .-uart_lld_stop_send
 828 0022 00BFAFF3 		.section	.text.uart_lld_start_receive,"ax",%progbits
 828      0080AFF3 
 828      0080AFF3 
 828      0080
 829              		.align	2
 830              		.p2align 4,,15
 831              		.global	uart_lld_start_receive
 832              		.thumb
 833              		.thumb_func
 834              		.type	uart_lld_start_receive, %function
 835              	uart_lld_start_receive:
 836              	.LFB69:
 837              		.loc 1 799 0
 838              		.cfi_startproc
 839              		@ args = 0, pretend = 0, frame = 0
 840              		@ frame_needed = 0, uses_anonymous_args = 0
 841              		@ link register save eliminated.
 842              	.LVL60:
 843 0000 30B4     		push	{r4, r5}
 844              		.cfi_def_cfa_offset 8
 845              		.cfi_offset 4, -8
ARM GAS  /tmp/ccJfjU4P.s 			page 16


 846              		.cfi_offset 5, -4
 847              		.loc 1 802 0
 848 0002 0369     		ldr	r3, [r0, #16]
 849 0004 0F24     		movs	r4, #15
 850 0006 1B68     		ldr	r3, [r3]
 851 0008 1D68     		ldr	r5, [r3]
 852 000a 25F00F05 		bic	r5, r5, #15
 853 000e 1D60     		str	r5, [r3]
 854 0010 0369     		ldr	r3, [r0, #16]
 855 0012 1D7A     		ldrb	r5, [r3, #8]	@ zero_extendqisi2
 856 0014 5B68     		ldr	r3, [r3, #4]
 857 0016 AC40     		lsls	r4, r4, r5
 858 0018 1C60     		str	r4, [r3]
 859              		.loc 1 805 0
 860 001a 0369     		ldr	r3, [r0, #16]
 861 001c 1B68     		ldr	r3, [r3]
 862 001e DA60     		str	r2, [r3, #12]
 863              		.loc 1 806 0
 864 0020 0369     		ldr	r3, [r0, #16]
 865 0022 1B68     		ldr	r3, [r3]
 866 0024 5960     		str	r1, [r3, #4]
 867              		.loc 1 807 0
 868 0026 0269     		ldr	r2, [r0, #16]
 869              	.LVL61:
 870 0028 C368     		ldr	r3, [r0, #12]
 871 002a 1268     		ldr	r2, [r2]
 872 002c 43F08203 		orr	r3, r3, #130
 873 0030 1360     		str	r3, [r2]
 874              		.loc 1 809 0
 875 0032 0369     		ldr	r3, [r0, #16]
 876 0034 1B68     		ldr	r3, [r3]
 877 0036 1A68     		ldr	r2, [r3]
 878 0038 42F00102 		orr	r2, r2, #1
 879 003c 1A60     		str	r2, [r3]
 880              		.loc 1 810 0
 881 003e 30BC     		pop	{r4, r5}
 882 0040 7047     		bx	lr
 883              		.cfi_endproc
 884              	.LFE69:
 885              		.size	uart_lld_start_receive, .-uart_lld_start_receive
 886 0042 00BFAFF3 		.section	.text.uart_lld_stop_receive,"ax",%progbits
 886      0080AFF3 
 886      0080AFF3 
 886      0080
 887              		.align	2
 888              		.p2align 4,,15
 889              		.global	uart_lld_stop_receive
 890              		.thumb
 891              		.thumb_func
 892              		.type	uart_lld_stop_receive, %function
 893              	uart_lld_stop_receive:
 894              	.LFB70:
 895              		.loc 1 823 0
 896              		.cfi_startproc
 897              		@ args = 0, pretend = 0, frame = 0
 898              		@ frame_needed = 0, uses_anonymous_args = 0
 899              	.LVL62:
ARM GAS  /tmp/ccJfjU4P.s 			page 17


 900 0000 10B5     		push	{r4, lr}
 901              		.cfi_def_cfa_offset 8
 902              		.cfi_offset 4, -8
 903              		.cfi_offset 14, -4
 904              		.loc 1 826 0
 905 0002 0269     		ldr	r2, [r0, #16]
 906 0004 0F24     		movs	r4, #15
 907 0006 1268     		ldr	r2, [r2]
 908 0008 1168     		ldr	r1, [r2]
 909 000a 21F00F01 		bic	r1, r1, #15
 910 000e 1160     		str	r1, [r2]
 911 0010 0269     		ldr	r2, [r0, #16]
 912 0012 117A     		ldrb	r1, [r2, #8]	@ zero_extendqisi2
 913 0014 5268     		ldr	r2, [r2, #4]
 914 0016 04FA01F1 		lsl	r1, r4, r1
 915 001a 1160     		str	r1, [r2]
 916              		.loc 1 827 0
 917 001c 0369     		ldr	r3, [r0, #16]
 918 001e 1B68     		ldr	r3, [r3]
 919 0020 5C68     		ldr	r4, [r3, #4]
 920              	.LVL63:
 921              		.loc 1 828 0
 922 0022 FFF7FEFF 		bl	set_rx_idle_loop
 923              	.LVL64:
 924              		.loc 1 830 0
 925 0026 2046     		mov	r0, r4
 926 0028 10BD     		pop	{r4, pc}
 927              		.cfi_endproc
 928              	.LFE70:
 929              		.size	uart_lld_stop_receive, .-uart_lld_stop_receive
 930              		.global	UARTD2
 931 002a 00BFAFF3 		.section	.bss.UARTD2,"aw",%nobits
 931      0080
 932              		.align	2
 933              		.set	.LANCHOR0,. + 0
 934              		.type	UARTD2, %object
 935              		.size	UARTD2, 28
 936              	UARTD2:
 937 0000 00000000 		.space	28
 937      00000000 
 937      00000000 
 937      00000000 
 937      00000000 
 938              		.text
 939              	.Letext0:
 940              		.file 2 "/usr/lib/gcc/arm-none-eabi/4.8.2/include/stddef.h"
 941              		.file 3 "/usr/include/newlib/machine/_default_types.h"
 942              		.file 4 "/usr/include/newlib/stdint.h"
 943              		.file 5 "../os/ports/GCC/ARMCMx/chtypes.h"
 944              		.file 6 "../os/hal/platforms/STM32F1xx/stm32f10x.h"
 945              		.file 7 "../os/hal/platforms/STM32F1xx/stm32_dma.h"
 946              		.file 8 "../os/hal/include/uart.h"
 947              		.file 9 "../os/hal/platforms/STM32/USARTv1/uart_lld.h"
 948              		.file 10 "../os/ports/common/ARMCMx/CMSIS/include/core_cm3.h"
 949              		.file 11 "../os/ports/GCC/ARMCMx/chcore_v7m.h"
 950              		.file 12 "../os/ports/common/ARMCMx/nvic.h"