ARM GAS  /tmp/cc0Spldr.s 			page 1


   1              		.syntax unified
   2              		.cpu cortex-m3
   3              		.fpu softvfp
   4              		.eabi_attribute 20, 1
   5              		.eabi_attribute 21, 1
   6              		.eabi_attribute 23, 3
   7              		.eabi_attribute 24, 1
   8              		.eabi_attribute 25, 1
   9              		.eabi_attribute 26, 1
  10              		.eabi_attribute 30, 2
  11              		.eabi_attribute 34, 1
  12              		.eabi_attribute 18, 4
  13              		.thumb
  14              		.file	"uart.c"
  15              		.text
  16              	.Ltext0:
  17              		.cfi_sections	.debug_frame
  18              		.section	.text.uartInit,"ax",%progbits
  19              		.align	2
  20              		.p2align 4,,15
  21              		.global	uartInit
  22              		.thumb
  23              		.thumb_func
  24              		.type	uartInit, %function
  25              	uartInit:
  26              	.LFB56:
  27              		.file 1 "../os/hal/src/uart.c"
  28              		.loc 1 68 0
  29              		.cfi_startproc
  30              		@ args = 0, pretend = 0, frame = 0
  31              		@ frame_needed = 0, uses_anonymous_args = 0
  32              		@ link register save eliminated.
  33              		.loc 1 70 0
  34 0000 FFF7FEBF 		b	uart_lld_init
  35              	.LVL0:
  36              		.cfi_endproc
  37              	.LFE56:
  38              		.size	uartInit, .-uartInit
  39 0004 AFF30080 		.section	.text.uartObjectInit,"ax",%progbits
  39      AFF30080 
  39      AFF30080 
  40              		.align	2
  41              		.p2align 4,,15
  42              		.global	uartObjectInit
  43              		.thumb
  44              		.thumb_func
  45              		.type	uartObjectInit, %function
  46              	uartObjectInit:
  47              	.LFB57:
  48              		.loc 1 80 0
  49              		.cfi_startproc
  50              		@ args = 0, pretend = 0, frame = 0
  51              		@ frame_needed = 0, uses_anonymous_args = 0
  52              		@ link register save eliminated.
  53              	.LVL1:
  54              		.loc 1 83 0
  55 0000 0023     		movs	r3, #0
ARM GAS  /tmp/cc0Spldr.s 			page 2


  56              		.loc 1 82 0
  57 0002 0122     		movs	r2, #1
  58 0004 0270     		strb	r2, [r0]
  59              		.loc 1 83 0
  60 0006 4370     		strb	r3, [r0, #1]
  61              		.loc 1 84 0
  62 0008 8370     		strb	r3, [r0, #2]
  63              		.loc 1 85 0
  64 000a 4360     		str	r3, [r0, #4]
  65 000c 7047     		bx	lr
  66              		.cfi_endproc
  67              	.LFE57:
  68              		.size	uartObjectInit, .-uartObjectInit
  69 000e 00BF     		.section	.text.uartStart,"ax",%progbits
  70              		.align	2
  71              		.p2align 4,,15
  72              		.global	uartStart
  73              		.thumb
  74              		.thumb_func
  75              		.type	uartStart, %function
  76              	uartStart:
  77              	.LFB58:
  78              		.loc 1 100 0
  79              		.cfi_startproc
  80              		@ args = 0, pretend = 0, frame = 0
  81              		@ frame_needed = 0, uses_anonymous_args = 0
  82              	.LVL2:
  83 0000 10B5     		push	{r4, lr}
  84              		.cfi_def_cfa_offset 8
  85              		.cfi_offset 4, -8
  86              		.cfi_offset 14, -4
  87              		.loc 1 100 0
  88 0002 0446     		mov	r4, r0
  89              		.loc 1 104 0
  90              	@ 104 "../os/hal/src/uart.c" 1
  91 0004 FFF7FEFF 		bl      _port_lock
  92              	@ 0 "" 2
  93              		.loc 1 108 0
  94              		.thumb
  95 0008 4160     		str	r1, [r0, #4]
  96              		.loc 1 109 0
  97 000a FFF7FEFF 		bl	uart_lld_start
  98              	.LVL3:
  99              		.loc 1 110 0
 100 000e 0223     		movs	r3, #2
 101 0010 2370     		strb	r3, [r4]
 102              		.loc 1 111 0
 103              	@ 111 "../os/hal/src/uart.c" 1
 104 0012 FFF7FEFF 		bl      _port_unlock
 105              	@ 0 "" 2
 106              		.thumb
 107 0016 10BD     		pop	{r4, pc}
 108              		.cfi_endproc
 109              	.LFE58:
 110              		.size	uartStart, .-uartStart
 111 0018 AFF30080 		.section	.text.uartStop,"ax",%progbits
 111      AFF30080 
ARM GAS  /tmp/cc0Spldr.s 			page 3


 112              		.align	2
 113              		.p2align 4,,15
 114              		.global	uartStop
 115              		.thumb
 116              		.thumb_func
 117              		.type	uartStop, %function
 118              	uartStop:
 119              	.LFB59:
 120              		.loc 1 121 0
 121              		.cfi_startproc
 122              		@ args = 0, pretend = 0, frame = 0
 123              		@ frame_needed = 0, uses_anonymous_args = 0
 124              	.LVL4:
 125 0000 10B5     		push	{r4, lr}
 126              		.cfi_def_cfa_offset 8
 127              		.cfi_offset 4, -8
 128              		.cfi_offset 14, -4
 129              		.loc 1 121 0
 130 0002 0446     		mov	r4, r0
 131              		.loc 1 125 0
 132              	@ 125 "../os/hal/src/uart.c" 1
 133 0004 FFF7FEFF 		bl      _port_lock
 134              	@ 0 "" 2
 135              		.loc 1 129 0
 136              		.thumb
 137 0008 FFF7FEFF 		bl	uart_lld_stop
 138              	.LVL5:
 139              		.loc 1 131 0
 140 000c 0023     		movs	r3, #0
 141              		.loc 1 130 0
 142 000e 0122     		movs	r2, #1
 143 0010 2270     		strb	r2, [r4]
 144              		.loc 1 131 0
 145 0012 6370     		strb	r3, [r4, #1]
 146              		.loc 1 132 0
 147 0014 A370     		strb	r3, [r4, #2]
 148              		.loc 1 133 0
 149              	@ 133 "../os/hal/src/uart.c" 1
 150 0016 FFF7FEFF 		bl      _port_unlock
 151              	@ 0 "" 2
 152              		.thumb
 153 001a 10BD     		pop	{r4, pc}
 154              		.cfi_endproc
 155              	.LFE59:
 156              		.size	uartStop, .-uartStop
 157 001c AFF30080 		.section	.text.uartStartSend,"ax",%progbits
 158              		.align	2
 159              		.p2align 4,,15
 160              		.global	uartStartSend
 161              		.thumb
 162              		.thumb_func
 163              		.type	uartStartSend, %function
 164              	uartStartSend:
 165              	.LFB60:
 166              		.loc 1 147 0
 167              		.cfi_startproc
 168              		@ args = 0, pretend = 0, frame = 0
ARM GAS  /tmp/cc0Spldr.s 			page 4


 169              		@ frame_needed = 0, uses_anonymous_args = 0
 170              	.LVL6:
 171 0000 10B5     		push	{r4, lr}
 172              		.cfi_def_cfa_offset 8
 173              		.cfi_offset 4, -8
 174              		.cfi_offset 14, -4
 175              		.loc 1 147 0
 176 0002 0446     		mov	r4, r0
 177              		.loc 1 152 0
 178              	@ 152 "../os/hal/src/uart.c" 1
 179 0004 FFF7FEFF 		bl      _port_lock
 180              	@ 0 "" 2
 181              		.loc 1 158 0
 182              		.thumb
 183 0008 FFF7FEFF 		bl	uart_lld_start_send
 184              	.LVL7:
 185              		.loc 1 159 0
 186 000c 0123     		movs	r3, #1
 187 000e 6370     		strb	r3, [r4, #1]
 188              		.loc 1 160 0
 189              	@ 160 "../os/hal/src/uart.c" 1
 190 0010 FFF7FEFF 		bl      _port_unlock
 191              	@ 0 "" 2
 192              		.thumb
 193 0014 10BD     		pop	{r4, pc}
 194              		.cfi_endproc
 195              	.LFE60:
 196              		.size	uartStartSend, .-uartStartSend
 197 0016 00BFAFF3 		.section	.text.uartStartSendI,"ax",%progbits
 197      0080AFF3 
 197      0080
 198              		.align	2
 199              		.p2align 4,,15
 200              		.global	uartStartSendI
 201              		.thumb
 202              		.thumb_func
 203              		.type	uartStartSendI, %function
 204              	uartStartSendI:
 205              	.LFB61:
 206              		.loc 1 175 0
 207              		.cfi_startproc
 208              		@ args = 0, pretend = 0, frame = 0
 209              		@ frame_needed = 0, uses_anonymous_args = 0
 210              	.LVL8:
 211 0000 10B5     		push	{r4, lr}
 212              		.cfi_def_cfa_offset 8
 213              		.cfi_offset 4, -8
 214              		.cfi_offset 14, -4
 215              		.loc 1 175 0
 216 0002 0446     		mov	r4, r0
 217              		.loc 1 185 0
 218 0004 FFF7FEFF 		bl	uart_lld_start_send
 219              	.LVL9:
 220              		.loc 1 186 0
 221 0008 0123     		movs	r3, #1
 222 000a 6370     		strb	r3, [r4, #1]
 223 000c 10BD     		pop	{r4, pc}
ARM GAS  /tmp/cc0Spldr.s 			page 5


 224              		.cfi_endproc
 225              	.LFE61:
 226              		.size	uartStartSendI, .-uartStartSendI
 227 000e 00BF     		.section	.text.uartStopSend,"ax",%progbits
 228              		.align	2
 229              		.p2align 4,,15
 230              		.global	uartStopSend
 231              		.thumb
 232              		.thumb_func
 233              		.type	uartStopSend, %function
 234              	uartStopSend:
 235              	.LFB62:
 236              		.loc 1 201 0
 237              		.cfi_startproc
 238              		@ args = 0, pretend = 0, frame = 0
 239              		@ frame_needed = 0, uses_anonymous_args = 0
 240              	.LVL10:
 241 0000 10B5     		push	{r4, lr}
 242              		.cfi_def_cfa_offset 8
 243              		.cfi_offset 4, -8
 244              		.cfi_offset 14, -4
 245              		.loc 1 201 0
 246 0002 0446     		mov	r4, r0
 247              		.loc 1 206 0
 248              	@ 206 "../os/hal/src/uart.c" 1
 249 0004 FFF7FEFF 		bl      _port_lock
 250              	@ 0 "" 2
 251              		.loc 1 209 0
 252              		.thumb
 253 0008 4378     		ldrb	r3, [r0, #1]	@ zero_extendqisi2
 254 000a 012B     		cmp	r3, #1
 255              		.loc 1 214 0
 256 000c 18BF     		it	ne
 257 000e 0020     		movne	r0, #0
 258              	.LVL11:
 259              		.loc 1 209 0
 260 0010 02D0     		beq	.L11
 261              	.LVL12:
 262              		.loc 1 215 0
 263              	@ 215 "../os/hal/src/uart.c" 1
 264 0012 FFF7FEFF 		bl      _port_unlock
 265              	@ 0 "" 2
 266              		.loc 1 217 0
 267              		.thumb
 268 0016 10BD     		pop	{r4, pc}
 269              	.LVL13:
 270              	.L11:
 271              		.loc 1 210 0
 272 0018 2046     		mov	r0, r4
 273 001a FFF7FEFF 		bl	uart_lld_stop_send
 274              	.LVL14:
 275              		.loc 1 211 0
 276 001e 0023     		movs	r3, #0
 277 0020 6370     		strb	r3, [r4, #1]
 278              		.loc 1 215 0
 279              	@ 215 "../os/hal/src/uart.c" 1
 280 0022 FFF7FEFF 		bl      _port_unlock
ARM GAS  /tmp/cc0Spldr.s 			page 6


 281              	@ 0 "" 2
 282              		.loc 1 217 0
 283              		.thumb
 284 0026 10BD     		pop	{r4, pc}
 285              		.cfi_endproc
 286              	.LFE62:
 287              		.size	uartStopSend, .-uartStopSend
 288 0028 AFF30080 		.section	.text.uartStopSendI,"ax",%progbits
 288      AFF30080 
 289              		.align	2
 290              		.p2align 4,,15
 291              		.global	uartStopSendI
 292              		.thumb
 293              		.thumb_func
 294              		.type	uartStopSendI, %function
 295              	uartStopSendI:
 296              	.LFB63:
 297              		.loc 1 232 0
 298              		.cfi_startproc
 299              		@ args = 0, pretend = 0, frame = 0
 300              		@ frame_needed = 0, uses_anonymous_args = 0
 301              	.LVL15:
 302 0000 10B5     		push	{r4, lr}
 303              		.cfi_def_cfa_offset 8
 304              		.cfi_offset 4, -8
 305              		.cfi_offset 14, -4
 306              		.loc 1 238 0
 307 0002 4378     		ldrb	r3, [r0, #1]	@ zero_extendqisi2
 308              		.loc 1 232 0
 309 0004 0446     		mov	r4, r0
 310              		.loc 1 238 0
 311 0006 012B     		cmp	r3, #1
 312 0008 01D0     		beq	.L15
 313              		.loc 1 243 0
 314 000a 0020     		movs	r0, #0
 315              	.LVL16:
 316              		.loc 1 244 0
 317 000c 10BD     		pop	{r4, pc}
 318              	.LVL17:
 319              	.L15:
 320              	.LBB2:
 321              		.loc 1 239 0
 322 000e FFF7FEFF 		bl	uart_lld_stop_send
 323              	.LVL18:
 324              		.loc 1 240 0
 325 0012 0023     		movs	r3, #0
 326 0014 6370     		strb	r3, [r4, #1]
 327              		.loc 1 241 0
 328 0016 10BD     		pop	{r4, pc}
 329              	.LBE2:
 330              		.cfi_endproc
 331              	.LFE63:
 332              		.size	uartStopSendI, .-uartStopSendI
 333 0018 AFF30080 		.section	.text.uartStartReceive,"ax",%progbits
 333      AFF30080 
 334              		.align	2
 335              		.p2align 4,,15
ARM GAS  /tmp/cc0Spldr.s 			page 7


 336              		.global	uartStartReceive
 337              		.thumb
 338              		.thumb_func
 339              		.type	uartStartReceive, %function
 340              	uartStartReceive:
 341              	.LFB64:
 342              		.loc 1 257 0
 343              		.cfi_startproc
 344              		@ args = 0, pretend = 0, frame = 0
 345              		@ frame_needed = 0, uses_anonymous_args = 0
 346              	.LVL19:
 347 0000 10B5     		push	{r4, lr}
 348              		.cfi_def_cfa_offset 8
 349              		.cfi_offset 4, -8
 350              		.cfi_offset 14, -4
 351              		.loc 1 257 0
 352 0002 0446     		mov	r4, r0
 353              		.loc 1 262 0
 354              	@ 262 "../os/hal/src/uart.c" 1
 355 0004 FFF7FEFF 		bl      _port_lock
 356              	@ 0 "" 2
 357              		.loc 1 268 0
 358              		.thumb
 359 0008 FFF7FEFF 		bl	uart_lld_start_receive
 360              	.LVL20:
 361              		.loc 1 269 0
 362 000c 0123     		movs	r3, #1
 363 000e A370     		strb	r3, [r4, #2]
 364              		.loc 1 270 0
 365              	@ 270 "../os/hal/src/uart.c" 1
 366 0010 FFF7FEFF 		bl      _port_unlock
 367              	@ 0 "" 2
 368              		.thumb
 369 0014 10BD     		pop	{r4, pc}
 370              		.cfi_endproc
 371              	.LFE64:
 372              		.size	uartStartReceive, .-uartStartReceive
 373 0016 00BFAFF3 		.section	.text.uartStartReceiveI,"ax",%progbits
 373      0080AFF3 
 373      0080
 374              		.align	2
 375              		.p2align 4,,15
 376              		.global	uartStartReceiveI
 377              		.thumb
 378              		.thumb_func
 379              		.type	uartStartReceiveI, %function
 380              	uartStartReceiveI:
 381              	.LFB65:
 382              		.loc 1 285 0
 383              		.cfi_startproc
 384              		@ args = 0, pretend = 0, frame = 0
 385              		@ frame_needed = 0, uses_anonymous_args = 0
 386              	.LVL21:
 387 0000 10B5     		push	{r4, lr}
 388              		.cfi_def_cfa_offset 8
 389              		.cfi_offset 4, -8
 390              		.cfi_offset 14, -4
ARM GAS  /tmp/cc0Spldr.s 			page 8


 391              		.loc 1 285 0
 392 0002 0446     		mov	r4, r0
 393              		.loc 1 295 0
 394 0004 FFF7FEFF 		bl	uart_lld_start_receive
 395              	.LVL22:
 396              		.loc 1 296 0
 397 0008 0123     		movs	r3, #1
 398 000a A370     		strb	r3, [r4, #2]
 399 000c 10BD     		pop	{r4, pc}
 400              		.cfi_endproc
 401              	.LFE65:
 402              		.size	uartStartReceiveI, .-uartStartReceiveI
 403 000e 00BF     		.section	.text.uartStopReceive,"ax",%progbits
 404              		.align	2
 405              		.p2align 4,,15
 406              		.global	uartStopReceive
 407              		.thumb
 408              		.thumb_func
 409              		.type	uartStopReceive, %function
 410              	uartStopReceive:
 411              	.LFB66:
 412              		.loc 1 311 0
 413              		.cfi_startproc
 414              		@ args = 0, pretend = 0, frame = 0
 415              		@ frame_needed = 0, uses_anonymous_args = 0
 416              	.LVL23:
 417 0000 10B5     		push	{r4, lr}
 418              		.cfi_def_cfa_offset 8
 419              		.cfi_offset 4, -8
 420              		.cfi_offset 14, -4
 421              		.loc 1 311 0
 422 0002 0446     		mov	r4, r0
 423              		.loc 1 316 0
 424              	@ 316 "../os/hal/src/uart.c" 1
 425 0004 FFF7FEFF 		bl      _port_lock
 426              	@ 0 "" 2
 427              		.loc 1 320 0
 428              		.thumb
 429 0008 8378     		ldrb	r3, [r0, #2]	@ zero_extendqisi2
 430 000a 012B     		cmp	r3, #1
 431              		.loc 1 325 0
 432 000c 18BF     		it	ne
 433 000e 0020     		movne	r0, #0
 434              	.LVL24:
 435              		.loc 1 320 0
 436 0010 02D0     		beq	.L21
 437              	.LVL25:
 438              		.loc 1 326 0
 439              	@ 326 "../os/hal/src/uart.c" 1
 440 0012 FFF7FEFF 		bl      _port_unlock
 441              	@ 0 "" 2
 442              		.loc 1 328 0
 443              		.thumb
 444 0016 10BD     		pop	{r4, pc}
 445              	.LVL26:
 446              	.L21:
 447              		.loc 1 321 0
ARM GAS  /tmp/cc0Spldr.s 			page 9


 448 0018 2046     		mov	r0, r4
 449 001a FFF7FEFF 		bl	uart_lld_stop_receive
 450              	.LVL27:
 451              		.loc 1 322 0
 452 001e 0023     		movs	r3, #0
 453 0020 A370     		strb	r3, [r4, #2]
 454              		.loc 1 326 0
 455              	@ 326 "../os/hal/src/uart.c" 1
 456 0022 FFF7FEFF 		bl      _port_unlock
 457              	@ 0 "" 2
 458              		.loc 1 328 0
 459              		.thumb
 460 0026 10BD     		pop	{r4, pc}
 461              		.cfi_endproc
 462              	.LFE66:
 463              		.size	uartStopReceive, .-uartStopReceive
 464 0028 AFF30080 		.section	.text.uartStopReceiveI,"ax",%progbits
 464      AFF30080 
 465              		.align	2
 466              		.p2align 4,,15
 467              		.global	uartStopReceiveI
 468              		.thumb
 469              		.thumb_func
 470              		.type	uartStopReceiveI, %function
 471              	uartStopReceiveI:
 472              	.LFB67:
 473              		.loc 1 343 0
 474              		.cfi_startproc
 475              		@ args = 0, pretend = 0, frame = 0
 476              		@ frame_needed = 0, uses_anonymous_args = 0
 477              	.LVL28:
 478 0000 10B5     		push	{r4, lr}
 479              		.cfi_def_cfa_offset 8
 480              		.cfi_offset 4, -8
 481              		.cfi_offset 14, -4
 482              		.loc 1 350 0
 483 0002 8378     		ldrb	r3, [r0, #2]	@ zero_extendqisi2
 484              		.loc 1 343 0
 485 0004 0446     		mov	r4, r0
 486              		.loc 1 350 0
 487 0006 012B     		cmp	r3, #1
 488 0008 01D0     		beq	.L25
 489              		.loc 1 355 0
 490 000a 0020     		movs	r0, #0
 491              	.LVL29:
 492              		.loc 1 356 0
 493 000c 10BD     		pop	{r4, pc}
 494              	.LVL30:
 495              	.L25:
 496              	.LBB3:
 497              		.loc 1 351 0
 498 000e FFF7FEFF 		bl	uart_lld_stop_receive
 499              	.LVL31:
 500              		.loc 1 352 0
 501 0012 0023     		movs	r3, #0
 502 0014 A370     		strb	r3, [r4, #2]
 503              		.loc 1 353 0
ARM GAS  /tmp/cc0Spldr.s 			page 10


 504 0016 10BD     		pop	{r4, pc}
 505              	.LBE3:
 506              		.cfi_endproc
 507              	.LFE67:
 508              		.size	uartStopReceiveI, .-uartStopReceiveI
 509 0018 AFF30080 		.text
 509      AFF30080 
 510              	.Letext0:
 511              		.file 2 "/usr/lib/gcc/arm-none-eabi/4.8.2/include/stddef.h"
 512              		.file 3 "/usr/include/newlib/machine/_default_types.h"
 513              		.file 4 "/usr/include/newlib/stdint.h"
 514              		.file 5 "../os/hal/platforms/STM32F1xx/stm32f10x.h"
 515              		.file 6 "../os/hal/platforms/STM32F1xx/stm32_dma.h"
 516              		.file 7 "../os/hal/include/uart.h"
 517              		.file 8 "../os/hal/platforms/STM32/USARTv1/uart_lld.h"
 518              		.file 9 "../os/ports/common/ARMCMx/CMSIS/include/core_cm3.h"