ARM GAS  /tmp/cc0Spldr.s 			page 1


   1              		.syntax unified
   2              		.cpu cortex-m3
   3              		.fpu softvfp
   4              		.eabi_attribute 20, 1
   5              		.eabi_attribute 21, 1
   6              		.eabi_attribute 23, 3
   7              		.eabi_attribute 24, 1
   8              		.eabi_attribute 25, 1
   9              		.eabi_attribute 26, 1
  10              		.eabi_attribute 30, 2
  11              		.eabi_attribute 34, 1
  12              		.eabi_attribute 18, 4
  13              		.thumb
  14              		.file	"uart.c"
  15              		.text
  16              	.Ltext0:
  17              		.cfi_sections	.debug_frame
  18              		.section	.text.uartInit,"ax",%progbits
  19              		.align	2
  20              		.p2align 4,,15
  21              		.global	uartInit
  22              		.thumb
  23              		.thumb_func
  24              		.type	uartInit, %function
  25              	uartInit:
  26              	.LFB56:
  27              		.file 1 "../os/hal/src/uart.c"
  28              		.loc 1 68 0
  29              		.cfi_startproc
  30              		@ args = 0, pretend = 0, frame = 0
  31              		@ frame_needed = 0, uses_anonymous_args = 0
  32              		@ link register save eliminated.
  33              		.loc 1 70 0
  34 0000 FFF7FEBF 		b	uart_lld_init
  35              	.LVL0:
  36              		.cfi_endproc
  37              	.LFE56:
  38              		.size	uartInit, .-uartInit
  39 0004 AFF30080 		.section	.text.uartObjectInit,"ax",%progbits
  39      AFF30080 
  39      AFF30080 
  40              		.align	2
  41              		.p2align 4,,15
  42              		.global	uartObjectInit
  43              		.thumb
  44              		.thumb_func
  45              		.type	uartObjectInit, %function
  46              	uartObjectInit:
  47              	.LFB57:
  48              		.loc 1 80 0
  49              		.cfi_startproc
  50              		@ args = 0, pretend = 0, frame = 0
  51              		@ frame_needed = 0, uses_anonymous_args = 0
  52              		@ link register save eliminated.
  53              	.LVL1:
  54              		.loc 1 83 0
  55 0000 0023     		movs	r3, #0
ARM GAS  /tmp/cc0Spldr.s 			page 2


  56              		.loc 1 82 0
  57 0002 0122     		movs	r2, #1
  58 0004 0270     		strb	r2, [r0]
  59              		.loc 1 83 0
  60 0006 4370     		strb	r3, [r0, #1]
  61              		.loc 1 84 0
  62 0008 8370     		strb	r3, [r0, #2]
  63              		.loc 1 85 0
  64 000a 4360     		str	r3, [r0, #4]
  65 000c 7047     		bx	lr
  66              		.cfi_endproc
  67              	.LFE57:
  68              		.size	uartObjectInit, .-uartObjectInit
  69 000e 00BF     		.section	.text.uartStart,"ax",%progbits
  70              		.align	2
  71              		.p2align 4,,15
  72              		.global	uartStart
  73              		.thumb
  74              		.thumb_func
  75              		.type	uartStart, %function
  76              	uartStart:
  77              	.LFB58:
  78              		.loc 1 100 0
  79              		.cfi_startproc
  80              		@ args = 0, pretend = 0, frame = 0
  81              		@ frame_needed = 0, uses_anonymous_args = 0
  82              	.LVL2:
  83 0000 10B5     		push	{r4, lr}
  84              		.cfi_def_cfa_offset 8
  85              		.cfi_offset 4, -8
  86              		.cfi_offset 14, -4
  87              		.loc 1 100 0
  88 0002 0446     		mov	r4, r0
  89              		.loc 1 104 0
  90              	@ 104 "../os/hal/src/uart.c" 1
  91 0004 FFF7FEFF 		bl      _port_lock
  92              	@ 0 "" 2
  93              		.loc 1 108 0
  94              		.thumb
  95 0008 4160     		str	r1, [r0, #4]
  96              		.loc 1 109 0
  97 000a FFF7FEFF 		bl	uart_lld_start
  98              	.LVL3:
  99              		.loc 1 110 0
 100 000e 0223     		movs	r3, #2
 101 0010 2370     		strb	r3, [r4]
 102              		.loc 1 111 0
 103              	@ 111 "../os/hal/src/uart.c" 1
 104 0012 FFF7FEFF 		bl      _port_unlock
 105              	@ 0 "" 2
 106              		.thumb
 107 0016 10BD     		pop	{r4, pc}
 108              		.cfi_endproc
 109              	.LFE58:
 110              		.size	uartStart, .-uartStart
 111 0018 AFF30080 		.section	.text.uartStop,"ax",%progbits
 111      AFF30080 
ARM GAS  /tmp/cc0Spldr.s 			page 3


 112              		.align	2
 113              		.p2align 4,,15
 114              		.global	uartStop
 115              		.thumb
 116              		.thumb_func
 117              		.type	uartStop, %function
 118              	uartStop:
 119              	.LFB59:
 120              		.loc 1 121 0
 121              		.cfi_startproc
 122              		@ args = 0, pretend = 0, frame = 0
 123              		@ frame_needed = 0, uses_anonymous_args = 0
 124              	.LVL4:
 125 0000 10B5     		push	{r4, lr}
 126              		.cfi_def_cfa_offset 8
 127              		.cfi_offset 4, -8
 128              		.cfi_offset 14, -4
 129              		.loc 1 121 0
 130 0002 0446     		mov	r4, r0
 131              		.loc 1 125 0
 132              	@ 125 "../os/hal/src/uart.c" 1
 133 0004 FFF7FEFF 		bl      _port_lock
 134              	@ 0 "" 2
 135              		.loc 1 129 0
 136              		.thumb
 137 0008 FFF7FEFF 		bl	uart_lld_stop
 138              	.LVL5:
 139              		.loc 1 131 0
 140 000c 0023     		movs	r3, #0
 141              		.loc 1 130 0
 142 000e 0122     		movs	r2, #1
 143 0010 2270     		strb	r2, [r4]
 144              		.loc 1 131 0
 145 0012 6370     		strb	r3, [r4, #1]
 146              		.loc 1 132 0
 147 0014 A370     		strb	r3, [r4, #2]
 148              		.loc 1 133 0
 149              	@ 133 "../os/hal/src/uart.c" 1
 150 0016 FFF7FEFF 		bl      _port_unlock
 151              	@ 0 "" 2
 152              		.thumb
 153 001a 10BD     		pop	{r4, pc}
 154              		.cfi_endproc
 155              	.LFE59:
 156              		.size	uartStop, .-uartStop
 157 001c AFF30080 		.section	.text.uartStartSend,"ax",%progbits
 158              		.align	2
 159              		.p2align 4,,15
 160              		.global	uartStartSend
 161              		.thumb
 162              		.thumb_func
 163              		.type	uartStartSend, %function
 164              	uartStartSend:
 165              	.LFB60:
 166              		.loc 1 147 0
 167              		.cfi_startproc
 168              		@ args = 0, pretend = 0, frame = 0
ARM GAS  /tmp/cc0Spldr.s 			page 4


 169              		@ frame_needed = 0, uses_anonymous_args = 0
 170              	.LVL6:
 171 0000 10B5     		push	{r4, lr}
 172              		.cfi_def_cfa_offset 8
 173              		.cfi_offset 4, -8
 174              		.cfi_offset 14, -4
 175              		.loc 1 147 0
 176 0002 0446     		mov	r4, r0
 177              		.loc 1 152 0
 178              	@ 152 "../os/hal/src/uart.c" 1
 179 0004 FFF7FEFF 		bl      _port_lock
 180              	@ 0 "" 2
 181              		.loc 1 158 0
 182              		.thumb
 183 0008 FFF7FEFF 		bl	uart_lld_start_send
 184              	.LVL7:
 185              		.loc 1 159 0
 186 000c 0123     		movs	r3, #1
 187 000e 6370     		strb	r3, [r4, #1]
 188              		.loc 1 160 0
 189              	@ 160 "../os/hal/src/uart.c" 1
 190 0010 FFF7FEFF 		bl      _port_unlock
 191              	@ 0 "" 2
 192              		.thumb
 193 0014 10BD     		pop	{r4, pc}
 194              		.cfi_endproc
 195              	.LFE60:
 196              		.size	uartStartSend, .-uartStartSend
 197 0016 00BFAFF3 		.section	.text.uartStartSendI,"ax",%progbits
 197      0080AFF3 
 197      0080
 198              		.align	2
 199              		.p2align 4,,15
 200              		.global	uartStartSendI
 201              		.thumb
 202              		.thumb_func
 203              		.type	uartStartSendI, %function
 204              	uartStartSendI:
 205              	.LFB61:
 206              		.loc 1 175 0
 207              		.cfi_startproc
 208              		@ args = 0, pretend = 0, frame = 0
 209              		@ frame_needed = 0, uses_anonymous_args = 0
 210              	.LVL8:
 211 0000 10B5     		push	{r4, lr}
 212              		.cfi_def_cfa_offset 8
 213              		.cfi_offset 4, -8
 214              		.cfi_offset 14, -4
 215              		.loc 1 175 0
 216 0002 0446     		mov	r4, r0
 217              		.loc 1 185 0
 218 0004 FFF7FEFF 		bl	uart_lld_start_send
 219              	.LVL9:
 220              		.loc 1 186 0
 221 0008 0123     		movs	r3, #1
 222 000a 6370     		strb	r3, [r4, #1]
 223 000c 10BD     		pop	{r4, pc}
ARM GAS  /tmp/cc0Spldr.s 			page 5


 224              		.cfi_endproc
 225              	.LFE61:
 226              		.size	uartStartSendI, .-uartStartSendI
 227 000e 00BF     		.section	.text.uartStopSend,"ax",%progbits
 228              		.align	2
 229              		.p2align 4,,15
 230              		.global	uartStopSend
 231              		.thumb
 232              		.thumb_func
 233              		.type	uartStopSend, %function
 234              	uartStopSend:
 235              	.LFB62:
 236              		.loc 1 201 0
 237              		.cfi_startproc
 238              		@ args = 0, pretend = 0, frame = 0
 239              		@ frame_needed = 0, uses_anonymous_args = 0
 240              	.LVL10:
 241 0000 10B5     		push	{r4, lr}
 242              		.cfi_def_cfa_offset 8
 243              		.cfi_offset 4, -8
 244              		.cfi_offset 14, -4
 245              		.loc 1 201 0
 246 0002 0446     		mov	r4, r0
 247              		.loc 1 206 0
 248              	@ 206 "../os/hal/src/uart.c" 1
 249 0004 FFF7FEFF 		bl      _port_lock
 250              	@ 0 "" 2
 251              		.loc 1 209 0
 252              		.thumb
 253 0008 4378     		ldrb	r3, [r0, #1]	@ zero_extendqisi2
 254 000a 012B     		cmp	r3, #1
 255              		.loc 1 214 0
 256 000c 18BF     		it	ne
 257 000e 0020     		movne	r0, #0
 258              	.LVL11:
 259              		.loc 1 209 0
 260 0010 02D0     		beq	.L11
 261              	.LVL12:
 262              		.loc 1 215 0
 263              	@ 215 "../os/hal/src/uart.c" 1
 264 0012 FFF7FEFF 		bl      _port_unlock
 265              	@ 0 "" 2
 266              		.loc 1 217 0
 267              		.thumb
 268 0016 10BD     		pop	{r4, pc}
 269              	.LVL13:
 270              	.L11:
 271              		.loc 1 210 0
 272 0018 2046     		mov	r0, r4
 273 001a FFF7FEFF 		bl	uart_lld_stop_send
 274              	.LVL14:
 275              		.loc 1 211 0
 276 001e 0023     		movs	r3, #0
 277 0020 6370     		strb	r3, [r4, #1]
 278              		.loc 1 215 0
 279              	@ 215 "../os/hal/src/uart.c" 1
 280 0022 FFF7FEFF 		bl      _port_unlock
ARM GAS  /tmp/cc0Spldr.s 			page 6


 281              	@ 0 "" 2
 282              		.loc 1 217 0
 283              		.thumb
 284 0026 10BD     		pop	{r4, pc}
 285              		.cfi_endproc
 286              	.LFE62:
 287              		.size	uartStopSend, .-uartStopSend
 288 0028 AFF30080 		.section	.text.uartStopSendI,"ax",%progbits
 288      AFF30080 
 289              		.align	2
 290              		.p2align 4,,15
 291              		.global	uartStopSendI
 292              		.thumb
 293              		.thumb_func
 294              		.type	uartStopSendI, %function
 295              	uartStopSendI:
 296              	.LFB63:
 297              		.loc 1 232 0
 298              		.cfi_startproc
 299              		@ args = 0, pretend = 0, frame = 0
 300              		@ frame_needed = 0, uses_anonymous_args = 0
 301              	.LVL15:
 302 0000 10B5     		push	{r4, lr}
 303              		.cfi_def_cfa_offset 8
 304              		.cfi_offset 4, -8
 305              		.cfi_offset 14, -4
 306              		.loc 1 238 0
 307 0002 4378     		ldrb	r3, [r0, #1]	@ zero_extendqisi2
 308              		.loc 1 232 0
 309 0004 0446     		mov	r4, r0
 310              		.loc 1 238 0
 311 0006 012B     		cmp	r3, #1
 312 0008 01D0     		beq	.L15
 313              		.loc 1 243 0
 314 000a 0020     		movs	r0, #0
 315              	.LVL16:
 316              		.loc 1 244 0
 317 000c 10BD     		pop	{r4, pc}
 318              	.LVL17:
 319              	.L15:
 320              	.LBB2:
 321              		.loc 1 239 0
 322 000e FFF7FEFF 		bl	uart_lld_stop_send
 323              	.LVL18:
 324              		.loc 1 240 0
 325 0012 0023     		movs	r3, #0
 326 0014 6370     		strb	r3, [r4, #1]
 327              		.loc 1 241 0
 328 0016 10BD     		pop	{r4, pc}
 329              	.LBE2:
 330              		.cfi_endproc
 331              	.LFE63:
 332              		.size	uartStopSendI, .-uartStopSendI
 333 0018 AFF30080 		.section	.text.uartStartReceive,"ax",%progbits
 333      AFF30080 
 334              		.align	2
 335              		.p2align 4,,15
ARM GAS  /tmp/cc0Spldr.s 			page 7


 336              		.global	uartStartReceive
 337              		.thumb
 338              		.thumb_func
 339              		.type	uartStartReceive, %function
 340              	uartStartReceive:
 341              	.LFB64:
 342              		.loc 1 257 0
 343              		.cfi_startproc
 344              		@ args = 0, pretend = 0, frame = 0
 345              		@ frame_needed = 0, uses_anonymous_args = 0
 346              	.LVL19:
 347 0000 10B5     		push	{r4, lr}
 348              		.cfi_def_cfa_offset 8
 349              		.cfi_offset 4, -8
 350              		.cfi_offset 14, -4
 351              		.loc 1 257 0
 352 0002 0446     		mov	r4, r0
 353              		.loc 1 262 0
 354              	@ 262 "../os/hal/src/uart.c" 1
 355 0004 FFF7FEFF 		bl      _port_lock
 356              	@ 0 "" 2
 357              		.loc 1 268 0
 358              		.thumb
 359 0008 FFF7FEFF 		bl	uart_lld_start_receive
 360              	.LVL20:
 361              		.loc 1 269 0
 362 000c 0123     		movs	r3, #1
 363 000e A370     		strb	r3, [r4, #2]
 364              		.loc 1 270 0
 365              	@ 270 "../os/hal/src/uart.c" 1
 366 0010 FFF7FEFF 		bl      _port_unlock
 367              	@ 0 "" 2
 368              		.thumb
 369 0014 10BD     		pop	{r4, pc}
 370              		.cfi_endproc
 371              	.LFE64:
 372              		.size	uartStartReceive, .-uartStartReceive
 373 0016 00BFAFF3 		.section	.text.uartStartReceiveI,"ax",%progbits
 373      0080AFF3 
 373      0080
 374              		.align	2
 375              		.p2align 4,,15
 376              		.global	uartStartReceiveI
 377              		.thumb
 378              		.thumb_func
 379              		.type	uartStartReceiveI, %function
 380              	uartStartReceiveI:
 381              	.LFB65:
 382              		.loc 1 285 0
 383              		.cfi_startproc
 384              		@ args = 0, pretend = 0, frame = 0
 385              		@ frame_needed = 0, uses_anonymous_args = 0
 386              	.LVL21:
 387 0000 10B5     		push	{r4, lr}
 388              		.cfi_def_cfa_offset 8
 389              		.cfi_offset 4, -8
 390              		.cfi_offset 14, -4
ARM GAS  /tmp/cc0Spldr.s 			page 8


 391              		.loc 1 285 0
 392 0002 0446     		mov	r4, r0
 393              		.loc 1 295 0
 394 0004 FFF7FEFF 		bl	uart_lld_start_receive
 395              	.LVL22:
 396              		.loc 1 296 0
 397 0008 0123     		movs	r3, #1
 398 000a A370     		strb	r3, [r4, #2]
 399 000c 10BD     		pop	{r4, pc}
 400              		.cfi_endproc
 401              	.LFE65:
 402              		.size	uartStartReceiveI, .-uartStartReceiveI
 403 000e 00BF     		.section	.text.uartStopReceive,"ax",%progbits
 404              		.align	2
 405              		.p2align 4,,15
 406              		.global	uartStopReceive
 407              		.thumb
 408              		.thumb_func
 409              		.type	uartStopReceive, %function
 410              	uartStopReceive:
 411              	.LFB66:
 412              		.loc 1 311 0
 413              		.cfi_startproc
 414              		@ args = 0, pretend = 0, frame = 0
 415              		@ frame_needed = 0, uses_anonymous_args = 0
 416              	.LVL23:
 417 0000 10B5     		push	{r4, lr}
 418              		.cfi_def_cfa_offset 8
 419              		.cfi_offset 4, -8
 420              		.cfi_offset 14, -4
 421              		.loc 1 311 0
 422 0002 0446     		mov	r4, r0
 423              		.loc 1 316 0
 424              	@ 316 "../os/hal/src/uart.c" 1
 425 0004 FFF7FEFF 		bl      _port_lock
 426              	@ 0 "" 2
 427              		.loc 1 320 0
 428              		.thumb
 429 0008 8378     		ldrb	r3, [r0, #2]	@ zero_extendqisi2
 430 000a 012B     		cmp	r3, #1
 431              		.loc 1 325 0
 432 000c 18BF     		it	ne
 433 000e 0020     		movne	r0, #0
 434              	.LVL24:
 435              		.loc 1 320 0
 436 0010 02D0     		beq	.L21
 437              	.LVL25:
 438              		.loc 1 326 0
 439              	@ 326 "../os/hal/src/uart.c" 1
 440 0012 FFF7FEFF 		bl      _port_unlock
 441              	@ 0 "" 2
 442              		.loc 1 328 0
 443              		.thumb
 444 0016 10BD     		pop	{r4, pc}
 445              	.LVL26:
 446              	.L21:
 447              		.loc 1 321 0
ARM GAS  /tmp/cc0Spldr.s 			page 9


 448 0018 2046     		mov	r0, r4
 449 001a FFF7FEFF 		bl	uart_lld_stop_receive
 450              	.LVL27:
 451              		.loc 1 322 0
 452 001e 0023     		movs	r3, #0
 453 0020 A370     		strb	r3, [r4, #2]
 454              		.loc 1 326 0
 455              	@ 326 "../os/hal/src/uart.c" 1
 456 0022 FFF7FEFF 		bl      _port_unlock
 457              	@ 0 "" 2
 458              		.loc 1 328 0
 459              		.thumb
 460 0026 10BD     		pop	{r4, pc}
 461              		.cfi_endproc
 462              	.LFE66:
 463              		.size	uartStopReceive, .-uartStopReceive
 464 0028 AFF30080 		.section	.text.uartStopReceiveI,"ax",%progbits
 464      AFF30080 
 465              		.align	2
 466              		.p2align 4,,15
 467              		.global	uartStopReceiveI
 468              		.thumb
 469              		.thumb_func
 470              		.type	uartStopReceiveI, %function
 471              	uartStopReceiveI:
 472              	.LFB67:
 473              		.loc 1 343 0
 474              		.cfi_startproc
 475              		@ args = 0, pretend = 0, frame = 0
 476              		@ frame_needed = 0, uses_anonymous_args = 0
 477              	.LVL28:
 478 0000 10B5     		push	{r4, lr}
 479              		.cfi_def_cfa_offset 8
 480              		.cfi_offset 4, -8
 481              		.cfi_offset 14, -4
 482              		.loc 1 350 0
 483 0002 8378     		ldrb	r3, [r0, #2]	@ zero_extendqisi2
 484              		.loc 1 343 0
 485 0004 0446     		mov	r4, r0
 486              		.loc 1 350 0
 487 0006 012B     		cmp	r3, #1
 488 0008 01D0     		beq	.L25
 489              		.loc 1 355 0
 490 000a 0020     		movs	r0, #0
 491              	.LVL29:
 492              		.loc 1 356 0
 493 000c 10BD     		pop	{r4, pc}
 494              	.LVL30:
 495              	.L25:
 496              	.LBB3:
 497              		.loc 1 351 0
 498 000e FFF7FEFF 		bl	uart_lld_stop_receive
 499              	.LVL31:
 500              		.loc 1 352 0
 501 0012 0023     		movs	r3, #0
 502 0014 A370     		strb	r3, [r4, #2]
 503              		.loc 1 353 0
ARM GAS  /tmp/cc0Spldr.s 			page 10


 504 0016 10BD     		pop	{r4, pc}
 505              	.LBE3:
 506              		.cfi_endproc
 507              	.LFE67:
 508              		.size	uartStopReceiveI, .-uartStopReceiveI
 509 0018 AFF30080 		.text
 509      AFF30080 
 510              	.Letext0:
 511              		.file 2 "/usr/lib/gcc/arm-none-eabi/4.8.2/include/stddef.h"
 512              		.file 3 "/usr/include/newlib/machine/_default_types.h"
 513              		.file 4 "/usr/include/newlib/stdint.h"
 514              		.file 5 "../os/hal/platforms/STM32F1xx/stm32f10x.h"
 515              		.file 6 "../os/hal/platforms/STM32F1xx/stm32_dma.h"
 516              		.file 7 "../os/hal/include/uart.h"
 517              		.file 8 "../os/hal/platforms/STM32/USARTv1/uart_lld.h"
 518              		.file 9 "../os/ports/common/ARMCMx/CMSIS/include/core_cm3.h"
 519              		.section	.debug_info,"",%progbits
 520              	.Ldebug_info0:
 521 0000 73080000 		.4byte	0x873
 522 0004 0400     		.2byte	0x4
 523 0006 00000000 		.4byte	.Ldebug_abbrev0
 524 000a 04       		.byte	0x4
 525 000b 01       		.uleb128 0x1
 526 000c 77020000 		.4byte	.LASF91
 527 0010 01       		.byte	0x1
 528 0011 00000000 		.4byte	.LASF92
 529 0015 8F000000 		.4byte	.LASF93
 530 0019 00000000 		.4byte	.Ldebug_ranges0+0
 531 001d 00000000 		.4byte	0
 532 0021 00000000 		.4byte	.Ldebug_line0
 533 0025 02       		.uleb128 0x2
 534 0026 04       		.byte	0x4
 535 0027 05       		.byte	0x5
 536 0028 696E7400 		.ascii	"int\000"
 537 002c 03       		.uleb128 0x3
 538 002d 55000000 		.4byte	.LASF2
 539 0031 02       		.byte	0x2
 540 0032 D4       		.byte	0xd4
 541 0033 37000000 		.4byte	0x37
 542 0037 04       		.uleb128 0x4
 543 0038 04       		.byte	0x4
 544 0039 07       		.byte	0x7
 545 003a 61030000 		.4byte	.LASF0
 546 003e 04       		.uleb128 0x4
 547 003f 01       		.byte	0x1
 548 0040 06       		.byte	0x6
 549 0041 8F010000 		.4byte	.LASF1
 550 0045 03       		.uleb128 0x3
 551 0046 0E020000 		.4byte	.LASF3
 552 004a 03       		.byte	0x3
 553 004b 1C       		.byte	0x1c
 554 004c 50000000 		.4byte	0x50
 555 0050 04       		.uleb128 0x4
 556 0051 01       		.byte	0x1
 557 0052 08       		.byte	0x8
 558 0053 58020000 		.4byte	.LASF4
 559 0057 04       		.uleb128 0x4
ARM GAS  /tmp/cc0Spldr.s 			page 11


 560 0058 02       		.byte	0x2
 561 0059 05       		.byte	0x5
 562 005a 24010000 		.4byte	.LASF5
 563 005e 03       		.uleb128 0x3
 564 005f 0B010000 		.4byte	.LASF6
 565 0063 03       		.byte	0x3
 566 0064 26       		.byte	0x26
 567 0065 69000000 		.4byte	0x69
 568 0069 04       		.uleb128 0x4
 569 006a 02       		.byte	0x2
 570 006b 07       		.byte	0x7
 571 006c B0030000 		.4byte	.LASF7
 572 0070 03       		.uleb128 0x3
 573 0071 8E040000 		.4byte	.LASF8
 574 0075 03       		.byte	0x3
 575 0076 37       		.byte	0x37
 576 0077 7B000000 		.4byte	0x7b
 577 007b 04       		.uleb128 0x4
 578 007c 04       		.byte	0x4
 579 007d 05       		.byte	0x5
 580 007e EE010000 		.4byte	.LASF9
 581 0082 03       		.uleb128 0x3
 582 0083 E9000000 		.4byte	.LASF10
 583 0087 03       		.byte	0x3
 584 0088 38       		.byte	0x38
 585 0089 8D000000 		.4byte	0x8d
 586 008d 04       		.uleb128 0x4
 587 008e 04       		.byte	0x4
 588 008f 07       		.byte	0x7
 589 0090 77030000 		.4byte	.LASF11
 590 0094 04       		.uleb128 0x4
 591 0095 08       		.byte	0x8
 592 0096 05       		.byte	0x5
 593 0097 3A050000 		.4byte	.LASF12
 594 009b 04       		.uleb128 0x4
 595 009c 08       		.byte	0x8
 596 009d 07       		.byte	0x7
 597 009e 2F030000 		.4byte	.LASF13
 598 00a2 03       		.uleb128 0x3
 599 00a3 67010000 		.4byte	.LASF14
 600 00a7 04       		.byte	0x4
 601 00a8 2A       		.byte	0x2a
 602 00a9 45000000 		.4byte	0x45
 603 00ad 03       		.uleb128 0x3
 604 00ae 6E030000 		.4byte	.LASF15
 605 00b2 04       		.byte	0x4
 606 00b3 36       		.byte	0x36
 607 00b4 5E000000 		.4byte	0x5e
 608 00b8 03       		.uleb128 0x3
 609 00b9 ED030000 		.4byte	.LASF16
 610 00bd 04       		.byte	0x4
 611 00be 41       		.byte	0x41
 612 00bf 70000000 		.4byte	0x70
 613 00c3 03       		.uleb128 0x3
 614 00c4 4E030000 		.4byte	.LASF17
 615 00c8 04       		.byte	0x4
 616 00c9 42       		.byte	0x42
ARM GAS  /tmp/cc0Spldr.s 			page 12


 617 00ca 82000000 		.4byte	0x82
 618 00ce 04       		.uleb128 0x4
 619 00cf 01       		.byte	0x1
 620 00d0 02       		.byte	0x2
 621 00d1 F5030000 		.4byte	.LASF18
 622 00d5 05       		.uleb128 0x5
 623 00d6 04       		.byte	0x4
 624 00d7 06       		.uleb128 0x6
 625 00d8 C3000000 		.4byte	0xc3
 626 00dc 04       		.uleb128 0x4
 627 00dd 04       		.byte	0x4
 628 00de 07       		.byte	0x7
 629 00df 65000000 		.4byte	.LASF19
 630 00e3 06       		.uleb128 0x6
 631 00e4 AD000000 		.4byte	0xad
 632 00e8 06       		.uleb128 0x6
 633 00e9 B8000000 		.4byte	0xb8
 634 00ed 07       		.uleb128 0x7
 635 00ee 10       		.byte	0x10
 636 00ef 05       		.byte	0x5
 637 00f0 2D03     		.2byte	0x32d
 638 00f2 2B010000 		.4byte	0x12b
 639 00f6 08       		.uleb128 0x8
 640 00f7 43435200 		.ascii	"CCR\000"
 641 00fb 05       		.byte	0x5
 642 00fc 2F03     		.2byte	0x32f
 643 00fe D7000000 		.4byte	0xd7
 644 0102 00       		.byte	0
 645 0103 09       		.uleb128 0x9
 646 0104 DD030000 		.4byte	.LASF20
 647 0108 05       		.byte	0x5
 648 0109 3003     		.2byte	0x330
 649 010b D7000000 		.4byte	0xd7
 650 010f 04       		.byte	0x4
 651 0110 09       		.uleb128 0x9
 652 0111 37020000 		.4byte	.LASF21
 653 0115 05       		.byte	0x5
 654 0116 3103     		.2byte	0x331
 655 0118 D7000000 		.4byte	0xd7
 656 011c 08       		.byte	0x8
 657 011d 09       		.uleb128 0x9
 658 011e 7E040000 		.4byte	.LASF22
 659 0122 05       		.byte	0x5
 660 0123 3203     		.2byte	0x332
 661 0125 D7000000 		.4byte	0xd7
 662 0129 0C       		.byte	0xc
 663 012a 00       		.byte	0
 664 012b 0A       		.uleb128 0xa
 665 012c C3030000 		.4byte	.LASF23
 666 0130 05       		.byte	0x5
 667 0131 3303     		.2byte	0x333
 668 0133 ED000000 		.4byte	0xed
 669 0137 07       		.uleb128 0x7
 670 0138 1C       		.byte	0x1c
 671 0139 05       		.byte	0x5
 672 013a E104     		.2byte	0x4e1
 673 013c F5010000 		.4byte	0x1f5
ARM GAS  /tmp/cc0Spldr.s 			page 13


 674 0140 08       		.uleb128 0x8
 675 0141 535200   		.ascii	"SR\000"
 676 0144 05       		.byte	0x5
 677 0145 E304     		.2byte	0x4e3
 678 0147 E3000000 		.4byte	0xe3
 679 014b 00       		.byte	0
 680 014c 09       		.uleb128 0x9
 681 014d 21040000 		.4byte	.LASF24
 682 0151 05       		.byte	0x5
 683 0152 E404     		.2byte	0x4e4
 684 0154 AD000000 		.4byte	0xad
 685 0158 02       		.byte	0x2
 686 0159 08       		.uleb128 0x8
 687 015a 445200   		.ascii	"DR\000"
 688 015d 05       		.byte	0x5
 689 015e E504     		.2byte	0x4e5
 690 0160 E3000000 		.4byte	0xe3
 691 0164 04       		.byte	0x4
 692 0165 09       		.uleb128 0x9
 693 0166 2B040000 		.4byte	.LASF25
 694 016a 05       		.byte	0x5
 695 016b E604     		.2byte	0x4e6
 696 016d AD000000 		.4byte	0xad
 697 0171 06       		.byte	0x6
 698 0172 08       		.uleb128 0x8
 699 0173 42525200 		.ascii	"BRR\000"
 700 0177 05       		.byte	0x5
 701 0178 E704     		.2byte	0x4e7
 702 017a E3000000 		.4byte	0xe3
 703 017e 08       		.byte	0x8
 704 017f 09       		.uleb128 0x9
 705 0180 35040000 		.4byte	.LASF26
 706 0184 05       		.byte	0x5
 707 0185 E804     		.2byte	0x4e8
 708 0187 AD000000 		.4byte	0xad
 709 018b 0A       		.byte	0xa
 710 018c 08       		.uleb128 0x8
 711 018d 43523100 		.ascii	"CR1\000"
 712 0191 05       		.byte	0x5
 713 0192 E904     		.2byte	0x4e9
 714 0194 E3000000 		.4byte	0xe3
 715 0198 0C       		.byte	0xc
 716 0199 09       		.uleb128 0x9
 717 019a 3F040000 		.4byte	.LASF27
 718 019e 05       		.byte	0x5
 719 019f EA04     		.2byte	0x4ea
 720 01a1 AD000000 		.4byte	0xad
 721 01a5 0E       		.byte	0xe
 722 01a6 08       		.uleb128 0x8
 723 01a7 43523200 		.ascii	"CR2\000"
 724 01ab 05       		.byte	0x5
 725 01ac EB04     		.2byte	0x4eb
 726 01ae E3000000 		.4byte	0xe3
 727 01b2 10       		.byte	0x10
 728 01b3 09       		.uleb128 0x9
 729 01b4 49040000 		.4byte	.LASF28
 730 01b8 05       		.byte	0x5
ARM GAS  /tmp/cc0Spldr.s 			page 14


 731 01b9 EC04     		.2byte	0x4ec
 732 01bb AD000000 		.4byte	0xad
 733 01bf 12       		.byte	0x12
 734 01c0 08       		.uleb128 0x8
 735 01c1 43523300 		.ascii	"CR3\000"
 736 01c5 05       		.byte	0x5
 737 01c6 ED04     		.2byte	0x4ed
 738 01c8 E3000000 		.4byte	0xe3
 739 01cc 14       		.byte	0x14
 740 01cd 09       		.uleb128 0x9
 741 01ce 53040000 		.4byte	.LASF29
 742 01d2 05       		.byte	0x5
 743 01d3 EE04     		.2byte	0x4ee
 744 01d5 AD000000 		.4byte	0xad
 745 01d9 16       		.byte	0x16
 746 01da 09       		.uleb128 0x9
 747 01db 15000000 		.4byte	.LASF30
 748 01df 05       		.byte	0x5
 749 01e0 EF04     		.2byte	0x4ef
 750 01e2 E3000000 		.4byte	0xe3
 751 01e6 18       		.byte	0x18
 752 01e7 09       		.uleb128 0x9
 753 01e8 5D040000 		.4byte	.LASF31
 754 01ec 05       		.byte	0x5
 755 01ed F004     		.2byte	0x4f0
 756 01ef AD000000 		.4byte	0xad
 757 01f3 1A       		.byte	0x1a
 758 01f4 00       		.byte	0
 759 01f5 0A       		.uleb128 0xa
 760 01f6 16010000 		.4byte	.LASF32
 761 01fa 05       		.byte	0x5
 762 01fb F104     		.2byte	0x4f1
 763 01fd 37010000 		.4byte	0x137
 764 0201 0B       		.uleb128 0xb
 765 0202 0C       		.byte	0xc
 766 0203 06       		.byte	0x6
 767 0204 C1       		.byte	0xc1
 768 0205 46020000 		.4byte	0x246
 769 0209 0C       		.uleb128 0xc
 770 020a FB030000 		.4byte	.LASF33
 771 020e 06       		.byte	0x6
 772 020f C2       		.byte	0xc2
 773 0210 46020000 		.4byte	0x246
 774 0214 00       		.byte	0
 775 0215 0C       		.uleb128 0xc
 776 0216 27050000 		.4byte	.LASF34
 777 021a 06       		.byte	0x6
 778 021b C3       		.byte	0xc3
 779 021c 4C020000 		.4byte	0x24c
 780 0220 04       		.byte	0x4
 781 0221 0C       		.uleb128 0xc
 782 0222 F8040000 		.4byte	.LASF35
 783 0226 06       		.byte	0x6
 784 0227 C4       		.byte	0xc4
 785 0228 A2000000 		.4byte	0xa2
 786 022c 08       		.byte	0x8
 787 022d 0C       		.uleb128 0xc
ARM GAS  /tmp/cc0Spldr.s 			page 15


 788 022e 57030000 		.4byte	.LASF36
 789 0232 06       		.byte	0x6
 790 0233 C6       		.byte	0xc6
 791 0234 A2000000 		.4byte	0xa2
 792 0238 09       		.byte	0x9
 793 0239 0C       		.uleb128 0xc
 794 023a 6F010000 		.4byte	.LASF37
 795 023e 06       		.byte	0x6
 796 023f C7       		.byte	0xc7
 797 0240 A2000000 		.4byte	0xa2
 798 0244 0A       		.byte	0xa
 799 0245 00       		.byte	0
 800 0246 0D       		.uleb128 0xd
 801 0247 04       		.byte	0x4
 802 0248 2B010000 		.4byte	0x12b
 803 024c 0D       		.uleb128 0xd
 804 024d 04       		.byte	0x4
 805 024e D7000000 		.4byte	0xd7
 806 0252 03       		.uleb128 0x3
 807 0253 43010000 		.4byte	.LASF38
 808 0257 06       		.byte	0x6
 809 0258 C8       		.byte	0xc8
 810 0259 01020000 		.4byte	0x201
 811 025d 0D       		.uleb128 0xd
 812 025e 04       		.byte	0x4
 813 025f 63020000 		.4byte	0x263
 814 0263 0E       		.uleb128 0xe
 815 0264 52020000 		.4byte	0x252
 816 0268 0F       		.uleb128 0xf
 817 0269 01       		.byte	0x1
 818 026a 07       		.byte	0x7
 819 026b 48       		.byte	0x48
 820 026c 83020000 		.4byte	0x283
 821 0270 10       		.uleb128 0x10
 822 0271 CB040000 		.4byte	.LASF39
 823 0275 00       		.sleb128 0
 824 0276 10       		.uleb128 0x10
 825 0277 0C050000 		.4byte	.LASF40
 826 027b 01       		.sleb128 1
 827 027c 10       		.uleb128 0x10
 828 027d 83040000 		.4byte	.LASF41
 829 0281 02       		.sleb128 2
 830 0282 00       		.byte	0
 831 0283 03       		.uleb128 0x3
 832 0284 A4030000 		.4byte	.LASF42
 833 0288 07       		.byte	0x7
 834 0289 4C       		.byte	0x4c
 835 028a 68020000 		.4byte	0x268
 836 028e 0F       		.uleb128 0xf
 837 028f 01       		.byte	0x1
 838 0290 07       		.byte	0x7
 839 0291 51       		.byte	0x51
 840 0292 A9020000 		.4byte	0x2a9
 841 0296 10       		.uleb128 0x10
 842 0297 14040000 		.4byte	.LASF43
 843 029b 00       		.sleb128 0
 844 029c 10       		.uleb128 0x10
ARM GAS  /tmp/cc0Spldr.s 			page 16


 845 029d BB010000 		.4byte	.LASF44
 846 02a1 01       		.sleb128 1
 847 02a2 10       		.uleb128 0x10
 848 02a3 9B010000 		.4byte	.LASF45
 849 02a7 02       		.sleb128 2
 850 02a8 00       		.byte	0
 851 02a9 03       		.uleb128 0x3
 852 02aa 3C020000 		.4byte	.LASF46
 853 02ae 07       		.byte	0x7
 854 02af 55       		.byte	0x55
 855 02b0 8E020000 		.4byte	0x28e
 856 02b4 0F       		.uleb128 0xf
 857 02b5 01       		.byte	0x1
 858 02b6 07       		.byte	0x7
 859 02b7 5A       		.byte	0x5a
 860 02b8 CF020000 		.4byte	0x2cf
 861 02bc 10       		.uleb128 0x10
 862 02bd A1040000 		.4byte	.LASF47
 863 02c1 00       		.sleb128 0
 864 02c2 10       		.uleb128 0x10
 865 02c3 76010000 		.4byte	.LASF48
 866 02c7 01       		.sleb128 1
 867 02c8 10       		.uleb128 0x10
 868 02c9 03040000 		.4byte	.LASF49
 869 02cd 02       		.sleb128 2
 870 02ce 00       		.byte	0
 871 02cf 03       		.uleb128 0x3
 872 02d0 00020000 		.4byte	.LASF50
 873 02d4 07       		.byte	0x7
 874 02d5 5E       		.byte	0x5e
 875 02d6 B4020000 		.4byte	0x2b4
 876 02da 0A       		.uleb128 0xa
 877 02db 8F030000 		.4byte	.LASF51
 878 02df 08       		.byte	0x8
 879 02e0 FE01     		.2byte	0x1fe
 880 02e2 C3000000 		.4byte	0xc3
 881 02e6 0A       		.uleb128 0xa
 882 02e7 1C050000 		.4byte	.LASF52
 883 02eb 08       		.byte	0x8
 884 02ec 0302     		.2byte	0x203
 885 02ee F2020000 		.4byte	0x2f2
 886 02f2 11       		.uleb128 0x11
 887 02f3 1C050000 		.4byte	.LASF52
 888 02f7 1C       		.byte	0x1c
 889 02f8 08       		.byte	0x8
 890 02f9 4B02     		.2byte	0x24b
 891 02fb 75030000 		.4byte	0x375
 892 02ff 09       		.uleb128 0x9
 893 0300 41000000 		.4byte	.LASF53
 894 0304 08       		.byte	0x8
 895 0305 4F02     		.2byte	0x24f
 896 0307 83020000 		.4byte	0x283
 897 030b 00       		.byte	0
 898 030c 09       		.uleb128 0x9
 899 030d E1000000 		.4byte	.LASF54
 900 0311 08       		.byte	0x8
 901 0312 5302     		.2byte	0x253
ARM GAS  /tmp/cc0Spldr.s 			page 17


 902 0314 A9020000 		.4byte	0x2a9
 903 0318 01       		.byte	0x1
 904 0319 09       		.uleb128 0x9
 905 031a 39000000 		.4byte	.LASF55
 906 031e 08       		.byte	0x8
 907 031f 5702     		.2byte	0x257
 908 0321 CF020000 		.4byte	0x2cf
 909 0325 02       		.byte	0x2
 910 0326 09       		.uleb128 0x9
 911 0327 2E010000 		.4byte	.LASF56
 912 032b 08       		.byte	0x8
 913 032c 5B02     		.2byte	0x25b
 914 032e 67040000 		.4byte	0x467
 915 0332 04       		.byte	0x4
 916 0333 09       		.uleb128 0x9
 917 0334 24000000 		.4byte	.LASF57
 918 0338 08       		.byte	0x8
 919 0339 6302     		.2byte	0x263
 920 033b 72040000 		.4byte	0x472
 921 033f 08       		.byte	0x8
 922 0340 09       		.uleb128 0x9
 923 0341 46030000 		.4byte	.LASF58
 924 0345 08       		.byte	0x8
 925 0346 6702     		.2byte	0x267
 926 0348 C3000000 		.4byte	0xc3
 927 034c 0C       		.byte	0xc
 928 034d 09       		.uleb128 0x9
 929 034e 22020000 		.4byte	.LASF59
 930 0352 08       		.byte	0x8
 931 0353 6B02     		.2byte	0x26b
 932 0355 5D020000 		.4byte	0x25d
 933 0359 10       		.byte	0x10
 934 035a 09       		.uleb128 0x9
 935 035b 29030000 		.4byte	.LASF60
 936 035f 08       		.byte	0x8
 937 0360 6F02     		.2byte	0x26f
 938 0362 5D020000 		.4byte	0x25d
 939 0366 14       		.byte	0x14
 940 0367 09       		.uleb128 0x9
 941 0368 E0040000 		.4byte	.LASF61
 942 036c 08       		.byte	0x8
 943 036d 7302     		.2byte	0x273
 944 036f E3000000 		.4byte	0xe3
 945 0373 18       		.byte	0x18
 946 0374 00       		.byte	0
 947 0375 0A       		.uleb128 0xa
 948 0376 F7010000 		.4byte	.LASF62
 949 037a 08       		.byte	0x8
 950 037b 0A02     		.2byte	0x20a
 951 037d 81030000 		.4byte	0x381
 952 0381 0D       		.uleb128 0xd
 953 0382 04       		.byte	0x4
 954 0383 87030000 		.4byte	0x387
 955 0387 12       		.uleb128 0x12
 956 0388 92030000 		.4byte	0x392
 957 038c 13       		.uleb128 0x13
 958 038d 92030000 		.4byte	0x392
ARM GAS  /tmp/cc0Spldr.s 			page 18


 959 0391 00       		.byte	0
 960 0392 0D       		.uleb128 0xd
 961 0393 04       		.byte	0x4
 962 0394 E6020000 		.4byte	0x2e6
 963 0398 0A       		.uleb128 0xa
 964 0399 E3030000 		.4byte	.LASF63
 965 039d 08       		.byte	0x8
 966 039e 1202     		.2byte	0x212
 967 03a0 A4030000 		.4byte	0x3a4
 968 03a4 0D       		.uleb128 0xd
 969 03a5 04       		.byte	0x4
 970 03a6 AA030000 		.4byte	0x3aa
 971 03aa 12       		.uleb128 0x12
 972 03ab BA030000 		.4byte	0x3ba
 973 03af 13       		.uleb128 0x13
 974 03b0 92030000 		.4byte	0x392
 975 03b4 13       		.uleb128 0x13
 976 03b5 AD000000 		.4byte	0xad
 977 03b9 00       		.byte	0
 978 03ba 0A       		.uleb128 0xa
 979 03bb 85010000 		.4byte	.LASF64
 980 03bf 08       		.byte	0x8
 981 03c0 1A02     		.2byte	0x21a
 982 03c2 C6030000 		.4byte	0x3c6
 983 03c6 0D       		.uleb128 0xd
 984 03c7 04       		.byte	0x4
 985 03c8 CC030000 		.4byte	0x3cc
 986 03cc 12       		.uleb128 0x12
 987 03cd DC030000 		.4byte	0x3dc
 988 03d1 13       		.uleb128 0x13
 989 03d2 92030000 		.4byte	0x392
 990 03d6 13       		.uleb128 0x13
 991 03d7 DA020000 		.4byte	0x2da
 992 03db 00       		.byte	0
 993 03dc 07       		.uleb128 0x7
 994 03dd 20       		.byte	0x20
 995 03de 08       		.byte	0x8
 996 03df 2002     		.2byte	0x220
 997 03e1 5B040000 		.4byte	0x45b
 998 03e5 09       		.uleb128 0x9
 999 03e6 01010000 		.4byte	.LASF65
 1000 03ea 08       		.byte	0x8
 1001 03eb 2402     		.2byte	0x224
 1002 03ed 75030000 		.4byte	0x375
 1003 03f1 00       		.byte	0
 1004 03f2 09       		.uleb128 0x9
 1005 03f3 18020000 		.4byte	.LASF66
 1006 03f7 08       		.byte	0x8
 1007 03f8 2802     		.2byte	0x228
 1008 03fa 75030000 		.4byte	0x375
 1009 03fe 04       		.byte	0x4
 1010 03ff 09       		.uleb128 0x9
 1011 0400 98040000 		.4byte	.LASF67
 1012 0404 08       		.byte	0x8
 1013 0405 2C02     		.2byte	0x22c
 1014 0407 75030000 		.4byte	0x375
 1015 040b 08       		.byte	0x8
ARM GAS  /tmp/cc0Spldr.s 			page 19


 1016 040c 09       		.uleb128 0x9
 1017 040d AE040000 		.4byte	.LASF68
 1018 0411 08       		.byte	0x8
 1019 0412 3002     		.2byte	0x230
 1020 0414 98030000 		.4byte	0x398
 1021 0418 0C       		.byte	0xc
 1022 0419 09       		.uleb128 0x9
 1023 041a 5C000000 		.4byte	.LASF69
 1024 041e 08       		.byte	0x8
 1025 041f 3402     		.2byte	0x234
 1026 0421 BA030000 		.4byte	0x3ba
 1027 0425 10       		.byte	0x10
 1028 0426 09       		.uleb128 0x9
 1029 0427 89030000 		.4byte	.LASF70
 1030 042b 08       		.byte	0x8
 1031 042c 3902     		.2byte	0x239
 1032 042e C3000000 		.4byte	0xc3
 1033 0432 14       		.byte	0x14
 1034 0433 08       		.uleb128 0x8
 1035 0434 63723100 		.ascii	"cr1\000"
 1036 0438 08       		.byte	0x8
 1037 0439 3D02     		.2byte	0x23d
 1038 043b AD000000 		.4byte	0xad
 1039 043f 18       		.byte	0x18
 1040 0440 08       		.uleb128 0x8
 1041 0441 63723200 		.ascii	"cr2\000"
 1042 0445 08       		.byte	0x8
 1043 0446 4102     		.2byte	0x241
 1044 0448 AD000000 		.4byte	0xad
 1045 044c 1A       		.byte	0x1a
 1046 044d 08       		.uleb128 0x8
 1047 044e 63723300 		.ascii	"cr3\000"
 1048 0452 08       		.byte	0x8
 1049 0453 4502     		.2byte	0x245
 1050 0455 AD000000 		.4byte	0xad
 1051 0459 1C       		.byte	0x1c
 1052 045a 00       		.byte	0
 1053 045b 0A       		.uleb128 0xa
 1054 045c 84000000 		.4byte	.LASF71
 1055 0460 08       		.byte	0x8
 1056 0461 4602     		.2byte	0x246
 1057 0463 DC030000 		.4byte	0x3dc
 1058 0467 0D       		.uleb128 0xd
 1059 0468 04       		.byte	0x4
 1060 0469 6D040000 		.4byte	0x46d
 1061 046d 0E       		.uleb128 0xe
 1062 046e 5B040000 		.4byte	0x45b
 1063 0472 0D       		.uleb128 0xd
 1064 0473 04       		.byte	0x4
 1065 0474 F5010000 		.4byte	0x1f5
 1066 0478 14       		.uleb128 0x14
 1067 0479 9B030000 		.4byte	.LASF72
 1068 047d 01       		.byte	0x1
 1069 047e 44       		.byte	0x44
 1070 047f 00000000 		.4byte	.LFB56
 1071 0483 04000000 		.4byte	.LFE56-.LFB56
 1072 0487 01       		.uleb128 0x1
ARM GAS  /tmp/cc0Spldr.s 			page 20


 1073 0488 9C       		.byte	0x9c
 1074 0489 97040000 		.4byte	0x497
 1075 048d 15       		.uleb128 0x15
 1076 048e 04000000 		.4byte	.LVL0
 1077 0492 EA070000 		.4byte	0x7ea
 1078 0496 00       		.byte	0
 1079 0497 14       		.uleb128 0x14
 1080 0498 AC010000 		.4byte	.LASF73
 1081 049c 01       		.byte	0x1
 1082 049d 50       		.byte	0x50
 1083 049e 00000000 		.4byte	.LFB57
 1084 04a2 0E000000 		.4byte	.LFE57-.LFB57
 1085 04a6 01       		.uleb128 0x1
 1086 04a7 9C       		.byte	0x9c
 1087 04a8 BA040000 		.4byte	0x4ba
 1088 04ac 16       		.uleb128 0x16
 1089 04ad 16050000 		.4byte	.LASF75
 1090 04b1 01       		.byte	0x1
 1091 04b2 50       		.byte	0x50
 1092 04b3 92030000 		.4byte	0x392
 1093 04b7 01       		.uleb128 0x1
 1094 04b8 50       		.byte	0x50
 1095 04b9 00       		.byte	0
 1096 04ba 14       		.uleb128 0x14
 1097 04bb 1A000000 		.4byte	.LASF74
 1098 04bf 01       		.byte	0x1
 1099 04c0 64       		.byte	0x64
 1100 04c1 00000000 		.4byte	.LFB58
 1101 04c5 18000000 		.4byte	.LFE58-.LFB58
 1102 04c9 01       		.uleb128 0x1
 1103 04ca 9C       		.byte	0x9c
 1104 04cb FE040000 		.4byte	0x4fe
 1105 04cf 17       		.uleb128 0x17
 1106 04d0 16050000 		.4byte	.LASF75
 1107 04d4 01       		.byte	0x1
 1108 04d5 64       		.byte	0x64
 1109 04d6 92030000 		.4byte	0x392
 1110 04da 00000000 		.4byte	.LLST0
 1111 04de 17       		.uleb128 0x17
 1112 04df 2E010000 		.4byte	.LASF56
 1113 04e3 01       		.byte	0x1
 1114 04e4 64       		.byte	0x64
 1115 04e5 67040000 		.4byte	0x467
 1116 04e9 1E000000 		.4byte	.LLST1
 1117 04ed 18       		.uleb128 0x18
 1118 04ee 0E000000 		.4byte	.LVL3
 1119 04f2 F2070000 		.4byte	0x7f2
 1120 04f6 19       		.uleb128 0x19
 1121 04f7 01       		.uleb128 0x1
 1122 04f8 50       		.byte	0x50
 1123 04f9 02       		.uleb128 0x2
 1124 04fa 74       		.byte	0x74
 1125 04fb 00       		.sleb128 0
 1126 04fc 00       		.byte	0
 1127 04fd 00       		.byte	0
 1128 04fe 14       		.uleb128 0x14
 1129 04ff D7040000 		.4byte	.LASF76
ARM GAS  /tmp/cc0Spldr.s 			page 21


 1130 0503 01       		.byte	0x1
 1131 0504 79       		.byte	0x79
 1132 0505 00000000 		.4byte	.LFB59
 1133 0509 1C000000 		.4byte	.LFE59-.LFB59
 1134 050d 01       		.uleb128 0x1
 1135 050e 9C       		.byte	0x9c
 1136 050f 33050000 		.4byte	0x533
 1137 0513 17       		.uleb128 0x17
 1138 0514 16050000 		.4byte	.LASF75
 1139 0518 01       		.byte	0x1
 1140 0519 79       		.byte	0x79
 1141 051a 92030000 		.4byte	0x392
 1142 051e 3F000000 		.4byte	.LLST2
 1143 0522 18       		.uleb128 0x18
 1144 0523 0C000000 		.4byte	.LVL5
 1145 0527 04080000 		.4byte	0x804
 1146 052b 19       		.uleb128 0x19
 1147 052c 01       		.uleb128 0x1
 1148 052d 50       		.byte	0x50
 1149 052e 02       		.uleb128 0x2
 1150 052f 74       		.byte	0x74
 1151 0530 00       		.sleb128 0
 1152 0531 00       		.byte	0
 1153 0532 00       		.byte	0
 1154 0533 14       		.uleb128 0x14
 1155 0534 35010000 		.4byte	.LASF77
 1156 0538 01       		.byte	0x1
 1157 0539 93       		.byte	0x93
 1158 053a 00000000 		.4byte	.LFB60
 1159 053e 16000000 		.4byte	.LFE60-.LFB60
 1160 0542 01       		.uleb128 0x1
 1161 0543 9C       		.byte	0x9c
 1162 0544 92050000 		.4byte	0x592
 1163 0548 17       		.uleb128 0x17
 1164 0549 16050000 		.4byte	.LASF75
 1165 054d 01       		.byte	0x1
 1166 054e 93       		.byte	0x93
 1167 054f 92030000 		.4byte	0x392
 1168 0553 5D000000 		.4byte	.LLST3
 1169 0557 1A       		.uleb128 0x1a
 1170 0558 6E00     		.ascii	"n\000"
 1171 055a 01       		.byte	0x1
 1172 055b 93       		.byte	0x93
 1173 055c 2C000000 		.4byte	0x2c
 1174 0560 7B000000 		.4byte	.LLST4
 1175 0564 17       		.uleb128 0x17
 1176 0565 D7030000 		.4byte	.LASF78
 1177 0569 01       		.byte	0x1
 1178 056a 93       		.byte	0x93
 1179 056b 92050000 		.4byte	0x592
 1180 056f 9C000000 		.4byte	.LLST5
 1181 0573 18       		.uleb128 0x18
 1182 0574 0C000000 		.4byte	.LVL7
 1183 0578 16080000 		.4byte	0x816
 1184 057c 19       		.uleb128 0x19
 1185 057d 01       		.uleb128 0x1
 1186 057e 52       		.byte	0x52
ARM GAS  /tmp/cc0Spldr.s 			page 22


 1187 057f 03       		.uleb128 0x3
 1188 0580 F3       		.byte	0xf3
 1189 0581 01       		.uleb128 0x1
 1190 0582 52       		.byte	0x52
 1191 0583 19       		.uleb128 0x19
 1192 0584 01       		.uleb128 0x1
 1193 0585 51       		.byte	0x51
 1194 0586 03       		.uleb128 0x3
 1195 0587 F3       		.byte	0xf3
 1196 0588 01       		.uleb128 0x1
 1197 0589 51       		.byte	0x51
 1198 058a 19       		.uleb128 0x19
 1199 058b 01       		.uleb128 0x1
 1200 058c 50       		.byte	0x50
 1201 058d 02       		.uleb128 0x2
 1202 058e 74       		.byte	0x74
 1203 058f 00       		.sleb128 0
 1204 0590 00       		.byte	0
 1205 0591 00       		.byte	0
 1206 0592 0D       		.uleb128 0xd
 1207 0593 04       		.byte	0x4
 1208 0594 98050000 		.4byte	0x598
 1209 0598 1B       		.uleb128 0x1b
 1210 0599 14       		.uleb128 0x14
 1211 059a 2A000000 		.4byte	.LASF79
 1212 059e 01       		.byte	0x1
 1213 059f AF       		.byte	0xaf
 1214 05a0 00000000 		.4byte	.LFB61
 1215 05a4 0E000000 		.4byte	.LFE61-.LFB61
 1216 05a8 01       		.uleb128 0x1
 1217 05a9 9C       		.byte	0x9c
 1218 05aa F8050000 		.4byte	0x5f8
 1219 05ae 17       		.uleb128 0x17
 1220 05af 16050000 		.4byte	.LASF75
 1221 05b3 01       		.byte	0x1
 1222 05b4 AF       		.byte	0xaf
 1223 05b5 92030000 		.4byte	0x392
 1224 05b9 BD000000 		.4byte	.LLST6
 1225 05bd 1A       		.uleb128 0x1a
 1226 05be 6E00     		.ascii	"n\000"
 1227 05c0 01       		.byte	0x1
 1228 05c1 AF       		.byte	0xaf
 1229 05c2 2C000000 		.4byte	0x2c
 1230 05c6 DB000000 		.4byte	.LLST7
 1231 05ca 17       		.uleb128 0x17
 1232 05cb D7030000 		.4byte	.LASF78
 1233 05cf 01       		.byte	0x1
 1234 05d0 AF       		.byte	0xaf
 1235 05d1 92050000 		.4byte	0x592
 1236 05d5 FC000000 		.4byte	.LLST8
 1237 05d9 18       		.uleb128 0x18
 1238 05da 08000000 		.4byte	.LVL9
 1239 05de 16080000 		.4byte	0x816
 1240 05e2 19       		.uleb128 0x19
 1241 05e3 01       		.uleb128 0x1
 1242 05e4 52       		.byte	0x52
 1243 05e5 03       		.uleb128 0x3
ARM GAS  /tmp/cc0Spldr.s 			page 23


 1244 05e6 F3       		.byte	0xf3
 1245 05e7 01       		.uleb128 0x1
 1246 05e8 52       		.byte	0x52
 1247 05e9 19       		.uleb128 0x19
 1248 05ea 01       		.uleb128 0x1
 1249 05eb 51       		.byte	0x51
 1250 05ec 03       		.uleb128 0x3
 1251 05ed F3       		.byte	0xf3
 1252 05ee 01       		.uleb128 0x1
 1253 05ef 51       		.byte	0x51
 1254 05f0 19       		.uleb128 0x19
 1255 05f1 01       		.uleb128 0x1
 1256 05f2 50       		.byte	0x50
 1257 05f3 02       		.uleb128 0x2
 1258 05f4 74       		.byte	0x74
 1259 05f5 00       		.sleb128 0
 1260 05f6 00       		.byte	0
 1261 05f7 00       		.byte	0
 1262 05f8 1C       		.uleb128 0x1c
 1263 05f9 F4000000 		.4byte	.LASF80
 1264 05fd 01       		.byte	0x1
 1265 05fe C9       		.byte	0xc9
 1266 05ff 2C000000 		.4byte	0x2c
 1267 0603 00000000 		.4byte	.LFB62
 1268 0607 28000000 		.4byte	.LFE62-.LFB62
 1269 060b 01       		.uleb128 0x1
 1270 060c 9C       		.byte	0x9c
 1271 060d 3E060000 		.4byte	0x63e
 1272 0611 17       		.uleb128 0x17
 1273 0612 16050000 		.4byte	.LASF75
 1274 0616 01       		.byte	0x1
 1275 0617 C9       		.byte	0xc9
 1276 0618 92030000 		.4byte	0x392
 1277 061c 1D010000 		.4byte	.LLST9
 1278 0620 1D       		.uleb128 0x1d
 1279 0621 6E00     		.ascii	"n\000"
 1280 0623 01       		.byte	0x1
 1281 0624 CA       		.byte	0xca
 1282 0625 2C000000 		.4byte	0x2c
 1283 0629 3B010000 		.4byte	.LLST10
 1284 062d 18       		.uleb128 0x18
 1285 062e 1E000000 		.4byte	.LVL14
 1286 0632 32080000 		.4byte	0x832
 1287 0636 19       		.uleb128 0x19
 1288 0637 01       		.uleb128 0x1
 1289 0638 50       		.byte	0x50
 1290 0639 02       		.uleb128 0x2
 1291 063a 74       		.byte	0x74
 1292 063b 00       		.sleb128 0
 1293 063c 00       		.byte	0
 1294 063d 00       		.byte	0
 1295 063e 1C       		.uleb128 0x1c
 1296 063f 47000000 		.4byte	.LASF81
 1297 0643 01       		.byte	0x1
 1298 0644 E8       		.byte	0xe8
 1299 0645 2C000000 		.4byte	0x2c
 1300 0649 00000000 		.4byte	.LFB63
ARM GAS  /tmp/cc0Spldr.s 			page 24


 1301 064d 18000000 		.4byte	.LFE63-.LFB63
 1302 0651 01       		.uleb128 0x1
 1303 0652 9C       		.byte	0x9c
 1304 0653 85060000 		.4byte	0x685
 1305 0657 17       		.uleb128 0x17
 1306 0658 16050000 		.4byte	.LASF75
 1307 065c 01       		.byte	0x1
 1308 065d E8       		.byte	0xe8
 1309 065e 92030000 		.4byte	0x392
 1310 0662 59010000 		.4byte	.LLST11
 1311 0666 1E       		.uleb128 0x1e
 1312 0667 0E000000 		.4byte	.LBB2
 1313 066b 0A000000 		.4byte	.LBE2-.LBB2
 1314 066f 1F       		.uleb128 0x1f
 1315 0670 6E00     		.ascii	"n\000"
 1316 0672 01       		.byte	0x1
 1317 0673 EF       		.byte	0xef
 1318 0674 2C000000 		.4byte	0x2c
 1319 0678 01       		.uleb128 0x1
 1320 0679 50       		.byte	0x50
 1321 067a 20       		.uleb128 0x20
 1322 067b 12000000 		.4byte	.LVL18
 1323 067f 32080000 		.4byte	0x832
 1324 0683 00       		.byte	0
 1325 0684 00       		.byte	0
 1326 0685 21       		.uleb128 0x21
 1327 0686 56010000 		.4byte	.LASF82
 1328 068a 01       		.byte	0x1
 1329 068b 0101     		.2byte	0x101
 1330 068d 00000000 		.4byte	.LFB64
 1331 0691 16000000 		.4byte	.LFE64-.LFB64
 1332 0695 01       		.uleb128 0x1
 1333 0696 9C       		.byte	0x9c
 1334 0697 E8060000 		.4byte	0x6e8
 1335 069b 22       		.uleb128 0x22
 1336 069c 16050000 		.4byte	.LASF75
 1337 06a0 01       		.byte	0x1
 1338 06a1 0101     		.2byte	0x101
 1339 06a3 92030000 		.4byte	0x392
 1340 06a7 8D010000 		.4byte	.LLST12
 1341 06ab 23       		.uleb128 0x23
 1342 06ac 6E00     		.ascii	"n\000"
 1343 06ae 01       		.byte	0x1
 1344 06af 0101     		.2byte	0x101
 1345 06b1 2C000000 		.4byte	0x2c
 1346 06b5 AB010000 		.4byte	.LLST13
 1347 06b9 22       		.uleb128 0x22
 1348 06ba E0040000 		.4byte	.LASF61
 1349 06be 01       		.byte	0x1
 1350 06bf 0101     		.2byte	0x101
 1351 06c1 D5000000 		.4byte	0xd5
 1352 06c5 CC010000 		.4byte	.LLST14
 1353 06c9 18       		.uleb128 0x18
 1354 06ca 0C000000 		.4byte	.LVL20
 1355 06ce 48080000 		.4byte	0x848
 1356 06d2 19       		.uleb128 0x19
 1357 06d3 01       		.uleb128 0x1
ARM GAS  /tmp/cc0Spldr.s 			page 25


 1358 06d4 52       		.byte	0x52
 1359 06d5 03       		.uleb128 0x3
 1360 06d6 F3       		.byte	0xf3
 1361 06d7 01       		.uleb128 0x1
 1362 06d8 52       		.byte	0x52
 1363 06d9 19       		.uleb128 0x19
 1364 06da 01       		.uleb128 0x1
 1365 06db 51       		.byte	0x51
 1366 06dc 03       		.uleb128 0x3
 1367 06dd F3       		.byte	0xf3
 1368 06de 01       		.uleb128 0x1
 1369 06df 51       		.byte	0x51
 1370 06e0 19       		.uleb128 0x19
 1371 06e1 01       		.uleb128 0x1
 1372 06e2 50       		.byte	0x50
 1373 06e3 02       		.uleb128 0x2
 1374 06e4 74       		.byte	0x74
 1375 06e5 00       		.sleb128 0
 1376 06e6 00       		.byte	0
 1377 06e7 00       		.byte	0
 1378 06e8 21       		.uleb128 0x21
 1379 06e9 E6040000 		.4byte	.LASF83
 1380 06ed 01       		.byte	0x1
 1381 06ee 1D01     		.2byte	0x11d
 1382 06f0 00000000 		.4byte	.LFB65
 1383 06f4 0E000000 		.4byte	.LFE65-.LFB65
 1384 06f8 01       		.uleb128 0x1
 1385 06f9 9C       		.byte	0x9c
 1386 06fa 4B070000 		.4byte	0x74b
 1387 06fe 22       		.uleb128 0x22
 1388 06ff 16050000 		.4byte	.LASF75
 1389 0703 01       		.byte	0x1
 1390 0704 1D01     		.2byte	0x11d
 1391 0706 92030000 		.4byte	0x392
 1392 070a ED010000 		.4byte	.LLST15
 1393 070e 23       		.uleb128 0x23
 1394 070f 6E00     		.ascii	"n\000"
 1395 0711 01       		.byte	0x1
 1396 0712 1D01     		.2byte	0x11d
 1397 0714 2C000000 		.4byte	0x2c
 1398 0718 0B020000 		.4byte	.LLST16
 1399 071c 22       		.uleb128 0x22
 1400 071d E0040000 		.4byte	.LASF61
 1401 0721 01       		.byte	0x1
 1402 0722 1D01     		.2byte	0x11d
 1403 0724 D5000000 		.4byte	0xd5
 1404 0728 2C020000 		.4byte	.LLST17
 1405 072c 18       		.uleb128 0x18
 1406 072d 08000000 		.4byte	.LVL22
 1407 0731 48080000 		.4byte	0x848
 1408 0735 19       		.uleb128 0x19
 1409 0736 01       		.uleb128 0x1
 1410 0737 52       		.byte	0x52
 1411 0738 03       		.uleb128 0x3
 1412 0739 F3       		.byte	0xf3
 1413 073a 01       		.uleb128 0x1
 1414 073b 52       		.byte	0x52
ARM GAS  /tmp/cc0Spldr.s 			page 26


 1415 073c 19       		.uleb128 0x19
 1416 073d 01       		.uleb128 0x1
 1417 073e 51       		.byte	0x51
 1418 073f 03       		.uleb128 0x3
 1419 0740 F3       		.byte	0xf3
 1420 0741 01       		.uleb128 0x1
 1421 0742 51       		.byte	0x51
 1422 0743 19       		.uleb128 0x19
 1423 0744 01       		.uleb128 0x1
 1424 0745 50       		.byte	0x50
 1425 0746 02       		.uleb128 0x2
 1426 0747 74       		.byte	0x74
 1427 0748 00       		.sleb128 0
 1428 0749 00       		.byte	0
 1429 074a 00       		.byte	0
 1430 074b 24       		.uleb128 0x24
 1431 074c DE010000 		.4byte	.LASF84
 1432 0750 01       		.byte	0x1
 1433 0751 3701     		.2byte	0x137
 1434 0753 2C000000 		.4byte	0x2c
 1435 0757 00000000 		.4byte	.LFB66
 1436 075b 28000000 		.4byte	.LFE66-.LFB66
 1437 075f 01       		.uleb128 0x1
 1438 0760 9C       		.byte	0x9c
 1439 0761 94070000 		.4byte	0x794
 1440 0765 22       		.uleb128 0x22
 1441 0766 16050000 		.4byte	.LASF75
 1442 076a 01       		.byte	0x1
 1443 076b 3701     		.2byte	0x137
 1444 076d 92030000 		.4byte	0x392
 1445 0771 4D020000 		.4byte	.LLST18
 1446 0775 25       		.uleb128 0x25
 1447 0776 6E00     		.ascii	"n\000"
 1448 0778 01       		.byte	0x1
 1449 0779 3801     		.2byte	0x138
 1450 077b 2C000000 		.4byte	0x2c
 1451 077f 6B020000 		.4byte	.LLST19
 1452 0783 18       		.uleb128 0x18
 1453 0784 1E000000 		.4byte	.LVL27
 1454 0788 64080000 		.4byte	0x864
 1455 078c 19       		.uleb128 0x19
 1456 078d 01       		.uleb128 0x1
 1457 078e 50       		.byte	0x50
 1458 078f 02       		.uleb128 0x2
 1459 0790 74       		.byte	0x74
 1460 0791 00       		.sleb128 0
 1461 0792 00       		.byte	0
 1462 0793 00       		.byte	0
 1463 0794 24       		.uleb128 0x24
 1464 0795 66020000 		.4byte	.LASF85
 1465 0799 01       		.byte	0x1
 1466 079a 5701     		.2byte	0x157
 1467 079c 2C000000 		.4byte	0x2c
 1468 07a0 00000000 		.4byte	.LFB67
 1469 07a4 18000000 		.4byte	.LFE67-.LFB67
 1470 07a8 01       		.uleb128 0x1
 1471 07a9 9C       		.byte	0x9c
ARM GAS  /tmp/cc0Spldr.s 			page 27


 1472 07aa DE070000 		.4byte	0x7de
 1473 07ae 22       		.uleb128 0x22
 1474 07af 16050000 		.4byte	.LASF75
 1475 07b3 01       		.byte	0x1
 1476 07b4 5701     		.2byte	0x157
 1477 07b6 92030000 		.4byte	0x392
 1478 07ba 89020000 		.4byte	.LLST20
 1479 07be 1E       		.uleb128 0x1e
 1480 07bf 0E000000 		.4byte	.LBB3
 1481 07c3 0A000000 		.4byte	.LBE3-.LBB3
 1482 07c7 26       		.uleb128 0x26
 1483 07c8 6E00     		.ascii	"n\000"
 1484 07ca 01       		.byte	0x1
 1485 07cb 5F01     		.2byte	0x15f
 1486 07cd 2C000000 		.4byte	0x2c
 1487 07d1 01       		.uleb128 0x1
 1488 07d2 50       		.byte	0x50
 1489 07d3 20       		.uleb128 0x20
 1490 07d4 12000000 		.4byte	.LVL31
 1491 07d8 64080000 		.4byte	0x864
 1492 07dc 00       		.byte	0
 1493 07dd 00       		.byte	0
 1494 07de 27       		.uleb128 0x27
 1495 07df FF040000 		.4byte	.LASF94
 1496 07e3 09       		.byte	0x9
 1497 07e4 0706     		.2byte	0x607
 1498 07e6 E8000000 		.4byte	0xe8
 1499 07ea 28       		.uleb128 0x28
 1500 07eb 4A020000 		.4byte	.LASF95
 1501 07ef 08       		.byte	0x8
 1502 07f0 9902     		.2byte	0x299
 1503 07f2 29       		.uleb128 0x29
 1504 07f3 28020000 		.4byte	.LASF86
 1505 07f7 08       		.byte	0x8
 1506 07f8 9A02     		.2byte	0x29a
 1507 07fa 04080000 		.4byte	0x804
 1508 07fe 13       		.uleb128 0x13
 1509 07ff 92030000 		.4byte	0x392
 1510 0803 00       		.byte	0
 1511 0804 29       		.uleb128 0x29
 1512 0805 2C050000 		.4byte	.LASF87
 1513 0809 08       		.byte	0x8
 1514 080a 9B02     		.2byte	0x29b
 1515 080c 16080000 		.4byte	0x816
 1516 0810 13       		.uleb128 0x13
 1517 0811 92030000 		.4byte	0x392
 1518 0815 00       		.byte	0
 1519 0816 29       		.uleb128 0x29
 1520 0817 CA010000 		.4byte	.LASF88
 1521 081b 08       		.byte	0x8
 1522 081c 9C02     		.2byte	0x29c
 1523 081e 32080000 		.4byte	0x832
 1524 0822 13       		.uleb128 0x13
 1525 0823 92030000 		.4byte	0x392
 1526 0827 13       		.uleb128 0x13
 1527 0828 2C000000 		.4byte	0x2c
 1528 082c 13       		.uleb128 0x13
ARM GAS  /tmp/cc0Spldr.s 			page 28


 1529 082d 92050000 		.4byte	0x592
 1530 0831 00       		.byte	0
 1531 0832 2A       		.uleb128 0x2a
 1532 0833 B8040000 		.4byte	.LASF96
 1533 0837 08       		.byte	0x8
 1534 0838 9D02     		.2byte	0x29d
 1535 083a 2C000000 		.4byte	0x2c
 1536 083e 48080000 		.4byte	0x848
 1537 0842 13       		.uleb128 0x13
 1538 0843 92030000 		.4byte	0x392
 1539 0847 00       		.byte	0
 1540 0848 29       		.uleb128 0x29
 1541 0849 67040000 		.4byte	.LASF89
 1542 084d 08       		.byte	0x8
 1543 084e 9E02     		.2byte	0x29e
 1544 0850 64080000 		.4byte	0x864
 1545 0854 13       		.uleb128 0x13
 1546 0855 92030000 		.4byte	0x392
 1547 0859 13       		.uleb128 0x13
 1548 085a 2C000000 		.4byte	0x2c
 1549 085e 13       		.uleb128 0x13
 1550 085f D5000000 		.4byte	0xd5
 1551 0863 00       		.byte	0
 1552 0864 2B       		.uleb128 0x2b
 1553 0865 6E000000 		.4byte	.LASF90
 1554 0869 08       		.byte	0x8
 1555 086a 9F02     		.2byte	0x29f
 1556 086c 2C000000 		.4byte	0x2c
 1557 0870 13       		.uleb128 0x13
 1558 0871 92030000 		.4byte	0x392
 1559 0875 00       		.byte	0
 1560 0876 00       		.byte	0
 1561              		.section	.debug_abbrev,"",%progbits
 1562              	.Ldebug_abbrev0:
 1563 0000 01       		.uleb128 0x1
 1564 0001 11       		.uleb128 0x11
 1565 0002 01       		.byte	0x1
 1566 0003 25       		.uleb128 0x25
 1567 0004 0E       		.uleb128 0xe
 1568 0005 13       		.uleb128 0x13
 1569 0006 0B       		.uleb128 0xb
 1570 0007 03       		.uleb128 0x3
 1571 0008 0E       		.uleb128 0xe
 1572 0009 1B       		.uleb128 0x1b
 1573 000a 0E       		.uleb128 0xe
 1574 000b 55       		.uleb128 0x55
 1575 000c 17       		.uleb128 0x17
 1576 000d 11       		.uleb128 0x11
 1577 000e 01       		.uleb128 0x1
 1578 000f 10       		.uleb128 0x10
 1579 0010 17       		.uleb128 0x17
 1580 0011 00       		.byte	0
 1581 0012 00       		.byte	0
 1582 0013 02       		.uleb128 0x2
 1583 0014 24       		.uleb128 0x24
 1584 0015 00       		.byte	0
 1585 0016 0B       		.uleb128 0xb
ARM GAS  /tmp/cc0Spldr.s 			page 29


 1586 0017 0B       		.uleb128 0xb
 1587 0018 3E       		.uleb128 0x3e
 1588 0019 0B       		.uleb128 0xb
 1589 001a 03       		.uleb128 0x3
 1590 001b 08       		.uleb128 0x8
 1591 001c 00       		.byte	0
 1592 001d 00       		.byte	0
 1593 001e 03       		.uleb128 0x3
 1594 001f 16       		.uleb128 0x16
 1595 0020 00       		.byte	0
 1596 0021 03       		.uleb128 0x3
 1597 0022 0E       		.uleb128 0xe
 1598 0023 3A       		.uleb128 0x3a
 1599 0024 0B       		.uleb128 0xb
 1600 0025 3B       		.uleb128 0x3b
 1601 0026 0B       		.uleb128 0xb
 1602 0027 49       		.uleb128 0x49
 1603 0028 13       		.uleb128 0x13
 1604 0029 00       		.byte	0
 1605 002a 00       		.byte	0
 1606 002b 04       		.uleb128 0x4
 1607 002c 24       		.uleb128 0x24
 1608 002d 00       		.byte	0
 1609 002e 0B       		.uleb128 0xb
 1610 002f 0B       		.uleb128 0xb
 1611 0030 3E       		.uleb128 0x3e
 1612 0031 0B       		.uleb128 0xb
 1613 0032 03       		.uleb128 0x3
 1614 0033 0E       		.uleb128 0xe
 1615 0034 00       		.byte	0
 1616 0035 00       		.byte	0
 1617 0036 05       		.uleb128 0x5
 1618 0037 0F       		.uleb128 0xf
 1619 0038 00       		.byte	0
 1620 0039 0B       		.uleb128 0xb
 1621 003a 0B       		.uleb128 0xb
 1622 003b 00       		.byte	0
 1623 003c 00       		.byte	0
 1624 003d 06       		.uleb128 0x6
 1625 003e 35       		.uleb128 0x35
 1626 003f 00       		.byte	0
 1627 0040 49       		.uleb128 0x49
 1628 0041 13       		.uleb128 0x13
 1629 0042 00       		.byte	0
 1630 0043 00       		.byte	0
 1631 0044 07       		.uleb128 0x7
 1632 0045 13       		.uleb128 0x13
 1633 0046 01       		.byte	0x1
 1634 0047 0B       		.uleb128 0xb
 1635 0048 0B       		.uleb128 0xb
 1636 0049 3A       		.uleb128 0x3a
 1637 004a 0B       		.uleb128 0xb
 1638 004b 3B       		.uleb128 0x3b
 1639 004c 05       		.uleb128 0x5
 1640 004d 01       		.uleb128 0x1
 1641 004e 13       		.uleb128 0x13
 1642 004f 00       		.byte	0
ARM GAS  /tmp/cc0Spldr.s 			page 30


 1643 0050 00       		.byte	0
 1644 0051 08       		.uleb128 0x8
 1645 0052 0D       		.uleb128 0xd
 1646 0053 00       		.byte	0
 1647 0054 03       		.uleb128 0x3
 1648 0055 08       		.uleb128 0x8
 1649 0056 3A       		.uleb128 0x3a
 1650 0057 0B       		.uleb128 0xb
 1651 0058 3B       		.uleb128 0x3b
 1652 0059 05       		.uleb128 0x5
 1653 005a 49       		.uleb128 0x49
 1654 005b 13       		.uleb128 0x13
 1655 005c 38       		.uleb128 0x38
 1656 005d 0B       		.uleb128 0xb
 1657 005e 00       		.byte	0
 1658 005f 00       		.byte	0
 1659 0060 09       		.uleb128 0x9
 1660 0061 0D       		.uleb128 0xd
 1661 0062 00       		.byte	0
 1662 0063 03       		.uleb128 0x3
 1663 0064 0E       		.uleb128 0xe
 1664 0065 3A       		.uleb128 0x3a
 1665 0066 0B       		.uleb128 0xb
 1666 0067 3B       		.uleb128 0x3b
 1667 0068 05       		.uleb128 0x5
 1668 0069 49       		.uleb128 0x49
 1669 006a 13       		.uleb128 0x13
 1670 006b 38       		.uleb128 0x38
 1671 006c 0B       		.uleb128 0xb
 1672 006d 00       		.byte	0
 1673 006e 00       		.byte	0
 1674 006f 0A       		.uleb128 0xa
 1675 0070 16       		.uleb128 0x16
 1676 0071 00       		.byte	0
 1677 0072 03       		.uleb128 0x3
 1678 0073 0E       		.uleb128 0xe
 1679 0074 3A       		.uleb128 0x3a
 1680 0075 0B       		.uleb128 0xb
 1681 0076 3B       		.uleb128 0x3b
 1682 0077 05       		.uleb128 0x5
 1683 0078 49       		.uleb128 0x49
 1684 0079 13       		.uleb128 0x13
 1685 007a 00       		.byte	0
 1686 007b 00       		.byte	0
 1687 007c 0B       		.uleb128 0xb
 1688 007d 13       		.uleb128 0x13
 1689 007e 01       		.byte	0x1
 1690 007f 0B       		.uleb128 0xb
 1691 0080 0B       		.uleb128 0xb
 1692 0081 3A       		.uleb128 0x3a
 1693 0082 0B       		.uleb128 0xb
 1694 0083 3B       		.uleb128 0x3b
 1695 0084 0B       		.uleb128 0xb
 1696 0085 01       		.uleb128 0x1
 1697 0086 13       		.uleb128 0x13
 1698 0087 00       		.byte	0
 1699 0088 00       		.byte	0
ARM GAS  /tmp/cc0Spldr.s 			page 31


 1700 0089 0C       		.uleb128 0xc
 1701 008a 0D       		.uleb128 0xd
 1702 008b 00       		.byte	0
 1703 008c 03       		.uleb128 0x3
 1704 008d 0E       		.uleb128 0xe
 1705 008e 3A       		.uleb128 0x3a
 1706 008f 0B       		.uleb128 0xb
 1707 0090 3B       		.uleb128 0x3b
 1708 0091 0B       		.uleb128 0xb
 1709 0092 49       		.uleb128 0x49
 1710 0093 13       		.uleb128 0x13
 1711 0094 38       		.uleb128 0x38
 1712 0095 0B       		.uleb128 0xb
 1713 0096 00       		.byte	0
 1714 0097 00       		.byte	0
 1715 0098 0D       		.uleb128 0xd
 1716 0099 0F       		.uleb128 0xf
 1717 009a 00       		.byte	0
 1718 009b 0B       		.uleb128 0xb
 1719 009c 0B       		.uleb128 0xb
 1720 009d 49       		.uleb128 0x49
 1721 009e 13       		.uleb128 0x13
 1722 009f 00       		.byte	0
 1723 00a0 00       		.byte	0
 1724 00a1 0E       		.uleb128 0xe
 1725 00a2 26       		.uleb128 0x26
 1726 00a3 00       		.byte	0
 1727 00a4 49       		.uleb128 0x49
 1728 00a5 13       		.uleb128 0x13
 1729 00a6 00       		.byte	0
 1730 00a7 00       		.byte	0
 1731 00a8 0F       		.uleb128 0xf
 1732 00a9 04       		.uleb128 0x4
 1733 00aa 01       		.byte	0x1
 1734 00ab 0B       		.uleb128 0xb
 1735 00ac 0B       		.uleb128 0xb
 1736 00ad 3A       		.uleb128 0x3a
 1737 00ae 0B       		.uleb128 0xb
 1738 00af 3B       		.uleb128 0x3b
 1739 00b0 0B       		.uleb128 0xb
 1740 00b1 01       		.uleb128 0x1
 1741 00b2 13       		.uleb128 0x13
 1742 00b3 00       		.byte	0
 1743 00b4 00       		.byte	0
 1744 00b5 10       		.uleb128 0x10
 1745 00b6 28       		.uleb128 0x28
 1746 00b7 00       		.byte	0
 1747 00b8 03       		.uleb128 0x3
 1748 00b9 0E       		.uleb128 0xe
 1749 00ba 1C       		.uleb128 0x1c
 1750 00bb 0D       		.uleb128 0xd
 1751 00bc 00       		.byte	0
 1752 00bd 00       		.byte	0
 1753 00be 11       		.uleb128 0x11
 1754 00bf 13       		.uleb128 0x13
 1755 00c0 01       		.byte	0x1
 1756 00c1 03       		.uleb128 0x3
ARM GAS  /tmp/cc0Spldr.s 			page 32


 1757 00c2 0E       		.uleb128 0xe
 1758 00c3 0B       		.uleb128 0xb
 1759 00c4 0B       		.uleb128 0xb
 1760 00c5 3A       		.uleb128 0x3a
 1761 00c6 0B       		.uleb128 0xb
 1762 00c7 3B       		.uleb128 0x3b
 1763 00c8 05       		.uleb128 0x5
 1764 00c9 01       		.uleb128 0x1
 1765 00ca 13       		.uleb128 0x13
 1766 00cb 00       		.byte	0
 1767 00cc 00       		.byte	0
 1768 00cd 12       		.uleb128 0x12
 1769 00ce 15       		.uleb128 0x15
 1770 00cf 01       		.byte	0x1
 1771 00d0 27       		.uleb128 0x27
 1772 00d1 19       		.uleb128 0x19
 1773 00d2 01       		.uleb128 0x1
 1774 00d3 13       		.uleb128 0x13
 1775 00d4 00       		.byte	0
 1776 00d5 00       		.byte	0
 1777 00d6 13       		.uleb128 0x13
 1778 00d7 05       		.uleb128 0x5
 1779 00d8 00       		.byte	0
 1780 00d9 49       		.uleb128 0x49
 1781 00da 13       		.uleb128 0x13
 1782 00db 00       		.byte	0
 1783 00dc 00       		.byte	0
 1784 00dd 14       		.uleb128 0x14
 1785 00de 2E       		.uleb128 0x2e
 1786 00df 01       		.byte	0x1
 1787 00e0 3F       		.uleb128 0x3f
 1788 00e1 19       		.uleb128 0x19
 1789 00e2 03       		.uleb128 0x3
 1790 00e3 0E       		.uleb128 0xe
 1791 00e4 3A       		.uleb128 0x3a
 1792 00e5 0B       		.uleb128 0xb
 1793 00e6 3B       		.uleb128 0x3b
 1794 00e7 0B       		.uleb128 0xb
 1795 00e8 27       		.uleb128 0x27
 1796 00e9 19       		.uleb128 0x19
 1797 00ea 11       		.uleb128 0x11
 1798 00eb 01       		.uleb128 0x1
 1799 00ec 12       		.uleb128 0x12
 1800 00ed 06       		.uleb128 0x6
 1801 00ee 40       		.uleb128 0x40
 1802 00ef 18       		.uleb128 0x18
 1803 00f0 9742     		.uleb128 0x2117
 1804 00f2 19       		.uleb128 0x19
 1805 00f3 01       		.uleb128 0x1
 1806 00f4 13       		.uleb128 0x13
 1807 00f5 00       		.byte	0
 1808 00f6 00       		.byte	0
 1809 00f7 15       		.uleb128 0x15
 1810 00f8 898201   		.uleb128 0x4109
 1811 00fb 00       		.byte	0
 1812 00fc 11       		.uleb128 0x11
 1813 00fd 01       		.uleb128 0x1
ARM GAS  /tmp/cc0Spldr.s 			page 33


 1814 00fe 9542     		.uleb128 0x2115
 1815 0100 19       		.uleb128 0x19
 1816 0101 31       		.uleb128 0x31
 1817 0102 13       		.uleb128 0x13
 1818 0103 00       		.byte	0
 1819 0104 00       		.byte	0
 1820 0105 16       		.uleb128 0x16
 1821 0106 05       		.uleb128 0x5
 1822 0107 00       		.byte	0
 1823 0108 03       		.uleb128 0x3
 1824 0109 0E       		.uleb128 0xe
 1825 010a 3A       		.uleb128 0x3a
 1826 010b 0B       		.uleb128 0xb
 1827 010c 3B       		.uleb128 0x3b
 1828 010d 0B       		.uleb128 0xb
 1829 010e 49       		.uleb128 0x49
 1830 010f 13       		.uleb128 0x13
 1831 0110 02       		.uleb128 0x2
 1832 0111 18       		.uleb128 0x18
 1833 0112 00       		.byte	0
 1834 0113 00       		.byte	0
 1835 0114 17       		.uleb128 0x17
 1836 0115 05       		.uleb128 0x5
 1837 0116 00       		.byte	0
 1838 0117 03       		.uleb128 0x3
 1839 0118 0E       		.uleb128 0xe
 1840 0119 3A       		.uleb128 0x3a
 1841 011a 0B       		.uleb128 0xb
 1842 011b 3B       		.uleb128 0x3b
 1843 011c 0B       		.uleb128 0xb
 1844 011d 49       		.uleb128 0x49
 1845 011e 13       		.uleb128 0x13
 1846 011f 02       		.uleb128 0x2
 1847 0120 17       		.uleb128 0x17
 1848 0121 00       		.byte	0
 1849 0122 00       		.byte	0
 1850 0123 18       		.uleb128 0x18
 1851 0124 898201   		.uleb128 0x4109
 1852 0127 01       		.byte	0x1
 1853 0128 11       		.uleb128 0x11
 1854 0129 01       		.uleb128 0x1
 1855 012a 31       		.uleb128 0x31
 1856 012b 13       		.uleb128 0x13
 1857 012c 00       		.byte	0
 1858 012d 00       		.byte	0
 1859 012e 19       		.uleb128 0x19
 1860 012f 8A8201   		.uleb128 0x410a
 1861 0132 00       		.byte	0
 1862 0133 02       		.uleb128 0x2
 1863 0134 18       		.uleb128 0x18
 1864 0135 9142     		.uleb128 0x2111
 1865 0137 18       		.uleb128 0x18
 1866 0138 00       		.byte	0
 1867 0139 00       		.byte	0
 1868 013a 1A       		.uleb128 0x1a
 1869 013b 05       		.uleb128 0x5
 1870 013c 00       		.byte	0
ARM GAS  /tmp/cc0Spldr.s 			page 34


 1871 013d 03       		.uleb128 0x3
 1872 013e 08       		.uleb128 0x8
 1873 013f 3A       		.uleb128 0x3a
 1874 0140 0B       		.uleb128 0xb
 1875 0141 3B       		.uleb128 0x3b
 1876 0142 0B       		.uleb128 0xb
 1877 0143 49       		.uleb128 0x49
 1878 0144 13       		.uleb128 0x13
 1879 0145 02       		.uleb128 0x2
 1880 0146 17       		.uleb128 0x17
 1881 0147 00       		.byte	0
 1882 0148 00       		.byte	0
 1883 0149 1B       		.uleb128 0x1b
 1884 014a 26       		.uleb128 0x26
 1885 014b 00       		.byte	0
 1886 014c 00       		.byte	0
 1887 014d 00       		.byte	0
 1888 014e 1C       		.uleb128 0x1c
 1889 014f 2E       		.uleb128 0x2e
 1890 0150 01       		.byte	0x1
 1891 0151 3F       		.uleb128 0x3f
 1892 0152 19       		.uleb128 0x19
 1893 0153 03       		.uleb128 0x3
 1894 0154 0E       		.uleb128 0xe
 1895 0155 3A       		.uleb128 0x3a
 1896 0156 0B       		.uleb128 0xb
 1897 0157 3B       		.uleb128 0x3b
 1898 0158 0B       		.uleb128 0xb
 1899 0159 27       		.uleb128 0x27
 1900 015a 19       		.uleb128 0x19
 1901 015b 49       		.uleb128 0x49
 1902 015c 13       		.uleb128 0x13
 1903 015d 11       		.uleb128 0x11
 1904 015e 01       		.uleb128 0x1
 1905 015f 12       		.uleb128 0x12
 1906 0160 06       		.uleb128 0x6
 1907 0161 40       		.uleb128 0x40
 1908 0162 18       		.uleb128 0x18
 1909 0163 9742     		.uleb128 0x2117
 1910 0165 19       		.uleb128 0x19
 1911 0166 01       		.uleb128 0x1
 1912 0167 13       		.uleb128 0x13
 1913 0168 00       		.byte	0
 1914 0169 00       		.byte	0
 1915 016a 1D       		.uleb128 0x1d
 1916 016b 34       		.uleb128 0x34
 1917 016c 00       		.byte	0
 1918 016d 03       		.uleb128 0x3
 1919 016e 08       		.uleb128 0x8
 1920 016f 3A       		.uleb128 0x3a
 1921 0170 0B       		.uleb128 0xb
 1922 0171 3B       		.uleb128 0x3b
 1923 0172 0B       		.uleb128 0xb
 1924 0173 49       		.uleb128 0x49
 1925 0174 13       		.uleb128 0x13
 1926 0175 02       		.uleb128 0x2
 1927 0176 17       		.uleb128 0x17
ARM GAS  /tmp/cc0Spldr.s 			page 35


 1928 0177 00       		.byte	0
 1929 0178 00       		.byte	0
 1930 0179 1E       		.uleb128 0x1e
 1931 017a 0B       		.uleb128 0xb
 1932 017b 01       		.byte	0x1
 1933 017c 11       		.uleb128 0x11
 1934 017d 01       		.uleb128 0x1
 1935 017e 12       		.uleb128 0x12
 1936 017f 06       		.uleb128 0x6
 1937 0180 00       		.byte	0
 1938 0181 00       		.byte	0
 1939 0182 1F       		.uleb128 0x1f
 1940 0183 34       		.uleb128 0x34
 1941 0184 00       		.byte	0
 1942 0185 03       		.uleb128 0x3
 1943 0186 08       		.uleb128 0x8
 1944 0187 3A       		.uleb128 0x3a
 1945 0188 0B       		.uleb128 0xb
 1946 0189 3B       		.uleb128 0x3b
 1947 018a 0B       		.uleb128 0xb
 1948 018b 49       		.uleb128 0x49
 1949 018c 13       		.uleb128 0x13
 1950 018d 02       		.uleb128 0x2
 1951 018e 18       		.uleb128 0x18
 1952 018f 00       		.byte	0
 1953 0190 00       		.byte	0
 1954 0191 20       		.uleb128 0x20
 1955 0192 898201   		.uleb128 0x4109
 1956 0195 00       		.byte	0
 1957 0196 11       		.uleb128 0x11
 1958 0197 01       		.uleb128 0x1
 1959 0198 31       		.uleb128 0x31
 1960 0199 13       		.uleb128 0x13
 1961 019a 00       		.byte	0
 1962 019b 00       		.byte	0
 1963 019c 21       		.uleb128 0x21
 1964 019d 2E       		.uleb128 0x2e
 1965 019e 01       		.byte	0x1
 1966 019f 3F       		.uleb128 0x3f
 1967 01a0 19       		.uleb128 0x19
 1968 01a1 03       		.uleb128 0x3
 1969 01a2 0E       		.uleb128 0xe
 1970 01a3 3A       		.uleb128 0x3a
 1971 01a4 0B       		.uleb128 0xb
 1972 01a5 3B       		.uleb128 0x3b
 1973 01a6 05       		.uleb128 0x5
 1974 01a7 27       		.uleb128 0x27
 1975 01a8 19       		.uleb128 0x19
 1976 01a9 11       		.uleb128 0x11
 1977 01aa 01       		.uleb128 0x1
 1978 01ab 12       		.uleb128 0x12
 1979 01ac 06       		.uleb128 0x6
 1980 01ad 40       		.uleb128 0x40
 1981 01ae 18       		.uleb128 0x18
 1982 01af 9742     		.uleb128 0x2117
 1983 01b1 19       		.uleb128 0x19
 1984 01b2 01       		.uleb128 0x1
ARM GAS  /tmp/cc0Spldr.s 			page 36


 1985 01b3 13       		.uleb128 0x13
 1986 01b4 00       		.byte	0
 1987 01b5 00       		.byte	0
 1988 01b6 22       		.uleb128 0x22
 1989 01b7 05       		.uleb128 0x5
 1990 01b8 00       		.byte	0
 1991 01b9 03       		.uleb128 0x3
 1992 01ba 0E       		.uleb128 0xe
 1993 01bb 3A       		.uleb128 0x3a
 1994 01bc 0B       		.uleb128 0xb
 1995 01bd 3B       		.uleb128 0x3b
 1996 01be 05       		.uleb128 0x5
 1997 01bf 49       		.uleb128 0x49
 1998 01c0 13       		.uleb128 0x13
 1999 01c1 02       		.uleb128 0x2
 2000 01c2 17       		.uleb128 0x17
 2001 01c3 00       		.byte	0
 2002 01c4 00       		.byte	0
 2003 01c5 23       		.uleb128 0x23
 2004 01c6 05       		.uleb128 0x5
 2005 01c7 00       		.byte	0
 2006 01c8 03       		.uleb128 0x3
 2007 01c9 08       		.uleb128 0x8
 2008 01ca 3A       		.uleb128 0x3a
 2009 01cb 0B       		.uleb128 0xb
 2010 01cc 3B       		.uleb128 0x3b
 2011 01cd 05       		.uleb128 0x5
 2012 01ce 49       		.uleb128 0x49
 2013 01cf 13       		.uleb128 0x13
 2014 01d0 02       		.uleb128 0x2
 2015 01d1 17       		.uleb128 0x17
 2016 01d2 00       		.byte	0
 2017 01d3 00       		.byte	0
 2018 01d4 24       		.uleb128 0x24
 2019 01d5 2E       		.uleb128 0x2e
 2020 01d6 01       		.byte	0x1
 2021 01d7 3F       		.uleb128 0x3f
 2022 01d8 19       		.uleb128 0x19
 2023 01d9 03       		.uleb128 0x3
 2024 01da 0E       		.uleb128 0xe
 2025 01db 3A       		.uleb128 0x3a
 2026 01dc 0B       		.uleb128 0xb
 2027 01dd 3B       		.uleb128 0x3b
 2028 01de 05       		.uleb128 0x5
 2029 01df 27       		.uleb128 0x27
 2030 01e0 19       		.uleb128 0x19
 2031 01e1 49       		.uleb128 0x49
 2032 01e2 13       		.uleb128 0x13
 2033 01e3 11       		.uleb128 0x11
 2034 01e4 01       		.uleb128 0x1
 2035 01e5 12       		.uleb128 0x12
 2036 01e6 06       		.uleb128 0x6
 2037 01e7 40       		.uleb128 0x40
 2038 01e8 18       		.uleb128 0x18
 2039 01e9 9742     		.uleb128 0x2117
 2040 01eb 19       		.uleb128 0x19
 2041 01ec 01       		.uleb128 0x1
ARM GAS  /tmp/cc0Spldr.s 			page 37


 2042 01ed 13       		.uleb128 0x13
 2043 01ee 00       		.byte	0
 2044 01ef 00       		.byte	0
 2045 01f0 25       		.uleb128 0x25
 2046 01f1 34       		.uleb128 0x34
 2047 01f2 00       		.byte	0
 2048 01f3 03       		.uleb128 0x3
 2049 01f4 08       		.uleb128 0x8
 2050 01f5 3A       		.uleb128 0x3a
 2051 01f6 0B       		.uleb128 0xb
 2052 01f7 3B       		.uleb128 0x3b
 2053 01f8 05       		.uleb128 0x5
 2054 01f9 49       		.uleb128 0x49
 2055 01fa 13       		.uleb128 0x13
 2056 01fb 02       		.uleb128 0x2
 2057 01fc 17       		.uleb128 0x17
 2058 01fd 00       		.byte	0
 2059 01fe 00       		.byte	0
 2060 01ff 26       		.uleb128 0x26
 2061 0200 34       		.uleb128 0x34
 2062 0201 00       		.byte	0
 2063 0202 03       		.uleb128 0x3
 2064 0203 08       		.uleb128 0x8
 2065 0204 3A       		.uleb128 0x3a
 2066 0205 0B       		.uleb128 0xb
 2067 0206 3B       		.uleb128 0x3b
 2068 0207 05       		.uleb128 0x5
 2069 0208 49       		.uleb128 0x49
 2070 0209 13       		.uleb128 0x13
 2071 020a 02       		.uleb128 0x2
 2072 020b 18       		.uleb128 0x18
 2073 020c 00       		.byte	0
 2074 020d 00       		.byte	0
 2075 020e 27       		.uleb128 0x27
 2076 020f 34       		.uleb128 0x34
 2077 0210 00       		.byte	0
 2078 0211 03       		.uleb128 0x3
 2079 0212 0E       		.uleb128 0xe
 2080 0213 3A       		.uleb128 0x3a
 2081 0214 0B       		.uleb128 0xb
 2082 0215 3B       		.uleb128 0x3b
 2083 0216 05       		.uleb128 0x5
 2084 0217 49       		.uleb128 0x49
 2085 0218 13       		.uleb128 0x13
 2086 0219 3F       		.uleb128 0x3f
 2087 021a 19       		.uleb128 0x19
 2088 021b 3C       		.uleb128 0x3c
 2089 021c 19       		.uleb128 0x19
 2090 021d 00       		.byte	0
 2091 021e 00       		.byte	0
 2092 021f 28       		.uleb128 0x28
 2093 0220 2E       		.uleb128 0x2e
 2094 0221 00       		.byte	0
 2095 0222 3F       		.uleb128 0x3f
 2096 0223 19       		.uleb128 0x19
 2097 0224 03       		.uleb128 0x3
 2098 0225 0E       		.uleb128 0xe
ARM GAS  /tmp/cc0Spldr.s 			page 38


 2099 0226 3A       		.uleb128 0x3a
 2100 0227 0B       		.uleb128 0xb
 2101 0228 3B       		.uleb128 0x3b
 2102 0229 05       		.uleb128 0x5
 2103 022a 27       		.uleb128 0x27
 2104 022b 19       		.uleb128 0x19
 2105 022c 3C       		.uleb128 0x3c
 2106 022d 19       		.uleb128 0x19
 2107 022e 00       		.byte	0
 2108 022f 00       		.byte	0
 2109 0230 29       		.uleb128 0x29
 2110 0231 2E       		.uleb128 0x2e
 2111 0232 01       		.byte	0x1
 2112 0233 3F       		.uleb128 0x3f
 2113 0234 19       		.uleb128 0x19
 2114 0235 03       		.uleb128 0x3
 2115 0236 0E       		.uleb128 0xe
 2116 0237 3A       		.uleb128 0x3a
 2117 0238 0B       		.uleb128 0xb
 2118 0239 3B       		.uleb128 0x3b
 2119 023a 05       		.uleb128 0x5
 2120 023b 27       		.uleb128 0x27
 2121 023c 19       		.uleb128 0x19
 2122 023d 3C       		.uleb128 0x3c
 2123 023e 19       		.uleb128 0x19
 2124 023f 01       		.uleb128 0x1
 2125 0240 13       		.uleb128 0x13
 2126 0241 00       		.byte	0
 2127 0242 00       		.byte	0
 2128 0243 2A       		.uleb128 0x2a
 2129 0244 2E       		.uleb128 0x2e
 2130 0245 01       		.byte	0x1
 2131 0246 3F       		.uleb128 0x3f
 2132 0247 19       		.uleb128 0x19
 2133 0248 03       		.uleb128 0x3
 2134 0249 0E       		.uleb128 0xe
 2135 024a 3A       		.uleb128 0x3a
 2136 024b 0B       		.uleb128 0xb
 2137 024c 3B       		.uleb128 0x3b
 2138 024d 05       		.uleb128 0x5
 2139 024e 27       		.uleb128 0x27
 2140 024f 19       		.uleb128 0x19
 2141 0250 49       		.uleb128 0x49
 2142 0251 13       		.uleb128 0x13
 2143 0252 3C       		.uleb128 0x3c
 2144 0253 19       		.uleb128 0x19
 2145 0254 01       		.uleb128 0x1
 2146 0255 13       		.uleb128 0x13
 2147 0256 00       		.byte	0
 2148 0257 00       		.byte	0
 2149 0258 2B       		.uleb128 0x2b
 2150 0259 2E       		.uleb128 0x2e
 2151 025a 01       		.byte	0x1
 2152 025b 3F       		.uleb128 0x3f
 2153 025c 19       		.uleb128 0x19
 2154 025d 03       		.uleb128 0x3
 2155 025e 0E       		.uleb128 0xe
ARM GAS  /tmp/cc0Spldr.s 			page 39


 2156 025f 3A       		.uleb128 0x3a
 2157 0260 0B       		.uleb128 0xb
 2158 0261 3B       		.uleb128 0x3b
 2159 0262 05       		.uleb128 0x5
 2160 0263 27       		.uleb128 0x27
 2161 0264 19       		.uleb128 0x19
 2162 0265 49       		.uleb128 0x49
 2163 0266 13       		.uleb128 0x13
 2164 0267 3C       		.uleb128 0x3c
 2165 0268 19       		.uleb128 0x19
 2166 0269 00       		.byte	0
 2167 026a 00       		.byte	0
 2168 026b 00       		.byte	0
 2169              		.section	.debug_loc,"",%progbits
 2170              	.Ldebug_loc0:
 2171              	.LLST0:
 2172 0000 00000000 		.4byte	.LVL2
 2173 0004 0D000000 		.4byte	.LVL3-1
 2174 0008 0100     		.2byte	0x1
 2175 000a 50       		.byte	0x50
 2176 000b 0D000000 		.4byte	.LVL3-1
 2177 000f 18000000 		.4byte	.LFE58
 2178 0013 0100     		.2byte	0x1
 2179 0015 54       		.byte	0x54
 2180 0016 00000000 		.4byte	0
 2181 001a 00000000 		.4byte	0
 2182              	.LLST1:
 2183 001e 00000000 		.4byte	.LVL2
 2184 0022 0D000000 		.4byte	.LVL3-1
 2185 0026 0100     		.2byte	0x1
 2186 0028 51       		.byte	0x51
 2187 0029 0D000000 		.4byte	.LVL3-1
 2188 002d 18000000 		.4byte	.LFE58
 2189 0031 0400     		.2byte	0x4
 2190 0033 F3       		.byte	0xf3
 2191 0034 01       		.uleb128 0x1
 2192 0035 51       		.byte	0x51
 2193 0036 9F       		.byte	0x9f
 2194 0037 00000000 		.4byte	0
 2195 003b 00000000 		.4byte	0
 2196              	.LLST2:
 2197 003f 00000000 		.4byte	.LVL4
 2198 0043 0B000000 		.4byte	.LVL5-1
 2199 0047 0100     		.2byte	0x1
 2200 0049 50       		.byte	0x50
 2201 004a 0B000000 		.4byte	.LVL5-1
 2202 004e 1C000000 		.4byte	.LFE59
 2203 0052 0100     		.2byte	0x1
 2204 0054 54       		.byte	0x54
 2205 0055 00000000 		.4byte	0
 2206 0059 00000000 		.4byte	0
 2207              	.LLST3:
 2208 005d 00000000 		.4byte	.LVL6
 2209 0061 0B000000 		.4byte	.LVL7-1
 2210 0065 0100     		.2byte	0x1
 2211 0067 50       		.byte	0x50
 2212 0068 0B000000 		.4byte	.LVL7-1
ARM GAS  /tmp/cc0Spldr.s 			page 40


 2213 006c 16000000 		.4byte	.LFE60
 2214 0070 0100     		.2byte	0x1
 2215 0072 54       		.byte	0x54
 2216 0073 00000000 		.4byte	0
 2217 0077 00000000 		.4byte	0
 2218              	.LLST4:
 2219 007b 00000000 		.4byte	.LVL6
 2220 007f 0B000000 		.4byte	.LVL7-1
 2221 0083 0100     		.2byte	0x1
 2222 0085 51       		.byte	0x51
 2223 0086 0B000000 		.4byte	.LVL7-1
 2224 008a 16000000 		.4byte	.LFE60
 2225 008e 0400     		.2byte	0x4
 2226 0090 F3       		.byte	0xf3
 2227 0091 01       		.uleb128 0x1
 2228 0092 51       		.byte	0x51
 2229 0093 9F       		.byte	0x9f
 2230 0094 00000000 		.4byte	0
 2231 0098 00000000 		.4byte	0
 2232              	.LLST5:
 2233 009c 00000000 		.4byte	.LVL6
 2234 00a0 0B000000 		.4byte	.LVL7-1
 2235 00a4 0100     		.2byte	0x1
 2236 00a6 52       		.byte	0x52
 2237 00a7 0B000000 		.4byte	.LVL7-1
 2238 00ab 16000000 		.4byte	.LFE60
 2239 00af 0400     		.2byte	0x4
 2240 00b1 F3       		.byte	0xf3
 2241 00b2 01       		.uleb128 0x1
 2242 00b3 52       		.byte	0x52
 2243 00b4 9F       		.byte	0x9f
 2244 00b5 00000000 		.4byte	0
 2245 00b9 00000000 		.4byte	0
 2246              	.LLST6:
 2247 00bd 00000000 		.4byte	.LVL8
 2248 00c1 07000000 		.4byte	.LVL9-1
 2249 00c5 0100     		.2byte	0x1
 2250 00c7 50       		.byte	0x50
 2251 00c8 07000000 		.4byte	.LVL9-1
 2252 00cc 0E000000 		.4byte	.LFE61
 2253 00d0 0100     		.2byte	0x1
 2254 00d2 54       		.byte	0x54
 2255 00d3 00000000 		.4byte	0
 2256 00d7 00000000 		.4byte	0
 2257              	.LLST7:
 2258 00db 00000000 		.4byte	.LVL8
 2259 00df 07000000 		.4byte	.LVL9-1
 2260 00e3 0100     		.2byte	0x1
 2261 00e5 51       		.byte	0x51
 2262 00e6 07000000 		.4byte	.LVL9-1
 2263 00ea 0E000000 		.4byte	.LFE61
 2264 00ee 0400     		.2byte	0x4
 2265 00f0 F3       		.byte	0xf3
 2266 00f1 01       		.uleb128 0x1
 2267 00f2 51       		.byte	0x51
 2268 00f3 9F       		.byte	0x9f
 2269 00f4 00000000 		.4byte	0
ARM GAS  /tmp/cc0Spldr.s 			page 41


 2270 00f8 00000000 		.4byte	0
 2271              	.LLST8:
 2272 00fc 00000000 		.4byte	.LVL8
 2273 0100 07000000 		.4byte	.LVL9-1
 2274 0104 0100     		.2byte	0x1
 2275 0106 52       		.byte	0x52
 2276 0107 07000000 		.4byte	.LVL9-1
 2277 010b 0E000000 		.4byte	.LFE61
 2278 010f 0400     		.2byte	0x4
 2279 0111 F3       		.byte	0xf3
 2280 0112 01       		.uleb128 0x1
 2281 0113 52       		.byte	0x52
 2282 0114 9F       		.byte	0x9f
 2283 0115 00000000 		.4byte	0
 2284 0119 00000000 		.4byte	0
 2285              	.LLST9:
 2286 011d 00000000 		.4byte	.LVL10
 2287 0121 10000000 		.4byte	.LVL11
 2288 0125 0100     		.2byte	0x1
 2289 0127 50       		.byte	0x50
 2290 0128 10000000 		.4byte	.LVL11
 2291 012c 28000000 		.4byte	.LFE62
 2292 0130 0100     		.2byte	0x1
 2293 0132 54       		.byte	0x54
 2294 0133 00000000 		.4byte	0
 2295 0137 00000000 		.4byte	0
 2296              	.LLST10:
 2297 013b 12000000 		.4byte	.LVL12
 2298 013f 18000000 		.4byte	.LVL13
 2299 0143 0100     		.2byte	0x1
 2300 0145 50       		.byte	0x50
 2301 0146 1E000000 		.4byte	.LVL14
 2302 014a 28000000 		.4byte	.LFE62
 2303 014e 0100     		.2byte	0x1
 2304 0150 50       		.byte	0x50
 2305 0151 00000000 		.4byte	0
 2306 0155 00000000 		.4byte	0
 2307              	.LLST11:
 2308 0159 00000000 		.4byte	.LVL15
 2309 015d 0C000000 		.4byte	.LVL16
 2310 0161 0100     		.2byte	0x1
 2311 0163 50       		.byte	0x50
 2312 0164 0C000000 		.4byte	.LVL16
 2313 0168 0E000000 		.4byte	.LVL17
 2314 016c 0100     		.2byte	0x1
 2315 016e 54       		.byte	0x54
 2316 016f 0E000000 		.4byte	.LVL17
 2317 0173 11000000 		.4byte	.LVL18-1
 2318 0177 0100     		.2byte	0x1
 2319 0179 50       		.byte	0x50
 2320 017a 11000000 		.4byte	.LVL18-1
 2321 017e 18000000 		.4byte	.LFE63
 2322 0182 0100     		.2byte	0x1
 2323 0184 54       		.byte	0x54
 2324 0185 00000000 		.4byte	0
 2325 0189 00000000 		.4byte	0
 2326              	.LLST12:
ARM GAS  /tmp/cc0Spldr.s 			page 42


 2327 018d 00000000 		.4byte	.LVL19
 2328 0191 0B000000 		.4byte	.LVL20-1
 2329 0195 0100     		.2byte	0x1
 2330 0197 50       		.byte	0x50
 2331 0198 0B000000 		.4byte	.LVL20-1
 2332 019c 16000000 		.4byte	.LFE64
 2333 01a0 0100     		.2byte	0x1
 2334 01a2 54       		.byte	0x54
 2335 01a3 00000000 		.4byte	0
 2336 01a7 00000000 		.4byte	0
 2337              	.LLST13:
 2338 01ab 00000000 		.4byte	.LVL19
 2339 01af 0B000000 		.4byte	.LVL20-1
 2340 01b3 0100     		.2byte	0x1
 2341 01b5 51       		.byte	0x51
 2342 01b6 0B000000 		.4byte	.LVL20-1
 2343 01ba 16000000 		.4byte	.LFE64
 2344 01be 0400     		.2byte	0x4
 2345 01c0 F3       		.byte	0xf3
 2346 01c1 01       		.uleb128 0x1
 2347 01c2 51       		.byte	0x51
 2348 01c3 9F       		.byte	0x9f
 2349 01c4 00000000 		.4byte	0
 2350 01c8 00000000 		.4byte	0
 2351              	.LLST14:
 2352 01cc 00000000 		.4byte	.LVL19
 2353 01d0 0B000000 		.4byte	.LVL20-1
 2354 01d4 0100     		.2byte	0x1
 2355 01d6 52       		.byte	0x52
 2356 01d7 0B000000 		.4byte	.LVL20-1
 2357 01db 16000000 		.4byte	.LFE64
 2358 01df 0400     		.2byte	0x4
 2359 01e1 F3       		.byte	0xf3
 2360 01e2 01       		.uleb128 0x1
 2361 01e3 52       		.byte	0x52
 2362 01e4 9F       		.byte	0x9f
 2363 01e5 00000000 		.4byte	0
 2364 01e9 00000000 		.4byte	0
 2365              	.LLST15:
 2366 01ed 00000000 		.4byte	.LVL21
 2367 01f1 07000000 		.4byte	.LVL22-1
 2368 01f5 0100     		.2byte	0x1
 2369 01f7 50       		.byte	0x50
 2370 01f8 07000000 		.4byte	.LVL22-1
 2371 01fc 0E000000 		.4byte	.LFE65
 2372 0200 0100     		.2byte	0x1
 2373 0202 54       		.byte	0x54
 2374 0203 00000000 		.4byte	0
 2375 0207 00000000 		.4byte	0
 2376              	.LLST16:
 2377 020b 00000000 		.4byte	.LVL21
 2378 020f 07000000 		.4byte	.LVL22-1
 2379 0213 0100     		.2byte	0x1
 2380 0215 51       		.byte	0x51
 2381 0216 07000000 		.4byte	.LVL22-1
 2382 021a 0E000000 		.4byte	.LFE65
 2383 021e 0400     		.2byte	0x4
ARM GAS  /tmp/cc0Spldr.s 			page 43


 2384 0220 F3       		.byte	0xf3
 2385 0221 01       		.uleb128 0x1
 2386 0222 51       		.byte	0x51
 2387 0223 9F       		.byte	0x9f
 2388 0224 00000000 		.4byte	0
 2389 0228 00000000 		.4byte	0
 2390              	.LLST17:
 2391 022c 00000000 		.4byte	.LVL21
 2392 0230 07000000 		.4byte	.LVL22-1
 2393 0234 0100     		.2byte	0x1
 2394 0236 52       		.byte	0x52
 2395 0237 07000000 		.4byte	.LVL22-1
 2396 023b 0E000000 		.4byte	.LFE65
 2397 023f 0400     		.2byte	0x4
 2398 0241 F3       		.byte	0xf3
 2399 0242 01       		.uleb128 0x1
 2400 0243 52       		.byte	0x52
 2401 0244 9F       		.byte	0x9f
 2402 0245 00000000 		.4byte	0
 2403 0249 00000000 		.4byte	0
 2404              	.LLST18:
 2405 024d 00000000 		.4byte	.LVL23
 2406 0251 10000000 		.4byte	.LVL24
 2407 0255 0100     		.2byte	0x1
 2408 0257 50       		.byte	0x50
 2409 0258 10000000 		.4byte	.LVL24
 2410 025c 28000000 		.4byte	.LFE66
 2411 0260 0100     		.2byte	0x1
 2412 0262 54       		.byte	0x54
 2413 0263 00000000 		.4byte	0
 2414 0267 00000000 		.4byte	0
 2415              	.LLST19:
 2416 026b 12000000 		.4byte	.LVL25
 2417 026f 18000000 		.4byte	.LVL26
 2418 0273 0100     		.2byte	0x1
 2419 0275 50       		.byte	0x50
 2420 0276 1E000000 		.4byte	.LVL27
 2421 027a 28000000 		.4byte	.LFE66
 2422 027e 0100     		.2byte	0x1
 2423 0280 50       		.byte	0x50
 2424 0281 00000000 		.4byte	0
 2425 0285 00000000 		.4byte	0
 2426              	.LLST20:
 2427 0289 00000000 		.4byte	.LVL28
 2428 028d 0C000000 		.4byte	.LVL29
 2429 0291 0100     		.2byte	0x1
 2430 0293 50       		.byte	0x50
 2431 0294 0C000000 		.4byte	.LVL29
 2432 0298 0E000000 		.4byte	.LVL30
 2433 029c 0100     		.2byte	0x1
 2434 029e 54       		.byte	0x54
 2435 029f 0E000000 		.4byte	.LVL30
 2436 02a3 11000000 		.4byte	.LVL31-1
 2437 02a7 0100     		.2byte	0x1
 2438 02a9 50       		.byte	0x50
 2439 02aa 11000000 		.4byte	.LVL31-1
 2440 02ae 18000000 		.4byte	.LFE67
ARM GAS  /tmp/cc0Spldr.s 			page 44


 2441 02b2 0100     		.2byte	0x1
 2442 02b4 54       		.byte	0x54
 2443 02b5 00000000 		.4byte	0
 2444 02b9 00000000 		.4byte	0
 2445              		.section	.debug_aranges,"",%progbits
 2446 0000 74000000 		.4byte	0x74
 2447 0004 0200     		.2byte	0x2
 2448 0006 00000000 		.4byte	.Ldebug_info0
 2449 000a 04       		.byte	0x4
 2450 000b 00       		.byte	0
 2451 000c 0000     		.2byte	0
 2452 000e 0000     		.2byte	0
 2453 0010 00000000 		.4byte	.LFB56
 2454 0014 04000000 		.4byte	.LFE56-.LFB56
 2455 0018 00000000 		.4byte	.LFB57
 2456 001c 0E000000 		.4byte	.LFE57-.LFB57
 2457 0020 00000000 		.4byte	.LFB58
 2458 0024 18000000 		.4byte	.LFE58-.LFB58
 2459 0028 00000000 		.4byte	.LFB59
 2460 002c 1C000000 		.4byte	.LFE59-.LFB59
 2461 0030 00000000 		.4byte	.LFB60
 2462 0034 16000000 		.4byte	.LFE60-.LFB60
 2463 0038 00000000 		.4byte	.LFB61
 2464 003c 0E000000 		.4byte	.LFE61-.LFB61
 2465 0040 00000000 		.4byte	.LFB62
 2466 0044 28000000 		.4byte	.LFE62-.LFB62
 2467 0048 00000000 		.4byte	.LFB63
 2468 004c 18000000 		.4byte	.LFE63-.LFB63
 2469 0050 00000000 		.4byte	.LFB64
 2470 0054 16000000 		.4byte	.LFE64-.LFB64
 2471 0058 00000000 		.4byte	.LFB65
 2472 005c 0E000000 		.4byte	.LFE65-.LFB65
 2473 0060 00000000 		.4byte	.LFB66
 2474 0064 28000000 		.4byte	.LFE66-.LFB66
 2475 0068 00000000 		.4byte	.LFB67
 2476 006c 18000000 		.4byte	.LFE67-.LFB67
 2477 0070 00000000 		.4byte	0
 2478 0074 00000000 		.4byte	0
 2479              		.section	.debug_ranges,"",%progbits
 2480              	.Ldebug_ranges0:
 2481 0000 00000000 		.4byte	.LFB56
 2482 0004 04000000 		.4byte	.LFE56
 2483 0008 00000000 		.4byte	.LFB57
 2484 000c 0E000000 		.4byte	.LFE57
 2485 0010 00000000 		.4byte	.LFB58
 2486 0014 18000000 		.4byte	.LFE58
 2487 0018 00000000 		.4byte	.LFB59
 2488 001c 1C000000 		.4byte	.LFE59
 2489 0020 00000000 		.4byte	.LFB60
 2490 0024 16000000 		.4byte	.LFE60
 2491 0028 00000000 		.4byte	.LFB61
 2492 002c 0E000000 		.4byte	.LFE61
 2493 0030 00000000 		.4byte	.LFB62
 2494 0034 28000000 		.4byte	.LFE62
 2495 0038 00000000 		.4byte	.LFB63
 2496 003c 18000000 		.4byte	.LFE63
 2497 0040 00000000 		.4byte	.LFB64
ARM GAS  /tmp/cc0Spldr.s 			page 45


 2498 0044 16000000 		.4byte	.LFE64
 2499 0048 00000000 		.4byte	.LFB65
 2500 004c 0E000000 		.4byte	.LFE65
 2501 0050 00000000 		.4byte	.LFB66
 2502 0054 28000000 		.4byte	.LFE66
 2503 0058 00000000 		.4byte	.LFB67
 2504 005c 18000000 		.4byte	.LFE67
 2505 0060 00000000 		.4byte	0
 2506 0064 00000000 		.4byte	0
 2507              		.section	.debug_line,"",%progbits
 2508              	.Ldebug_line0:
 2509 0000 8A020000 		.section	.debug_str,"MS",%progbits,1
 2509      02006E01 
 2509      00000201 
 2509      FB0E0D00 
 2509      01010101 
 2510              	.LASF92:
 2511 0000 2E2E2F6F 		.ascii	"../os/hal/src/uart.c\000"
 2511      732F6861 
 2511      6C2F7372 
 2511      632F7561 
 2511      72742E63 
 2512              	.LASF30:
 2513 0015 47545052 		.ascii	"GTPR\000"
 2513      00
 2514              	.LASF74:
 2515 001a 75617274 		.ascii	"uartStart\000"
 2515      53746172 
 2515      7400
 2516              	.LASF57:
 2517 0024 75736172 		.ascii	"usart\000"
 2517      7400
 2518              	.LASF79:
 2519 002a 75617274 		.ascii	"uartStartSendI\000"
 2519      53746172 
 2519      7453656E 
 2519      644900
 2520              	.LASF55:
 2521 0039 72787374 		.ascii	"rxstate\000"
 2521      61746500 
 2522              	.LASF53:
 2523 0041 73746174 		.ascii	"state\000"
 2523      6500
 2524              	.LASF81:
 2525 0047 75617274 		.ascii	"uartStopSendI\000"
 2525      53746F70 
 2525      53656E64 
 2525      4900
 2526              	.LASF2:
 2527 0055 73697A65 		.ascii	"size_t\000"
 2527      5F7400
 2528              	.LASF69:
 2529 005c 72786572 		.ascii	"rxerr_cb\000"
 2529      725F6362 
 2529      00
 2530              	.LASF19:
 2531 0065 73697A65 		.ascii	"sizetype\000"
ARM GAS  /tmp/cc0Spldr.s 			page 46


 2531      74797065 
 2531      00
 2532              	.LASF90:
 2533 006e 75617274 		.ascii	"uart_lld_stop_receive\000"
 2533      5F6C6C64 
 2533      5F73746F 
 2533      705F7265 
 2533      63656976 
 2534              	.LASF71:
 2535 0084 55415254 		.ascii	"UARTConfig\000"
 2535      436F6E66 
 2535      696700
 2536              	.LASF93:
 2537 008f 2F686F6D 		.ascii	"/home/dltech/gdrive/Projects/RFM_to_Modbus_TCP/Chib"
 2537      652F646C 
 2537      74656368 
 2537      2F676472 
 2537      6976652F 
 2538 00c2 694F532F 		.ascii	"iOS/F103_ChibiOS_ENC60J28/main\000"
 2538      46313033 
 2538      5F436869 
 2538      62694F53 
 2538      5F454E43 
 2539              	.LASF54:
 2540 00e1 74787374 		.ascii	"txstate\000"
 2540      61746500 
 2541              	.LASF10:
 2542 00e9 5F5F7569 		.ascii	"__uint32_t\000"
 2542      6E743332 
 2542      5F7400
 2543              	.LASF80:
 2544 00f4 75617274 		.ascii	"uartStopSend\000"
 2544      53746F70 
 2544      53656E64 
 2544      00
 2545              	.LASF65:
 2546 0101 7478656E 		.ascii	"txend1_cb\000"
 2546      64315F63 
 2546      6200
 2547              	.LASF6:
 2548 010b 5F5F7569 		.ascii	"__uint16_t\000"
 2548      6E743136 
 2548      5F7400
 2549              	.LASF32:
 2550 0116 55534152 		.ascii	"USART_TypeDef\000"
 2550      545F5479 
 2550      70654465 
 2550      6600
 2551              	.LASF5:
 2552 0124 73686F72 		.ascii	"short int\000"
 2552      7420696E 
 2552      7400
 2553              	.LASF56:
 2554 012e 636F6E66 		.ascii	"config\000"
 2554      696700
 2555              	.LASF77:
 2556 0135 75617274 		.ascii	"uartStartSend\000"
ARM GAS  /tmp/cc0Spldr.s 			page 47


 2556      53746172 
 2556      7453656E 
 2556      6400
 2557              	.LASF38:
 2558 0143 73746D33 		.ascii	"stm32_dma_stream_t\000"
 2558      325F646D 
 2558      615F7374 
 2558      7265616D 
 2558      5F7400
 2559              	.LASF82:
 2560 0156 75617274 		.ascii	"uartStartReceive\000"
 2560      53746172 
 2560      74526563 
 2560      65697665 
 2560      00
 2561              	.LASF14:
 2562 0167 75696E74 		.ascii	"uint8_t\000"
 2562      385F7400 
 2563              	.LASF37:
 2564 016f 76656374 		.ascii	"vector\000"
 2564      6F7200
 2565              	.LASF48:
 2566 0176 55415254 		.ascii	"UART_RX_ACTIVE\000"
 2566      5F52585F 
 2566      41435449 
 2566      564500
 2567              	.LASF64:
 2568 0185 75617274 		.ascii	"uartecb_t\000"
 2568      6563625F 
 2568      7400
 2569              	.LASF1:
 2570 018f 7369676E 		.ascii	"signed char\000"
 2570      65642063 
 2570      68617200 
 2571              	.LASF45:
 2572 019b 55415254 		.ascii	"UART_TX_COMPLETE\000"
 2572      5F54585F 
 2572      434F4D50 
 2572      4C455445 
 2572      00
 2573              	.LASF73:
 2574 01ac 75617274 		.ascii	"uartObjectInit\000"
 2574      4F626A65 
 2574      6374496E 
 2574      697400
 2575              	.LASF44:
 2576 01bb 55415254 		.ascii	"UART_TX_ACTIVE\000"
 2576      5F54585F 
 2576      41435449 
 2576      564500
 2577              	.LASF88:
 2578 01ca 75617274 		.ascii	"uart_lld_start_send\000"
 2578      5F6C6C64 
 2578      5F737461 
 2578      72745F73 
 2578      656E6400 
 2579              	.LASF84:
ARM GAS  /tmp/cc0Spldr.s 			page 48


 2580 01de 75617274 		.ascii	"uartStopReceive\000"
 2580      53746F70 
 2580      52656365 
 2580      69766500 
 2581              	.LASF9:
 2582 01ee 6C6F6E67 		.ascii	"long int\000"
 2582      20696E74 
 2582      00
 2583              	.LASF62:
 2584 01f7 75617274 		.ascii	"uartcb_t\000"
 2584      63625F74 
 2584      00
 2585              	.LASF50:
 2586 0200 75617274 		.ascii	"uartrxstate_t\000"
 2586      72787374 
 2586      6174655F 
 2586      7400
 2587              	.LASF3:
 2588 020e 5F5F7569 		.ascii	"__uint8_t\000"
 2588      6E74385F 
 2588      7400
 2589              	.LASF66:
 2590 0218 7478656E 		.ascii	"txend2_cb\000"
 2590      64325F63 
 2590      6200
 2591              	.LASF59:
 2592 0222 646D6172 		.ascii	"dmarx\000"
 2592      7800
 2593              	.LASF86:
 2594 0228 75617274 		.ascii	"uart_lld_start\000"
 2594      5F6C6C64 
 2594      5F737461 
 2594      727400
 2595              	.LASF21:
 2596 0237 43504152 		.ascii	"CPAR\000"
 2596      00
 2597              	.LASF46:
 2598 023c 75617274 		.ascii	"uarttxstate_t\000"
 2598      74787374 
 2598      6174655F 
 2598      7400
 2599              	.LASF95:
 2600 024a 75617274 		.ascii	"uart_lld_init\000"
 2600      5F6C6C64 
 2600      5F696E69 
 2600      7400
 2601              	.LASF4:
 2602 0258 756E7369 		.ascii	"unsigned char\000"
 2602      676E6564 
 2602      20636861 
 2602      7200
 2603              	.LASF85:
 2604 0266 75617274 		.ascii	"uartStopReceiveI\000"
 2604      53746F70 
 2604      52656365 
 2604      69766549 
 2604      00
ARM GAS  /tmp/cc0Spldr.s 			page 49


 2605              	.LASF91:
 2606 0277 474E5520 		.ascii	"GNU C 4.8.2 -mcpu=cortex-m3 -mno-thumb-interwork -m"
 2606      4320342E 
 2606      382E3220 
 2606      2D6D6370 
 2606      753D636F 
 2607 02aa 7468756D 		.ascii	"thumb -ggdb -O2 -fomit-frame-pointer -falign-functi"
 2607      62202D67 
 2607      67646220 
 2607      2D4F3220 
 2607      2D666F6D 
 2608 02dd 6F6E733D 		.ascii	"ons=16 -ffunction-sections -fdata-sections -fno-com"
 2608      3136202D 
 2608      6666756E 
 2608      6374696F 
 2608      6E2D7365 
 2609 0310 6D6F6E20 		.ascii	"mon -fno-strict-aliasing\000"
 2609      2D666E6F 
 2609      2D737472 
 2609      6963742D 
 2609      616C6961 
 2610              	.LASF60:
 2611 0329 646D6174 		.ascii	"dmatx\000"
 2611      7800
 2612              	.LASF13:
 2613 032f 6C6F6E67 		.ascii	"long long unsigned int\000"
 2613      206C6F6E 
 2613      6720756E 
 2613      7369676E 
 2613      65642069 
 2614              	.LASF58:
 2615 0346 646D616D 		.ascii	"dmamode\000"
 2615      6F646500 
 2616              	.LASF17:
 2617 034e 75696E74 		.ascii	"uint32_t\000"
 2617      33325F74 
 2617      00
 2618              	.LASF36:
 2619 0357 73656C66 		.ascii	"selfindex\000"
 2619      696E6465 
 2619      7800
 2620              	.LASF0:
 2621 0361 756E7369 		.ascii	"unsigned int\000"
 2621      676E6564 
 2621      20696E74 
 2621      00
 2622              	.LASF15:
 2623 036e 75696E74 		.ascii	"uint16_t\000"
 2623      31365F74 
 2623      00
 2624              	.LASF11:
 2625 0377 6C6F6E67 		.ascii	"long unsigned int\000"
 2625      20756E73 
 2625      69676E65 
 2625      6420696E 
 2625      7400
 2626              	.LASF70:
ARM GAS  /tmp/cc0Spldr.s 			page 50


 2627 0389 73706565 		.ascii	"speed\000"
 2627      6400
 2628              	.LASF51:
 2629 038f 75617274 		.ascii	"uartflags_t\000"
 2629      666C6167 
 2629      735F7400 
 2630              	.LASF72:
 2631 039b 75617274 		.ascii	"uartInit\000"
 2631      496E6974 
 2631      00
 2632              	.LASF42:
 2633 03a4 75617274 		.ascii	"uartstate_t\000"
 2633      73746174 
 2633      655F7400 
 2634              	.LASF7:
 2635 03b0 73686F72 		.ascii	"short unsigned int\000"
 2635      7420756E 
 2635      7369676E 
 2635      65642069 
 2635      6E7400
 2636              	.LASF23:
 2637 03c3 444D415F 		.ascii	"DMA_Channel_TypeDef\000"
 2637      4368616E 
 2637      6E656C5F 
 2637      54797065 
 2637      44656600 
 2638              	.LASF78:
 2639 03d7 74786275 		.ascii	"txbuf\000"
 2639      6600
 2640              	.LASF20:
 2641 03dd 434E4454 		.ascii	"CNDTR\000"
 2641      5200
 2642              	.LASF63:
 2643 03e3 75617274 		.ascii	"uartccb_t\000"
 2643      6363625F 
 2643      7400
 2644              	.LASF16:
 2645 03ed 696E7433 		.ascii	"int32_t\000"
 2645      325F7400 
 2646              	.LASF18:
 2647 03f5 5F426F6F 		.ascii	"_Bool\000"
 2647      6C00
 2648              	.LASF33:
 2649 03fb 6368616E 		.ascii	"channel\000"
 2649      6E656C00 
 2650              	.LASF49:
 2651 0403 55415254 		.ascii	"UART_RX_COMPLETE\000"
 2651      5F52585F 
 2651      434F4D50 
 2651      4C455445 
 2651      00
 2652              	.LASF43:
 2653 0414 55415254 		.ascii	"UART_TX_IDLE\000"
 2653      5F54585F 
 2653      49444C45 
 2653      00
 2654              	.LASF24:
ARM GAS  /tmp/cc0Spldr.s 			page 51


 2655 0421 52455345 		.ascii	"RESERVED0\000"
 2655      52564544 
 2655      3000
 2656              	.LASF25:
 2657 042b 52455345 		.ascii	"RESERVED1\000"
 2657      52564544 
 2657      3100
 2658              	.LASF26:
 2659 0435 52455345 		.ascii	"RESERVED2\000"
 2659      52564544 
 2659      3200
 2660              	.LASF27:
 2661 043f 52455345 		.ascii	"RESERVED3\000"
 2661      52564544 
 2661      3300
 2662              	.LASF28:
 2663 0449 52455345 		.ascii	"RESERVED4\000"
 2663      52564544 
 2663      3400
 2664              	.LASF29:
 2665 0453 52455345 		.ascii	"RESERVED5\000"
 2665      52564544 
 2665      3500
 2666              	.LASF31:
 2667 045d 52455345 		.ascii	"RESERVED6\000"
 2667      52564544 
 2667      3600
 2668              	.LASF89:
 2669 0467 75617274 		.ascii	"uart_lld_start_receive\000"
 2669      5F6C6C64 
 2669      5F737461 
 2669      72745F72 
 2669      65636569 
 2670              	.LASF22:
 2671 047e 434D4152 		.ascii	"CMAR\000"
 2671      00
 2672              	.LASF41:
 2673 0483 55415254 		.ascii	"UART_READY\000"
 2673      5F524541 
 2673      445900
 2674              	.LASF8:
 2675 048e 5F5F696E 		.ascii	"__int32_t\000"
 2675      7433325F 
 2675      7400
 2676              	.LASF67:
 2677 0498 7278656E 		.ascii	"rxend_cb\000"
 2677      645F6362 
 2677      00
 2678              	.LASF47:
 2679 04a1 55415254 		.ascii	"UART_RX_IDLE\000"
 2679      5F52585F 
 2679      49444C45 
 2679      00
 2680              	.LASF68:
 2681 04ae 72786368 		.ascii	"rxchar_cb\000"
 2681      61725F63 
 2681      6200
ARM GAS  /tmp/cc0Spldr.s 			page 52


 2682              	.LASF96:
 2683 04b8 75617274 		.ascii	"uart_lld_stop_send\000"
 2683      5F6C6C64 
 2683      5F73746F 
 2683      705F7365 
 2683      6E6400
 2684              	.LASF39:
 2685 04cb 55415254 		.ascii	"UART_UNINIT\000"
 2685      5F554E49 
 2685      4E495400 
 2686              	.LASF76:
 2687 04d7 75617274 		.ascii	"uartStop\000"
 2687      53746F70 
 2687      00
 2688              	.LASF61:
 2689 04e0 72786275 		.ascii	"rxbuf\000"
 2689      6600
 2690              	.LASF83:
 2691 04e6 75617274 		.ascii	"uartStartReceiveI\000"
 2691      53746172 
 2691      74526563 
 2691      65697665 
 2691      4900
 2692              	.LASF35:
 2693 04f8 69736869 		.ascii	"ishift\000"
 2693      667400
 2694              	.LASF94:
 2695 04ff 49544D5F 		.ascii	"ITM_RxBuffer\000"
 2695      52784275 
 2695      66666572 
 2695      00
 2696              	.LASF40:
 2697 050c 55415254 		.ascii	"UART_STOP\000"
 2697      5F53544F 
 2697      5000
 2698              	.LASF75:
 2699 0516 75617274 		.ascii	"uartp\000"
 2699      7000
 2700              	.LASF52:
 2701 051c 55415254 		.ascii	"UARTDriver\000"
 2701      44726976 
 2701      657200
 2702              	.LASF34:
 2703 0527 69666372 		.ascii	"ifcr\000"
 2703      00
 2704              	.LASF87:
 2705 052c 75617274 		.ascii	"uart_lld_stop\000"
 2705      5F6C6C64 
 2705      5F73746F 
 2705      7000
 2706              	.LASF12:
 2707 053a 6C6F6E67 		.ascii	"long long int\000"
 2707      206C6F6E 
 2707      6720696E 
 2707      7400
 2708              		.ident	"GCC: (4.8.2-14ubuntu1+6) 4.8.2"
ARM GAS  /tmp/cc0Spldr.s 			page 53


DEFINED SYMBOLS
                            *ABS*:0000000000000000 uart.c
     /tmp/cc0Spldr.s:19     .text.uartInit:0000000000000000 $t
     /tmp/cc0Spldr.s:25     .text.uartInit:0000000000000000 uartInit
     /tmp/cc0Spldr.s:40     .text.uartObjectInit:0000000000000000 $t
     /tmp/cc0Spldr.s:46     .text.uartObjectInit:0000000000000000 uartObjectInit
     /tmp/cc0Spldr.s:70     .text.uartStart:0000000000000000 $t
     /tmp/cc0Spldr.s:76     .text.uartStart:0000000000000000 uartStart
     /tmp/cc0Spldr.s:112    .text.uartStop:0000000000000000 $t
     /tmp/cc0Spldr.s:118    .text.uartStop:0000000000000000 uartStop
     /tmp/cc0Spldr.s:158    .text.uartStartSend:0000000000000000 $t
     /tmp/cc0Spldr.s:164    .text.uartStartSend:0000000000000000 uartStartSend
     /tmp/cc0Spldr.s:198    .text.uartStartSendI:0000000000000000 $t
     /tmp/cc0Spldr.s:204    .text.uartStartSendI:0000000000000000 uartStartSendI
     /tmp/cc0Spldr.s:228    .text.uartStopSend:0000000000000000 $t
     /tmp/cc0Spldr.s:234    .text.uartStopSend:0000000000000000 uartStopSend
     /tmp/cc0Spldr.s:289    .text.uartStopSendI:0000000000000000 $t
     /tmp/cc0Spldr.s:295    .text.uartStopSendI:0000000000000000 uartStopSendI
     /tmp/cc0Spldr.s:334    .text.uartStartReceive:0000000000000000 $t
     /tmp/cc0Spldr.s:340    .text.uartStartReceive:0000000000000000 uartStartReceive
     /tmp/cc0Spldr.s:374    .text.uartStartReceiveI:0000000000000000 $t
     /tmp/cc0Spldr.s:380    .text.uartStartReceiveI:0000000000000000 uartStartReceiveI
     /tmp/cc0Spldr.s:404    .text.uartStopReceive:0000000000000000 $t
     /tmp/cc0Spldr.s:410    .text.uartStopReceive:0000000000000000 uartStopReceive
     /tmp/cc0Spldr.s:465    .text.uartStopReceiveI:0000000000000000 $t
     /tmp/cc0Spldr.s:471    .text.uartStopReceiveI:0000000000000000 uartStopReceiveI
                     .debug_frame:0000000000000010 $d

UNDEFINED SYMBOLS
uart_lld_init
_port_lock
uart_lld_start
_port_unlock
uart_lld_stop
uart_lld_start_send
uart_lld_stop_send
uart_lld_start_receive
uart_lld_stop_receive
