ARM GAS  /tmp/ccJfjU4P.s 			page 1


   1              		.syntax unified
   2              		.cpu cortex-m3
   3              		.fpu softvfp
   4              		.eabi_attribute 20, 1
   5              		.eabi_attribute 21, 1
   6              		.eabi_attribute 23, 3
   7              		.eabi_attribute 24, 1
   8              		.eabi_attribute 25, 1
   9              		.eabi_attribute 26, 1
  10              		.eabi_attribute 30, 2
  11              		.eabi_attribute 34, 1
  12              		.eabi_attribute 18, 4
  13              		.thumb
  14              		.file	"uart_lld.c"
  15              		.text
  16              	.Ltext0:
  17              		.cfi_sections	.debug_frame
  18              		.section	.text.set_rx_idle_loop,"ax",%progbits
  19              		.align	2
  20              		.p2align 4,,15
  21              		.thumb
  22              		.thumb_func
  23              		.type	set_rx_idle_loop, %function
  24              	set_rx_idle_loop:
  25              	.LFB57:
  26              		.file 1 "../os/hal/platforms/STM32/USARTv1/uart_lld.c"
  27              		.loc 1 160 0
  28              		.cfi_startproc
  29              		@ args = 0, pretend = 0, frame = 0
  30              		@ frame_needed = 0, uses_anonymous_args = 0
  31              		@ link register save eliminated.
  32              	.LVL0:
  33 0000 10B4     		push	{r4}
  34              		.cfi_def_cfa_offset 4
  35              		.cfi_offset 4, -4
  36              		.loc 1 169 0
  37 0002 0269     		ldr	r2, [r0, #16]
  38              		.loc 1 165 0
  39 0004 4368     		ldr	r3, [r0, #4]
  40              		.loc 1 169 0
  41 0006 1268     		ldr	r2, [r2]
  42 0008 00F11804 		add	r4, r0, #24
  43              		.loc 1 165 0
  44 000c D968     		ldr	r1, [r3, #12]
  45              		.loc 1 169 0
  46 000e D460     		str	r4, [r2, #12]
  47              		.loc 1 170 0
  48 0010 0269     		ldr	r2, [r0, #16]
  49 0012 0124     		movs	r4, #1
  50 0014 1268     		ldr	r2, [r2]
  51              		.loc 1 166 0
  52 0016 0029     		cmp	r1, #0
  53 0018 14BF     		ite	ne
  54 001a 2221     		movne	r1, #34
  55 001c 2021     		moveq	r1, #32
  56              	.LVL1:
  57              		.loc 1 170 0
ARM GAS  /tmp/ccJfjU4P.s 			page 2


  58 001e 5460     		str	r4, [r2, #4]
  59              		.loc 1 171 0
  60 0020 0269     		ldr	r2, [r0, #16]
  61 0022 C368     		ldr	r3, [r0, #12]
  62 0024 1268     		ldr	r2, [r2]
  63 0026 0B43     		orrs	r3, r3, r1
  64 0028 1360     		str	r3, [r2]
  65              		.loc 1 172 0
  66 002a 0369     		ldr	r3, [r0, #16]
  67 002c 1B68     		ldr	r3, [r3]
  68 002e 1A68     		ldr	r2, [r3]
  69 0030 2243     		orrs	r2, r2, r4
  70 0032 1A60     		str	r2, [r3]
  71              		.loc 1 173 0
  72 0034 5DF8044B 		ldr	r4, [sp], #4
  73 0038 7047     		bx	lr
  74              		.cfi_endproc
  75              	.LFE57:
  76              		.size	set_rx_idle_loop, .-set_rx_idle_loop
  77 003a 00BFAFF3 		.section	.text.usart_stop,"ax",%progbits
  77      0080
  78              		.align	2
  79              		.p2align 4,,15
  80              		.thumb
  81              		.thumb_func
  82              		.type	usart_stop, %function
  83              	usart_stop:
  84              	.LFB58:
  85              		.loc 1 181 0
  86              		.cfi_startproc
  87              		@ args = 0, pretend = 0, frame = 0
  88              		@ frame_needed = 0, uses_anonymous_args = 0
  89              		@ link register save eliminated.
  90              	.LVL2:
  91 0000 10B4     		push	{r4}
  92              		.cfi_def_cfa_offset 4
  93              		.cfi_offset 4, -4
  94              		.loc 1 184 0
  95 0002 0369     		ldr	r3, [r0, #16]
  96 0004 0F22     		movs	r2, #15
  97 0006 1968     		ldr	r1, [r3]
  98              		.loc 1 188 0
  99 0008 0023     		movs	r3, #0
 100              		.loc 1 184 0
 101 000a 0C68     		ldr	r4, [r1]
 102 000c 24F00F04 		bic	r4, r4, #15
 103 0010 0C60     		str	r4, [r1]
 104 0012 0169     		ldr	r1, [r0, #16]
 105 0014 0C7A     		ldrb	r4, [r1, #8]	@ zero_extendqisi2
 106 0016 4968     		ldr	r1, [r1, #4]
 107 0018 02FA04F4 		lsl	r4, r2, r4
 108 001c 0C60     		str	r4, [r1]
 109              		.loc 1 185 0
 110 001e 4169     		ldr	r1, [r0, #20]
 111 0020 0968     		ldr	r1, [r1]
 112 0022 0C68     		ldr	r4, [r1]
 113 0024 24F00F04 		bic	r4, r4, #15
ARM GAS  /tmp/ccJfjU4P.s 			page 3


 114 0028 0C60     		str	r4, [r1]
 115 002a 4169     		ldr	r1, [r0, #20]
 116 002c 0C7A     		ldrb	r4, [r1, #8]	@ zero_extendqisi2
 117 002e 4968     		ldr	r1, [r1, #4]
 118 0030 A240     		lsls	r2, r2, r4
 119 0032 0A60     		str	r2, [r1]
 120              		.loc 1 188 0
 121 0034 8268     		ldr	r2, [r0, #8]
 122 0036 9381     		strh	r3, [r2, #12]	@ movhi
 123              		.loc 1 189 0
 124 0038 8268     		ldr	r2, [r0, #8]
 125 003a 1382     		strh	r3, [r2, #16]	@ movhi
 126              		.loc 1 190 0
 127 003c 8268     		ldr	r2, [r0, #8]
 128 003e 9382     		strh	r3, [r2, #20]	@ movhi
 129              		.loc 1 191 0
 130 0040 5DF8044B 		ldr	r4, [sp], #4
 131 0044 7047     		bx	lr
 132              		.cfi_endproc
 133              	.LFE58:
 134              		.size	usart_stop, .-usart_stop
 135 0046 00BFAFF3 		.section	.text.uart_lld_serve_tx_end_irq,"ax",%progbits
 135      0080AFF3 
 135      0080
 136              		.align	2
 137              		.p2align 4,,15
 138              		.thumb
 139              		.thumb_func
 140              		.type	uart_lld_serve_tx_end_irq, %function
 141              	uart_lld_serve_tx_end_irq:
 142              	.LFB61:
 143              		.loc 1 282 0
 144              		.cfi_startproc
 145              		@ args = 0, pretend = 0, frame = 0
 146              		@ frame_needed = 0, uses_anonymous_args = 0
 147              	.LVL3:
 148              		.loc 1 286 0
 149 0000 0B07     		lsls	r3, r1, #28
 150              		.loc 1 282 0
 151 0002 10B5     		push	{r4, lr}
 152              		.cfi_def_cfa_offset 8
 153              		.cfi_offset 4, -8
 154              		.cfi_offset 14, -4
 155              		.loc 1 282 0
 156 0004 0446     		mov	r4, r0
 157              		.loc 1 286 0
 158 0006 23D4     		bmi	.L21
 159              	.LVL4:
 160              	.L6:
 161              		.loc 1 293 0
 162 0008 6369     		ldr	r3, [r4, #20]
 163 000a 0F21     		movs	r1, #15
 164 000c 1B68     		ldr	r3, [r3]
 165 000e 1A68     		ldr	r2, [r3]
 166 0010 22F00F02 		bic	r2, r2, #15
 167 0014 1A60     		str	r2, [r3]
 168 0016 6369     		ldr	r3, [r4, #20]
ARM GAS  /tmp/ccJfjU4P.s 			page 4


 169 0018 1A7A     		ldrb	r2, [r3, #8]	@ zero_extendqisi2
 170 001a 5B68     		ldr	r3, [r3, #4]
 171 001c 01FA02F2 		lsl	r2, r1, r2
 172 0020 1A60     		str	r2, [r3]
 173              		.loc 1 298 0
 174 0022 6368     		ldr	r3, [r4, #4]
 175 0024 5A68     		ldr	r2, [r3, #4]
 176 0026 32B1     		cbz	r2, .L7
 177              		.loc 1 299 0
 178 0028 A368     		ldr	r3, [r4, #8]
 179 002a 9A89     		ldrh	r2, [r3, #12]
 180 002c 92B2     		uxth	r2, r2
 181 002e 42F04002 		orr	r2, r2, #64
 182 0032 9A81     		strh	r2, [r3, #12]	@ movhi
 183 0034 6368     		ldr	r3, [r4, #4]
 184              	.L7:
 185              		.loc 1 302 0
 186 0036 0222     		movs	r2, #2
 187 0038 6270     		strb	r2, [r4, #1]
 188              		.loc 1 303 0
 189 003a 1B68     		ldr	r3, [r3]
 190 003c 2BB1     		cbz	r3, .L10
 191              		.loc 1 304 0
 192 003e 2046     		mov	r0, r4
 193 0040 9847     		blx	r3
 194              	.LVL5:
 195              		.loc 1 308 0
 196 0042 6378     		ldrb	r3, [r4, #1]	@ zero_extendqisi2
 197 0044 022B     		cmp	r3, #2
 198 0046 00D0     		beq	.L10
 199 0048 10BD     		pop	{r4, pc}
 200              	.LVL6:
 201              	.L10:
 202              		.loc 1 309 0
 203 004a 0023     		movs	r3, #0
 204 004c 6370     		strb	r3, [r4, #1]
 205 004e 10BD     		pop	{r4, pc}
 206              	.LVL7:
 207              	.L21:
 208              		.loc 1 287 0
 209 0050 FFF7FEFF 		bl	port_halt
 210              	.LVL8:
 211 0054 D8E7     		b	.L6
 212              		.cfi_endproc
 213              	.LFE61:
 214              		.size	uart_lld_serve_tx_end_irq, .-uart_lld_serve_tx_end_irq
 215              		.section	.text.uart_lld_serve_rx_end_irq,"ax",%progbits
 216              		.align	2
 217              		.p2align 4,,15
 218              		.thumb
 219              		.thumb_func
 220              		.type	uart_lld_serve_rx_end_irq, %function
 221              	uart_lld_serve_rx_end_irq:
 222              	.LFB60:
 223              		.loc 1 242 0
 224              		.cfi_startproc
 225              		@ args = 0, pretend = 0, frame = 0
ARM GAS  /tmp/ccJfjU4P.s 			page 5


 226              		@ frame_needed = 0, uses_anonymous_args = 0
 227              	.LVL9:
 228              		.loc 1 246 0
 229 0000 0A07     		lsls	r2, r1, #28
 230              		.loc 1 242 0
 231 0002 10B5     		push	{r4, lr}
 232              		.cfi_def_cfa_offset 8
 233              		.cfi_offset 4, -8
 234              		.cfi_offset 14, -4
 235              		.loc 1 242 0
 236 0004 0446     		mov	r4, r0
 237              		.loc 1 246 0
 238 0006 21D4     		bmi	.L36
 239              	.LVL10:
 240              	.L23:
 241              		.loc 1 253 0
 242 0008 A378     		ldrb	r3, [r4, #2]	@ zero_extendqisi2
 243 000a 3BB9     		cbnz	r3, .L24
 244              		.loc 1 256 0
 245 000c 6368     		ldr	r3, [r4, #4]
 246 000e DB68     		ldr	r3, [r3, #12]
 247 0010 DBB1     		cbz	r3, .L22
 248              		.loc 1 257 0
 249 0012 218B     		ldrh	r1, [r4, #24]
 250 0014 2046     		mov	r0, r4
 251 0016 89B2     		uxth	r1, r1
 252 0018 9847     		blx	r3
 253              	.LVL11:
 254 001a 10BD     		pop	{r4, pc}
 255              	.LVL12:
 256              	.L24:
 257              	.LBB4:
 258              	.LBB5:
 259              		.loc 1 262 0
 260 001c 2369     		ldr	r3, [r4, #16]
 261 001e 0F20     		movs	r0, #15
 262 0020 1B68     		ldr	r3, [r3]
 263              		.loc 1 263 0
 264 0022 0222     		movs	r2, #2
 265              		.loc 1 262 0
 266 0024 1968     		ldr	r1, [r3]
 267 0026 21F00F01 		bic	r1, r1, #15
 268 002a 1960     		str	r1, [r3]
 269 002c 2369     		ldr	r3, [r4, #16]
 270 002e 197A     		ldrb	r1, [r3, #8]	@ zero_extendqisi2
 271 0030 5B68     		ldr	r3, [r3, #4]
 272 0032 00FA01F1 		lsl	r1, r0, r1
 273 0036 1960     		str	r1, [r3]
 274              		.loc 1 264 0
 275 0038 6368     		ldr	r3, [r4, #4]
 276              		.loc 1 263 0
 277 003a A270     		strb	r2, [r4, #2]
 278              		.loc 1 264 0
 279 003c 9B68     		ldr	r3, [r3, #8]
 280 003e 43B1     		cbz	r3, .L28
 281              		.loc 1 265 0
 282 0040 2046     		mov	r0, r4
ARM GAS  /tmp/ccJfjU4P.s 			page 6


 283 0042 9847     		blx	r3
 284              	.LVL13:
 285              		.loc 1 269 0
 286 0044 A378     		ldrb	r3, [r4, #2]	@ zero_extendqisi2
 287 0046 022B     		cmp	r3, #2
 288 0048 03D0     		beq	.L28
 289              	.LVL14:
 290              	.L22:
 291 004a 10BD     		pop	{r4, pc}
 292              	.LVL15:
 293              	.L36:
 294              	.LBE5:
 295              	.LBE4:
 296              		.loc 1 247 0
 297 004c FFF7FEFF 		bl	port_halt
 298              	.LVL16:
 299 0050 DAE7     		b	.L23
 300              	.LVL17:
 301              	.L28:
 302              	.LBB8:
 303              	.LBB6:
 304              		.loc 1 270 0
 305 0052 0023     		movs	r3, #0
 306 0054 A370     		strb	r3, [r4, #2]
 307              		.loc 1 271 0
 308 0056 2046     		mov	r0, r4
 309              	.LBE6:
 310              	.LBE8:
 311              		.loc 1 274 0
 312 0058 BDE81040 		pop	{r4, lr}
 313              	.LVL18:
 314              	.LBB9:
 315              	.LBB7:
 316              		.loc 1 271 0
 317 005c FFF7FEBF 		b	set_rx_idle_loop
 318              	.LVL19:
 319              	.LBE7:
 320              	.LBE9:
 321              		.cfi_endproc
 322              	.LFE60:
 323              		.size	uart_lld_serve_rx_end_irq, .-uart_lld_serve_rx_end_irq
 324              		.section	.text.VectorD8,"ax",%progbits
 325              		.align	2
 326              		.p2align 4,,15
 327              		.global	VectorD8
 328              		.thumb
 329              		.thumb_func
 330              		.type	VectorD8, %function
 331              	VectorD8:
 332              	.LFB63:
 333              		.loc 1 375 0
 334              		.cfi_startproc
 335              		@ args = 0, pretend = 0, frame = 0
 336              		@ frame_needed = 0, uses_anonymous_args = 0
 337              	.LVL20:
 338 0000 F8B5     		push	{r3, r4, r5, r6, r7, lr}
 339              		.cfi_def_cfa_offset 24
ARM GAS  /tmp/ccJfjU4P.s 			page 7


 340              		.cfi_offset 3, -24
 341              		.cfi_offset 4, -20
 342              		.cfi_offset 5, -16
 343              		.cfi_offset 6, -12
 344              		.cfi_offset 7, -8
 345              		.cfi_offset 14, -4
 346              	.LBB14:
 347              	.LBB15:
 348              		.loc 1 319 0
 349 0002 40F20005 		movw	r5, #:lower16:.LANCHOR0
 350 0006 C0F20005 		movt	r5, #:upper16:.LANCHOR0
 351 000a AC68     		ldr	r4, [r5, #8]
 352              	.LVL21:
 353              		.loc 1 325 0
 354 000c 40F20F13 		movw	r3, #271
 355              		.loc 1 320 0
 356 0010 A289     		ldrh	r2, [r4, #12]
 357              		.loc 1 322 0
 358 0012 2688     		ldrh	r6, [r4]
 359              		.loc 1 320 0
 360 0014 97B2     		uxth	r7, r2
 361              	.LVL22:
 362              		.loc 1 322 0
 363 0016 B6B2     		uxth	r6, r6
 364              	.LVL23:
 365              		.loc 1 325 0
 366 0018 3340     		ands	r3, r3, r6
 367              		.loc 1 323 0
 368 001a A288     		ldrh	r2, [r4, #4]
 369              		.loc 1 325 0
 370 001c FBB1     		cbz	r3, .L39
 371              		.loc 1 327 0
 372 001e 4FF6FF63 		movw	r3, #65279
 373 0022 2380     		strh	r3, [r4]	@ movhi
 374              		.loc 1 328 0
 375 0024 6B68     		ldr	r3, [r5, #4]
 376 0026 1B69     		ldr	r3, [r3, #16]
 377 0028 CBB1     		cbz	r3, .L39
 378              	.LVL24:
 379              	.LBB16:
 380              	.LBB17:
 381              		.loc 1 140 0
 382 002a 16F0080F 		tst	r6, #8
 383 002e 14BF     		ite	ne
 384 0030 1021     		movne	r1, #16
 385 0032 0021     		moveq	r1, #0
 386              	.LVL25:
 387              		.loc 1 144 0
 388 0034 F007     		lsls	r0, r6, #31
 389              		.loc 1 145 0
 390 0036 48BF     		it	mi
 391 0038 41F00401 		orrmi	r1, r1, #4
 392              	.LVL26:
 393              		.loc 1 146 0
 394 003c B207     		lsls	r2, r6, #30
 395              		.loc 1 147 0
 396 003e 48BF     		it	mi
ARM GAS  /tmp/ccJfjU4P.s 			page 8


 397 0040 41F00801 		orrmi	r1, r1, #8
 398              	.LVL27:
 399              		.loc 1 148 0
 400 0044 7007     		lsls	r0, r6, #29
 401              		.loc 1 149 0
 402 0046 48BF     		it	mi
 403 0048 41F02001 		orrmi	r1, r1, #32
 404              	.LVL28:
 405              	.LBE17:
 406              	.LBE16:
 407              		.loc 1 329 0
 408 004c 40F20000 		movw	r0, #:lower16:.LANCHOR0
 409              	.LBB19:
 410              	.LBB18:
 411              		.loc 1 150 0
 412 0050 F205     		lsls	r2, r6, #23
 413              		.loc 1 151 0
 414 0052 48BF     		it	mi
 415 0054 41F04001 		orrmi	r1, r1, #64
 416              	.LVL29:
 417              	.LBE18:
 418              	.LBE19:
 419              		.loc 1 329 0
 420 0058 C0F20000 		movt	r0, #:upper16:.LANCHOR0
 421 005c 9847     		blx	r3
 422              	.LVL30:
 423              	.L39:
 424              		.loc 1 332 0
 425 005e 7006     		lsls	r0, r6, #25
 426 0060 0ED5     		bpl	.L47
 427 0062 7906     		lsls	r1, r7, #25
 428 0064 0CD5     		bpl	.L47
 429              		.loc 1 334 0
 430 0066 4FF6BF73 		movw	r3, #65471
 431 006a 2380     		strh	r3, [r4]	@ movhi
 432              		.loc 1 338 0
 433 006c 6A68     		ldr	r2, [r5, #4]
 434              		.loc 1 335 0
 435 006e 3B40     		ands	r3, r3, r7
 436 0070 A381     		strh	r3, [r4, #12]	@ movhi
 437              		.loc 1 338 0
 438 0072 5368     		ldr	r3, [r2, #4]
 439 0074 23B1     		cbz	r3, .L47
 440              		.loc 1 339 0
 441 0076 40F20000 		movw	r0, #:lower16:.LANCHOR0
 442 007a C0F20000 		movt	r0, #:upper16:.LANCHOR0
 443 007e 9847     		blx	r3
 444              	.LVL31:
 445              	.L47:
 446              	.LBE15:
 447              	.LBE14:
 448              		.loc 1 382 0
 449 0080 BDE8F840 		pop	{r3, r4, r5, r6, r7, lr}
 450              	.LVL32:
 451              		.loc 1 381 0
 452 0084 FFF7FEBF 		b	_port_irq_epilogue
 453              	.LVL33:
ARM GAS  /tmp/ccJfjU4P.s 			page 9


 454              		.cfi_endproc
 455              	.LFE63:
 456              		.size	VectorD8, .-VectorD8
 457 0088 AFF30080 		.section	.text.uart_lld_init,"ax",%progbits
 457      AFF30080 
 458              		.align	2
 459              		.p2align 4,,15
 460              		.global	uart_lld_init
 461              		.thumb
 462              		.thumb_func
 463              		.type	uart_lld_init, %function
 464              	uart_lld_init:
 465              	.LFB64:
 466              		.loc 1 470 0
 467              		.cfi_startproc
 468              		@ args = 0, pretend = 0, frame = 0
 469              		@ frame_needed = 0, uses_anonymous_args = 0
 470 0000 10B5     		push	{r4, lr}
 471              		.cfi_def_cfa_offset 8
 472              		.cfi_offset 4, -8
 473              		.cfi_offset 14, -4
 474              		.loc 1 481 0
 475 0002 40F20004 		movw	r4, #:lower16:.LANCHOR0
 476 0006 C0F20004 		movt	r4, #:upper16:.LANCHOR0
 477 000a 2046     		mov	r0, r4
 478 000c FFF7FEFF 		bl	uartObjectInit
 479              	.LVL34:
 480              		.loc 1 484 0
 481 0010 064B     		ldr	r3, .L72
 482              		.loc 1 482 0
 483 0012 4FF48842 		mov	r2, #17408
 484 0016 C4F20002 		movt	r2, 16384
 485              		.loc 1 483 0
 486 001a 0820     		movs	r0, #8
 487              		.loc 1 485 0
 488 001c 03F10C01 		add	r1, r3, #12
 489              		.loc 1 482 0
 490 0020 A260     		str	r2, [r4, #8]
 491              		.loc 1 483 0
 492 0022 E060     		str	r0, [r4, #12]
 493              		.loc 1 484 0
 494 0024 2361     		str	r3, [r4, #16]
 495              		.loc 1 485 0
 496 0026 6161     		str	r1, [r4, #20]
 497 0028 10BD     		pop	{r4, pc}
 498              	.L73:
 499 002a 00BF     		.align	2
 500              	.L72:
 501 002c 3C000000 		.word	_stm32_dma_streams+60
 502              		.cfi_endproc
 503              	.LFE64:
 504              		.size	uart_lld_init, .-uart_lld_init
 505              		.section	.text.uart_lld_start,"ax",%progbits
 506              		.align	2
 507              		.p2align 4,,15
 508              		.global	uart_lld_start
 509              		.thumb
ARM GAS  /tmp/ccJfjU4P.s 			page 10


 510              		.thumb_func
 511              		.type	uart_lld_start, %function
 512              	uart_lld_start:
 513              	.LFB65:
 514              		.loc 1 527 0
 515              		.cfi_startproc
 516              		@ args = 0, pretend = 0, frame = 0
 517              		@ frame_needed = 0, uses_anonymous_args = 0
 518              	.LVL35:
 519 0000 38B5     		push	{r3, r4, r5, lr}
 520              		.cfi_def_cfa_offset 16
 521              		.cfi_offset 3, -16
 522              		.cfi_offset 4, -12
 523              		.cfi_offset 5, -8
 524              		.cfi_offset 14, -4
 525              		.loc 1 529 0
 526 0002 0378     		ldrb	r3, [r0]	@ zero_extendqisi2
 527              		.loc 1 527 0
 528 0004 0446     		mov	r4, r0
 529              		.loc 1 529 0
 530 0006 012B     		cmp	r3, #1
 531 0008 3AD0     		beq	.L80
 532              	.LVL36:
 533              	.L75:
 534              		.loc 1 681 0
 535 000a 0023     		movs	r3, #0
 536 000c A370     		strb	r3, [r4, #2]
 537              		.loc 1 682 0
 538 000e 6370     		strb	r3, [r4, #1]
 539              	.LVL37:
 540              	.LBB23:
 541              	.LBB24:
 542              		.loc 1 204 0
 543 0010 2046     		mov	r0, r4
 544              		.loc 1 201 0
 545 0012 A568     		ldr	r5, [r4, #8]
 546              	.LVL38:
 547              		.loc 1 204 0
 548 0014 FFF7FEFF 		bl	usart_stop
 549              	.LVL39:
 550              		.loc 1 210 0
 551 0018 A268     		ldr	r2, [r4, #8]
 552 001a 4FF46053 		mov	r3, #14336
 553 001e C4F20103 		movt	r3, 16385
 554 0022 9A42     		cmp	r2, r3
 555              		.loc 1 212 0
 556 0024 6268     		ldr	r2, [r4, #4]
 557 0026 07BF     		ittee	eq
 558 0028 4FF45853 		moveq	r3, #13824
 559 002c 5269     		ldreq	r2, [r2, #20]
 560              		.loc 1 214 0
 561 002e 5269     		ldrne	r2, [r2, #20]
 562 0030 4FF4D853 		movne	r3, #6912
 563              		.loc 1 212 0
 564 0034 0CBF     		ite	eq
 565 0036 C0F26E13 		movteq	r3, 366
 566              		.loc 1 214 0
ARM GAS  /tmp/ccJfjU4P.s 			page 11


 567 003a C0F2B703 		movtne	r3, 183
 568 003e B3FBF2F3 		udiv	r3, r3, r2
 569 0042 9BB2     		uxth	r3, r3
 570 0044 2B81     		strh	r3, [r5, #8]	@ movhi
 571              		.loc 1 219 0
 572 0046 0023     		movs	r3, #0
 573              		.loc 1 217 0
 574 0048 2A88     		ldrh	r2, [r5]
 575              		.loc 1 218 0
 576 004a AA88     		ldrh	r2, [r5, #4]
 577              		.loc 1 219 0
 578 004c 2B80     		strh	r3, [r5]	@ movhi
 579              		.loc 1 223 0
 580 004e 6368     		ldr	r3, [r4, #4]
 581              		.loc 1 233 0
 582 0050 2046     		mov	r0, r4
 583              		.loc 1 223 0
 584 0052 5B8B     		ldrh	r3, [r3, #26]
 585 0054 43F04003 		orr	r3, r3, #64
 586 0058 9BB2     		uxth	r3, r3
 587 005a 2B82     		strh	r3, [r5, #16]	@ movhi
 588              		.loc 1 224 0
 589 005c 6368     		ldr	r3, [r4, #4]
 590 005e 9B8B     		ldrh	r3, [r3, #28]
 591 0060 43F0C103 		orr	r3, r3, #193
 592 0064 9BB2     		uxth	r3, r3
 593 0066 AB82     		strh	r3, [r5, #20]	@ movhi
 594              	.LVL40:
 595              		.loc 1 230 0
 596 0068 6368     		ldr	r3, [r4, #4]
 597 006a 1B8B     		ldrh	r3, [r3, #24]
 598 006c 43F40453 		orr	r3, r3, #8448
 599 0070 43F00C03 		orr	r3, r3, #12
 600 0074 9BB2     		uxth	r3, r3
 601 0076 AB81     		strh	r3, [r5, #12]	@ movhi
 602              	.LBE24:
 603              	.LBE23:
 604              		.loc 1 684 0
 605 0078 BDE83840 		pop	{r3, r4, r5, lr}
 606              	.LVL41:
 607              	.LBB26:
 608              	.LBB25:
 609              		.loc 1 233 0
 610 007c FFF7FEBF 		b	set_rx_idle_loop
 611              	.LVL42:
 612              	.L80:
 613              	.LBE25:
 614              	.LBE26:
 615              		.loc 1 552 0
 616 0080 40F20003 		movw	r3, #:lower16:.LANCHOR0
 617 0084 C0F20003 		movt	r3, #:upper16:.LANCHOR0
 618 0088 9842     		cmp	r0, r3
 619 008a 17D0     		beq	.L81
 620              	.LVL43:
 621              	.L76:
 622              		.loc 1 674 0
 623 008c 6368     		ldr	r3, [r4, #4]
ARM GAS  /tmp/ccJfjU4P.s 			page 12


 624              		.loc 1 676 0
 625 008e 2269     		ldr	r2, [r4, #16]
 626              		.loc 1 674 0
 627 0090 1B8B     		ldrh	r3, [r3, #24]
 628 0092 03F4A053 		and	r3, r3, #5120
 629 0096 B3F5805F 		cmp	r3, #4096
 630              		.loc 1 675 0
 631 009a 02BF     		ittt	eq
 632 009c E368     		ldreq	r3, [r4, #12]
 633 009e 43F4A063 		orreq	r3, r3, #1280
 634 00a2 E360     		streq	r3, [r4, #12]
 635              		.loc 1 676 0
 636 00a4 A368     		ldr	r3, [r4, #8]
 637 00a6 1268     		ldr	r2, [r2]
 638 00a8 0433     		adds	r3, r3, #4
 639 00aa 9360     		str	r3, [r2, #8]
 640              		.loc 1 677 0
 641 00ac 6269     		ldr	r2, [r4, #20]
 642 00ae A368     		ldr	r3, [r4, #8]
 643 00b0 1168     		ldr	r1, [r2]
 644 00b2 0433     		adds	r3, r3, #4
 645              		.loc 1 678 0
 646 00b4 0022     		movs	r2, #0
 647              		.loc 1 677 0
 648 00b6 8B60     		str	r3, [r1, #8]
 649              		.loc 1 678 0
 650 00b8 2283     		strh	r2, [r4, #24]	@ movhi
 651 00ba A6E7     		b	.L75
 652              	.LVL44:
 653              	.L81:
 654              	.LBB27:
 655              		.loc 1 554 0
 656 00bc 40F20002 		movw	r2, #:lower16:uart_lld_serve_rx_end_irq
 657 00c0 2346     		mov	r3, r4
 658 00c2 C0F20002 		movt	r2, #:upper16:uart_lld_serve_rx_end_irq
 659 00c6 0C21     		movs	r1, #12
 660 00c8 0069     		ldr	r0, [r0, #16]
 661              	.LVL45:
 662 00ca FFF7FEFF 		bl	dmaStreamAllocate
 663              	.LVL46:
 664              		.loc 1 559 0
 665 00ce 40F20002 		movw	r2, #:lower16:uart_lld_serve_tx_end_irq
 666 00d2 2346     		mov	r3, r4
 667 00d4 C0F20002 		movt	r2, #:upper16:uart_lld_serve_tx_end_irq
 668 00d8 6069     		ldr	r0, [r4, #20]
 669 00da 0C21     		movs	r1, #12
 670 00dc FFF7FEFF 		bl	dmaStreamAllocate
 671              	.LVL47:
 672              		.loc 1 564 0
 673 00e0 4FF48053 		mov	r3, #4096
 674 00e4 C4F20203 		movt	r3, 16386
 675 00e8 DA69     		ldr	r2, [r3, #28]
 676              		.loc 1 565 0
 677 00ea 2620     		movs	r0, #38
 678              		.loc 1 564 0
 679 00ec 42F40032 		orr	r2, r2, #131072
 680 00f0 DA61     		str	r2, [r3, #28]
ARM GAS  /tmp/ccJfjU4P.s 			page 13


 681              		.loc 1 565 0
 682 00f2 C021     		movs	r1, #192
 683 00f4 FFF7FEFF 		bl	nvicEnableVector
 684              	.LVL48:
 685 00f8 C8E7     		b	.L76
 686              	.LBE27:
 687              		.cfi_endproc
 688              	.LFE65:
 689              		.size	uart_lld_start, .-uart_lld_start
 690 00fa 00BFAFF3 		.section	.text.uart_lld_stop,"ax",%progbits
 690      0080
 691              		.align	2
 692              		.p2align 4,,15
 693              		.global	uart_lld_stop
 694              		.thumb
 695              		.thumb_func
 696              		.type	uart_lld_stop, %function
 697              	uart_lld_stop:
 698              	.LFB66:
 699              		.loc 1 693 0
 700              		.cfi_startproc
 701              		@ args = 0, pretend = 0, frame = 0
 702              		@ frame_needed = 0, uses_anonymous_args = 0
 703              	.LVL49:
 704 0000 10B5     		push	{r4, lr}
 705              		.cfi_def_cfa_offset 8
 706              		.cfi_offset 4, -8
 707              		.cfi_offset 14, -4
 708              		.loc 1 695 0
 709 0002 0378     		ldrb	r3, [r0]	@ zero_extendqisi2
 710              		.loc 1 693 0
 711 0004 0446     		mov	r4, r0
 712              		.loc 1 695 0
 713 0006 022B     		cmp	r3, #2
 714 0008 00D0     		beq	.L86
 715              	.LVL50:
 716              	.L82:
 717 000a 10BD     		pop	{r4, pc}
 718              	.LVL51:
 719              	.L86:
 720              		.loc 1 696 0
 721 000c FFF7FEFF 		bl	usart_stop
 722              	.LVL52:
 723              		.loc 1 697 0
 724 0010 2069     		ldr	r0, [r4, #16]
 725 0012 FFF7FEFF 		bl	dmaStreamRelease
 726              	.LVL53:
 727              		.loc 1 698 0
 728 0016 6069     		ldr	r0, [r4, #20]
 729 0018 FFF7FEFF 		bl	dmaStreamRelease
 730              	.LVL54:
 731              		.loc 1 709 0
 732 001c 40F20003 		movw	r3, #:lower16:.LANCHOR0
 733 0020 C0F20003 		movt	r3, #:upper16:.LANCHOR0
 734 0024 9C42     		cmp	r4, r3
 735 0026 F0D1     		bne	.L82
 736              		.loc 1 710 0
ARM GAS  /tmp/ccJfjU4P.s 			page 14


 737 0028 2620     		movs	r0, #38
 738 002a FFF7FEFF 		bl	nvicDisableVector
 739              	.LVL55:
 740              		.loc 1 711 0
 741 002e 4FF48053 		mov	r3, #4096
 742 0032 C4F20203 		movt	r3, 16386
 743 0036 DA69     		ldr	r2, [r3, #28]
 744 0038 22F40032 		bic	r2, r2, #131072
 745 003c DA61     		str	r2, [r3, #28]
 746              		.loc 1 712 0
 747 003e E4E7     		b	.L82
 748              		.cfi_endproc
 749              	.LFE66:
 750              		.size	uart_lld_stop, .-uart_lld_stop
 751              		.section	.text.uart_lld_start_send,"ax",%progbits
 752              		.align	2
 753              		.p2align 4,,15
 754              		.global	uart_lld_start_send
 755              		.thumb
 756              		.thumb_func
 757              		.type	uart_lld_start_send, %function
 758              	uart_lld_start_send:
 759              	.LFB67:
 760              		.loc 1 761 0
 761              		.cfi_startproc
 762              		@ args = 0, pretend = 0, frame = 0
 763              		@ frame_needed = 0, uses_anonymous_args = 0
 764              		@ link register save eliminated.
 765              	.LVL56:
 766              		.loc 1 764 0
 767 0000 4369     		ldr	r3, [r0, #20]
 768 0002 1B68     		ldr	r3, [r3]
 769 0004 DA60     		str	r2, [r3, #12]
 770              		.loc 1 765 0
 771 0006 4369     		ldr	r3, [r0, #20]
 772 0008 1B68     		ldr	r3, [r3]
 773 000a 5960     		str	r1, [r3, #4]
 774              		.loc 1 766 0
 775 000c 4269     		ldr	r2, [r0, #20]
 776              	.LVL57:
 777 000e C368     		ldr	r3, [r0, #12]
 778 0010 1268     		ldr	r2, [r2]
 779 0012 43F09203 		orr	r3, r3, #146
 780 0016 1360     		str	r3, [r2]
 781              		.loc 1 768 0
 782 0018 4369     		ldr	r3, [r0, #20]
 783 001a 1B68     		ldr	r3, [r3]
 784 001c 1A68     		ldr	r2, [r3]
 785 001e 42F00102 		orr	r2, r2, #1
 786 0022 1A60     		str	r2, [r3]
 787 0024 7047     		bx	lr
 788              		.cfi_endproc
 789              	.LFE67:
 790              		.size	uart_lld_start_send, .-uart_lld_start_send
 791 0026 00BFAFF3 		.section	.text.uart_lld_stop_send,"ax",%progbits
 791      0080AFF3 
 791      0080
ARM GAS  /tmp/ccJfjU4P.s 			page 15


 792              		.align	2
 793              		.p2align 4,,15
 794              		.global	uart_lld_stop_send
 795              		.thumb
 796              		.thumb_func
 797              		.type	uart_lld_stop_send, %function
 798              	uart_lld_stop_send:
 799              	.LFB68:
 800              		.loc 1 782 0
 801              		.cfi_startproc
 802              		@ args = 0, pretend = 0, frame = 0
 803              		@ frame_needed = 0, uses_anonymous_args = 0
 804              		@ link register save eliminated.
 805              	.LVL58:
 806              		.loc 1 784 0
 807 0000 4369     		ldr	r3, [r0, #20]
 808 0002 0F21     		movs	r1, #15
 809 0004 1B68     		ldr	r3, [r3]
 810 0006 1A68     		ldr	r2, [r3]
 811 0008 22F00F02 		bic	r2, r2, #15
 812 000c 1A60     		str	r2, [r3]
 813 000e 4369     		ldr	r3, [r0, #20]
 814 0010 1A7A     		ldrb	r2, [r3, #8]	@ zero_extendqisi2
 815 0012 5B68     		ldr	r3, [r3, #4]
 816 0014 01FA02F2 		lsl	r2, r1, r2
 817 0018 1A60     		str	r2, [r3]
 818              		.loc 1 785 0
 819 001a 4369     		ldr	r3, [r0, #20]
 820 001c 1B68     		ldr	r3, [r3]
 821 001e 5868     		ldr	r0, [r3, #4]
 822              	.LVL59:
 823              		.loc 1 786 0
 824 0020 7047     		bx	lr
 825              		.cfi_endproc
 826              	.LFE68:
 827              		.size	uart_lld_stop_send, .-uart_lld_stop_send
 828 0022 00BFAFF3 		.section	.text.uart_lld_start_receive,"ax",%progbits
 828      0080AFF3 
 828      0080AFF3 
 828      0080
 829              		.align	2
 830              		.p2align 4,,15
 831              		.global	uart_lld_start_receive
 832              		.thumb
 833              		.thumb_func
 834              		.type	uart_lld_start_receive, %function
 835              	uart_lld_start_receive:
 836              	.LFB69:
 837              		.loc 1 799 0
 838              		.cfi_startproc
 839              		@ args = 0, pretend = 0, frame = 0
 840              		@ frame_needed = 0, uses_anonymous_args = 0
 841              		@ link register save eliminated.
 842              	.LVL60:
 843 0000 30B4     		push	{r4, r5}
 844              		.cfi_def_cfa_offset 8
 845              		.cfi_offset 4, -8
ARM GAS  /tmp/ccJfjU4P.s 			page 16


 846              		.cfi_offset 5, -4
 847              		.loc 1 802 0
 848 0002 0369     		ldr	r3, [r0, #16]
 849 0004 0F24     		movs	r4, #15
 850 0006 1B68     		ldr	r3, [r3]
 851 0008 1D68     		ldr	r5, [r3]
 852 000a 25F00F05 		bic	r5, r5, #15
 853 000e 1D60     		str	r5, [r3]
 854 0010 0369     		ldr	r3, [r0, #16]
 855 0012 1D7A     		ldrb	r5, [r3, #8]	@ zero_extendqisi2
 856 0014 5B68     		ldr	r3, [r3, #4]
 857 0016 AC40     		lsls	r4, r4, r5
 858 0018 1C60     		str	r4, [r3]
 859              		.loc 1 805 0
 860 001a 0369     		ldr	r3, [r0, #16]
 861 001c 1B68     		ldr	r3, [r3]
 862 001e DA60     		str	r2, [r3, #12]
 863              		.loc 1 806 0
 864 0020 0369     		ldr	r3, [r0, #16]
 865 0022 1B68     		ldr	r3, [r3]
 866 0024 5960     		str	r1, [r3, #4]
 867              		.loc 1 807 0
 868 0026 0269     		ldr	r2, [r0, #16]
 869              	.LVL61:
 870 0028 C368     		ldr	r3, [r0, #12]
 871 002a 1268     		ldr	r2, [r2]
 872 002c 43F08203 		orr	r3, r3, #130
 873 0030 1360     		str	r3, [r2]
 874              		.loc 1 809 0
 875 0032 0369     		ldr	r3, [r0, #16]
 876 0034 1B68     		ldr	r3, [r3]
 877 0036 1A68     		ldr	r2, [r3]
 878 0038 42F00102 		orr	r2, r2, #1
 879 003c 1A60     		str	r2, [r3]
 880              		.loc 1 810 0
 881 003e 30BC     		pop	{r4, r5}
 882 0040 7047     		bx	lr
 883              		.cfi_endproc
 884              	.LFE69:
 885              		.size	uart_lld_start_receive, .-uart_lld_start_receive
 886 0042 00BFAFF3 		.section	.text.uart_lld_stop_receive,"ax",%progbits
 886      0080AFF3 
 886      0080AFF3 
 886      0080
 887              		.align	2
 888              		.p2align 4,,15
 889              		.global	uart_lld_stop_receive
 890              		.thumb
 891              		.thumb_func
 892              		.type	uart_lld_stop_receive, %function
 893              	uart_lld_stop_receive:
 894              	.LFB70:
 895              		.loc 1 823 0
 896              		.cfi_startproc
 897              		@ args = 0, pretend = 0, frame = 0
 898              		@ frame_needed = 0, uses_anonymous_args = 0
 899              	.LVL62:
ARM GAS  /tmp/ccJfjU4P.s 			page 17


 900 0000 10B5     		push	{r4, lr}
 901              		.cfi_def_cfa_offset 8
 902              		.cfi_offset 4, -8
 903              		.cfi_offset 14, -4
 904              		.loc 1 826 0
 905 0002 0269     		ldr	r2, [r0, #16]
 906 0004 0F24     		movs	r4, #15
 907 0006 1268     		ldr	r2, [r2]
 908 0008 1168     		ldr	r1, [r2]
 909 000a 21F00F01 		bic	r1, r1, #15
 910 000e 1160     		str	r1, [r2]
 911 0010 0269     		ldr	r2, [r0, #16]
 912 0012 117A     		ldrb	r1, [r2, #8]	@ zero_extendqisi2
 913 0014 5268     		ldr	r2, [r2, #4]
 914 0016 04FA01F1 		lsl	r1, r4, r1
 915 001a 1160     		str	r1, [r2]
 916              		.loc 1 827 0
 917 001c 0369     		ldr	r3, [r0, #16]
 918 001e 1B68     		ldr	r3, [r3]
 919 0020 5C68     		ldr	r4, [r3, #4]
 920              	.LVL63:
 921              		.loc 1 828 0
 922 0022 FFF7FEFF 		bl	set_rx_idle_loop
 923              	.LVL64:
 924              		.loc 1 830 0
 925 0026 2046     		mov	r0, r4
 926 0028 10BD     		pop	{r4, pc}
 927              		.cfi_endproc
 928              	.LFE70:
 929              		.size	uart_lld_stop_receive, .-uart_lld_stop_receive
 930              		.global	UARTD2
 931 002a 00BFAFF3 		.section	.bss.UARTD2,"aw",%nobits
 931      0080
 932              		.align	2
 933              		.set	.LANCHOR0,. + 0
 934              		.type	UARTD2, %object
 935              		.size	UARTD2, 28
 936              	UARTD2:
 937 0000 00000000 		.space	28
 937      00000000 
 937      00000000 
 937      00000000 
 937      00000000 
 938              		.text
 939              	.Letext0:
 940              		.file 2 "/usr/lib/gcc/arm-none-eabi/4.8.2/include/stddef.h"
 941              		.file 3 "/usr/include/newlib/machine/_default_types.h"
 942              		.file 4 "/usr/include/newlib/stdint.h"
 943              		.file 5 "../os/ports/GCC/ARMCMx/chtypes.h"
 944              		.file 6 "../os/hal/platforms/STM32F1xx/stm32f10x.h"
 945              		.file 7 "../os/hal/platforms/STM32F1xx/stm32_dma.h"
 946              		.file 8 "../os/hal/include/uart.h"
 947              		.file 9 "../os/hal/platforms/STM32/USARTv1/uart_lld.h"
 948              		.file 10 "../os/ports/common/ARMCMx/CMSIS/include/core_cm3.h"
 949              		.file 11 "../os/ports/GCC/ARMCMx/chcore_v7m.h"
 950              		.file 12 "../os/ports/common/ARMCMx/nvic.h"
 951              		.section	.debug_info,"",%progbits
ARM GAS  /tmp/ccJfjU4P.s 			page 18


 952              	.Ldebug_info0:
 953 0000 740C0000 		.4byte	0xc74
 954 0004 0400     		.2byte	0x4
 955 0006 00000000 		.4byte	.Ldebug_abbrev0
 956 000a 04       		.byte	0x4
 957 000b 01       		.uleb128 0x1
 958 000c D7020000 		.4byte	.LASF108
 959 0010 01       		.byte	0x1
 960 0011 02050000 		.4byte	.LASF109
 961 0015 B4030000 		.4byte	.LASF110
 962 0019 50000000 		.4byte	.Ldebug_ranges0+0x50
 963 001d 00000000 		.4byte	0
 964 0021 00000000 		.4byte	.Ldebug_line0
 965 0025 02       		.uleb128 0x2
 966 0026 04       		.byte	0x4
 967 0027 05       		.byte	0x5
 968 0028 696E7400 		.ascii	"int\000"
 969 002c 03       		.uleb128 0x3
 970 002d 40000000 		.4byte	.LASF2
 971 0031 02       		.byte	0x2
 972 0032 D4       		.byte	0xd4
 973 0033 37000000 		.4byte	0x37
 974 0037 04       		.uleb128 0x4
 975 0038 04       		.byte	0x4
 976 0039 07       		.byte	0x7
 977 003a E2010000 		.4byte	.LASF0
 978 003e 04       		.uleb128 0x4
 979 003f 01       		.byte	0x1
 980 0040 06       		.byte	0x6
 981 0041 10010000 		.4byte	.LASF1
 982 0045 03       		.uleb128 0x3
 983 0046 51000000 		.4byte	.LASF3
 984 004a 03       		.byte	0x3
 985 004b 1C       		.byte	0x1c
 986 004c 50000000 		.4byte	0x50
 987 0050 04       		.uleb128 0x4
 988 0051 01       		.byte	0x1
 989 0052 08       		.byte	0x8
 990 0053 C0040000 		.4byte	.LASF4
 991 0057 04       		.uleb128 0x4
 992 0058 02       		.byte	0x2
 993 0059 05       		.byte	0x5
 994 005a CE040000 		.4byte	.LASF5
 995 005e 03       		.uleb128 0x3
 996 005f 59050000 		.4byte	.LASF6
 997 0063 03       		.byte	0x3
 998 0064 26       		.byte	0x26
 999 0065 69000000 		.4byte	0x69
 1000 0069 04       		.uleb128 0x4
 1001 006a 02       		.byte	0x2
 1002 006b 07       		.byte	0x7
 1003 006c 62020000 		.4byte	.LASF7
 1004 0070 03       		.uleb128 0x3
 1005 0071 6E050000 		.4byte	.LASF8
 1006 0075 03       		.byte	0x3
 1007 0076 37       		.byte	0x37
 1008 0077 7B000000 		.4byte	0x7b
ARM GAS  /tmp/ccJfjU4P.s 			page 19


 1009 007b 04       		.uleb128 0x4
 1010 007c 04       		.byte	0x4
 1011 007d 05       		.byte	0x5
 1012 007e 4F010000 		.4byte	.LASF9
 1013 0082 03       		.uleb128 0x3
 1014 0083 9C010000 		.4byte	.LASF10
 1015 0087 03       		.byte	0x3
 1016 0088 38       		.byte	0x38
 1017 0089 8D000000 		.4byte	0x8d
 1018 008d 04       		.uleb128 0x4
 1019 008e 04       		.byte	0x4
 1020 008f 07       		.byte	0x7
 1021 0090 1F020000 		.4byte	.LASF11
 1022 0094 04       		.uleb128 0x4
 1023 0095 08       		.byte	0x8
 1024 0096 05       		.byte	0x5
 1025 0097 02010000 		.4byte	.LASF12
 1026 009b 04       		.uleb128 0x4
 1027 009c 08       		.byte	0x8
 1028 009d 07       		.byte	0x7
 1029 009e 81000000 		.4byte	.LASF13
 1030 00a2 03       		.uleb128 0x3
 1031 00a3 B2050000 		.4byte	.LASF14
 1032 00a7 04       		.byte	0x4
 1033 00a8 2A       		.byte	0x2a
 1034 00a9 45000000 		.4byte	0x45
 1035 00ad 03       		.uleb128 0x3
 1036 00ae 61010000 		.4byte	.LASF15
 1037 00b2 04       		.byte	0x4
 1038 00b3 36       		.byte	0x36
 1039 00b4 5E000000 		.4byte	0x5e
 1040 00b8 03       		.uleb128 0x3
 1041 00b9 B8040000 		.4byte	.LASF16
 1042 00bd 04       		.byte	0x4
 1043 00be 41       		.byte	0x41
 1044 00bf 70000000 		.4byte	0x70
 1045 00c3 03       		.uleb128 0x3
 1046 00c4 F9040000 		.4byte	.LASF17
 1047 00c8 04       		.byte	0x4
 1048 00c9 42       		.byte	0x42
 1049 00ca 82000000 		.4byte	0x82
 1050 00ce 03       		.uleb128 0x3
 1051 00cf D4000000 		.4byte	.LASF18
 1052 00d3 05       		.byte	0x5
 1053 00d4 2B       		.byte	0x2b
 1054 00d5 D9000000 		.4byte	0xd9
 1055 00d9 04       		.uleb128 0x4
 1056 00da 01       		.byte	0x1
 1057 00db 02       		.byte	0x2
 1058 00dc B2040000 		.4byte	.LASF19
 1059 00e0 05       		.uleb128 0x5
 1060 00e1 04       		.byte	0x4
 1061 00e2 06       		.uleb128 0x6
 1062 00e3 C3000000 		.4byte	0xc3
 1063 00e7 04       		.uleb128 0x4
 1064 00e8 04       		.byte	0x4
 1065 00e9 07       		.byte	0x7
ARM GAS  /tmp/ccJfjU4P.s 			page 20


 1066 00ea 89030000 		.4byte	.LASF20
 1067 00ee 06       		.uleb128 0x6
 1068 00ef AD000000 		.4byte	0xad
 1069 00f3 06       		.uleb128 0x6
 1070 00f4 B8000000 		.4byte	0xb8
 1071 00f8 07       		.uleb128 0x7
 1072 00f9 10       		.byte	0x10
 1073 00fa 06       		.byte	0x6
 1074 00fb 2D03     		.2byte	0x32d
 1075 00fd 36010000 		.4byte	0x136
 1076 0101 08       		.uleb128 0x8
 1077 0102 43435200 		.ascii	"CCR\000"
 1078 0106 06       		.byte	0x6
 1079 0107 2F03     		.2byte	0x32f
 1080 0109 E2000000 		.4byte	0xe2
 1081 010d 00       		.byte	0
 1082 010e 09       		.uleb128 0x9
 1083 010f A7050000 		.4byte	.LASF21
 1084 0113 06       		.byte	0x6
 1085 0114 3003     		.2byte	0x330
 1086 0116 E2000000 		.4byte	0xe2
 1087 011a 04       		.byte	0x4
 1088 011b 09       		.uleb128 0x9
 1089 011c 07020000 		.4byte	.LASF22
 1090 0120 06       		.byte	0x6
 1091 0121 3103     		.2byte	0x331
 1092 0123 E2000000 		.4byte	0xe2
 1093 0127 08       		.byte	0x8
 1094 0128 09       		.uleb128 0x9
 1095 0129 B5020000 		.4byte	.LASF23
 1096 012d 06       		.byte	0x6
 1097 012e 3203     		.2byte	0x332
 1098 0130 E2000000 		.4byte	0xe2
 1099 0134 0C       		.byte	0xc
 1100 0135 00       		.byte	0
 1101 0136 0A       		.uleb128 0xa
 1102 0137 47020000 		.4byte	.LASF24
 1103 013b 06       		.byte	0x6
 1104 013c 3303     		.2byte	0x333
 1105 013e F8000000 		.4byte	0xf8
 1106 0142 07       		.uleb128 0x7
 1107 0143 28       		.byte	0x28
 1108 0144 06       		.byte	0x6
 1109 0145 4304     		.2byte	0x443
 1110 0147 CD010000 		.4byte	0x1cd
 1111 014b 08       		.uleb128 0x8
 1112 014c 435200   		.ascii	"CR\000"
 1113 014f 06       		.byte	0x6
 1114 0150 4504     		.2byte	0x445
 1115 0152 E2000000 		.4byte	0xe2
 1116 0156 00       		.byte	0
 1117 0157 09       		.uleb128 0x9
 1118 0158 DA050000 		.4byte	.LASF25
 1119 015c 06       		.byte	0x6
 1120 015d 4604     		.2byte	0x446
 1121 015f E2000000 		.4byte	0xe2
 1122 0163 04       		.byte	0x4
ARM GAS  /tmp/ccJfjU4P.s 			page 21


 1123 0164 08       		.uleb128 0x8
 1124 0165 43495200 		.ascii	"CIR\000"
 1125 0169 06       		.byte	0x6
 1126 016a 4704     		.2byte	0x447
 1127 016c E2000000 		.4byte	0xe2
 1128 0170 08       		.byte	0x8
 1129 0171 09       		.uleb128 0x9
 1130 0172 58010000 		.4byte	.LASF26
 1131 0176 06       		.byte	0x6
 1132 0177 4804     		.2byte	0x448
 1133 0179 E2000000 		.4byte	0xe2
 1134 017d 0C       		.byte	0xc
 1135 017e 09       		.uleb128 0x9
 1136 017f 40040000 		.4byte	.LASF27
 1137 0183 06       		.byte	0x6
 1138 0184 4904     		.2byte	0x449
 1139 0186 E2000000 		.4byte	0xe2
 1140 018a 10       		.byte	0x10
 1141 018b 09       		.uleb128 0x9
 1142 018c 13060000 		.4byte	.LASF28
 1143 0190 06       		.byte	0x6
 1144 0191 4A04     		.2byte	0x44a
 1145 0193 E2000000 		.4byte	0xe2
 1146 0197 14       		.byte	0x14
 1147 0198 09       		.uleb128 0x9
 1148 0199 E4040000 		.4byte	.LASF29
 1149 019d 06       		.byte	0x6
 1150 019e 4B04     		.2byte	0x44b
 1151 01a0 E2000000 		.4byte	0xe2
 1152 01a4 18       		.byte	0x18
 1153 01a5 09       		.uleb128 0x9
 1154 01a6 85050000 		.4byte	.LASF30
 1155 01aa 06       		.byte	0x6
 1156 01ab 4C04     		.2byte	0x44c
 1157 01ad E2000000 		.4byte	0xe2
 1158 01b1 1C       		.byte	0x1c
 1159 01b2 09       		.uleb128 0x9
 1160 01b3 AD050000 		.4byte	.LASF31
 1161 01b7 06       		.byte	0x6
 1162 01b8 4D04     		.2byte	0x44d
 1163 01ba E2000000 		.4byte	0xe2
 1164 01be 20       		.byte	0x20
 1165 01bf 08       		.uleb128 0x8
 1166 01c0 43535200 		.ascii	"CSR\000"
 1167 01c4 06       		.byte	0x6
 1168 01c5 4E04     		.2byte	0x44e
 1169 01c7 E2000000 		.4byte	0xe2
 1170 01cb 24       		.byte	0x24
 1171 01cc 00       		.byte	0
 1172 01cd 0A       		.uleb128 0xa
 1173 01ce 3B020000 		.4byte	.LASF32
 1174 01d2 06       		.byte	0x6
 1175 01d3 5904     		.2byte	0x459
 1176 01d5 42010000 		.4byte	0x142
 1177 01d9 07       		.uleb128 0x7
 1178 01da 1C       		.byte	0x1c
 1179 01db 06       		.byte	0x6
ARM GAS  /tmp/ccJfjU4P.s 			page 22


 1180 01dc E104     		.2byte	0x4e1
 1181 01de 97020000 		.4byte	0x297
 1182 01e2 08       		.uleb128 0x8
 1183 01e3 535200   		.ascii	"SR\000"
 1184 01e6 06       		.byte	0x6
 1185 01e7 E304     		.2byte	0x4e3
 1186 01e9 EE000000 		.4byte	0xee
 1187 01ed 00       		.byte	0
 1188 01ee 09       		.uleb128 0x9
 1189 01ef 4F040000 		.4byte	.LASF33
 1190 01f3 06       		.byte	0x6
 1191 01f4 E404     		.2byte	0x4e4
 1192 01f6 AD000000 		.4byte	0xad
 1193 01fa 02       		.byte	0x2
 1194 01fb 08       		.uleb128 0x8
 1195 01fc 445200   		.ascii	"DR\000"
 1196 01ff 06       		.byte	0x6
 1197 0200 E504     		.2byte	0x4e5
 1198 0202 EE000000 		.4byte	0xee
 1199 0206 04       		.byte	0x4
 1200 0207 09       		.uleb128 0x9
 1201 0208 59040000 		.4byte	.LASF34
 1202 020c 06       		.byte	0x6
 1203 020d E604     		.2byte	0x4e6
 1204 020f AD000000 		.4byte	0xad
 1205 0213 06       		.byte	0x6
 1206 0214 08       		.uleb128 0x8
 1207 0215 42525200 		.ascii	"BRR\000"
 1208 0219 06       		.byte	0x6
 1209 021a E704     		.2byte	0x4e7
 1210 021c EE000000 		.4byte	0xee
 1211 0220 08       		.byte	0x8
 1212 0221 09       		.uleb128 0x9
 1213 0222 63040000 		.4byte	.LASF35
 1214 0226 06       		.byte	0x6
 1215 0227 E804     		.2byte	0x4e8
 1216 0229 AD000000 		.4byte	0xad
 1217 022d 0A       		.byte	0xa
 1218 022e 08       		.uleb128 0x8
 1219 022f 43523100 		.ascii	"CR1\000"
 1220 0233 06       		.byte	0x6
 1221 0234 E904     		.2byte	0x4e9
 1222 0236 EE000000 		.4byte	0xee
 1223 023a 0C       		.byte	0xc
 1224 023b 09       		.uleb128 0x9
 1225 023c 6D040000 		.4byte	.LASF36
 1226 0240 06       		.byte	0x6
 1227 0241 EA04     		.2byte	0x4ea
 1228 0243 AD000000 		.4byte	0xad
 1229 0247 0E       		.byte	0xe
 1230 0248 08       		.uleb128 0x8
 1231 0249 43523200 		.ascii	"CR2\000"
 1232 024d 06       		.byte	0x6
 1233 024e EB04     		.2byte	0x4eb
 1234 0250 EE000000 		.4byte	0xee
 1235 0254 10       		.byte	0x10
 1236 0255 09       		.uleb128 0x9
ARM GAS  /tmp/ccJfjU4P.s 			page 23


 1237 0256 77040000 		.4byte	.LASF37
 1238 025a 06       		.byte	0x6
 1239 025b EC04     		.2byte	0x4ec
 1240 025d AD000000 		.4byte	0xad
 1241 0261 12       		.byte	0x12
 1242 0262 08       		.uleb128 0x8
 1243 0263 43523300 		.ascii	"CR3\000"
 1244 0267 06       		.byte	0x6
 1245 0268 ED04     		.2byte	0x4ed
 1246 026a EE000000 		.4byte	0xee
 1247 026e 14       		.byte	0x14
 1248 026f 09       		.uleb128 0x9
 1249 0270 81040000 		.4byte	.LASF38
 1250 0274 06       		.byte	0x6
 1251 0275 EE04     		.2byte	0x4ee
 1252 0277 AD000000 		.4byte	0xad
 1253 027b 16       		.byte	0x16
 1254 027c 09       		.uleb128 0x9
 1255 027d 25010000 		.4byte	.LASF39
 1256 0281 06       		.byte	0x6
 1257 0282 EF04     		.2byte	0x4ef
 1258 0284 EE000000 		.4byte	0xee
 1259 0288 18       		.byte	0x18
 1260 0289 09       		.uleb128 0x9
 1261 028a 8B040000 		.4byte	.LASF40
 1262 028e 06       		.byte	0x6
 1263 028f F004     		.2byte	0x4f0
 1264 0291 AD000000 		.4byte	0xad
 1265 0295 1A       		.byte	0x1a
 1266 0296 00       		.byte	0
 1267 0297 0A       		.uleb128 0xa
 1268 0298 9E020000 		.4byte	.LASF41
 1269 029c 06       		.byte	0x6
 1270 029d F104     		.2byte	0x4f1
 1271 029f D9010000 		.4byte	0x1d9
 1272 02a3 0B       		.uleb128 0xb
 1273 02a4 0C       		.byte	0xc
 1274 02a5 07       		.byte	0x7
 1275 02a6 C1       		.byte	0xc1
 1276 02a7 E8020000 		.4byte	0x2e8
 1277 02ab 0C       		.uleb128 0xc
 1278 02ac EC040000 		.4byte	.LASF42
 1279 02b0 07       		.byte	0x7
 1280 02b1 C2       		.byte	0xc2
 1281 02b2 E8020000 		.4byte	0x2e8
 1282 02b6 00       		.byte	0
 1283 02b7 0C       		.uleb128 0xc
 1284 02b8 F4040000 		.4byte	.LASF43
 1285 02bc 07       		.byte	0x7
 1286 02bd C3       		.byte	0xc3
 1287 02be EE020000 		.4byte	0x2ee
 1288 02c2 04       		.byte	0x4
 1289 02c3 0C       		.uleb128 0xc
 1290 02c4 5B020000 		.4byte	.LASF44
 1291 02c8 07       		.byte	0x7
 1292 02c9 C4       		.byte	0xc4
 1293 02ca A2000000 		.4byte	0xa2
ARM GAS  /tmp/ccJfjU4P.s 			page 24


 1294 02ce 08       		.byte	0x8
 1295 02cf 0C       		.uleb128 0xc
 1296 02d0 A7010000 		.4byte	.LASF45
 1297 02d4 07       		.byte	0x7
 1298 02d5 C6       		.byte	0xc6
 1299 02d6 A2000000 		.4byte	0xa2
 1300 02da 09       		.byte	0x9
 1301 02db 0C       		.uleb128 0xc
 1302 02dc A2000000 		.4byte	.LASF46
 1303 02e0 07       		.byte	0x7
 1304 02e1 C7       		.byte	0xc7
 1305 02e2 A2000000 		.4byte	0xa2
 1306 02e6 0A       		.byte	0xa
 1307 02e7 00       		.byte	0
 1308 02e8 0D       		.uleb128 0xd
 1309 02e9 04       		.byte	0x4
 1310 02ea 36010000 		.4byte	0x136
 1311 02ee 0D       		.uleb128 0xd
 1312 02ef 04       		.byte	0x4
 1313 02f0 E2000000 		.4byte	0xe2
 1314 02f4 03       		.uleb128 0x3
 1315 02f5 95040000 		.4byte	.LASF47
 1316 02f9 07       		.byte	0x7
 1317 02fa C8       		.byte	0xc8
 1318 02fb A3020000 		.4byte	0x2a3
 1319 02ff 03       		.uleb128 0x3
 1320 0300 32010000 		.4byte	.LASF48
 1321 0304 07       		.byte	0x7
 1322 0305 D1       		.byte	0xd1
 1323 0306 0A030000 		.4byte	0x30a
 1324 030a 0D       		.uleb128 0xd
 1325 030b 04       		.byte	0x4
 1326 030c 10030000 		.4byte	0x310
 1327 0310 0E       		.uleb128 0xe
 1328 0311 20030000 		.4byte	0x320
 1329 0315 0F       		.uleb128 0xf
 1330 0316 E0000000 		.4byte	0xe0
 1331 031a 0F       		.uleb128 0xf
 1332 031b C3000000 		.4byte	0xc3
 1333 031f 00       		.byte	0
 1334 0320 0D       		.uleb128 0xd
 1335 0321 04       		.byte	0x4
 1336 0322 26030000 		.4byte	0x326
 1337 0326 10       		.uleb128 0x10
 1338 0327 F4020000 		.4byte	0x2f4
 1339 032b 11       		.uleb128 0x11
 1340 032c 01       		.byte	0x1
 1341 032d 08       		.byte	0x8
 1342 032e 48       		.byte	0x48
 1343 032f 46030000 		.4byte	0x346
 1344 0333 12       		.uleb128 0x12
 1345 0334 75020000 		.4byte	.LASF49
 1346 0338 00       		.sleb128 0
 1347 0339 12       		.uleb128 0x12
 1348 033a 81020000 		.4byte	.LASF50
 1349 033e 01       		.sleb128 1
 1350 033f 12       		.uleb128 0x12
ARM GAS  /tmp/ccJfjU4P.s 			page 25


 1351 0340 C2010000 		.4byte	.LASF51
 1352 0344 02       		.sleb128 2
 1353 0345 00       		.byte	0
 1354 0346 03       		.uleb128 0x3
 1355 0347 D8040000 		.4byte	.LASF52
 1356 034b 08       		.byte	0x8
 1357 034c 4C       		.byte	0x4c
 1358 034d 2B030000 		.4byte	0x32b
 1359 0351 11       		.uleb128 0x11
 1360 0352 01       		.byte	0x1
 1361 0353 08       		.byte	0x8
 1362 0354 51       		.byte	0x51
 1363 0355 6C030000 		.4byte	0x36c
 1364 0359 12       		.uleb128 0x12
 1365 035a 78050000 		.4byte	.LASF53
 1366 035e 00       		.sleb128 0
 1367 035f 12       		.uleb128 0x12
 1368 0360 CD010000 		.4byte	.LASF54
 1369 0364 01       		.sleb128 1
 1370 0365 12       		.uleb128 0x12
 1371 0366 1A060000 		.4byte	.LASF55
 1372 036a 02       		.sleb128 2
 1373 036b 00       		.byte	0
 1374 036c 03       		.uleb128 0x3
 1375 036d 32040000 		.4byte	.LASF56
 1376 0371 08       		.byte	0x8
 1377 0372 55       		.byte	0x55
 1378 0373 51030000 		.4byte	0x351
 1379 0377 11       		.uleb128 0x11
 1380 0378 01       		.byte	0x1
 1381 0379 08       		.byte	0x8
 1382 037a 5A       		.byte	0x5a
 1383 037b 92030000 		.4byte	0x392
 1384 037f 12       		.uleb128 0x12
 1385 0380 4C050000 		.4byte	.LASF57
 1386 0384 00       		.sleb128 0
 1387 0385 12       		.uleb128 0x12
 1388 0386 23000000 		.4byte	.LASF58
 1389 038a 01       		.sleb128 1
 1390 038b 12       		.uleb128 0x12
 1391 038c A3030000 		.4byte	.LASF59
 1392 0390 02       		.sleb128 2
 1393 0391 00       		.byte	0
 1394 0392 03       		.uleb128 0x3
 1395 0393 74010000 		.4byte	.LASF60
 1396 0397 08       		.byte	0x8
 1397 0398 5E       		.byte	0x5e
 1398 0399 77030000 		.4byte	0x377
 1399 039d 0A       		.uleb128 0xa
 1400 039e 17000000 		.4byte	.LASF61
 1401 03a2 09       		.byte	0x9
 1402 03a3 FE01     		.2byte	0x1fe
 1403 03a5 C3000000 		.4byte	0xc3
 1404 03a9 0A       		.uleb128 0xa
 1405 03aa 91010000 		.4byte	.LASF62
 1406 03ae 09       		.byte	0x9
 1407 03af 0302     		.2byte	0x203
ARM GAS  /tmp/ccJfjU4P.s 			page 26


 1408 03b1 B5030000 		.4byte	0x3b5
 1409 03b5 13       		.uleb128 0x13
 1410 03b6 91010000 		.4byte	.LASF62
 1411 03ba 1C       		.byte	0x1c
 1412 03bb 09       		.byte	0x9
 1413 03bc 4B02     		.2byte	0x24b
 1414 03be 38040000 		.4byte	0x438
 1415 03c2 09       		.uleb128 0x9
 1416 03c3 41010000 		.4byte	.LASF63
 1417 03c7 09       		.byte	0x9
 1418 03c8 4F02     		.2byte	0x24f
 1419 03ca 46030000 		.4byte	0x346
 1420 03ce 00       		.byte	0
 1421 03cf 09       		.uleb128 0x9
 1422 03d0 47010000 		.4byte	.LASF64
 1423 03d4 09       		.byte	0x9
 1424 03d5 5302     		.2byte	0x253
 1425 03d7 6C030000 		.4byte	0x36c
 1426 03db 01       		.byte	0x1
 1427 03dc 09       		.uleb128 0x9
 1428 03dd 2A010000 		.4byte	.LASF65
 1429 03e1 09       		.byte	0x9
 1430 03e2 5702     		.2byte	0x257
 1431 03e4 92030000 		.4byte	0x392
 1432 03e8 02       		.byte	0x2
 1433 03e9 09       		.uleb128 0x9
 1434 03ea 45050000 		.4byte	.LASF66
 1435 03ee 09       		.byte	0x9
 1436 03ef 5B02     		.2byte	0x25b
 1437 03f1 2A050000 		.4byte	0x52a
 1438 03f5 04       		.byte	0x4
 1439 03f6 09       		.uleb128 0x9
 1440 03f7 DC010000 		.4byte	.LASF67
 1441 03fb 09       		.byte	0x9
 1442 03fc 6302     		.2byte	0x263
 1443 03fe 35050000 		.4byte	0x535
 1444 0402 08       		.byte	0x8
 1445 0403 09       		.uleb128 0x9
 1446 0404 CC050000 		.4byte	.LASF68
 1447 0408 09       		.byte	0x9
 1448 0409 6702     		.2byte	0x267
 1449 040b C3000000 		.4byte	0xc3
 1450 040f 0C       		.byte	0xc
 1451 0410 09       		.uleb128 0x9
 1452 0411 70000000 		.4byte	.LASF69
 1453 0415 09       		.byte	0x9
 1454 0416 6B02     		.2byte	0x26b
 1455 0418 20030000 		.4byte	0x320
 1456 041c 10       		.byte	0x10
 1457 041d 09       		.uleb128 0x9
 1458 041e 49040000 		.4byte	.LASF70
 1459 0422 09       		.byte	0x9
 1460 0423 6F02     		.2byte	0x26f
 1461 0425 20030000 		.4byte	0x320
 1462 0429 14       		.byte	0x14
 1463 042a 09       		.uleb128 0x9
 1464 042b 6A000000 		.4byte	.LASF71
ARM GAS  /tmp/ccJfjU4P.s 			page 27


 1465 042f 09       		.byte	0x9
 1466 0430 7302     		.2byte	0x273
 1467 0432 EE000000 		.4byte	0xee
 1468 0436 18       		.byte	0x18
 1469 0437 00       		.byte	0
 1470 0438 0A       		.uleb128 0xa
 1471 0439 1C010000 		.4byte	.LASF72
 1472 043d 09       		.byte	0x9
 1473 043e 0A02     		.2byte	0x20a
 1474 0440 44040000 		.4byte	0x444
 1475 0444 0D       		.uleb128 0xd
 1476 0445 04       		.byte	0x4
 1477 0446 4A040000 		.4byte	0x44a
 1478 044a 0E       		.uleb128 0xe
 1479 044b 55040000 		.4byte	0x455
 1480 044f 0F       		.uleb128 0xf
 1481 0450 55040000 		.4byte	0x455
 1482 0454 00       		.byte	0
 1483 0455 0D       		.uleb128 0xd
 1484 0456 04       		.byte	0x4
 1485 0457 A9030000 		.4byte	0x3a9
 1486 045b 0A       		.uleb128 0xa
 1487 045c 98000000 		.4byte	.LASF73
 1488 0460 09       		.byte	0x9
 1489 0461 1202     		.2byte	0x212
 1490 0463 67040000 		.4byte	0x467
 1491 0467 0D       		.uleb128 0xd
 1492 0468 04       		.byte	0x4
 1493 0469 6D040000 		.4byte	0x46d
 1494 046d 0E       		.uleb128 0xe
 1495 046e 7D040000 		.4byte	0x47d
 1496 0472 0F       		.uleb128 0xf
 1497 0473 55040000 		.4byte	0x455
 1498 0477 0F       		.uleb128 0xf
 1499 0478 AD000000 		.4byte	0xad
 1500 047c 00       		.byte	0
 1501 047d 0A       		.uleb128 0xa
 1502 047e 31020000 		.4byte	.LASF74
 1503 0482 09       		.byte	0x9
 1504 0483 1A02     		.2byte	0x21a
 1505 0485 89040000 		.4byte	0x489
 1506 0489 0D       		.uleb128 0xd
 1507 048a 04       		.byte	0x4
 1508 048b 8F040000 		.4byte	0x48f
 1509 048f 0E       		.uleb128 0xe
 1510 0490 9F040000 		.4byte	0x49f
 1511 0494 0F       		.uleb128 0xf
 1512 0495 55040000 		.4byte	0x455
 1513 0499 0F       		.uleb128 0xf
 1514 049a 9D030000 		.4byte	0x39d
 1515 049e 00       		.byte	0
 1516 049f 07       		.uleb128 0x7
 1517 04a0 20       		.byte	0x20
 1518 04a1 09       		.byte	0x9
 1519 04a2 2002     		.2byte	0x220
 1520 04a4 1E050000 		.4byte	0x51e
 1521 04a8 09       		.uleb128 0x9
ARM GAS  /tmp/ccJfjU4P.s 			page 28


 1522 04a9 64050000 		.4byte	.LASF75
 1523 04ad 09       		.byte	0x9
 1524 04ae 2402     		.2byte	0x224
 1525 04b0 38040000 		.4byte	0x438
 1526 04b4 00       		.byte	0
 1527 04b5 09       		.uleb128 0x9
 1528 04b6 A8040000 		.4byte	.LASF76
 1529 04ba 09       		.byte	0x9
 1530 04bb 2802     		.2byte	0x228
 1531 04bd 38040000 		.4byte	0x438
 1532 04c1 04       		.byte	0x4
 1533 04c2 09       		.uleb128 0x9
 1534 04c3 29040000 		.4byte	.LASF77
 1535 04c7 09       		.byte	0x9
 1536 04c8 2C02     		.2byte	0x22c
 1537 04ca 38040000 		.4byte	0x438
 1538 04ce 08       		.byte	0x8
 1539 04cf 09       		.uleb128 0x9
 1540 04d0 47000000 		.4byte	.LASF78
 1541 04d4 09       		.byte	0x9
 1542 04d5 3002     		.2byte	0x230
 1543 04d7 5B040000 		.4byte	0x45b
 1544 04db 0C       		.byte	0xc
 1545 04dc 09       		.uleb128 0x9
 1546 04dd 06040000 		.4byte	.LASF79
 1547 04e1 09       		.byte	0x9
 1548 04e2 3402     		.2byte	0x234
 1549 04e4 7D040000 		.4byte	0x47d
 1550 04e8 10       		.byte	0x10
 1551 04e9 09       		.uleb128 0x9
 1552 04ea D4050000 		.4byte	.LASF80
 1553 04ee 09       		.byte	0x9
 1554 04ef 3902     		.2byte	0x239
 1555 04f1 C3000000 		.4byte	0xc3
 1556 04f5 14       		.byte	0x14
 1557 04f6 08       		.uleb128 0x8
 1558 04f7 63723100 		.ascii	"cr1\000"
 1559 04fb 09       		.byte	0x9
 1560 04fc 3D02     		.2byte	0x23d
 1561 04fe AD000000 		.4byte	0xad
 1562 0502 18       		.byte	0x18
 1563 0503 08       		.uleb128 0x8
 1564 0504 63723200 		.ascii	"cr2\000"
 1565 0508 09       		.byte	0x9
 1566 0509 4102     		.2byte	0x241
 1567 050b AD000000 		.4byte	0xad
 1568 050f 1A       		.byte	0x1a
 1569 0510 08       		.uleb128 0x8
 1570 0511 63723300 		.ascii	"cr3\000"
 1571 0515 09       		.byte	0x9
 1572 0516 4502     		.2byte	0x245
 1573 0518 AD000000 		.4byte	0xad
 1574 051c 1C       		.byte	0x1c
 1575 051d 00       		.byte	0
 1576 051e 0A       		.uleb128 0xa
 1577 051f BC000000 		.4byte	.LASF81
 1578 0523 09       		.byte	0x9
ARM GAS  /tmp/ccJfjU4P.s 			page 29


 1579 0524 4602     		.2byte	0x246
 1580 0526 9F040000 		.4byte	0x49f
 1581 052a 0D       		.uleb128 0xd
 1582 052b 04       		.byte	0x4
 1583 052c 30050000 		.4byte	0x530
 1584 0530 10       		.uleb128 0x10
 1585 0531 1E050000 		.4byte	0x51e
 1586 0535 0D       		.uleb128 0xd
 1587 0536 04       		.byte	0x4
 1588 0537 97020000 		.4byte	0x297
 1589 053b 14       		.uleb128 0x14
 1590 053c 8D050000 		.4byte	.LASF84
 1591 0540 01       		.byte	0x1
 1592 0541 F2       		.byte	0xf2
 1593 0542 01       		.byte	0x1
 1594 0543 5E050000 		.4byte	0x55e
 1595 0547 15       		.uleb128 0x15
 1596 0548 D1020000 		.4byte	.LASF82
 1597 054c 01       		.byte	0x1
 1598 054d F2       		.byte	0xf2
 1599 054e 55040000 		.4byte	0x455
 1600 0552 15       		.uleb128 0x15
 1601 0553 C6050000 		.4byte	.LASF83
 1602 0557 01       		.byte	0x1
 1603 0558 F2       		.byte	0xf2
 1604 0559 C3000000 		.4byte	0xc3
 1605 055d 00       		.byte	0
 1606 055e 16       		.uleb128 0x16
 1607 055f BA020000 		.4byte	.LASF85
 1608 0563 01       		.byte	0x1
 1609 0564 3D01     		.2byte	0x13d
 1610 0566 01       		.byte	0x1
 1611 0567 99050000 		.4byte	0x599
 1612 056b 17       		.uleb128 0x17
 1613 056c D1020000 		.4byte	.LASF82
 1614 0570 01       		.byte	0x1
 1615 0571 3D01     		.2byte	0x13d
 1616 0573 55040000 		.4byte	0x455
 1617 0577 18       		.uleb128 0x18
 1618 0578 737200   		.ascii	"sr\000"
 1619 057b 01       		.byte	0x1
 1620 057c 3E01     		.2byte	0x13e
 1621 057e AD000000 		.4byte	0xad
 1622 0582 18       		.uleb128 0x18
 1623 0583 7500     		.ascii	"u\000"
 1624 0585 01       		.byte	0x1
 1625 0586 3F01     		.2byte	0x13f
 1626 0588 35050000 		.4byte	0x535
 1627 058c 18       		.uleb128 0x18
 1628 058d 63723100 		.ascii	"cr1\000"
 1629 0591 01       		.byte	0x1
 1630 0592 4001     		.2byte	0x140
 1631 0594 C3000000 		.4byte	0xc3
 1632 0598 00       		.byte	0
 1633 0599 19       		.uleb128 0x19
 1634 059a B1010000 		.4byte	.LASF86
 1635 059e 01       		.byte	0x1
ARM GAS  /tmp/ccJfjU4P.s 			page 30


 1636 059f A0       		.byte	0xa0
 1637 05a0 00000000 		.4byte	.LFB57
 1638 05a4 3A000000 		.4byte	.LFE57-.LFB57
 1639 05a8 01       		.uleb128 0x1
 1640 05a9 9C       		.byte	0x9c
 1641 05aa C9050000 		.4byte	0x5c9
 1642 05ae 1A       		.uleb128 0x1a
 1643 05af D1020000 		.4byte	.LASF82
 1644 05b3 01       		.byte	0x1
 1645 05b4 A0       		.byte	0xa0
 1646 05b5 55040000 		.4byte	0x455
 1647 05b9 01       		.uleb128 0x1
 1648 05ba 50       		.byte	0x50
 1649 05bb 1B       		.uleb128 0x1b
 1650 05bc 40050000 		.4byte	.LASF99
 1651 05c0 01       		.byte	0x1
 1652 05c1 A1       		.byte	0xa1
 1653 05c2 C3000000 		.4byte	0xc3
 1654 05c6 01       		.uleb128 0x1
 1655 05c7 51       		.byte	0x51
 1656 05c8 00       		.byte	0
 1657 05c9 19       		.uleb128 0x19
 1658 05ca 76000000 		.4byte	.LASF87
 1659 05ce 01       		.byte	0x1
 1660 05cf B5       		.byte	0xb5
 1661 05d0 00000000 		.4byte	.LFB58
 1662 05d4 46000000 		.4byte	.LFE58-.LFB58
 1663 05d8 01       		.uleb128 0x1
 1664 05d9 9C       		.byte	0x9c
 1665 05da EC050000 		.4byte	0x5ec
 1666 05de 1A       		.uleb128 0x1a
 1667 05df D1020000 		.4byte	.LASF82
 1668 05e3 01       		.byte	0x1
 1669 05e4 B5       		.byte	0xb5
 1670 05e5 55040000 		.4byte	0x455
 1671 05e9 01       		.uleb128 0x1
 1672 05ea 50       		.byte	0x50
 1673 05eb 00       		.byte	0
 1674 05ec 1C       		.uleb128 0x1c
 1675 05ed 0F040000 		.4byte	.LASF88
 1676 05f1 01       		.byte	0x1
 1677 05f2 1A01     		.2byte	0x11a
 1678 05f4 00000000 		.4byte	.LFB61
 1679 05f8 56000000 		.4byte	.LFE61-.LFB61
 1680 05fc 01       		.uleb128 0x1
 1681 05fd 9C       		.byte	0x9c
 1682 05fe 3C060000 		.4byte	0x63c
 1683 0602 1D       		.uleb128 0x1d
 1684 0603 D1020000 		.4byte	.LASF82
 1685 0607 01       		.byte	0x1
 1686 0608 1A01     		.2byte	0x11a
 1687 060a 55040000 		.4byte	0x455
 1688 060e 00000000 		.4byte	.LLST0
 1689 0612 1D       		.uleb128 0x1d
 1690 0613 C6050000 		.4byte	.LASF83
 1691 0617 01       		.byte	0x1
 1692 0618 1A01     		.2byte	0x11a
ARM GAS  /tmp/ccJfjU4P.s 			page 31


 1693 061a C3000000 		.4byte	0xc3
 1694 061e 34000000 		.4byte	.LLST1
 1695 0622 1E       		.uleb128 0x1e
 1696 0623 42000000 		.4byte	.LVL5
 1697 0627 32060000 		.4byte	0x632
 1698 062b 1F       		.uleb128 0x1f
 1699 062c 01       		.uleb128 0x1
 1700 062d 50       		.byte	0x50
 1701 062e 02       		.uleb128 0x2
 1702 062f 74       		.byte	0x74
 1703 0630 00       		.sleb128 0
 1704 0631 00       		.byte	0
 1705 0632 20       		.uleb128 0x20
 1706 0633 54000000 		.4byte	.LVL8
 1707 0637 FA0B0000 		.4byte	0xbfa
 1708 063b 00       		.byte	0
 1709 063c 21       		.uleb128 0x21
 1710 063d 3B050000 		.4byte	0x53b
 1711 0641 00000000 		.4byte	.LFB60
 1712 0645 60000000 		.4byte	.LFE60-.LFB60
 1713 0649 01       		.uleb128 0x1
 1714 064a 9C       		.byte	0x9c
 1715 064b B8060000 		.4byte	0x6b8
 1716 064f 22       		.uleb128 0x22
 1717 0650 47050000 		.4byte	0x547
 1718 0654 6E000000 		.4byte	.LLST2
 1719 0658 22       		.uleb128 0x22
 1720 0659 52050000 		.4byte	0x552
 1721 065d BB000000 		.4byte	.LLST3
 1722 0661 23       		.uleb128 0x23
 1723 0662 00000000 		.4byte	.Ldebug_ranges0+0
 1724 0666 9E060000 		.4byte	0x69e
 1725 066a 22       		.uleb128 0x22
 1726 066b 52050000 		.4byte	0x552
 1727 066f F5000000 		.4byte	.LLST4
 1728 0673 22       		.uleb128 0x22
 1729 0674 47050000 		.4byte	0x547
 1730 0678 19010000 		.4byte	.LLST5
 1731 067c 1E       		.uleb128 0x1e
 1732 067d 44000000 		.4byte	.LVL13
 1733 0681 8C060000 		.4byte	0x68c
 1734 0685 1F       		.uleb128 0x1f
 1735 0686 01       		.uleb128 0x1
 1736 0687 50       		.byte	0x50
 1737 0688 02       		.uleb128 0x2
 1738 0689 74       		.byte	0x74
 1739 068a 00       		.sleb128 0
 1740 068b 00       		.byte	0
 1741 068c 24       		.uleb128 0x24
 1742 068d 60000000 		.4byte	.LVL19
 1743 0691 99050000 		.4byte	0x599
 1744 0695 1F       		.uleb128 0x1f
 1745 0696 01       		.uleb128 0x1
 1746 0697 50       		.byte	0x50
 1747 0698 03       		.uleb128 0x3
 1748 0699 F3       		.byte	0xf3
 1749 069a 01       		.uleb128 0x1
ARM GAS  /tmp/ccJfjU4P.s 			page 32


 1750 069b 50       		.byte	0x50
 1751 069c 00       		.byte	0
 1752 069d 00       		.byte	0
 1753 069e 1E       		.uleb128 0x1e
 1754 069f 1A000000 		.4byte	.LVL11
 1755 06a3 AE060000 		.4byte	0x6ae
 1756 06a7 1F       		.uleb128 0x1f
 1757 06a8 01       		.uleb128 0x1
 1758 06a9 50       		.byte	0x50
 1759 06aa 02       		.uleb128 0x2
 1760 06ab 74       		.byte	0x74
 1761 06ac 00       		.sleb128 0
 1762 06ad 00       		.byte	0
 1763 06ae 20       		.uleb128 0x20
 1764 06af 50000000 		.4byte	.LVL16
 1765 06b3 FA0B0000 		.4byte	0xbfa
 1766 06b7 00       		.byte	0
 1767 06b8 25       		.uleb128 0x25
 1768 06b9 92030000 		.4byte	.LASF111
 1769 06bd 01       		.byte	0x1
 1770 06be 8B       		.byte	0x8b
 1771 06bf 9D030000 		.4byte	0x39d
 1772 06c3 01       		.byte	0x1
 1773 06c4 DE060000 		.4byte	0x6de
 1774 06c8 26       		.uleb128 0x26
 1775 06c9 737200   		.ascii	"sr\000"
 1776 06cc 01       		.byte	0x1
 1777 06cd 8B       		.byte	0x8b
 1778 06ce AD000000 		.4byte	0xad
 1779 06d2 27       		.uleb128 0x27
 1780 06d3 73747300 		.ascii	"sts\000"
 1781 06d7 01       		.byte	0x1
 1782 06d8 8C       		.byte	0x8c
 1783 06d9 9D030000 		.4byte	0x39d
 1784 06dd 00       		.byte	0
 1785 06de 28       		.uleb128 0x28
 1786 06df AC020000 		.4byte	.LASF89
 1787 06e3 01       		.byte	0x1
 1788 06e4 7701     		.2byte	0x177
 1789 06e6 00000000 		.4byte	.LFB63
 1790 06ea 88000000 		.4byte	.LFE63-.LFB63
 1791 06ee 01       		.uleb128 0x1
 1792 06ef 9C       		.byte	0x9c
 1793 06f0 2B090000 		.4byte	0x92b
 1794 06f4 29       		.uleb128 0x29
 1795 06f5 5E050000 		.4byte	0x55e
 1796 06f9 02000000 		.4byte	.LBB14
 1797 06fd 7E000000 		.4byte	.LBE14-.LBB14
 1798 0701 01       		.byte	0x1
 1799 0702 7B01     		.2byte	0x17b
 1800 0704 21090000 		.4byte	0x921
 1801 0708 2A       		.uleb128 0x2a
 1802 0709 6B050000 		.4byte	0x56b
 1803 070d 06       		.uleb128 0x6
 1804 070e 03       		.byte	0x3
 1805 070f 00000000 		.4byte	UARTD2
 1806 0713 9F       		.byte	0x9f
ARM GAS  /tmp/ccJfjU4P.s 			page 33


 1807 0714 2B       		.uleb128 0x2b
 1808 0715 02000000 		.4byte	.LBB15
 1809 0719 7E000000 		.4byte	.LBE15-.LBB15
 1810 071d 2C       		.uleb128 0x2c
 1811 071e 77050000 		.4byte	0x577
 1812 0722 50010000 		.4byte	.LLST6
 1813 0726 2C       		.uleb128 0x2c
 1814 0727 82050000 		.4byte	0x582
 1815 072b 63010000 		.4byte	.LLST7
 1816 072f 2C       		.uleb128 0x2c
 1817 0730 8C050000 		.4byte	0x58c
 1818 0734 76010000 		.4byte	.LLST8
 1819 0738 2D       		.uleb128 0x2d
 1820 0739 B8060000 		.4byte	0x6b8
 1821 073d 2A000000 		.4byte	.LBB16
 1822 0741 20000000 		.4byte	.Ldebug_ranges0+0x20
 1823 0745 01       		.byte	0x1
 1824 0746 4901     		.2byte	0x149
 1825 0748 65070000 		.4byte	0x765
 1826 074c 22       		.uleb128 0x22
 1827 074d C8060000 		.4byte	0x6c8
 1828 0751 8F010000 		.4byte	.LLST9
 1829 0755 2E       		.uleb128 0x2e
 1830 0756 20000000 		.4byte	.Ldebug_ranges0+0x20
 1831 075a 2C       		.uleb128 0x2c
 1832 075b D2060000 		.4byte	0x6d2
 1833 075f A2010000 		.4byte	.LLST10
 1834 0763 00       		.byte	0
 1835 0764 00       		.byte	0
 1836 0765 1E       		.uleb128 0x1e
 1837 0766 5E000000 		.4byte	.LVL30
 1838 076a 10090000 		.4byte	0x910
 1839 076e 1F       		.uleb128 0x1f
 1840 076f 01       		.uleb128 0x1
 1841 0770 51       		.byte	0x51
 1842 0771 9603     		.uleb128 0x196
 1843 0773 40       		.byte	0x40
 1844 0774 30       		.byte	0x30
 1845 0775 76       		.byte	0x76
 1846 0776 00       		.sleb128 0
 1847 0777 33       		.byte	0x33
 1848 0778 25       		.byte	0x25
 1849 0779 30       		.byte	0x30
 1850 077a 2E       		.byte	0x2e
 1851 077b 28       		.byte	0x28
 1852 077c 0100     		.2byte	0x1
 1853 077e 16       		.byte	0x16
 1854 077f 13       		.byte	0x13
 1855 0780 34       		.byte	0x34
 1856 0781 21       		.byte	0x21
 1857 0782 40       		.byte	0x40
 1858 0783 30       		.byte	0x30
 1859 0784 76       		.byte	0x76
 1860 0785 00       		.sleb128 0
 1861 0786 33       		.byte	0x33
 1862 0787 25       		.byte	0x25
 1863 0788 30       		.byte	0x30
ARM GAS  /tmp/ccJfjU4P.s 			page 34


 1864 0789 2E       		.byte	0x2e
 1865 078a 28       		.byte	0x28
 1866 078b 0100     		.2byte	0x1
 1867 078d 16       		.byte	0x16
 1868 078e 13       		.byte	0x13
 1869 078f 76       		.byte	0x76
 1870 0790 00       		.sleb128 0
 1871 0791 4F       		.byte	0x4f
 1872 0792 24       		.byte	0x24
 1873 0793 30       		.byte	0x30
 1874 0794 2D       		.byte	0x2d
 1875 0795 28       		.byte	0x28
 1876 0796 0100     		.2byte	0x1
 1877 0798 16       		.byte	0x16
 1878 0799 13       		.byte	0x13
 1879 079a 38       		.byte	0x38
 1880 079b 21       		.byte	0x21
 1881 079c 40       		.byte	0x40
 1882 079d 30       		.byte	0x30
 1883 079e 76       		.byte	0x76
 1884 079f 00       		.sleb128 0
 1885 07a0 33       		.byte	0x33
 1886 07a1 25       		.byte	0x25
 1887 07a2 30       		.byte	0x30
 1888 07a3 2E       		.byte	0x2e
 1889 07a4 28       		.byte	0x28
 1890 07a5 0100     		.2byte	0x1
 1891 07a7 16       		.byte	0x16
 1892 07a8 13       		.byte	0x13
 1893 07a9 34       		.byte	0x34
 1894 07aa 21       		.byte	0x21
 1895 07ab 40       		.byte	0x40
 1896 07ac 30       		.byte	0x30
 1897 07ad 76       		.byte	0x76
 1898 07ae 00       		.sleb128 0
 1899 07af 33       		.byte	0x33
 1900 07b0 25       		.byte	0x25
 1901 07b1 30       		.byte	0x30
 1902 07b2 2E       		.byte	0x2e
 1903 07b3 28       		.byte	0x28
 1904 07b4 0100     		.2byte	0x1
 1905 07b6 16       		.byte	0x16
 1906 07b7 13       		.byte	0x13
 1907 07b8 76       		.byte	0x76
 1908 07b9 00       		.sleb128 0
 1909 07ba 4F       		.byte	0x4f
 1910 07bb 24       		.byte	0x24
 1911 07bc 30       		.byte	0x30
 1912 07bd 2D       		.byte	0x2d
 1913 07be 28       		.byte	0x28
 1914 07bf 0100     		.2byte	0x1
 1915 07c1 16       		.byte	0x16
 1916 07c2 13       		.byte	0x13
 1917 07c3 76       		.byte	0x76
 1918 07c4 00       		.sleb128 0
 1919 07c5 4E       		.byte	0x4e
 1920 07c6 24       		.byte	0x24
ARM GAS  /tmp/ccJfjU4P.s 			page 35


 1921 07c7 30       		.byte	0x30
 1922 07c8 2D       		.byte	0x2d
 1923 07c9 28       		.byte	0x28
 1924 07ca 0100     		.2byte	0x1
 1925 07cc 16       		.byte	0x16
 1926 07cd 13       		.byte	0x13
 1927 07ce 08       		.byte	0x8
 1928 07cf 20       		.byte	0x20
 1929 07d0 21       		.byte	0x21
 1930 07d1 40       		.byte	0x40
 1931 07d2 30       		.byte	0x30
 1932 07d3 76       		.byte	0x76
 1933 07d4 00       		.sleb128 0
 1934 07d5 33       		.byte	0x33
 1935 07d6 25       		.byte	0x25
 1936 07d7 30       		.byte	0x30
 1937 07d8 2E       		.byte	0x2e
 1938 07d9 28       		.byte	0x28
 1939 07da 0100     		.2byte	0x1
 1940 07dc 16       		.byte	0x16
 1941 07dd 13       		.byte	0x13
 1942 07de 34       		.byte	0x34
 1943 07df 21       		.byte	0x21
 1944 07e0 40       		.byte	0x40
 1945 07e1 30       		.byte	0x30
 1946 07e2 76       		.byte	0x76
 1947 07e3 00       		.sleb128 0
 1948 07e4 33       		.byte	0x33
 1949 07e5 25       		.byte	0x25
 1950 07e6 30       		.byte	0x30
 1951 07e7 2E       		.byte	0x2e
 1952 07e8 28       		.byte	0x28
 1953 07e9 0100     		.2byte	0x1
 1954 07eb 16       		.byte	0x16
 1955 07ec 13       		.byte	0x13
 1956 07ed 76       		.byte	0x76
 1957 07ee 00       		.sleb128 0
 1958 07ef 4F       		.byte	0x4f
 1959 07f0 24       		.byte	0x24
 1960 07f1 30       		.byte	0x30
 1961 07f2 2D       		.byte	0x2d
 1962 07f3 28       		.byte	0x28
 1963 07f4 0100     		.2byte	0x1
 1964 07f6 16       		.byte	0x16
 1965 07f7 13       		.byte	0x13
 1966 07f8 38       		.byte	0x38
 1967 07f9 21       		.byte	0x21
 1968 07fa 40       		.byte	0x40
 1969 07fb 30       		.byte	0x30
 1970 07fc 76       		.byte	0x76
 1971 07fd 00       		.sleb128 0
 1972 07fe 33       		.byte	0x33
 1973 07ff 25       		.byte	0x25
 1974 0800 30       		.byte	0x30
 1975 0801 2E       		.byte	0x2e
 1976 0802 28       		.byte	0x28
 1977 0803 0100     		.2byte	0x1
ARM GAS  /tmp/ccJfjU4P.s 			page 36


 1978 0805 16       		.byte	0x16
 1979 0806 13       		.byte	0x13
 1980 0807 34       		.byte	0x34
 1981 0808 21       		.byte	0x21
 1982 0809 40       		.byte	0x40
 1983 080a 30       		.byte	0x30
 1984 080b 76       		.byte	0x76
 1985 080c 00       		.sleb128 0
 1986 080d 33       		.byte	0x33
 1987 080e 25       		.byte	0x25
 1988 080f 30       		.byte	0x30
 1989 0810 2E       		.byte	0x2e
 1990 0811 28       		.byte	0x28
 1991 0812 0100     		.2byte	0x1
 1992 0814 16       		.byte	0x16
 1993 0815 13       		.byte	0x13
 1994 0816 76       		.byte	0x76
 1995 0817 00       		.sleb128 0
 1996 0818 4F       		.byte	0x4f
 1997 0819 24       		.byte	0x24
 1998 081a 30       		.byte	0x30
 1999 081b 2D       		.byte	0x2d
 2000 081c 28       		.byte	0x28
 2001 081d 0100     		.2byte	0x1
 2002 081f 16       		.byte	0x16
 2003 0820 13       		.byte	0x13
 2004 0821 76       		.byte	0x76
 2005 0822 00       		.sleb128 0
 2006 0823 4E       		.byte	0x4e
 2007 0824 24       		.byte	0x24
 2008 0825 30       		.byte	0x30
 2009 0826 2D       		.byte	0x2d
 2010 0827 28       		.byte	0x28
 2011 0828 0100     		.2byte	0x1
 2012 082a 16       		.byte	0x16
 2013 082b 13       		.byte	0x13
 2014 082c 76       		.byte	0x76
 2015 082d 00       		.sleb128 0
 2016 082e 4D       		.byte	0x4d
 2017 082f 24       		.byte	0x24
 2018 0830 30       		.byte	0x30
 2019 0831 2D       		.byte	0x2d
 2020 0832 28       		.byte	0x28
 2021 0833 0100     		.2byte	0x1
 2022 0835 16       		.byte	0x16
 2023 0836 13       		.byte	0x13
 2024 0837 08       		.byte	0x8
 2025 0838 40       		.byte	0x40
 2026 0839 21       		.byte	0x21
 2027 083a 40       		.byte	0x40
 2028 083b 30       		.byte	0x30
 2029 083c 76       		.byte	0x76
 2030 083d 00       		.sleb128 0
 2031 083e 33       		.byte	0x33
 2032 083f 25       		.byte	0x25
 2033 0840 30       		.byte	0x30
 2034 0841 2E       		.byte	0x2e
ARM GAS  /tmp/ccJfjU4P.s 			page 37


 2035 0842 28       		.byte	0x28
 2036 0843 0100     		.2byte	0x1
 2037 0845 16       		.byte	0x16
 2038 0846 13       		.byte	0x13
 2039 0847 34       		.byte	0x34
 2040 0848 21       		.byte	0x21
 2041 0849 40       		.byte	0x40
 2042 084a 30       		.byte	0x30
 2043 084b 76       		.byte	0x76
 2044 084c 00       		.sleb128 0
 2045 084d 33       		.byte	0x33
 2046 084e 25       		.byte	0x25
 2047 084f 30       		.byte	0x30
 2048 0850 2E       		.byte	0x2e
 2049 0851 28       		.byte	0x28
 2050 0852 0100     		.2byte	0x1
 2051 0854 16       		.byte	0x16
 2052 0855 13       		.byte	0x13
 2053 0856 76       		.byte	0x76
 2054 0857 00       		.sleb128 0
 2055 0858 4F       		.byte	0x4f
 2056 0859 24       		.byte	0x24
 2057 085a 30       		.byte	0x30
 2058 085b 2D       		.byte	0x2d
 2059 085c 28       		.byte	0x28
 2060 085d 0100     		.2byte	0x1
 2061 085f 16       		.byte	0x16
 2062 0860 13       		.byte	0x13
 2063 0861 38       		.byte	0x38
 2064 0862 21       		.byte	0x21
 2065 0863 40       		.byte	0x40
 2066 0864 30       		.byte	0x30
 2067 0865 76       		.byte	0x76
 2068 0866 00       		.sleb128 0
 2069 0867 33       		.byte	0x33
 2070 0868 25       		.byte	0x25
 2071 0869 30       		.byte	0x30
 2072 086a 2E       		.byte	0x2e
 2073 086b 28       		.byte	0x28
 2074 086c 0100     		.2byte	0x1
 2075 086e 16       		.byte	0x16
 2076 086f 13       		.byte	0x13
 2077 0870 34       		.byte	0x34
 2078 0871 21       		.byte	0x21
 2079 0872 40       		.byte	0x40
 2080 0873 30       		.byte	0x30
 2081 0874 76       		.byte	0x76
 2082 0875 00       		.sleb128 0
 2083 0876 33       		.byte	0x33
 2084 0877 25       		.byte	0x25
 2085 0878 30       		.byte	0x30
 2086 0879 2E       		.byte	0x2e
 2087 087a 28       		.byte	0x28
 2088 087b 0100     		.2byte	0x1
 2089 087d 16       		.byte	0x16
 2090 087e 13       		.byte	0x13
 2091 087f 76       		.byte	0x76
ARM GAS  /tmp/ccJfjU4P.s 			page 38


 2092 0880 00       		.sleb128 0
 2093 0881 4F       		.byte	0x4f
 2094 0882 24       		.byte	0x24
 2095 0883 30       		.byte	0x30
 2096 0884 2D       		.byte	0x2d
 2097 0885 28       		.byte	0x28
 2098 0886 0100     		.2byte	0x1
 2099 0888 16       		.byte	0x16
 2100 0889 13       		.byte	0x13
 2101 088a 76       		.byte	0x76
 2102 088b 00       		.sleb128 0
 2103 088c 4E       		.byte	0x4e
 2104 088d 24       		.byte	0x24
 2105 088e 30       		.byte	0x30
 2106 088f 2D       		.byte	0x2d
 2107 0890 28       		.byte	0x28
 2108 0891 0100     		.2byte	0x1
 2109 0893 16       		.byte	0x16
 2110 0894 13       		.byte	0x13
 2111 0895 08       		.byte	0x8
 2112 0896 20       		.byte	0x20
 2113 0897 21       		.byte	0x21
 2114 0898 40       		.byte	0x40
 2115 0899 30       		.byte	0x30
 2116 089a 76       		.byte	0x76
 2117 089b 00       		.sleb128 0
 2118 089c 33       		.byte	0x33
 2119 089d 25       		.byte	0x25
 2120 089e 30       		.byte	0x30
 2121 089f 2E       		.byte	0x2e
 2122 08a0 28       		.byte	0x28
 2123 08a1 0100     		.2byte	0x1
 2124 08a3 16       		.byte	0x16
 2125 08a4 13       		.byte	0x13
 2126 08a5 34       		.byte	0x34
 2127 08a6 21       		.byte	0x21
 2128 08a7 40       		.byte	0x40
 2129 08a8 30       		.byte	0x30
 2130 08a9 76       		.byte	0x76
 2131 08aa 00       		.sleb128 0
 2132 08ab 33       		.byte	0x33
 2133 08ac 25       		.byte	0x25
 2134 08ad 30       		.byte	0x30
 2135 08ae 2E       		.byte	0x2e
 2136 08af 28       		.byte	0x28
 2137 08b0 0100     		.2byte	0x1
 2138 08b2 16       		.byte	0x16
 2139 08b3 13       		.byte	0x13
 2140 08b4 76       		.byte	0x76
 2141 08b5 00       		.sleb128 0
 2142 08b6 4F       		.byte	0x4f
 2143 08b7 24       		.byte	0x24
 2144 08b8 30       		.byte	0x30
 2145 08b9 2D       		.byte	0x2d
 2146 08ba 28       		.byte	0x28
 2147 08bb 0100     		.2byte	0x1
 2148 08bd 16       		.byte	0x16
ARM GAS  /tmp/ccJfjU4P.s 			page 39


 2149 08be 13       		.byte	0x13
 2150 08bf 38       		.byte	0x38
 2151 08c0 21       		.byte	0x21
 2152 08c1 40       		.byte	0x40
 2153 08c2 30       		.byte	0x30
 2154 08c3 76       		.byte	0x76
 2155 08c4 00       		.sleb128 0
 2156 08c5 33       		.byte	0x33
 2157 08c6 25       		.byte	0x25
 2158 08c7 30       		.byte	0x30
 2159 08c8 2E       		.byte	0x2e
 2160 08c9 28       		.byte	0x28
 2161 08ca 0100     		.2byte	0x1
 2162 08cc 16       		.byte	0x16
 2163 08cd 13       		.byte	0x13
 2164 08ce 34       		.byte	0x34
 2165 08cf 21       		.byte	0x21
 2166 08d0 40       		.byte	0x40
 2167 08d1 30       		.byte	0x30
 2168 08d2 76       		.byte	0x76
 2169 08d3 00       		.sleb128 0
 2170 08d4 33       		.byte	0x33
 2171 08d5 25       		.byte	0x25
 2172 08d6 30       		.byte	0x30
 2173 08d7 2E       		.byte	0x2e
 2174 08d8 28       		.byte	0x28
 2175 08d9 0100     		.2byte	0x1
 2176 08db 16       		.byte	0x16
 2177 08dc 13       		.byte	0x13
 2178 08dd 76       		.byte	0x76
 2179 08de 00       		.sleb128 0
 2180 08df 4F       		.byte	0x4f
 2181 08e0 24       		.byte	0x24
 2182 08e1 30       		.byte	0x30
 2183 08e2 2D       		.byte	0x2d
 2184 08e3 28       		.byte	0x28
 2185 08e4 0100     		.2byte	0x1
 2186 08e6 16       		.byte	0x16
 2187 08e7 13       		.byte	0x13
 2188 08e8 76       		.byte	0x76
 2189 08e9 00       		.sleb128 0
 2190 08ea 4E       		.byte	0x4e
 2191 08eb 24       		.byte	0x24
 2192 08ec 30       		.byte	0x30
 2193 08ed 2D       		.byte	0x2d
 2194 08ee 28       		.byte	0x28
 2195 08ef 0100     		.2byte	0x1
 2196 08f1 16       		.byte	0x16
 2197 08f2 13       		.byte	0x13
 2198 08f3 76       		.byte	0x76
 2199 08f4 00       		.sleb128 0
 2200 08f5 4D       		.byte	0x4d
 2201 08f6 24       		.byte	0x24
 2202 08f7 30       		.byte	0x30
 2203 08f8 2D       		.byte	0x2d
 2204 08f9 28       		.byte	0x28
 2205 08fa 0100     		.2byte	0x1
ARM GAS  /tmp/ccJfjU4P.s 			page 40


 2206 08fc 16       		.byte	0x16
 2207 08fd 13       		.byte	0x13
 2208 08fe 76       		.byte	0x76
 2209 08ff 00       		.sleb128 0
 2210 0900 47       		.byte	0x47
 2211 0901 24       		.byte	0x24
 2212 0902 30       		.byte	0x30
 2213 0903 2D       		.byte	0x2d
 2214 0904 28       		.byte	0x28
 2215 0905 0100     		.2byte	0x1
 2216 0907 16       		.byte	0x16
 2217 0908 13       		.byte	0x13
 2218 0909 1F       		.uleb128 0x1f
 2219 090a 01       		.uleb128 0x1
 2220 090b 50       		.byte	0x50
 2221 090c 02       		.uleb128 0x2
 2222 090d 75       		.byte	0x75
 2223 090e 00       		.sleb128 0
 2224 090f 00       		.byte	0
 2225 0910 2F       		.uleb128 0x2f
 2226 0911 80000000 		.4byte	.LVL31
 2227 0915 1F       		.uleb128 0x1f
 2228 0916 01       		.uleb128 0x1
 2229 0917 50       		.byte	0x50
 2230 0918 05       		.uleb128 0x5
 2231 0919 03       		.byte	0x3
 2232 091a 00000000 		.4byte	.LANCHOR0
 2233 091e 00       		.byte	0
 2234 091f 00       		.byte	0
 2235 0920 00       		.byte	0
 2236 0921 30       		.uleb128 0x30
 2237 0922 88000000 		.4byte	.LVL33
 2238 0926 020C0000 		.4byte	0xc02
 2239 092a 00       		.byte	0
 2240 092b 28       		.uleb128 0x28
 2241 092c 32000000 		.4byte	.LASF90
 2242 0930 01       		.byte	0x1
 2243 0931 D601     		.2byte	0x1d6
 2244 0933 00000000 		.4byte	.LFB64
 2245 0937 30000000 		.4byte	.LFE64-.LFB64
 2246 093b 01       		.uleb128 0x1
 2247 093c 9C       		.byte	0x9c
 2248 093d 52090000 		.4byte	0x952
 2249 0941 31       		.uleb128 0x31
 2250 0942 10000000 		.4byte	.LVL34
 2251 0946 0A0C0000 		.4byte	0xc0a
 2252 094a 1F       		.uleb128 0x1f
 2253 094b 01       		.uleb128 0x1
 2254 094c 50       		.byte	0x50
 2255 094d 02       		.uleb128 0x2
 2256 094e 74       		.byte	0x74
 2257 094f 00       		.sleb128 0
 2258 0950 00       		.byte	0
 2259 0951 00       		.byte	0
 2260 0952 14       		.uleb128 0x14
 2261 0953 BA050000 		.4byte	.LASF91
 2262 0957 01       		.byte	0x1
ARM GAS  /tmp/ccJfjU4P.s 			page 41


 2263 0958 C7       		.byte	0xc7
 2264 0959 01       		.byte	0x1
 2265 095a 7E090000 		.4byte	0x97e
 2266 095e 15       		.uleb128 0x15
 2267 095f D1020000 		.4byte	.LASF82
 2268 0963 01       		.byte	0x1
 2269 0964 C7       		.byte	0xc7
 2270 0965 55040000 		.4byte	0x455
 2271 0969 27       		.uleb128 0x27
 2272 096a 63723100 		.ascii	"cr1\000"
 2273 096e 01       		.byte	0x1
 2274 096f C8       		.byte	0xc8
 2275 0970 AD000000 		.4byte	0xad
 2276 0974 27       		.uleb128 0x27
 2277 0975 7500     		.ascii	"u\000"
 2278 0977 01       		.byte	0x1
 2279 0978 C9       		.byte	0xc9
 2280 0979 35050000 		.4byte	0x535
 2281 097d 00       		.byte	0
 2282 097e 28       		.uleb128 0x28
 2283 097f 82010000 		.4byte	.LASF92
 2284 0983 01       		.byte	0x1
 2285 0984 0F02     		.2byte	0x20f
 2286 0986 00000000 		.4byte	.LFB65
 2287 098a FA000000 		.4byte	.LFE65-.LFB65
 2288 098e 01       		.uleb128 0x1
 2289 098f 9C       		.byte	0x9c
 2290 0990 6E0A0000 		.4byte	0xa6e
 2291 0994 1D       		.uleb128 0x1d
 2292 0995 D1020000 		.4byte	.LASF82
 2293 0999 01       		.byte	0x1
 2294 099a 0F02     		.2byte	0x20f
 2295 099c 55040000 		.4byte	0x455
 2296 09a0 62030000 		.4byte	.LLST11
 2297 09a4 2D       		.uleb128 0x2d
 2298 09a5 52090000 		.4byte	0x952
 2299 09a9 10000000 		.4byte	.LBB23
 2300 09ad 38000000 		.4byte	.Ldebug_ranges0+0x38
 2301 09b1 01       		.byte	0x1
 2302 09b2 AB02     		.2byte	0x2ab
 2303 09b4 FF090000 		.4byte	0x9ff
 2304 09b8 22       		.uleb128 0x22
 2305 09b9 5E090000 		.4byte	0x95e
 2306 09bd C5030000 		.4byte	.LLST12
 2307 09c1 2E       		.uleb128 0x2e
 2308 09c2 38000000 		.4byte	.Ldebug_ranges0+0x38
 2309 09c6 2C       		.uleb128 0x2c
 2310 09c7 69090000 		.4byte	0x969
 2311 09cb F1030000 		.4byte	.LLST13
 2312 09cf 2C       		.uleb128 0x2c
 2313 09d0 74090000 		.4byte	0x974
 2314 09d4 07040000 		.4byte	.LLST14
 2315 09d8 32       		.uleb128 0x32
 2316 09d9 18000000 		.4byte	.LVL39
 2317 09dd C9050000 		.4byte	0x5c9
 2318 09e1 EC090000 		.4byte	0x9ec
 2319 09e5 1F       		.uleb128 0x1f
ARM GAS  /tmp/ccJfjU4P.s 			page 42


 2320 09e6 01       		.uleb128 0x1
 2321 09e7 50       		.byte	0x50
 2322 09e8 02       		.uleb128 0x2
 2323 09e9 74       		.byte	0x74
 2324 09ea 00       		.sleb128 0
 2325 09eb 00       		.byte	0
 2326 09ec 24       		.uleb128 0x24
 2327 09ed 80000000 		.4byte	.LVL42
 2328 09f1 99050000 		.4byte	0x599
 2329 09f5 1F       		.uleb128 0x1f
 2330 09f6 01       		.uleb128 0x1
 2331 09f7 50       		.byte	0x50
 2332 09f8 03       		.uleb128 0x3
 2333 09f9 F3       		.byte	0xf3
 2334 09fa 01       		.uleb128 0x1
 2335 09fb 50       		.byte	0x50
 2336 09fc 00       		.byte	0
 2337 09fd 00       		.byte	0
 2338 09fe 00       		.byte	0
 2339 09ff 2B       		.uleb128 0x2b
 2340 0a00 BC000000 		.4byte	.LBB27
 2341 0a04 3E000000 		.4byte	.LBE27-.LBB27
 2342 0a08 18       		.uleb128 0x18
 2343 0a09 6200     		.ascii	"b\000"
 2344 0a0b 01       		.byte	0x1
 2345 0a0c 2902     		.2byte	0x229
 2346 0a0e CE000000 		.4byte	0xce
 2347 0a12 32       		.uleb128 0x32
 2348 0a13 CE000000 		.4byte	.LVL46
 2349 0a17 1B0C0000 		.4byte	0xc1b
 2350 0a1b 340A0000 		.4byte	0xa34
 2351 0a1f 1F       		.uleb128 0x1f
 2352 0a20 01       		.uleb128 0x1
 2353 0a21 53       		.byte	0x53
 2354 0a22 02       		.uleb128 0x2
 2355 0a23 74       		.byte	0x74
 2356 0a24 00       		.sleb128 0
 2357 0a25 1F       		.uleb128 0x1f
 2358 0a26 01       		.uleb128 0x1
 2359 0a27 52       		.byte	0x52
 2360 0a28 05       		.uleb128 0x5
 2361 0a29 03       		.byte	0x3
 2362 0a2a 00000000 		.4byte	uart_lld_serve_rx_end_irq
 2363 0a2e 1F       		.uleb128 0x1f
 2364 0a2f 01       		.uleb128 0x1
 2365 0a30 51       		.byte	0x51
 2366 0a31 01       		.uleb128 0x1
 2367 0a32 3C       		.byte	0x3c
 2368 0a33 00       		.byte	0
 2369 0a34 32       		.uleb128 0x32
 2370 0a35 E0000000 		.4byte	.LVL47
 2371 0a39 1B0C0000 		.4byte	0xc1b
 2372 0a3d 560A0000 		.4byte	0xa56
 2373 0a41 1F       		.uleb128 0x1f
 2374 0a42 01       		.uleb128 0x1
 2375 0a43 53       		.byte	0x53
 2376 0a44 02       		.uleb128 0x2
ARM GAS  /tmp/ccJfjU4P.s 			page 43


 2377 0a45 74       		.byte	0x74
 2378 0a46 00       		.sleb128 0
 2379 0a47 1F       		.uleb128 0x1f
 2380 0a48 01       		.uleb128 0x1
 2381 0a49 52       		.byte	0x52
 2382 0a4a 05       		.uleb128 0x5
 2383 0a4b 03       		.byte	0x3
 2384 0a4c 00000000 		.4byte	uart_lld_serve_tx_end_irq
 2385 0a50 1F       		.uleb128 0x1f
 2386 0a51 01       		.uleb128 0x1
 2387 0a52 51       		.byte	0x51
 2388 0a53 01       		.uleb128 0x1
 2389 0a54 3C       		.byte	0x3c
 2390 0a55 00       		.byte	0
 2391 0a56 31       		.uleb128 0x31
 2392 0a57 F8000000 		.4byte	.LVL48
 2393 0a5b 400C0000 		.4byte	0xc40
 2394 0a5f 1F       		.uleb128 0x1f
 2395 0a60 01       		.uleb128 0x1
 2396 0a61 51       		.byte	0x51
 2397 0a62 02       		.uleb128 0x2
 2398 0a63 08       		.byte	0x8
 2399 0a64 C0       		.byte	0xc0
 2400 0a65 1F       		.uleb128 0x1f
 2401 0a66 01       		.uleb128 0x1
 2402 0a67 50       		.byte	0x50
 2403 0a68 02       		.uleb128 0x2
 2404 0a69 08       		.byte	0x8
 2405 0a6a 26       		.byte	0x26
 2406 0a6b 00       		.byte	0
 2407 0a6c 00       		.byte	0
 2408 0a6d 00       		.byte	0
 2409 0a6e 28       		.uleb128 0x28
 2410 0a6f F3050000 		.4byte	.LASF93
 2411 0a73 01       		.byte	0x1
 2412 0a74 B502     		.2byte	0x2b5
 2413 0a76 00000000 		.4byte	.LFB66
 2414 0a7a 40000000 		.4byte	.LFE66-.LFB66
 2415 0a7e 01       		.uleb128 0x1
 2416 0a7f 9C       		.byte	0x9c
 2417 0a80 C00A0000 		.4byte	0xac0
 2418 0a84 1D       		.uleb128 0x1d
 2419 0a85 D1020000 		.4byte	.LASF82
 2420 0a89 01       		.byte	0x1
 2421 0a8a B502     		.2byte	0x2b5
 2422 0a8c 55040000 		.4byte	0x455
 2423 0a90 1A040000 		.4byte	.LLST15
 2424 0a94 20       		.uleb128 0x20
 2425 0a95 10000000 		.4byte	.LVL52
 2426 0a99 C9050000 		.4byte	0x5c9
 2427 0a9d 20       		.uleb128 0x20
 2428 0a9e 16000000 		.4byte	.LVL53
 2429 0aa2 570C0000 		.4byte	0xc57
 2430 0aa6 20       		.uleb128 0x20
 2431 0aa7 1C000000 		.4byte	.LVL54
 2432 0aab 570C0000 		.4byte	0xc57
 2433 0aaf 31       		.uleb128 0x31
ARM GAS  /tmp/ccJfjU4P.s 			page 44


 2434 0ab0 2E000000 		.4byte	.LVL55
 2435 0ab4 690C0000 		.4byte	0xc69
 2436 0ab8 1F       		.uleb128 0x1f
 2437 0ab9 01       		.uleb128 0x1
 2438 0aba 50       		.byte	0x50
 2439 0abb 02       		.uleb128 0x2
 2440 0abc 08       		.byte	0x8
 2441 0abd 26       		.byte	0x26
 2442 0abe 00       		.byte	0
 2443 0abf 00       		.byte	0
 2444 0ac0 28       		.uleb128 0x28
 2445 0ac1 DF050000 		.4byte	.LASF94
 2446 0ac5 01       		.byte	0x1
 2447 0ac6 F902     		.2byte	0x2f9
 2448 0ac8 00000000 		.4byte	.LFB67
 2449 0acc 26000000 		.4byte	.LFE67-.LFB67
 2450 0ad0 01       		.uleb128 0x1
 2451 0ad1 9C       		.byte	0x9c
 2452 0ad2 010B0000 		.4byte	0xb01
 2453 0ad6 33       		.uleb128 0x33
 2454 0ad7 D1020000 		.4byte	.LASF82
 2455 0adb 01       		.byte	0x1
 2456 0adc F902     		.2byte	0x2f9
 2457 0ade 55040000 		.4byte	0x455
 2458 0ae2 01       		.uleb128 0x1
 2459 0ae3 50       		.byte	0x50
 2460 0ae4 34       		.uleb128 0x34
 2461 0ae5 6E00     		.ascii	"n\000"
 2462 0ae7 01       		.byte	0x1
 2463 0ae8 F902     		.2byte	0x2f9
 2464 0aea 2C000000 		.4byte	0x2c
 2465 0aee 01       		.uleb128 0x1
 2466 0aef 51       		.byte	0x51
 2467 0af0 1D       		.uleb128 0x1d
 2468 0af1 EF010000 		.4byte	.LASF95
 2469 0af5 01       		.byte	0x1
 2470 0af6 F902     		.2byte	0x2f9
 2471 0af8 010B0000 		.4byte	0xb01
 2472 0afc 4E040000 		.4byte	.LLST16
 2473 0b00 00       		.byte	0
 2474 0b01 0D       		.uleb128 0xd
 2475 0b02 04       		.byte	0x4
 2476 0b03 070B0000 		.4byte	0xb07
 2477 0b07 35       		.uleb128 0x35
 2478 0b08 36       		.uleb128 0x36
 2479 0b09 0C020000 		.4byte	.LASF97
 2480 0b0d 01       		.byte	0x1
 2481 0b0e 0E03     		.2byte	0x30e
 2482 0b10 2C000000 		.4byte	0x2c
 2483 0b14 00000000 		.4byte	.LFB68
 2484 0b18 22000000 		.4byte	.LFE68-.LFB68
 2485 0b1c 01       		.uleb128 0x1
 2486 0b1d 9C       		.byte	0x9c
 2487 0b1e 330B0000 		.4byte	0xb33
 2488 0b22 1D       		.uleb128 0x1d
 2489 0b23 D1020000 		.4byte	.LASF82
 2490 0b27 01       		.byte	0x1
ARM GAS  /tmp/ccJfjU4P.s 			page 45


 2491 0b28 0E03     		.2byte	0x30e
 2492 0b2a 55040000 		.4byte	0x455
 2493 0b2e 6F040000 		.4byte	.LLST17
 2494 0b32 00       		.byte	0
 2495 0b33 28       		.uleb128 0x28
 2496 0b34 00000000 		.4byte	.LASF96
 2497 0b38 01       		.byte	0x1
 2498 0b39 1F03     		.2byte	0x31f
 2499 0b3b 00000000 		.4byte	.LFB69
 2500 0b3f 42000000 		.4byte	.LFE69-.LFB69
 2501 0b43 01       		.uleb128 0x1
 2502 0b44 9C       		.byte	0x9c
 2503 0b45 740B0000 		.4byte	0xb74
 2504 0b49 33       		.uleb128 0x33
 2505 0b4a D1020000 		.4byte	.LASF82
 2506 0b4e 01       		.byte	0x1
 2507 0b4f 1F03     		.2byte	0x31f
 2508 0b51 55040000 		.4byte	0x455
 2509 0b55 01       		.uleb128 0x1
 2510 0b56 50       		.byte	0x50
 2511 0b57 34       		.uleb128 0x34
 2512 0b58 6E00     		.ascii	"n\000"
 2513 0b5a 01       		.byte	0x1
 2514 0b5b 1F03     		.2byte	0x31f
 2515 0b5d 2C000000 		.4byte	0x2c
 2516 0b61 01       		.uleb128 0x1
 2517 0b62 51       		.byte	0x51
 2518 0b63 1D       		.uleb128 0x1d
 2519 0b64 6A000000 		.4byte	.LASF71
 2520 0b68 01       		.byte	0x1
 2521 0b69 1F03     		.2byte	0x31f
 2522 0b6b E0000000 		.4byte	0xe0
 2523 0b6f 90040000 		.4byte	.LLST18
 2524 0b73 00       		.byte	0
 2525 0b74 36       		.uleb128 0x36
 2526 0b75 EC000000 		.4byte	.LASF98
 2527 0b79 01       		.byte	0x1
 2528 0b7a 3703     		.2byte	0x337
 2529 0b7c 2C000000 		.4byte	0x2c
 2530 0b80 00000000 		.4byte	.LFB70
 2531 0b84 2A000000 		.4byte	.LFE70-.LFB70
 2532 0b88 01       		.uleb128 0x1
 2533 0b89 9C       		.byte	0x9c
 2534 0b8a BC0B0000 		.4byte	0xbbc
 2535 0b8e 1D       		.uleb128 0x1d
 2536 0b8f D1020000 		.4byte	.LASF82
 2537 0b93 01       		.byte	0x1
 2538 0b94 3703     		.2byte	0x337
 2539 0b96 55040000 		.4byte	0x455
 2540 0b9a B1040000 		.4byte	.LLST19
 2541 0b9e 37       		.uleb128 0x37
 2542 0b9f 6E00     		.ascii	"n\000"
 2543 0ba1 01       		.byte	0x1
 2544 0ba2 3803     		.2byte	0x338
 2545 0ba4 2C000000 		.4byte	0x2c
 2546 0ba8 01       		.uleb128 0x1
 2547 0ba9 54       		.byte	0x54
ARM GAS  /tmp/ccJfjU4P.s 			page 46


 2548 0baa 31       		.uleb128 0x31
 2549 0bab 26000000 		.4byte	.LVL64
 2550 0baf 99050000 		.4byte	0x599
 2551 0bb3 1F       		.uleb128 0x1f
 2552 0bb4 01       		.uleb128 0x1
 2553 0bb5 50       		.byte	0x50
 2554 0bb6 03       		.uleb128 0x3
 2555 0bb7 F3       		.byte	0xf3
 2556 0bb8 01       		.uleb128 0x1
 2557 0bb9 50       		.byte	0x50
 2558 0bba 00       		.byte	0
 2559 0bbb 00       		.byte	0
 2560 0bbc 38       		.uleb128 0x38
 2561 0bbd C7000000 		.4byte	.LASF100
 2562 0bc1 0A       		.byte	0xa
 2563 0bc2 0706     		.2byte	0x607
 2564 0bc4 F3000000 		.4byte	0xf3
 2565 0bc8 39       		.uleb128 0x39
 2566 0bc9 F4020000 		.4byte	0x2f4
 2567 0bcd D80B0000 		.4byte	0xbd8
 2568 0bd1 3A       		.uleb128 0x3a
 2569 0bd2 E7000000 		.4byte	0xe7
 2570 0bd6 06       		.byte	0x6
 2571 0bd7 00       		.byte	0
 2572 0bd8 38       		.uleb128 0x38
 2573 0bd9 A9000000 		.4byte	.LASF101
 2574 0bdd 07       		.byte	0x7
 2575 0bde 8401     		.2byte	0x184
 2576 0be0 E40B0000 		.4byte	0xbe4
 2577 0be4 10       		.uleb128 0x10
 2578 0be5 C80B0000 		.4byte	0xbc8
 2579 0be9 3B       		.uleb128 0x3b
 2580 0bea CA020000 		.4byte	.LASF102
 2581 0bee 01       		.byte	0x1
 2582 0bef 65       		.byte	0x65
 2583 0bf0 A9030000 		.4byte	0x3a9
 2584 0bf4 05       		.uleb128 0x5
 2585 0bf5 03       		.byte	0x3
 2586 0bf6 00000000 		.4byte	UARTD2
 2587 0bfa 3C       		.uleb128 0x3c
 2588 0bfb 6A010000 		.4byte	.LASF103
 2589 0bff 0B       		.byte	0xb
 2590 0c00 0102     		.2byte	0x201
 2591 0c02 3C       		.uleb128 0x3c
 2592 0c03 8B020000 		.4byte	.LASF104
 2593 0c07 0B       		.byte	0xb
 2594 0c08 0302     		.2byte	0x203
 2595 0c0a 3D       		.uleb128 0x3d
 2596 0c0b 5B000000 		.4byte	.LASF105
 2597 0c0f 08       		.byte	0x8
 2598 0c10 6E       		.byte	0x6e
 2599 0c11 1B0C0000 		.4byte	0xc1b
 2600 0c15 0F       		.uleb128 0xf
 2601 0c16 55040000 		.4byte	0x455
 2602 0c1a 00       		.byte	0
 2603 0c1b 3E       		.uleb128 0x3e
 2604 0c1c 01060000 		.4byte	.LASF112
ARM GAS  /tmp/ccJfjU4P.s 			page 47


 2605 0c20 07       		.byte	0x7
 2606 0c21 8B01     		.2byte	0x18b
 2607 0c23 CE000000 		.4byte	0xce
 2608 0c27 400C0000 		.4byte	0xc40
 2609 0c2b 0F       		.uleb128 0xf
 2610 0c2c 20030000 		.4byte	0x320
 2611 0c30 0F       		.uleb128 0xf
 2612 0c31 C3000000 		.4byte	0xc3
 2613 0c35 0F       		.uleb128 0xf
 2614 0c36 FF020000 		.4byte	0x2ff
 2615 0c3a 0F       		.uleb128 0xf
 2616 0c3b E0000000 		.4byte	0xe0
 2617 0c3f 00       		.byte	0
 2618 0c40 3F       		.uleb128 0x3f
 2619 0c41 DB000000 		.4byte	.LASF106
 2620 0c45 0C       		.byte	0xc
 2621 0c46 2301     		.2byte	0x123
 2622 0c48 570C0000 		.4byte	0xc57
 2623 0c4c 0F       		.uleb128 0xf
 2624 0c4d C3000000 		.4byte	0xc3
 2625 0c51 0F       		.uleb128 0xf
 2626 0c52 C3000000 		.4byte	0xc3
 2627 0c56 00       		.byte	0
 2628 0c57 3F       		.uleb128 0x3f
 2629 0c58 2F050000 		.4byte	.LASF107
 2630 0c5c 07       		.byte	0x7
 2631 0c5d 8F01     		.2byte	0x18f
 2632 0c5f 690C0000 		.4byte	0xc69
 2633 0c63 0F       		.uleb128 0xf
 2634 0c64 20030000 		.4byte	0x320
 2635 0c68 00       		.byte	0
 2636 0c69 40       		.uleb128 0x40
 2637 0c6a F5010000 		.4byte	.LASF113
 2638 0c6e 0C       		.byte	0xc
 2639 0c6f 2401     		.2byte	0x124
 2640 0c71 0F       		.uleb128 0xf
 2641 0c72 C3000000 		.4byte	0xc3
 2642 0c76 00       		.byte	0
 2643 0c77 00       		.byte	0
 2644              		.section	.debug_abbrev,"",%progbits
 2645              	.Ldebug_abbrev0:
 2646 0000 01       		.uleb128 0x1
 2647 0001 11       		.uleb128 0x11
 2648 0002 01       		.byte	0x1
 2649 0003 25       		.uleb128 0x25
 2650 0004 0E       		.uleb128 0xe
 2651 0005 13       		.uleb128 0x13
 2652 0006 0B       		.uleb128 0xb
 2653 0007 03       		.uleb128 0x3
 2654 0008 0E       		.uleb128 0xe
 2655 0009 1B       		.uleb128 0x1b
 2656 000a 0E       		.uleb128 0xe
 2657 000b 55       		.uleb128 0x55
 2658 000c 17       		.uleb128 0x17
 2659 000d 11       		.uleb128 0x11
 2660 000e 01       		.uleb128 0x1
 2661 000f 10       		.uleb128 0x10
ARM GAS  /tmp/ccJfjU4P.s 			page 48


 2662 0010 17       		.uleb128 0x17
 2663 0011 00       		.byte	0
 2664 0012 00       		.byte	0
 2665 0013 02       		.uleb128 0x2
 2666 0014 24       		.uleb128 0x24
 2667 0015 00       		.byte	0
 2668 0016 0B       		.uleb128 0xb
 2669 0017 0B       		.uleb128 0xb
 2670 0018 3E       		.uleb128 0x3e
 2671 0019 0B       		.uleb128 0xb
 2672 001a 03       		.uleb128 0x3
 2673 001b 08       		.uleb128 0x8
 2674 001c 00       		.byte	0
 2675 001d 00       		.byte	0
 2676 001e 03       		.uleb128 0x3
 2677 001f 16       		.uleb128 0x16
 2678 0020 00       		.byte	0
 2679 0021 03       		.uleb128 0x3
 2680 0022 0E       		.uleb128 0xe
 2681 0023 3A       		.uleb128 0x3a
 2682 0024 0B       		.uleb128 0xb
 2683 0025 3B       		.uleb128 0x3b
 2684 0026 0B       		.uleb128 0xb
 2685 0027 49       		.uleb128 0x49
 2686 0028 13       		.uleb128 0x13
 2687 0029 00       		.byte	0
 2688 002a 00       		.byte	0
 2689 002b 04       		.uleb128 0x4
 2690 002c 24       		.uleb128 0x24
 2691 002d 00       		.byte	0
 2692 002e 0B       		.uleb128 0xb
 2693 002f 0B       		.uleb128 0xb
 2694 0030 3E       		.uleb128 0x3e
 2695 0031 0B       		.uleb128 0xb
 2696 0032 03       		.uleb128 0x3
 2697 0033 0E       		.uleb128 0xe
 2698 0034 00       		.byte	0
 2699 0035 00       		.byte	0
 2700 0036 05       		.uleb128 0x5
 2701 0037 0F       		.uleb128 0xf
 2702 0038 00       		.byte	0
 2703 0039 0B       		.uleb128 0xb
 2704 003a 0B       		.uleb128 0xb
 2705 003b 00       		.byte	0
 2706 003c 00       		.byte	0
 2707 003d 06       		.uleb128 0x6
 2708 003e 35       		.uleb128 0x35
 2709 003f 00       		.byte	0
 2710 0040 49       		.uleb128 0x49
 2711 0041 13       		.uleb128 0x13
 2712 0042 00       		.byte	0
 2713 0043 00       		.byte	0
 2714 0044 07       		.uleb128 0x7
 2715 0045 13       		.uleb128 0x13
 2716 0046 01       		.byte	0x1
 2717 0047 0B       		.uleb128 0xb
 2718 0048 0B       		.uleb128 0xb
ARM GAS  /tmp/ccJfjU4P.s 			page 49


 2719 0049 3A       		.uleb128 0x3a
 2720 004a 0B       		.uleb128 0xb
 2721 004b 3B       		.uleb128 0x3b
 2722 004c 05       		.uleb128 0x5
 2723 004d 01       		.uleb128 0x1
 2724 004e 13       		.uleb128 0x13
 2725 004f 00       		.byte	0
 2726 0050 00       		.byte	0
 2727 0051 08       		.uleb128 0x8
 2728 0052 0D       		.uleb128 0xd
 2729 0053 00       		.byte	0
 2730 0054 03       		.uleb128 0x3
 2731 0055 08       		.uleb128 0x8
 2732 0056 3A       		.uleb128 0x3a
 2733 0057 0B       		.uleb128 0xb
 2734 0058 3B       		.uleb128 0x3b
 2735 0059 05       		.uleb128 0x5
 2736 005a 49       		.uleb128 0x49
 2737 005b 13       		.uleb128 0x13
 2738 005c 38       		.uleb128 0x38
 2739 005d 0B       		.uleb128 0xb
 2740 005e 00       		.byte	0
 2741 005f 00       		.byte	0
 2742 0060 09       		.uleb128 0x9
 2743 0061 0D       		.uleb128 0xd
 2744 0062 00       		.byte	0
 2745 0063 03       		.uleb128 0x3
 2746 0064 0E       		.uleb128 0xe
 2747 0065 3A       		.uleb128 0x3a
 2748 0066 0B       		.uleb128 0xb
 2749 0067 3B       		.uleb128 0x3b
 2750 0068 05       		.uleb128 0x5
 2751 0069 49       		.uleb128 0x49
 2752 006a 13       		.uleb128 0x13
 2753 006b 38       		.uleb128 0x38
 2754 006c 0B       		.uleb128 0xb
 2755 006d 00       		.byte	0
 2756 006e 00       		.byte	0
 2757 006f 0A       		.uleb128 0xa
 2758 0070 16       		.uleb128 0x16
 2759 0071 00       		.byte	0
 2760 0072 03       		.uleb128 0x3
 2761 0073 0E       		.uleb128 0xe
 2762 0074 3A       		.uleb128 0x3a
 2763 0075 0B       		.uleb128 0xb
 2764 0076 3B       		.uleb128 0x3b
 2765 0077 05       		.uleb128 0x5
 2766 0078 49       		.uleb128 0x49
 2767 0079 13       		.uleb128 0x13
 2768 007a 00       		.byte	0
 2769 007b 00       		.byte	0
 2770 007c 0B       		.uleb128 0xb
 2771 007d 13       		.uleb128 0x13
 2772 007e 01       		.byte	0x1
 2773 007f 0B       		.uleb128 0xb
 2774 0080 0B       		.uleb128 0xb
 2775 0081 3A       		.uleb128 0x3a
ARM GAS  /tmp/ccJfjU4P.s 			page 50


 2776 0082 0B       		.uleb128 0xb
 2777 0083 3B       		.uleb128 0x3b
 2778 0084 0B       		.uleb128 0xb
 2779 0085 01       		.uleb128 0x1
 2780 0086 13       		.uleb128 0x13
 2781 0087 00       		.byte	0
 2782 0088 00       		.byte	0
 2783 0089 0C       		.uleb128 0xc
 2784 008a 0D       		.uleb128 0xd
 2785 008b 00       		.byte	0
 2786 008c 03       		.uleb128 0x3
 2787 008d 0E       		.uleb128 0xe
 2788 008e 3A       		.uleb128 0x3a
 2789 008f 0B       		.uleb128 0xb
 2790 0090 3B       		.uleb128 0x3b
 2791 0091 0B       		.uleb128 0xb
 2792 0092 49       		.uleb128 0x49
 2793 0093 13       		.uleb128 0x13
 2794 0094 38       		.uleb128 0x38
 2795 0095 0B       		.uleb128 0xb
 2796 0096 00       		.byte	0
 2797 0097 00       		.byte	0
 2798 0098 0D       		.uleb128 0xd
 2799 0099 0F       		.uleb128 0xf
 2800 009a 00       		.byte	0
 2801 009b 0B       		.uleb128 0xb
 2802 009c 0B       		.uleb128 0xb
 2803 009d 49       		.uleb128 0x49
 2804 009e 13       		.uleb128 0x13
 2805 009f 00       		.byte	0
 2806 00a0 00       		.byte	0
 2807 00a1 0E       		.uleb128 0xe
 2808 00a2 15       		.uleb128 0x15
 2809 00a3 01       		.byte	0x1
 2810 00a4 27       		.uleb128 0x27
 2811 00a5 19       		.uleb128 0x19
 2812 00a6 01       		.uleb128 0x1
 2813 00a7 13       		.uleb128 0x13
 2814 00a8 00       		.byte	0
 2815 00a9 00       		.byte	0
 2816 00aa 0F       		.uleb128 0xf
 2817 00ab 05       		.uleb128 0x5
 2818 00ac 00       		.byte	0
 2819 00ad 49       		.uleb128 0x49
 2820 00ae 13       		.uleb128 0x13
 2821 00af 00       		.byte	0
 2822 00b0 00       		.byte	0
 2823 00b1 10       		.uleb128 0x10
 2824 00b2 26       		.uleb128 0x26
 2825 00b3 00       		.byte	0
 2826 00b4 49       		.uleb128 0x49
 2827 00b5 13       		.uleb128 0x13
 2828 00b6 00       		.byte	0
 2829 00b7 00       		.byte	0
 2830 00b8 11       		.uleb128 0x11
 2831 00b9 04       		.uleb128 0x4
 2832 00ba 01       		.byte	0x1
ARM GAS  /tmp/ccJfjU4P.s 			page 51


 2833 00bb 0B       		.uleb128 0xb
 2834 00bc 0B       		.uleb128 0xb
 2835 00bd 3A       		.uleb128 0x3a
 2836 00be 0B       		.uleb128 0xb
 2837 00bf 3B       		.uleb128 0x3b
 2838 00c0 0B       		.uleb128 0xb
 2839 00c1 01       		.uleb128 0x1
 2840 00c2 13       		.uleb128 0x13
 2841 00c3 00       		.byte	0
 2842 00c4 00       		.byte	0
 2843 00c5 12       		.uleb128 0x12
 2844 00c6 28       		.uleb128 0x28
 2845 00c7 00       		.byte	0
 2846 00c8 03       		.uleb128 0x3
 2847 00c9 0E       		.uleb128 0xe
 2848 00ca 1C       		.uleb128 0x1c
 2849 00cb 0D       		.uleb128 0xd
 2850 00cc 00       		.byte	0
 2851 00cd 00       		.byte	0
 2852 00ce 13       		.uleb128 0x13
 2853 00cf 13       		.uleb128 0x13
 2854 00d0 01       		.byte	0x1
 2855 00d1 03       		.uleb128 0x3
 2856 00d2 0E       		.uleb128 0xe
 2857 00d3 0B       		.uleb128 0xb
 2858 00d4 0B       		.uleb128 0xb
 2859 00d5 3A       		.uleb128 0x3a
 2860 00d6 0B       		.uleb128 0xb
 2861 00d7 3B       		.uleb128 0x3b
 2862 00d8 05       		.uleb128 0x5
 2863 00d9 01       		.uleb128 0x1
 2864 00da 13       		.uleb128 0x13
 2865 00db 00       		.byte	0
 2866 00dc 00       		.byte	0
 2867 00dd 14       		.uleb128 0x14
 2868 00de 2E       		.uleb128 0x2e
 2869 00df 01       		.byte	0x1
 2870 00e0 03       		.uleb128 0x3
 2871 00e1 0E       		.uleb128 0xe
 2872 00e2 3A       		.uleb128 0x3a
 2873 00e3 0B       		.uleb128 0xb
 2874 00e4 3B       		.uleb128 0x3b
 2875 00e5 0B       		.uleb128 0xb
 2876 00e6 27       		.uleb128 0x27
 2877 00e7 19       		.uleb128 0x19
 2878 00e8 20       		.uleb128 0x20
 2879 00e9 0B       		.uleb128 0xb
 2880 00ea 01       		.uleb128 0x1
 2881 00eb 13       		.uleb128 0x13
 2882 00ec 00       		.byte	0
 2883 00ed 00       		.byte	0
 2884 00ee 15       		.uleb128 0x15
 2885 00ef 05       		.uleb128 0x5
 2886 00f0 00       		.byte	0
 2887 00f1 03       		.uleb128 0x3
 2888 00f2 0E       		.uleb128 0xe
 2889 00f3 3A       		.uleb128 0x3a
ARM GAS  /tmp/ccJfjU4P.s 			page 52


 2890 00f4 0B       		.uleb128 0xb
 2891 00f5 3B       		.uleb128 0x3b
 2892 00f6 0B       		.uleb128 0xb
 2893 00f7 49       		.uleb128 0x49
 2894 00f8 13       		.uleb128 0x13
 2895 00f9 00       		.byte	0
 2896 00fa 00       		.byte	0
 2897 00fb 16       		.uleb128 0x16
 2898 00fc 2E       		.uleb128 0x2e
 2899 00fd 01       		.byte	0x1
 2900 00fe 03       		.uleb128 0x3
 2901 00ff 0E       		.uleb128 0xe
 2902 0100 3A       		.uleb128 0x3a
 2903 0101 0B       		.uleb128 0xb
 2904 0102 3B       		.uleb128 0x3b
 2905 0103 05       		.uleb128 0x5
 2906 0104 27       		.uleb128 0x27
 2907 0105 19       		.uleb128 0x19
 2908 0106 20       		.uleb128 0x20
 2909 0107 0B       		.uleb128 0xb
 2910 0108 01       		.uleb128 0x1
 2911 0109 13       		.uleb128 0x13
 2912 010a 00       		.byte	0
 2913 010b 00       		.byte	0
 2914 010c 17       		.uleb128 0x17
 2915 010d 05       		.uleb128 0x5
 2916 010e 00       		.byte	0
 2917 010f 03       		.uleb128 0x3
 2918 0110 0E       		.uleb128 0xe
 2919 0111 3A       		.uleb128 0x3a
 2920 0112 0B       		.uleb128 0xb
 2921 0113 3B       		.uleb128 0x3b
 2922 0114 05       		.uleb128 0x5
 2923 0115 49       		.uleb128 0x49
 2924 0116 13       		.uleb128 0x13
 2925 0117 00       		.byte	0
 2926 0118 00       		.byte	0
 2927 0119 18       		.uleb128 0x18
 2928 011a 34       		.uleb128 0x34
 2929 011b 00       		.byte	0
 2930 011c 03       		.uleb128 0x3
 2931 011d 08       		.uleb128 0x8
 2932 011e 3A       		.uleb128 0x3a
 2933 011f 0B       		.uleb128 0xb
 2934 0120 3B       		.uleb128 0x3b
 2935 0121 05       		.uleb128 0x5
 2936 0122 49       		.uleb128 0x49
 2937 0123 13       		.uleb128 0x13
 2938 0124 00       		.byte	0
 2939 0125 00       		.byte	0
 2940 0126 19       		.uleb128 0x19
 2941 0127 2E       		.uleb128 0x2e
 2942 0128 01       		.byte	0x1
 2943 0129 03       		.uleb128 0x3
 2944 012a 0E       		.uleb128 0xe
 2945 012b 3A       		.uleb128 0x3a
 2946 012c 0B       		.uleb128 0xb
ARM GAS  /tmp/ccJfjU4P.s 			page 53


 2947 012d 3B       		.uleb128 0x3b
 2948 012e 0B       		.uleb128 0xb
 2949 012f 27       		.uleb128 0x27
 2950 0130 19       		.uleb128 0x19
 2951 0131 11       		.uleb128 0x11
 2952 0132 01       		.uleb128 0x1
 2953 0133 12       		.uleb128 0x12
 2954 0134 06       		.uleb128 0x6
 2955 0135 40       		.uleb128 0x40
 2956 0136 18       		.uleb128 0x18
 2957 0137 9742     		.uleb128 0x2117
 2958 0139 19       		.uleb128 0x19
 2959 013a 01       		.uleb128 0x1
 2960 013b 13       		.uleb128 0x13
 2961 013c 00       		.byte	0
 2962 013d 00       		.byte	0
 2963 013e 1A       		.uleb128 0x1a
 2964 013f 05       		.uleb128 0x5
 2965 0140 00       		.byte	0
 2966 0141 03       		.uleb128 0x3
 2967 0142 0E       		.uleb128 0xe
 2968 0143 3A       		.uleb128 0x3a
 2969 0144 0B       		.uleb128 0xb
 2970 0145 3B       		.uleb128 0x3b
 2971 0146 0B       		.uleb128 0xb
 2972 0147 49       		.uleb128 0x49
 2973 0148 13       		.uleb128 0x13
 2974 0149 02       		.uleb128 0x2
 2975 014a 18       		.uleb128 0x18
 2976 014b 00       		.byte	0
 2977 014c 00       		.byte	0
 2978 014d 1B       		.uleb128 0x1b
 2979 014e 34       		.uleb128 0x34
 2980 014f 00       		.byte	0
 2981 0150 03       		.uleb128 0x3
 2982 0151 0E       		.uleb128 0xe
 2983 0152 3A       		.uleb128 0x3a
 2984 0153 0B       		.uleb128 0xb
 2985 0154 3B       		.uleb128 0x3b
 2986 0155 0B       		.uleb128 0xb
 2987 0156 49       		.uleb128 0x49
 2988 0157 13       		.uleb128 0x13
 2989 0158 02       		.uleb128 0x2
 2990 0159 18       		.uleb128 0x18
 2991 015a 00       		.byte	0
 2992 015b 00       		.byte	0
 2993 015c 1C       		.uleb128 0x1c
 2994 015d 2E       		.uleb128 0x2e
 2995 015e 01       		.byte	0x1
 2996 015f 03       		.uleb128 0x3
 2997 0160 0E       		.uleb128 0xe
 2998 0161 3A       		.uleb128 0x3a
 2999 0162 0B       		.uleb128 0xb
 3000 0163 3B       		.uleb128 0x3b
 3001 0164 05       		.uleb128 0x5
 3002 0165 27       		.uleb128 0x27
 3003 0166 19       		.uleb128 0x19
ARM GAS  /tmp/ccJfjU4P.s 			page 54


 3004 0167 11       		.uleb128 0x11
 3005 0168 01       		.uleb128 0x1
 3006 0169 12       		.uleb128 0x12
 3007 016a 06       		.uleb128 0x6
 3008 016b 40       		.uleb128 0x40
 3009 016c 18       		.uleb128 0x18
 3010 016d 9742     		.uleb128 0x2117
 3011 016f 19       		.uleb128 0x19
 3012 0170 01       		.uleb128 0x1
 3013 0171 13       		.uleb128 0x13
 3014 0172 00       		.byte	0
 3015 0173 00       		.byte	0
 3016 0174 1D       		.uleb128 0x1d
 3017 0175 05       		.uleb128 0x5
 3018 0176 00       		.byte	0
 3019 0177 03       		.uleb128 0x3
 3020 0178 0E       		.uleb128 0xe
 3021 0179 3A       		.uleb128 0x3a
 3022 017a 0B       		.uleb128 0xb
 3023 017b 3B       		.uleb128 0x3b
 3024 017c 05       		.uleb128 0x5
 3025 017d 49       		.uleb128 0x49
 3026 017e 13       		.uleb128 0x13
 3027 017f 02       		.uleb128 0x2
 3028 0180 17       		.uleb128 0x17
 3029 0181 00       		.byte	0
 3030 0182 00       		.byte	0
 3031 0183 1E       		.uleb128 0x1e
 3032 0184 898201   		.uleb128 0x4109
 3033 0187 01       		.byte	0x1
 3034 0188 11       		.uleb128 0x11
 3035 0189 01       		.uleb128 0x1
 3036 018a 01       		.uleb128 0x1
 3037 018b 13       		.uleb128 0x13
 3038 018c 00       		.byte	0
 3039 018d 00       		.byte	0
 3040 018e 1F       		.uleb128 0x1f
 3041 018f 8A8201   		.uleb128 0x410a
 3042 0192 00       		.byte	0
 3043 0193 02       		.uleb128 0x2
 3044 0194 18       		.uleb128 0x18
 3045 0195 9142     		.uleb128 0x2111
 3046 0197 18       		.uleb128 0x18
 3047 0198 00       		.byte	0
 3048 0199 00       		.byte	0
 3049 019a 20       		.uleb128 0x20
 3050 019b 898201   		.uleb128 0x4109
 3051 019e 00       		.byte	0
 3052 019f 11       		.uleb128 0x11
 3053 01a0 01       		.uleb128 0x1
 3054 01a1 31       		.uleb128 0x31
 3055 01a2 13       		.uleb128 0x13
 3056 01a3 00       		.byte	0
 3057 01a4 00       		.byte	0
 3058 01a5 21       		.uleb128 0x21
 3059 01a6 2E       		.uleb128 0x2e
 3060 01a7 01       		.byte	0x1
ARM GAS  /tmp/ccJfjU4P.s 			page 55


 3061 01a8 31       		.uleb128 0x31
 3062 01a9 13       		.uleb128 0x13
 3063 01aa 11       		.uleb128 0x11
 3064 01ab 01       		.uleb128 0x1
 3065 01ac 12       		.uleb128 0x12
 3066 01ad 06       		.uleb128 0x6
 3067 01ae 40       		.uleb128 0x40
 3068 01af 18       		.uleb128 0x18
 3069 01b0 9742     		.uleb128 0x2117
 3070 01b2 19       		.uleb128 0x19
 3071 01b3 01       		.uleb128 0x1
 3072 01b4 13       		.uleb128 0x13
 3073 01b5 00       		.byte	0
 3074 01b6 00       		.byte	0
 3075 01b7 22       		.uleb128 0x22
 3076 01b8 05       		.uleb128 0x5
 3077 01b9 00       		.byte	0
 3078 01ba 31       		.uleb128 0x31
 3079 01bb 13       		.uleb128 0x13
 3080 01bc 02       		.uleb128 0x2
 3081 01bd 17       		.uleb128 0x17
 3082 01be 00       		.byte	0
 3083 01bf 00       		.byte	0
 3084 01c0 23       		.uleb128 0x23
 3085 01c1 0B       		.uleb128 0xb
 3086 01c2 01       		.byte	0x1
 3087 01c3 55       		.uleb128 0x55
 3088 01c4 17       		.uleb128 0x17
 3089 01c5 01       		.uleb128 0x1
 3090 01c6 13       		.uleb128 0x13
 3091 01c7 00       		.byte	0
 3092 01c8 00       		.byte	0
 3093 01c9 24       		.uleb128 0x24
 3094 01ca 898201   		.uleb128 0x4109
 3095 01cd 01       		.byte	0x1
 3096 01ce 11       		.uleb128 0x11
 3097 01cf 01       		.uleb128 0x1
 3098 01d0 9542     		.uleb128 0x2115
 3099 01d2 19       		.uleb128 0x19
 3100 01d3 31       		.uleb128 0x31
 3101 01d4 13       		.uleb128 0x13
 3102 01d5 00       		.byte	0
 3103 01d6 00       		.byte	0
 3104 01d7 25       		.uleb128 0x25
 3105 01d8 2E       		.uleb128 0x2e
 3106 01d9 01       		.byte	0x1
 3107 01da 03       		.uleb128 0x3
 3108 01db 0E       		.uleb128 0xe
 3109 01dc 3A       		.uleb128 0x3a
 3110 01dd 0B       		.uleb128 0xb
 3111 01de 3B       		.uleb128 0x3b
 3112 01df 0B       		.uleb128 0xb
 3113 01e0 27       		.uleb128 0x27
 3114 01e1 19       		.uleb128 0x19
 3115 01e2 49       		.uleb128 0x49
 3116 01e3 13       		.uleb128 0x13
 3117 01e4 20       		.uleb128 0x20
ARM GAS  /tmp/ccJfjU4P.s 			page 56


 3118 01e5 0B       		.uleb128 0xb
 3119 01e6 01       		.uleb128 0x1
 3120 01e7 13       		.uleb128 0x13
 3121 01e8 00       		.byte	0
 3122 01e9 00       		.byte	0
 3123 01ea 26       		.uleb128 0x26
 3124 01eb 05       		.uleb128 0x5
 3125 01ec 00       		.byte	0
 3126 01ed 03       		.uleb128 0x3
 3127 01ee 08       		.uleb128 0x8
 3128 01ef 3A       		.uleb128 0x3a
 3129 01f0 0B       		.uleb128 0xb
 3130 01f1 3B       		.uleb128 0x3b
 3131 01f2 0B       		.uleb128 0xb
 3132 01f3 49       		.uleb128 0x49
 3133 01f4 13       		.uleb128 0x13
 3134 01f5 00       		.byte	0
 3135 01f6 00       		.byte	0
 3136 01f7 27       		.uleb128 0x27
 3137 01f8 34       		.uleb128 0x34
 3138 01f9 00       		.byte	0
 3139 01fa 03       		.uleb128 0x3
 3140 01fb 08       		.uleb128 0x8
 3141 01fc 3A       		.uleb128 0x3a
 3142 01fd 0B       		.uleb128 0xb
 3143 01fe 3B       		.uleb128 0x3b
 3144 01ff 0B       		.uleb128 0xb
 3145 0200 49       		.uleb128 0x49
 3146 0201 13       		.uleb128 0x13
 3147 0202 00       		.byte	0
 3148 0203 00       		.byte	0
 3149 0204 28       		.uleb128 0x28
 3150 0205 2E       		.uleb128 0x2e
 3151 0206 01       		.byte	0x1
 3152 0207 3F       		.uleb128 0x3f
 3153 0208 19       		.uleb128 0x19
 3154 0209 03       		.uleb128 0x3
 3155 020a 0E       		.uleb128 0xe
 3156 020b 3A       		.uleb128 0x3a
 3157 020c 0B       		.uleb128 0xb
 3158 020d 3B       		.uleb128 0x3b
 3159 020e 05       		.uleb128 0x5
 3160 020f 27       		.uleb128 0x27
 3161 0210 19       		.uleb128 0x19
 3162 0211 11       		.uleb128 0x11
 3163 0212 01       		.uleb128 0x1
 3164 0213 12       		.uleb128 0x12
 3165 0214 06       		.uleb128 0x6
 3166 0215 40       		.uleb128 0x40
 3167 0216 18       		.uleb128 0x18
 3168 0217 9742     		.uleb128 0x2117
 3169 0219 19       		.uleb128 0x19
 3170 021a 01       		.uleb128 0x1
 3171 021b 13       		.uleb128 0x13
 3172 021c 00       		.byte	0
 3173 021d 00       		.byte	0
 3174 021e 29       		.uleb128 0x29
ARM GAS  /tmp/ccJfjU4P.s 			page 57


 3175 021f 1D       		.uleb128 0x1d
 3176 0220 01       		.byte	0x1
 3177 0221 31       		.uleb128 0x31
 3178 0222 13       		.uleb128 0x13
 3179 0223 11       		.uleb128 0x11
 3180 0224 01       		.uleb128 0x1
 3181 0225 12       		.uleb128 0x12
 3182 0226 06       		.uleb128 0x6
 3183 0227 58       		.uleb128 0x58
 3184 0228 0B       		.uleb128 0xb
 3185 0229 59       		.uleb128 0x59
 3186 022a 05       		.uleb128 0x5
 3187 022b 01       		.uleb128 0x1
 3188 022c 13       		.uleb128 0x13
 3189 022d 00       		.byte	0
 3190 022e 00       		.byte	0
 3191 022f 2A       		.uleb128 0x2a
 3192 0230 05       		.uleb128 0x5
 3193 0231 00       		.byte	0
 3194 0232 31       		.uleb128 0x31
 3195 0233 13       		.uleb128 0x13
 3196 0234 02       		.uleb128 0x2
 3197 0235 18       		.uleb128 0x18
 3198 0236 00       		.byte	0
 3199 0237 00       		.byte	0
 3200 0238 2B       		.uleb128 0x2b
 3201 0239 0B       		.uleb128 0xb
 3202 023a 01       		.byte	0x1
 3203 023b 11       		.uleb128 0x11
 3204 023c 01       		.uleb128 0x1
 3205 023d 12       		.uleb128 0x12
 3206 023e 06       		.uleb128 0x6
 3207 023f 00       		.byte	0
 3208 0240 00       		.byte	0
 3209 0241 2C       		.uleb128 0x2c
 3210 0242 34       		.uleb128 0x34
 3211 0243 00       		.byte	0
 3212 0244 31       		.uleb128 0x31
 3213 0245 13       		.uleb128 0x13
 3214 0246 02       		.uleb128 0x2
 3215 0247 17       		.uleb128 0x17
 3216 0248 00       		.byte	0
 3217 0249 00       		.byte	0
 3218 024a 2D       		.uleb128 0x2d
 3219 024b 1D       		.uleb128 0x1d
 3220 024c 01       		.byte	0x1
 3221 024d 31       		.uleb128 0x31
 3222 024e 13       		.uleb128 0x13
 3223 024f 52       		.uleb128 0x52
 3224 0250 01       		.uleb128 0x1
 3225 0251 55       		.uleb128 0x55
 3226 0252 17       		.uleb128 0x17
 3227 0253 58       		.uleb128 0x58
 3228 0254 0B       		.uleb128 0xb
 3229 0255 59       		.uleb128 0x59
 3230 0256 05       		.uleb128 0x5
 3231 0257 01       		.uleb128 0x1
ARM GAS  /tmp/ccJfjU4P.s 			page 58


 3232 0258 13       		.uleb128 0x13
 3233 0259 00       		.byte	0
 3234 025a 00       		.byte	0
 3235 025b 2E       		.uleb128 0x2e
 3236 025c 0B       		.uleb128 0xb
 3237 025d 01       		.byte	0x1
 3238 025e 55       		.uleb128 0x55
 3239 025f 17       		.uleb128 0x17
 3240 0260 00       		.byte	0
 3241 0261 00       		.byte	0
 3242 0262 2F       		.uleb128 0x2f
 3243 0263 898201   		.uleb128 0x4109
 3244 0266 01       		.byte	0x1
 3245 0267 11       		.uleb128 0x11
 3246 0268 01       		.uleb128 0x1
 3247 0269 00       		.byte	0
 3248 026a 00       		.byte	0
 3249 026b 30       		.uleb128 0x30
 3250 026c 898201   		.uleb128 0x4109
 3251 026f 00       		.byte	0
 3252 0270 11       		.uleb128 0x11
 3253 0271 01       		.uleb128 0x1
 3254 0272 9542     		.uleb128 0x2115
 3255 0274 19       		.uleb128 0x19
 3256 0275 31       		.uleb128 0x31
 3257 0276 13       		.uleb128 0x13
 3258 0277 00       		.byte	0
 3259 0278 00       		.byte	0
 3260 0279 31       		.uleb128 0x31
 3261 027a 898201   		.uleb128 0x4109
 3262 027d 01       		.byte	0x1
 3263 027e 11       		.uleb128 0x11
 3264 027f 01       		.uleb128 0x1
 3265 0280 31       		.uleb128 0x31
 3266 0281 13       		.uleb128 0x13
 3267 0282 00       		.byte	0
 3268 0283 00       		.byte	0
 3269 0284 32       		.uleb128 0x32
 3270 0285 898201   		.uleb128 0x4109
 3271 0288 01       		.byte	0x1
 3272 0289 11       		.uleb128 0x11
 3273 028a 01       		.uleb128 0x1
 3274 028b 31       		.uleb128 0x31
 3275 028c 13       		.uleb128 0x13
 3276 028d 01       		.uleb128 0x1
 3277 028e 13       		.uleb128 0x13
 3278 028f 00       		.byte	0
 3279 0290 00       		.byte	0
 3280 0291 33       		.uleb128 0x33
 3281 0292 05       		.uleb128 0x5
 3282 0293 00       		.byte	0
 3283 0294 03       		.uleb128 0x3
 3284 0295 0E       		.uleb128 0xe
 3285 0296 3A       		.uleb128 0x3a
 3286 0297 0B       		.uleb128 0xb
 3287 0298 3B       		.uleb128 0x3b
 3288 0299 05       		.uleb128 0x5
ARM GAS  /tmp/ccJfjU4P.s 			page 59


 3289 029a 49       		.uleb128 0x49
 3290 029b 13       		.uleb128 0x13
 3291 029c 02       		.uleb128 0x2
 3292 029d 18       		.uleb128 0x18
 3293 029e 00       		.byte	0
 3294 029f 00       		.byte	0
 3295 02a0 34       		.uleb128 0x34
 3296 02a1 05       		.uleb128 0x5
 3297 02a2 00       		.byte	0
 3298 02a3 03       		.uleb128 0x3
 3299 02a4 08       		.uleb128 0x8
 3300 02a5 3A       		.uleb128 0x3a
 3301 02a6 0B       		.uleb128 0xb
 3302 02a7 3B       		.uleb128 0x3b
 3303 02a8 05       		.uleb128 0x5
 3304 02a9 49       		.uleb128 0x49
 3305 02aa 13       		.uleb128 0x13
 3306 02ab 02       		.uleb128 0x2
 3307 02ac 18       		.uleb128 0x18
 3308 02ad 00       		.byte	0
 3309 02ae 00       		.byte	0
 3310 02af 35       		.uleb128 0x35
 3311 02b0 26       		.uleb128 0x26
 3312 02b1 00       		.byte	0
 3313 02b2 00       		.byte	0
 3314 02b3 00       		.byte	0
 3315 02b4 36       		.uleb128 0x36
 3316 02b5 2E       		.uleb128 0x2e
 3317 02b6 01       		.byte	0x1
 3318 02b7 3F       		.uleb128 0x3f
 3319 02b8 19       		.uleb128 0x19
 3320 02b9 03       		.uleb128 0x3
 3321 02ba 0E       		.uleb128 0xe
 3322 02bb 3A       		.uleb128 0x3a
 3323 02bc 0B       		.uleb128 0xb
 3324 02bd 3B       		.uleb128 0x3b
 3325 02be 05       		.uleb128 0x5
 3326 02bf 27       		.uleb128 0x27
 3327 02c0 19       		.uleb128 0x19
 3328 02c1 49       		.uleb128 0x49
 3329 02c2 13       		.uleb128 0x13
 3330 02c3 11       		.uleb128 0x11
 3331 02c4 01       		.uleb128 0x1
 3332 02c5 12       		.uleb128 0x12
 3333 02c6 06       		.uleb128 0x6
 3334 02c7 40       		.uleb128 0x40
 3335 02c8 18       		.uleb128 0x18
 3336 02c9 9742     		.uleb128 0x2117
 3337 02cb 19       		.uleb128 0x19
 3338 02cc 01       		.uleb128 0x1
 3339 02cd 13       		.uleb128 0x13
 3340 02ce 00       		.byte	0
 3341 02cf 00       		.byte	0
 3342 02d0 37       		.uleb128 0x37
 3343 02d1 34       		.uleb128 0x34
 3344 02d2 00       		.byte	0
 3345 02d3 03       		.uleb128 0x3
ARM GAS  /tmp/ccJfjU4P.s 			page 60


 3346 02d4 08       		.uleb128 0x8
 3347 02d5 3A       		.uleb128 0x3a
 3348 02d6 0B       		.uleb128 0xb
 3349 02d7 3B       		.uleb128 0x3b
 3350 02d8 05       		.uleb128 0x5
 3351 02d9 49       		.uleb128 0x49
 3352 02da 13       		.uleb128 0x13
 3353 02db 02       		.uleb128 0x2
 3354 02dc 18       		.uleb128 0x18
 3355 02dd 00       		.byte	0
 3356 02de 00       		.byte	0
 3357 02df 38       		.uleb128 0x38
 3358 02e0 34       		.uleb128 0x34
 3359 02e1 00       		.byte	0
 3360 02e2 03       		.uleb128 0x3
 3361 02e3 0E       		.uleb128 0xe
 3362 02e4 3A       		.uleb128 0x3a
 3363 02e5 0B       		.uleb128 0xb
 3364 02e6 3B       		.uleb128 0x3b
 3365 02e7 05       		.uleb128 0x5
 3366 02e8 49       		.uleb128 0x49
 3367 02e9 13       		.uleb128 0x13
 3368 02ea 3F       		.uleb128 0x3f
 3369 02eb 19       		.uleb128 0x19
 3370 02ec 3C       		.uleb128 0x3c
 3371 02ed 19       		.uleb128 0x19
 3372 02ee 00       		.byte	0
 3373 02ef 00       		.byte	0
 3374 02f0 39       		.uleb128 0x39
 3375 02f1 01       		.uleb128 0x1
 3376 02f2 01       		.byte	0x1
 3377 02f3 49       		.uleb128 0x49
 3378 02f4 13       		.uleb128 0x13
 3379 02f5 01       		.uleb128 0x1
 3380 02f6 13       		.uleb128 0x13
 3381 02f7 00       		.byte	0
 3382 02f8 00       		.byte	0
 3383 02f9 3A       		.uleb128 0x3a
 3384 02fa 21       		.uleb128 0x21
 3385 02fb 00       		.byte	0
 3386 02fc 49       		.uleb128 0x49
 3387 02fd 13       		.uleb128 0x13
 3388 02fe 2F       		.uleb128 0x2f
 3389 02ff 0B       		.uleb128 0xb
 3390 0300 00       		.byte	0
 3391 0301 00       		.byte	0
 3392 0302 3B       		.uleb128 0x3b
 3393 0303 34       		.uleb128 0x34
 3394 0304 00       		.byte	0
 3395 0305 03       		.uleb128 0x3
 3396 0306 0E       		.uleb128 0xe
 3397 0307 3A       		.uleb128 0x3a
 3398 0308 0B       		.uleb128 0xb
 3399 0309 3B       		.uleb128 0x3b
 3400 030a 0B       		.uleb128 0xb
 3401 030b 49       		.uleb128 0x49
 3402 030c 13       		.uleb128 0x13
ARM GAS  /tmp/ccJfjU4P.s 			page 61


 3403 030d 3F       		.uleb128 0x3f
 3404 030e 19       		.uleb128 0x19
 3405 030f 02       		.uleb128 0x2
 3406 0310 18       		.uleb128 0x18
 3407 0311 00       		.byte	0
 3408 0312 00       		.byte	0
 3409 0313 3C       		.uleb128 0x3c
 3410 0314 2E       		.uleb128 0x2e
 3411 0315 00       		.byte	0
 3412 0316 3F       		.uleb128 0x3f
 3413 0317 19       		.uleb128 0x19
 3414 0318 03       		.uleb128 0x3
 3415 0319 0E       		.uleb128 0xe
 3416 031a 3A       		.uleb128 0x3a
 3417 031b 0B       		.uleb128 0xb
 3418 031c 3B       		.uleb128 0x3b
 3419 031d 05       		.uleb128 0x5
 3420 031e 27       		.uleb128 0x27
 3421 031f 19       		.uleb128 0x19
 3422 0320 3C       		.uleb128 0x3c
 3423 0321 19       		.uleb128 0x19
 3424 0322 00       		.byte	0
 3425 0323 00       		.byte	0
 3426 0324 3D       		.uleb128 0x3d
 3427 0325 2E       		.uleb128 0x2e
 3428 0326 01       		.byte	0x1
 3429 0327 3F       		.uleb128 0x3f
 3430 0328 19       		.uleb128 0x19
 3431 0329 03       		.uleb128 0x3
 3432 032a 0E       		.uleb128 0xe
 3433 032b 3A       		.uleb128 0x3a
 3434 032c 0B       		.uleb128 0xb
 3435 032d 3B       		.uleb128 0x3b
 3436 032e 0B       		.uleb128 0xb
 3437 032f 27       		.uleb128 0x27
 3438 0330 19       		.uleb128 0x19
 3439 0331 3C       		.uleb128 0x3c
 3440 0332 19       		.uleb128 0x19
 3441 0333 01       		.uleb128 0x1
 3442 0334 13       		.uleb128 0x13
 3443 0335 00       		.byte	0
 3444 0336 00       		.byte	0
 3445 0337 3E       		.uleb128 0x3e
 3446 0338 2E       		.uleb128 0x2e
 3447 0339 01       		.byte	0x1
 3448 033a 3F       		.uleb128 0x3f
 3449 033b 19       		.uleb128 0x19
 3450 033c 03       		.uleb128 0x3
 3451 033d 0E       		.uleb128 0xe
 3452 033e 3A       		.uleb128 0x3a
 3453 033f 0B       		.uleb128 0xb
 3454 0340 3B       		.uleb128 0x3b
 3455 0341 05       		.uleb128 0x5
 3456 0342 27       		.uleb128 0x27
 3457 0343 19       		.uleb128 0x19
 3458 0344 49       		.uleb128 0x49
 3459 0345 13       		.uleb128 0x13
ARM GAS  /tmp/ccJfjU4P.s 			page 62


 3460 0346 3C       		.uleb128 0x3c
 3461 0347 19       		.uleb128 0x19
 3462 0348 01       		.uleb128 0x1
 3463 0349 13       		.uleb128 0x13
 3464 034a 00       		.byte	0
 3465 034b 00       		.byte	0
 3466 034c 3F       		.uleb128 0x3f
 3467 034d 2E       		.uleb128 0x2e
 3468 034e 01       		.byte	0x1
 3469 034f 3F       		.uleb128 0x3f
 3470 0350 19       		.uleb128 0x19
 3471 0351 03       		.uleb128 0x3
 3472 0352 0E       		.uleb128 0xe
 3473 0353 3A       		.uleb128 0x3a
 3474 0354 0B       		.uleb128 0xb
 3475 0355 3B       		.uleb128 0x3b
 3476 0356 05       		.uleb128 0x5
 3477 0357 27       		.uleb128 0x27
 3478 0358 19       		.uleb128 0x19
 3479 0359 3C       		.uleb128 0x3c
 3480 035a 19       		.uleb128 0x19
 3481 035b 01       		.uleb128 0x1
 3482 035c 13       		.uleb128 0x13
 3483 035d 00       		.byte	0
 3484 035e 00       		.byte	0
 3485 035f 40       		.uleb128 0x40
 3486 0360 2E       		.uleb128 0x2e
 3487 0361 01       		.byte	0x1
 3488 0362 3F       		.uleb128 0x3f
 3489 0363 19       		.uleb128 0x19
 3490 0364 03       		.uleb128 0x3
 3491 0365 0E       		.uleb128 0xe
 3492 0366 3A       		.uleb128 0x3a
 3493 0367 0B       		.uleb128 0xb
 3494 0368 3B       		.uleb128 0x3b
 3495 0369 05       		.uleb128 0x5
 3496 036a 27       		.uleb128 0x27
 3497 036b 19       		.uleb128 0x19
 3498 036c 3C       		.uleb128 0x3c
 3499 036d 19       		.uleb128 0x19
 3500 036e 00       		.byte	0
 3501 036f 00       		.byte	0
 3502 0370 00       		.byte	0
 3503              		.section	.debug_loc,"",%progbits
 3504              	.Ldebug_loc0:
 3505              	.LLST0:
 3506 0000 00000000 		.4byte	.LVL3
 3507 0004 08000000 		.4byte	.LVL4
 3508 0008 0100     		.2byte	0x1
 3509 000a 50       		.byte	0x50
 3510 000b 08000000 		.4byte	.LVL4
 3511 000f 50000000 		.4byte	.LVL7
 3512 0013 0100     		.2byte	0x1
 3513 0015 54       		.byte	0x54
 3514 0016 50000000 		.4byte	.LVL7
 3515 001a 53000000 		.4byte	.LVL8-1
 3516 001e 0100     		.2byte	0x1
ARM GAS  /tmp/ccJfjU4P.s 			page 63


 3517 0020 50       		.byte	0x50
 3518 0021 53000000 		.4byte	.LVL8-1
 3519 0025 56000000 		.4byte	.LFE61
 3520 0029 0100     		.2byte	0x1
 3521 002b 54       		.byte	0x54
 3522 002c 00000000 		.4byte	0
 3523 0030 00000000 		.4byte	0
 3524              	.LLST1:
 3525 0034 00000000 		.4byte	.LVL3
 3526 0038 08000000 		.4byte	.LVL4
 3527 003c 0100     		.2byte	0x1
 3528 003e 51       		.byte	0x51
 3529 003f 08000000 		.4byte	.LVL4
 3530 0043 50000000 		.4byte	.LVL7
 3531 0047 0400     		.2byte	0x4
 3532 0049 F3       		.byte	0xf3
 3533 004a 01       		.uleb128 0x1
 3534 004b 51       		.byte	0x51
 3535 004c 9F       		.byte	0x9f
 3536 004d 50000000 		.4byte	.LVL7
 3537 0051 53000000 		.4byte	.LVL8-1
 3538 0055 0100     		.2byte	0x1
 3539 0057 51       		.byte	0x51
 3540 0058 53000000 		.4byte	.LVL8-1
 3541 005c 56000000 		.4byte	.LFE61
 3542 0060 0400     		.2byte	0x4
 3543 0062 F3       		.byte	0xf3
 3544 0063 01       		.uleb128 0x1
 3545 0064 51       		.byte	0x51
 3546 0065 9F       		.byte	0x9f
 3547 0066 00000000 		.4byte	0
 3548 006a 00000000 		.4byte	0
 3549              	.LLST2:
 3550 006e 00000000 		.4byte	.LVL9
 3551 0072 08000000 		.4byte	.LVL10
 3552 0076 0100     		.2byte	0x1
 3553 0078 50       		.byte	0x50
 3554 0079 08000000 		.4byte	.LVL10
 3555 007d 4C000000 		.4byte	.LVL15
 3556 0081 0100     		.2byte	0x1
 3557 0083 54       		.byte	0x54
 3558 0084 4C000000 		.4byte	.LVL15
 3559 0088 4F000000 		.4byte	.LVL16-1
 3560 008c 0100     		.2byte	0x1
 3561 008e 50       		.byte	0x50
 3562 008f 4F000000 		.4byte	.LVL16-1
 3563 0093 5C000000 		.4byte	.LVL18
 3564 0097 0100     		.2byte	0x1
 3565 0099 54       		.byte	0x54
 3566 009a 5C000000 		.4byte	.LVL18
 3567 009e 5F000000 		.4byte	.LVL19-1
 3568 00a2 0100     		.2byte	0x1
 3569 00a4 50       		.byte	0x50
 3570 00a5 5F000000 		.4byte	.LVL19-1
 3571 00a9 60000000 		.4byte	.LFE60
 3572 00ad 0400     		.2byte	0x4
 3573 00af F3       		.byte	0xf3
ARM GAS  /tmp/ccJfjU4P.s 			page 64


 3574 00b0 01       		.uleb128 0x1
 3575 00b1 50       		.byte	0x50
 3576 00b2 9F       		.byte	0x9f
 3577 00b3 00000000 		.4byte	0
 3578 00b7 00000000 		.4byte	0
 3579              	.LLST3:
 3580 00bb 00000000 		.4byte	.LVL9
 3581 00bf 08000000 		.4byte	.LVL10
 3582 00c3 0100     		.2byte	0x1
 3583 00c5 51       		.byte	0x51
 3584 00c6 08000000 		.4byte	.LVL10
 3585 00ca 4C000000 		.4byte	.LVL15
 3586 00ce 0400     		.2byte	0x4
 3587 00d0 F3       		.byte	0xf3
 3588 00d1 01       		.uleb128 0x1
 3589 00d2 51       		.byte	0x51
 3590 00d3 9F       		.byte	0x9f
 3591 00d4 4C000000 		.4byte	.LVL15
 3592 00d8 4F000000 		.4byte	.LVL16-1
 3593 00dc 0100     		.2byte	0x1
 3594 00de 51       		.byte	0x51
 3595 00df 4F000000 		.4byte	.LVL16-1
 3596 00e3 60000000 		.4byte	.LFE60
 3597 00e7 0400     		.2byte	0x4
 3598 00e9 F3       		.byte	0xf3
 3599 00ea 01       		.uleb128 0x1
 3600 00eb 51       		.byte	0x51
 3601 00ec 9F       		.byte	0x9f
 3602 00ed 00000000 		.4byte	0
 3603 00f1 00000000 		.4byte	0
 3604              	.LLST4:
 3605 00f5 1C000000 		.4byte	.LVL12
 3606 00f9 4A000000 		.4byte	.LVL14
 3607 00fd 0400     		.2byte	0x4
 3608 00ff F3       		.byte	0xf3
 3609 0100 01       		.uleb128 0x1
 3610 0101 51       		.byte	0x51
 3611 0102 9F       		.byte	0x9f
 3612 0103 52000000 		.4byte	.LVL17
 3613 0107 60000000 		.4byte	.LFE60
 3614 010b 0400     		.2byte	0x4
 3615 010d F3       		.byte	0xf3
 3616 010e 01       		.uleb128 0x1
 3617 010f 51       		.byte	0x51
 3618 0110 9F       		.byte	0x9f
 3619 0111 00000000 		.4byte	0
 3620 0115 00000000 		.4byte	0
 3621              	.LLST5:
 3622 0119 1C000000 		.4byte	.LVL12
 3623 011d 4A000000 		.4byte	.LVL14
 3624 0121 0100     		.2byte	0x1
 3625 0123 54       		.byte	0x54
 3626 0124 52000000 		.4byte	.LVL17
 3627 0128 5C000000 		.4byte	.LVL18
 3628 012c 0100     		.2byte	0x1
 3629 012e 54       		.byte	0x54
 3630 012f 5C000000 		.4byte	.LVL18
ARM GAS  /tmp/ccJfjU4P.s 			page 65


 3631 0133 5F000000 		.4byte	.LVL19-1
 3632 0137 0100     		.2byte	0x1
 3633 0139 50       		.byte	0x50
 3634 013a 5F000000 		.4byte	.LVL19-1
 3635 013e 60000000 		.4byte	.LFE60
 3636 0142 0400     		.2byte	0x4
 3637 0144 F3       		.byte	0xf3
 3638 0145 01       		.uleb128 0x1
 3639 0146 50       		.byte	0x50
 3640 0147 9F       		.byte	0x9f
 3641 0148 00000000 		.4byte	0
 3642 014c 00000000 		.4byte	0
 3643              	.LLST6:
 3644 0150 18000000 		.4byte	.LVL23
 3645 0154 84000000 		.4byte	.LVL32
 3646 0158 0100     		.2byte	0x1
 3647 015a 56       		.byte	0x56
 3648 015b 00000000 		.4byte	0
 3649 015f 00000000 		.4byte	0
 3650              	.LLST7:
 3651 0163 0C000000 		.4byte	.LVL21
 3652 0167 84000000 		.4byte	.LVL32
 3653 016b 0100     		.2byte	0x1
 3654 016d 54       		.byte	0x54
 3655 016e 00000000 		.4byte	0
 3656 0172 00000000 		.4byte	0
 3657              	.LLST8:
 3658 0176 16000000 		.4byte	.LVL22
 3659 017a 84000000 		.4byte	.LVL32
 3660 017e 0700     		.2byte	0x7
 3661 0180 77       		.byte	0x77
 3662 0181 00       		.sleb128 0
 3663 0182 0A       		.byte	0xa
 3664 0183 FFFF     		.2byte	0xffff
 3665 0185 1A       		.byte	0x1a
 3666 0186 9F       		.byte	0x9f
 3667 0187 00000000 		.4byte	0
 3668 018b 00000000 		.4byte	0
 3669              	.LLST9:
 3670 018f 2A000000 		.4byte	.LVL24
 3671 0193 5E000000 		.4byte	.LVL30
 3672 0197 0100     		.2byte	0x1
 3673 0199 56       		.byte	0x56
 3674 019a 00000000 		.4byte	0
 3675 019e 00000000 		.4byte	0
 3676              	.LLST10:
 3677 01a2 2A000000 		.4byte	.LVL24
 3678 01a6 34000000 		.4byte	.LVL25
 3679 01aa 0200     		.2byte	0x2
 3680 01ac 30       		.byte	0x30
 3681 01ad 9F       		.byte	0x9f
 3682 01ae 34000000 		.4byte	.LVL25
 3683 01b2 5D000000 		.4byte	.LVL30-1
 3684 01b6 0100     		.2byte	0x1
 3685 01b8 51       		.byte	0x51
 3686 01b9 5D000000 		.4byte	.LVL30-1
 3687 01bd 5E000000 		.4byte	.LVL30
ARM GAS  /tmp/ccJfjU4P.s 			page 66


 3688 01c1 9701     		.2byte	0x197
 3689 01c3 40       		.byte	0x40
 3690 01c4 30       		.byte	0x30
 3691 01c5 76       		.byte	0x76
 3692 01c6 00       		.sleb128 0
 3693 01c7 33       		.byte	0x33
 3694 01c8 25       		.byte	0x25
 3695 01c9 30       		.byte	0x30
 3696 01ca 2E       		.byte	0x2e
 3697 01cb 28       		.byte	0x28
 3698 01cc 0100     		.2byte	0x1
 3699 01ce 16       		.byte	0x16
 3700 01cf 13       		.byte	0x13
 3701 01d0 34       		.byte	0x34
 3702 01d1 21       		.byte	0x21
 3703 01d2 40       		.byte	0x40
 3704 01d3 30       		.byte	0x30
 3705 01d4 76       		.byte	0x76
 3706 01d5 00       		.sleb128 0
 3707 01d6 33       		.byte	0x33
 3708 01d7 25       		.byte	0x25
 3709 01d8 30       		.byte	0x30
 3710 01d9 2E       		.byte	0x2e
 3711 01da 28       		.byte	0x28
 3712 01db 0100     		.2byte	0x1
 3713 01dd 16       		.byte	0x16
 3714 01de 13       		.byte	0x13
 3715 01df 76       		.byte	0x76
 3716 01e0 00       		.sleb128 0
 3717 01e1 4F       		.byte	0x4f
 3718 01e2 24       		.byte	0x24
 3719 01e3 30       		.byte	0x30
 3720 01e4 2D       		.byte	0x2d
 3721 01e5 28       		.byte	0x28
 3722 01e6 0100     		.2byte	0x1
 3723 01e8 16       		.byte	0x16
 3724 01e9 13       		.byte	0x13
 3725 01ea 38       		.byte	0x38
 3726 01eb 21       		.byte	0x21
 3727 01ec 40       		.byte	0x40
 3728 01ed 30       		.byte	0x30
 3729 01ee 76       		.byte	0x76
 3730 01ef 00       		.sleb128 0
 3731 01f0 33       		.byte	0x33
 3732 01f1 25       		.byte	0x25
 3733 01f2 30       		.byte	0x30
 3734 01f3 2E       		.byte	0x2e
 3735 01f4 28       		.byte	0x28
 3736 01f5 0100     		.2byte	0x1
 3737 01f7 16       		.byte	0x16
 3738 01f8 13       		.byte	0x13
 3739 01f9 34       		.byte	0x34
 3740 01fa 21       		.byte	0x21
 3741 01fb 40       		.byte	0x40
 3742 01fc 30       		.byte	0x30
 3743 01fd 76       		.byte	0x76
 3744 01fe 00       		.sleb128 0
ARM GAS  /tmp/ccJfjU4P.s 			page 67


 3745 01ff 33       		.byte	0x33
 3746 0200 25       		.byte	0x25
 3747 0201 30       		.byte	0x30
 3748 0202 2E       		.byte	0x2e
 3749 0203 28       		.byte	0x28
 3750 0204 0100     		.2byte	0x1
 3751 0206 16       		.byte	0x16
 3752 0207 13       		.byte	0x13
 3753 0208 76       		.byte	0x76
 3754 0209 00       		.sleb128 0
 3755 020a 4F       		.byte	0x4f
 3756 020b 24       		.byte	0x24
 3757 020c 30       		.byte	0x30
 3758 020d 2D       		.byte	0x2d
 3759 020e 28       		.byte	0x28
 3760 020f 0100     		.2byte	0x1
 3761 0211 16       		.byte	0x16
 3762 0212 13       		.byte	0x13
 3763 0213 76       		.byte	0x76
 3764 0214 00       		.sleb128 0
 3765 0215 4E       		.byte	0x4e
 3766 0216 24       		.byte	0x24
 3767 0217 30       		.byte	0x30
 3768 0218 2D       		.byte	0x2d
 3769 0219 28       		.byte	0x28
 3770 021a 0100     		.2byte	0x1
 3771 021c 16       		.byte	0x16
 3772 021d 13       		.byte	0x13
 3773 021e 08       		.byte	0x8
 3774 021f 20       		.byte	0x20
 3775 0220 21       		.byte	0x21
 3776 0221 40       		.byte	0x40
 3777 0222 30       		.byte	0x30
 3778 0223 76       		.byte	0x76
 3779 0224 00       		.sleb128 0
 3780 0225 33       		.byte	0x33
 3781 0226 25       		.byte	0x25
 3782 0227 30       		.byte	0x30
 3783 0228 2E       		.byte	0x2e
 3784 0229 28       		.byte	0x28
 3785 022a 0100     		.2byte	0x1
 3786 022c 16       		.byte	0x16
 3787 022d 13       		.byte	0x13
 3788 022e 34       		.byte	0x34
 3789 022f 21       		.byte	0x21
 3790 0230 40       		.byte	0x40
 3791 0231 30       		.byte	0x30
 3792 0232 76       		.byte	0x76
 3793 0233 00       		.sleb128 0
 3794 0234 33       		.byte	0x33
 3795 0235 25       		.byte	0x25
 3796 0236 30       		.byte	0x30
 3797 0237 2E       		.byte	0x2e
 3798 0238 28       		.byte	0x28
 3799 0239 0100     		.2byte	0x1
 3800 023b 16       		.byte	0x16
 3801 023c 13       		.byte	0x13
ARM GAS  /tmp/ccJfjU4P.s 			page 68


 3802 023d 76       		.byte	0x76
 3803 023e 00       		.sleb128 0
 3804 023f 4F       		.byte	0x4f
 3805 0240 24       		.byte	0x24
 3806 0241 30       		.byte	0x30
 3807 0242 2D       		.byte	0x2d
 3808 0243 28       		.byte	0x28
 3809 0244 0100     		.2byte	0x1
 3810 0246 16       		.byte	0x16
 3811 0247 13       		.byte	0x13
 3812 0248 38       		.byte	0x38
 3813 0249 21       		.byte	0x21
 3814 024a 40       		.byte	0x40
 3815 024b 30       		.byte	0x30
 3816 024c 76       		.byte	0x76
 3817 024d 00       		.sleb128 0
 3818 024e 33       		.byte	0x33
 3819 024f 25       		.byte	0x25
 3820 0250 30       		.byte	0x30
 3821 0251 2E       		.byte	0x2e
 3822 0252 28       		.byte	0x28
 3823 0253 0100     		.2byte	0x1
 3824 0255 16       		.byte	0x16
 3825 0256 13       		.byte	0x13
 3826 0257 34       		.byte	0x34
 3827 0258 21       		.byte	0x21
 3828 0259 40       		.byte	0x40
 3829 025a 30       		.byte	0x30
 3830 025b 76       		.byte	0x76
 3831 025c 00       		.sleb128 0
 3832 025d 33       		.byte	0x33
 3833 025e 25       		.byte	0x25
 3834 025f 30       		.byte	0x30
 3835 0260 2E       		.byte	0x2e
 3836 0261 28       		.byte	0x28
 3837 0262 0100     		.2byte	0x1
 3838 0264 16       		.byte	0x16
 3839 0265 13       		.byte	0x13
 3840 0266 76       		.byte	0x76
 3841 0267 00       		.sleb128 0
 3842 0268 4F       		.byte	0x4f
 3843 0269 24       		.byte	0x24
 3844 026a 30       		.byte	0x30
 3845 026b 2D       		.byte	0x2d
 3846 026c 28       		.byte	0x28
 3847 026d 0100     		.2byte	0x1
 3848 026f 16       		.byte	0x16
 3849 0270 13       		.byte	0x13
 3850 0271 76       		.byte	0x76
 3851 0272 00       		.sleb128 0
 3852 0273 4E       		.byte	0x4e
 3853 0274 24       		.byte	0x24
 3854 0275 30       		.byte	0x30
 3855 0276 2D       		.byte	0x2d
 3856 0277 28       		.byte	0x28
 3857 0278 0100     		.2byte	0x1
 3858 027a 16       		.byte	0x16
ARM GAS  /tmp/ccJfjU4P.s 			page 69


 3859 027b 13       		.byte	0x13
 3860 027c 76       		.byte	0x76
 3861 027d 00       		.sleb128 0
 3862 027e 4D       		.byte	0x4d
 3863 027f 24       		.byte	0x24
 3864 0280 30       		.byte	0x30
 3865 0281 2D       		.byte	0x2d
 3866 0282 28       		.byte	0x28
 3867 0283 0100     		.2byte	0x1
 3868 0285 16       		.byte	0x16
 3869 0286 13       		.byte	0x13
 3870 0287 08       		.byte	0x8
 3871 0288 40       		.byte	0x40
 3872 0289 21       		.byte	0x21
 3873 028a 40       		.byte	0x40
 3874 028b 30       		.byte	0x30
 3875 028c 76       		.byte	0x76
 3876 028d 00       		.sleb128 0
 3877 028e 33       		.byte	0x33
 3878 028f 25       		.byte	0x25
 3879 0290 30       		.byte	0x30
 3880 0291 2E       		.byte	0x2e
 3881 0292 28       		.byte	0x28
 3882 0293 0100     		.2byte	0x1
 3883 0295 16       		.byte	0x16
 3884 0296 13       		.byte	0x13
 3885 0297 34       		.byte	0x34
 3886 0298 21       		.byte	0x21
 3887 0299 40       		.byte	0x40
 3888 029a 30       		.byte	0x30
 3889 029b 76       		.byte	0x76
 3890 029c 00       		.sleb128 0
 3891 029d 33       		.byte	0x33
 3892 029e 25       		.byte	0x25
 3893 029f 30       		.byte	0x30
 3894 02a0 2E       		.byte	0x2e
 3895 02a1 28       		.byte	0x28
 3896 02a2 0100     		.2byte	0x1
 3897 02a4 16       		.byte	0x16
 3898 02a5 13       		.byte	0x13
 3899 02a6 76       		.byte	0x76
 3900 02a7 00       		.sleb128 0
 3901 02a8 4F       		.byte	0x4f
 3902 02a9 24       		.byte	0x24
 3903 02aa 30       		.byte	0x30
 3904 02ab 2D       		.byte	0x2d
 3905 02ac 28       		.byte	0x28
 3906 02ad 0100     		.2byte	0x1
 3907 02af 16       		.byte	0x16
 3908 02b0 13       		.byte	0x13
 3909 02b1 38       		.byte	0x38
 3910 02b2 21       		.byte	0x21
 3911 02b3 40       		.byte	0x40
 3912 02b4 30       		.byte	0x30
 3913 02b5 76       		.byte	0x76
 3914 02b6 00       		.sleb128 0
 3915 02b7 33       		.byte	0x33
ARM GAS  /tmp/ccJfjU4P.s 			page 70


 3916 02b8 25       		.byte	0x25
 3917 02b9 30       		.byte	0x30
 3918 02ba 2E       		.byte	0x2e
 3919 02bb 28       		.byte	0x28
 3920 02bc 0100     		.2byte	0x1
 3921 02be 16       		.byte	0x16
 3922 02bf 13       		.byte	0x13
 3923 02c0 34       		.byte	0x34
 3924 02c1 21       		.byte	0x21
 3925 02c2 40       		.byte	0x40
 3926 02c3 30       		.byte	0x30
 3927 02c4 76       		.byte	0x76
 3928 02c5 00       		.sleb128 0
 3929 02c6 33       		.byte	0x33
 3930 02c7 25       		.byte	0x25
 3931 02c8 30       		.byte	0x30
 3932 02c9 2E       		.byte	0x2e
 3933 02ca 28       		.byte	0x28
 3934 02cb 0100     		.2byte	0x1
 3935 02cd 16       		.byte	0x16
 3936 02ce 13       		.byte	0x13
 3937 02cf 76       		.byte	0x76
 3938 02d0 00       		.sleb128 0
 3939 02d1 4F       		.byte	0x4f
 3940 02d2 24       		.byte	0x24
 3941 02d3 30       		.byte	0x30
 3942 02d4 2D       		.byte	0x2d
 3943 02d5 28       		.byte	0x28
 3944 02d6 0100     		.2byte	0x1
 3945 02d8 16       		.byte	0x16
 3946 02d9 13       		.byte	0x13
 3947 02da 76       		.byte	0x76
 3948 02db 00       		.sleb128 0
 3949 02dc 4E       		.byte	0x4e
 3950 02dd 24       		.byte	0x24
 3951 02de 30       		.byte	0x30
 3952 02df 2D       		.byte	0x2d
 3953 02e0 28       		.byte	0x28
 3954 02e1 0100     		.2byte	0x1
 3955 02e3 16       		.byte	0x16
 3956 02e4 13       		.byte	0x13
 3957 02e5 08       		.byte	0x8
 3958 02e6 20       		.byte	0x20
 3959 02e7 21       		.byte	0x21
 3960 02e8 40       		.byte	0x40
 3961 02e9 30       		.byte	0x30
 3962 02ea 76       		.byte	0x76
 3963 02eb 00       		.sleb128 0
 3964 02ec 33       		.byte	0x33
 3965 02ed 25       		.byte	0x25
 3966 02ee 30       		.byte	0x30
 3967 02ef 2E       		.byte	0x2e
 3968 02f0 28       		.byte	0x28
 3969 02f1 0100     		.2byte	0x1
 3970 02f3 16       		.byte	0x16
 3971 02f4 13       		.byte	0x13
 3972 02f5 34       		.byte	0x34
ARM GAS  /tmp/ccJfjU4P.s 			page 71


 3973 02f6 21       		.byte	0x21
 3974 02f7 40       		.byte	0x40
 3975 02f8 30       		.byte	0x30
 3976 02f9 76       		.byte	0x76
 3977 02fa 00       		.sleb128 0
 3978 02fb 33       		.byte	0x33
 3979 02fc 25       		.byte	0x25
 3980 02fd 30       		.byte	0x30
 3981 02fe 2E       		.byte	0x2e
 3982 02ff 28       		.byte	0x28
 3983 0300 0100     		.2byte	0x1
 3984 0302 16       		.byte	0x16
 3985 0303 13       		.byte	0x13
 3986 0304 76       		.byte	0x76
 3987 0305 00       		.sleb128 0
 3988 0306 4F       		.byte	0x4f
 3989 0307 24       		.byte	0x24
 3990 0308 30       		.byte	0x30
 3991 0309 2D       		.byte	0x2d
 3992 030a 28       		.byte	0x28
 3993 030b 0100     		.2byte	0x1
 3994 030d 16       		.byte	0x16
 3995 030e 13       		.byte	0x13
 3996 030f 38       		.byte	0x38
 3997 0310 21       		.byte	0x21
 3998 0311 40       		.byte	0x40
 3999 0312 30       		.byte	0x30
 4000 0313 76       		.byte	0x76
 4001 0314 00       		.sleb128 0
 4002 0315 33       		.byte	0x33
 4003 0316 25       		.byte	0x25
 4004 0317 30       		.byte	0x30
 4005 0318 2E       		.byte	0x2e
 4006 0319 28       		.byte	0x28
 4007 031a 0100     		.2byte	0x1
 4008 031c 16       		.byte	0x16
 4009 031d 13       		.byte	0x13
 4010 031e 34       		.byte	0x34
 4011 031f 21       		.byte	0x21
 4012 0320 40       		.byte	0x40
 4013 0321 30       		.byte	0x30
 4014 0322 76       		.byte	0x76
 4015 0323 00       		.sleb128 0
 4016 0324 33       		.byte	0x33
 4017 0325 25       		.byte	0x25
 4018 0326 30       		.byte	0x30
 4019 0327 2E       		.byte	0x2e
 4020 0328 28       		.byte	0x28
 4021 0329 0100     		.2byte	0x1
 4022 032b 16       		.byte	0x16
 4023 032c 13       		.byte	0x13
 4024 032d 76       		.byte	0x76
 4025 032e 00       		.sleb128 0
 4026 032f 4F       		.byte	0x4f
 4027 0330 24       		.byte	0x24
 4028 0331 30       		.byte	0x30
 4029 0332 2D       		.byte	0x2d
ARM GAS  /tmp/ccJfjU4P.s 			page 72


 4030 0333 28       		.byte	0x28
 4031 0334 0100     		.2byte	0x1
 4032 0336 16       		.byte	0x16
 4033 0337 13       		.byte	0x13
 4034 0338 76       		.byte	0x76
 4035 0339 00       		.sleb128 0
 4036 033a 4E       		.byte	0x4e
 4037 033b 24       		.byte	0x24
 4038 033c 30       		.byte	0x30
 4039 033d 2D       		.byte	0x2d
 4040 033e 28       		.byte	0x28
 4041 033f 0100     		.2byte	0x1
 4042 0341 16       		.byte	0x16
 4043 0342 13       		.byte	0x13
 4044 0343 76       		.byte	0x76
 4045 0344 00       		.sleb128 0
 4046 0345 4D       		.byte	0x4d
 4047 0346 24       		.byte	0x24
 4048 0347 30       		.byte	0x30
 4049 0348 2D       		.byte	0x2d
 4050 0349 28       		.byte	0x28
 4051 034a 0100     		.2byte	0x1
 4052 034c 16       		.byte	0x16
 4053 034d 13       		.byte	0x13
 4054 034e 76       		.byte	0x76
 4055 034f 00       		.sleb128 0
 4056 0350 47       		.byte	0x47
 4057 0351 24       		.byte	0x24
 4058 0352 30       		.byte	0x30
 4059 0353 2D       		.byte	0x2d
 4060 0354 28       		.byte	0x28
 4061 0355 0100     		.2byte	0x1
 4062 0357 16       		.byte	0x16
 4063 0358 13       		.byte	0x13
 4064 0359 9F       		.byte	0x9f
 4065 035a 00000000 		.4byte	0
 4066 035e 00000000 		.4byte	0
 4067              	.LLST11:
 4068 0362 00000000 		.4byte	.LVL35
 4069 0366 0A000000 		.4byte	.LVL36
 4070 036a 0100     		.2byte	0x1
 4071 036c 50       		.byte	0x50
 4072 036d 0A000000 		.4byte	.LVL36
 4073 0371 7C000000 		.4byte	.LVL41
 4074 0375 0100     		.2byte	0x1
 4075 0377 54       		.byte	0x54
 4076 0378 7C000000 		.4byte	.LVL41
 4077 037c 7F000000 		.4byte	.LVL42-1
 4078 0380 0100     		.2byte	0x1
 4079 0382 50       		.byte	0x50
 4080 0383 7F000000 		.4byte	.LVL42-1
 4081 0387 80000000 		.4byte	.LVL42
 4082 038b 0400     		.2byte	0x4
 4083 038d F3       		.byte	0xf3
 4084 038e 01       		.uleb128 0x1
 4085 038f 50       		.byte	0x50
 4086 0390 9F       		.byte	0x9f
ARM GAS  /tmp/ccJfjU4P.s 			page 73


 4087 0391 80000000 		.4byte	.LVL42
 4088 0395 8C000000 		.4byte	.LVL43
 4089 0399 0100     		.2byte	0x1
 4090 039b 50       		.byte	0x50
 4091 039c 8C000000 		.4byte	.LVL43
 4092 03a0 BC000000 		.4byte	.LVL44
 4093 03a4 0100     		.2byte	0x1
 4094 03a6 54       		.byte	0x54
 4095 03a7 BC000000 		.4byte	.LVL44
 4096 03ab CA000000 		.4byte	.LVL45
 4097 03af 0100     		.2byte	0x1
 4098 03b1 50       		.byte	0x50
 4099 03b2 CA000000 		.4byte	.LVL45
 4100 03b6 FA000000 		.4byte	.LFE65
 4101 03ba 0100     		.2byte	0x1
 4102 03bc 54       		.byte	0x54
 4103 03bd 00000000 		.4byte	0
 4104 03c1 00000000 		.4byte	0
 4105              	.LLST12:
 4106 03c5 10000000 		.4byte	.LVL37
 4107 03c9 7C000000 		.4byte	.LVL41
 4108 03cd 0100     		.2byte	0x1
 4109 03cf 54       		.byte	0x54
 4110 03d0 7C000000 		.4byte	.LVL41
 4111 03d4 7F000000 		.4byte	.LVL42-1
 4112 03d8 0100     		.2byte	0x1
 4113 03da 50       		.byte	0x50
 4114 03db 7F000000 		.4byte	.LVL42-1
 4115 03df 80000000 		.4byte	.LVL42
 4116 03e3 0400     		.2byte	0x4
 4117 03e5 F3       		.byte	0xf3
 4118 03e6 01       		.uleb128 0x1
 4119 03e7 50       		.byte	0x50
 4120 03e8 9F       		.byte	0x9f
 4121 03e9 00000000 		.4byte	0
 4122 03ed 00000000 		.4byte	0
 4123              	.LLST13:
 4124 03f1 68000000 		.4byte	.LVL40
 4125 03f5 80000000 		.4byte	.LVL42
 4126 03f9 0400     		.2byte	0x4
 4127 03fb 0A       		.byte	0xa
 4128 03fc 0C21     		.2byte	0x210c
 4129 03fe 9F       		.byte	0x9f
 4130 03ff 00000000 		.4byte	0
 4131 0403 00000000 		.4byte	0
 4132              	.LLST14:
 4133 0407 14000000 		.4byte	.LVL38
 4134 040b 7C000000 		.4byte	.LVL41
 4135 040f 0100     		.2byte	0x1
 4136 0411 55       		.byte	0x55
 4137 0412 00000000 		.4byte	0
 4138 0416 00000000 		.4byte	0
 4139              	.LLST15:
 4140 041a 00000000 		.4byte	.LVL49
 4141 041e 0A000000 		.4byte	.LVL50
 4142 0422 0100     		.2byte	0x1
 4143 0424 50       		.byte	0x50
ARM GAS  /tmp/ccJfjU4P.s 			page 74


 4144 0425 0A000000 		.4byte	.LVL50
 4145 0429 0C000000 		.4byte	.LVL51
 4146 042d 0100     		.2byte	0x1
 4147 042f 54       		.byte	0x54
 4148 0430 0C000000 		.4byte	.LVL51
 4149 0434 0F000000 		.4byte	.LVL52-1
 4150 0438 0100     		.2byte	0x1
 4151 043a 50       		.byte	0x50
 4152 043b 0F000000 		.4byte	.LVL52-1
 4153 043f 40000000 		.4byte	.LFE66
 4154 0443 0100     		.2byte	0x1
 4155 0445 54       		.byte	0x54
 4156 0446 00000000 		.4byte	0
 4157 044a 00000000 		.4byte	0
 4158              	.LLST16:
 4159 044e 00000000 		.4byte	.LVL56
 4160 0452 0E000000 		.4byte	.LVL57
 4161 0456 0100     		.2byte	0x1
 4162 0458 52       		.byte	0x52
 4163 0459 0E000000 		.4byte	.LVL57
 4164 045d 26000000 		.4byte	.LFE67
 4165 0461 0400     		.2byte	0x4
 4166 0463 F3       		.byte	0xf3
 4167 0464 01       		.uleb128 0x1
 4168 0465 52       		.byte	0x52
 4169 0466 9F       		.byte	0x9f
 4170 0467 00000000 		.4byte	0
 4171 046b 00000000 		.4byte	0
 4172              	.LLST17:
 4173 046f 00000000 		.4byte	.LVL58
 4174 0473 20000000 		.4byte	.LVL59
 4175 0477 0100     		.2byte	0x1
 4176 0479 50       		.byte	0x50
 4177 047a 20000000 		.4byte	.LVL59
 4178 047e 22000000 		.4byte	.LFE68
 4179 0482 0400     		.2byte	0x4
 4180 0484 F3       		.byte	0xf3
 4181 0485 01       		.uleb128 0x1
 4182 0486 50       		.byte	0x50
 4183 0487 9F       		.byte	0x9f
 4184 0488 00000000 		.4byte	0
 4185 048c 00000000 		.4byte	0
 4186              	.LLST18:
 4187 0490 00000000 		.4byte	.LVL60
 4188 0494 28000000 		.4byte	.LVL61
 4189 0498 0100     		.2byte	0x1
 4190 049a 52       		.byte	0x52
 4191 049b 28000000 		.4byte	.LVL61
 4192 049f 42000000 		.4byte	.LFE69
 4193 04a3 0400     		.2byte	0x4
 4194 04a5 F3       		.byte	0xf3
 4195 04a6 01       		.uleb128 0x1
 4196 04a7 52       		.byte	0x52
 4197 04a8 9F       		.byte	0x9f
 4198 04a9 00000000 		.4byte	0
 4199 04ad 00000000 		.4byte	0
 4200              	.LLST19:
ARM GAS  /tmp/ccJfjU4P.s 			page 75


 4201 04b1 00000000 		.4byte	.LVL62
 4202 04b5 25000000 		.4byte	.LVL64-1
 4203 04b9 0100     		.2byte	0x1
 4204 04bb 50       		.byte	0x50
 4205 04bc 25000000 		.4byte	.LVL64-1
 4206 04c0 2A000000 		.4byte	.LFE70
 4207 04c4 0400     		.2byte	0x4
 4208 04c6 F3       		.byte	0xf3
 4209 04c7 01       		.uleb128 0x1
 4210 04c8 50       		.byte	0x50
 4211 04c9 9F       		.byte	0x9f
 4212 04ca 00000000 		.4byte	0
 4213 04ce 00000000 		.4byte	0
 4214              		.section	.debug_aranges,"",%progbits
 4215 0000 74000000 		.4byte	0x74
 4216 0004 0200     		.2byte	0x2
 4217 0006 00000000 		.4byte	.Ldebug_info0
 4218 000a 04       		.byte	0x4
 4219 000b 00       		.byte	0
 4220 000c 0000     		.2byte	0
 4221 000e 0000     		.2byte	0
 4222 0010 00000000 		.4byte	.LFB57
 4223 0014 3A000000 		.4byte	.LFE57-.LFB57
 4224 0018 00000000 		.4byte	.LFB58
 4225 001c 46000000 		.4byte	.LFE58-.LFB58
 4226 0020 00000000 		.4byte	.LFB61
 4227 0024 56000000 		.4byte	.LFE61-.LFB61
 4228 0028 00000000 		.4byte	.LFB60
 4229 002c 60000000 		.4byte	.LFE60-.LFB60
 4230 0030 00000000 		.4byte	.LFB63
 4231 0034 88000000 		.4byte	.LFE63-.LFB63
 4232 0038 00000000 		.4byte	.LFB64
 4233 003c 30000000 		.4byte	.LFE64-.LFB64
 4234 0040 00000000 		.4byte	.LFB65
 4235 0044 FA000000 		.4byte	.LFE65-.LFB65
 4236 0048 00000000 		.4byte	.LFB66
 4237 004c 40000000 		.4byte	.LFE66-.LFB66
 4238 0050 00000000 		.4byte	.LFB67
 4239 0054 26000000 		.4byte	.LFE67-.LFB67
 4240 0058 00000000 		.4byte	.LFB68
 4241 005c 22000000 		.4byte	.LFE68-.LFB68
 4242 0060 00000000 		.4byte	.LFB69
 4243 0064 42000000 		.4byte	.LFE69-.LFB69
 4244 0068 00000000 		.4byte	.LFB70
 4245 006c 2A000000 		.4byte	.LFE70-.LFB70
 4246 0070 00000000 		.4byte	0
 4247 0074 00000000 		.4byte	0
 4248              		.section	.debug_ranges,"",%progbits
 4249              	.Ldebug_ranges0:
 4250 0000 1C000000 		.4byte	.LBB4
 4251 0004 4C000000 		.4byte	.LBE4
 4252 0008 52000000 		.4byte	.LBB8
 4253 000c 58000000 		.4byte	.LBE8
 4254 0010 5C000000 		.4byte	.LBB9
 4255 0014 60000000 		.4byte	.LBE9
 4256 0018 00000000 		.4byte	0
 4257 001c 00000000 		.4byte	0
ARM GAS  /tmp/ccJfjU4P.s 			page 76


 4258 0020 2A000000 		.4byte	.LBB16
 4259 0024 4C000000 		.4byte	.LBE16
 4260 0028 50000000 		.4byte	.LBB19
 4261 002c 58000000 		.4byte	.LBE19
 4262 0030 00000000 		.4byte	0
 4263 0034 00000000 		.4byte	0
 4264 0038 10000000 		.4byte	.LBB23
 4265 003c 78000000 		.4byte	.LBE23
 4266 0040 7C000000 		.4byte	.LBB26
 4267 0044 80000000 		.4byte	.LBE26
 4268 0048 00000000 		.4byte	0
 4269 004c 00000000 		.4byte	0
 4270 0050 00000000 		.4byte	.LFB57
 4271 0054 3A000000 		.4byte	.LFE57
 4272 0058 00000000 		.4byte	.LFB58
 4273 005c 46000000 		.4byte	.LFE58
 4274 0060 00000000 		.4byte	.LFB61
 4275 0064 56000000 		.4byte	.LFE61
 4276 0068 00000000 		.4byte	.LFB60
 4277 006c 60000000 		.4byte	.LFE60
 4278 0070 00000000 		.4byte	.LFB63
 4279 0074 88000000 		.4byte	.LFE63
 4280 0078 00000000 		.4byte	.LFB64
 4281 007c 30000000 		.4byte	.LFE64
 4282 0080 00000000 		.4byte	.LFB65
 4283 0084 FA000000 		.4byte	.LFE65
 4284 0088 00000000 		.4byte	.LFB66
 4285 008c 40000000 		.4byte	.LFE66
 4286 0090 00000000 		.4byte	.LFB67
 4287 0094 26000000 		.4byte	.LFE67
 4288 0098 00000000 		.4byte	.LFB68
 4289 009c 22000000 		.4byte	.LFE68
 4290 00a0 00000000 		.4byte	.LFB69
 4291 00a4 42000000 		.4byte	.LFE69
 4292 00a8 00000000 		.4byte	.LFB70
 4293 00ac 2A000000 		.4byte	.LFE70
 4294 00b0 00000000 		.4byte	0
 4295 00b4 00000000 		.4byte	0
 4296              		.section	.debug_line,"",%progbits
 4297              	.Ldebug_line0:
 4298 0000 55030000 		.section	.debug_str,"MS",%progbits,1
 4298      0200BC01 
 4298      00000201 
 4298      FB0E0D00 
 4298      01010101 
 4299              	.LASF96:
 4300 0000 75617274 		.ascii	"uart_lld_start_receive\000"
 4300      5F6C6C64 
 4300      5F737461 
 4300      72745F72 
 4300      65636569 
 4301              	.LASF61:
 4302 0017 75617274 		.ascii	"uartflags_t\000"
 4302      666C6167 
 4302      735F7400 
 4303              	.LASF58:
 4304 0023 55415254 		.ascii	"UART_RX_ACTIVE\000"
ARM GAS  /tmp/ccJfjU4P.s 			page 77


 4304      5F52585F 
 4304      41435449 
 4304      564500
 4305              	.LASF90:
 4306 0032 75617274 		.ascii	"uart_lld_init\000"
 4306      5F6C6C64 
 4306      5F696E69 
 4306      7400
 4307              	.LASF2:
 4308 0040 73697A65 		.ascii	"size_t\000"
 4308      5F7400
 4309              	.LASF78:
 4310 0047 72786368 		.ascii	"rxchar_cb\000"
 4310      61725F63 
 4310      6200
 4311              	.LASF3:
 4312 0051 5F5F7569 		.ascii	"__uint8_t\000"
 4312      6E74385F 
 4312      7400
 4313              	.LASF105:
 4314 005b 75617274 		.ascii	"uartObjectInit\000"
 4314      4F626A65 
 4314      6374496E 
 4314      697400
 4315              	.LASF71:
 4316 006a 72786275 		.ascii	"rxbuf\000"
 4316      6600
 4317              	.LASF69:
 4318 0070 646D6172 		.ascii	"dmarx\000"
 4318      7800
 4319              	.LASF87:
 4320 0076 75736172 		.ascii	"usart_stop\000"
 4320      745F7374 
 4320      6F7000
 4321              	.LASF13:
 4322 0081 6C6F6E67 		.ascii	"long long unsigned int\000"
 4322      206C6F6E 
 4322      6720756E 
 4322      7369676E 
 4322      65642069 
 4323              	.LASF73:
 4324 0098 75617274 		.ascii	"uartccb_t\000"
 4324      6363625F 
 4324      7400
 4325              	.LASF46:
 4326 00a2 76656374 		.ascii	"vector\000"
 4326      6F7200
 4327              	.LASF101:
 4328 00a9 5F73746D 		.ascii	"_stm32_dma_streams\000"
 4328      33325F64 
 4328      6D615F73 
 4328      74726561 
 4328      6D7300
 4329              	.LASF81:
 4330 00bc 55415254 		.ascii	"UARTConfig\000"
 4330      436F6E66 
 4330      696700
ARM GAS  /tmp/ccJfjU4P.s 			page 78


 4331              	.LASF100:
 4332 00c7 49544D5F 		.ascii	"ITM_RxBuffer\000"
 4332      52784275 
 4332      66666572 
 4332      00
 4333              	.LASF18:
 4334 00d4 626F6F6C 		.ascii	"bool_t\000"
 4334      5F7400
 4335              	.LASF106:
 4336 00db 6E766963 		.ascii	"nvicEnableVector\000"
 4336      456E6162 
 4336      6C655665 
 4336      63746F72 
 4336      00
 4337              	.LASF98:
 4338 00ec 75617274 		.ascii	"uart_lld_stop_receive\000"
 4338      5F6C6C64 
 4338      5F73746F 
 4338      705F7265 
 4338      63656976 
 4339              	.LASF12:
 4340 0102 6C6F6E67 		.ascii	"long long int\000"
 4340      206C6F6E 
 4340      6720696E 
 4340      7400
 4341              	.LASF1:
 4342 0110 7369676E 		.ascii	"signed char\000"
 4342      65642063 
 4342      68617200 
 4343              	.LASF72:
 4344 011c 75617274 		.ascii	"uartcb_t\000"
 4344      63625F74 
 4344      00
 4345              	.LASF39:
 4346 0125 47545052 		.ascii	"GTPR\000"
 4346      00
 4347              	.LASF65:
 4348 012a 72787374 		.ascii	"rxstate\000"
 4348      61746500 
 4349              	.LASF48:
 4350 0132 73746D33 		.ascii	"stm32_dmaisr_t\000"
 4350      325F646D 
 4350      61697372 
 4350      5F7400
 4351              	.LASF63:
 4352 0141 73746174 		.ascii	"state\000"
 4352      6500
 4353              	.LASF64:
 4354 0147 74787374 		.ascii	"txstate\000"
 4354      61746500 
 4355              	.LASF9:
 4356 014f 6C6F6E67 		.ascii	"long int\000"
 4356      20696E74 
 4356      00
 4357              	.LASF26:
 4358 0158 41504232 		.ascii	"APB2RSTR\000"
 4358      52535452 
ARM GAS  /tmp/ccJfjU4P.s 			page 79


 4358      00
 4359              	.LASF15:
 4360 0161 75696E74 		.ascii	"uint16_t\000"
 4360      31365F74 
 4360      00
 4361              	.LASF103:
 4362 016a 706F7274 		.ascii	"port_halt\000"
 4362      5F68616C 
 4362      7400
 4363              	.LASF60:
 4364 0174 75617274 		.ascii	"uartrxstate_t\000"
 4364      72787374 
 4364      6174655F 
 4364      7400
 4365              	.LASF92:
 4366 0182 75617274 		.ascii	"uart_lld_start\000"
 4366      5F6C6C64 
 4366      5F737461 
 4366      727400
 4367              	.LASF62:
 4368 0191 55415254 		.ascii	"UARTDriver\000"
 4368      44726976 
 4368      657200
 4369              	.LASF10:
 4370 019c 5F5F7569 		.ascii	"__uint32_t\000"
 4370      6E743332 
 4370      5F7400
 4371              	.LASF45:
 4372 01a7 73656C66 		.ascii	"selfindex\000"
 4372      696E6465 
 4372      7800
 4373              	.LASF86:
 4374 01b1 7365745F 		.ascii	"set_rx_idle_loop\000"
 4374      72785F69 
 4374      646C655F 
 4374      6C6F6F70 
 4374      00
 4375              	.LASF51:
 4376 01c2 55415254 		.ascii	"UART_READY\000"
 4376      5F524541 
 4376      445900
 4377              	.LASF54:
 4378 01cd 55415254 		.ascii	"UART_TX_ACTIVE\000"
 4378      5F54585F 
 4378      41435449 
 4378      564500
 4379              	.LASF67:
 4380 01dc 75736172 		.ascii	"usart\000"
 4380      7400
 4381              	.LASF0:
 4382 01e2 756E7369 		.ascii	"unsigned int\000"
 4382      676E6564 
 4382      20696E74 
 4382      00
 4383              	.LASF95:
 4384 01ef 74786275 		.ascii	"txbuf\000"
 4384      6600
ARM GAS  /tmp/ccJfjU4P.s 			page 80


 4385              	.LASF113:
 4386 01f5 6E766963 		.ascii	"nvicDisableVector\000"
 4386      44697361 
 4386      626C6556 
 4386      6563746F 
 4386      7200
 4387              	.LASF22:
 4388 0207 43504152 		.ascii	"CPAR\000"
 4388      00
 4389              	.LASF97:
 4390 020c 75617274 		.ascii	"uart_lld_stop_send\000"
 4390      5F6C6C64 
 4390      5F73746F 
 4390      705F7365 
 4390      6E6400
 4391              	.LASF11:
 4392 021f 6C6F6E67 		.ascii	"long unsigned int\000"
 4392      20756E73 
 4392      69676E65 
 4392      6420696E 
 4392      7400
 4393              	.LASF74:
 4394 0231 75617274 		.ascii	"uartecb_t\000"
 4394      6563625F 
 4394      7400
 4395              	.LASF32:
 4396 023b 5243435F 		.ascii	"RCC_TypeDef\000"
 4396      54797065 
 4396      44656600 
 4397              	.LASF24:
 4398 0247 444D415F 		.ascii	"DMA_Channel_TypeDef\000"
 4398      4368616E 
 4398      6E656C5F 
 4398      54797065 
 4398      44656600 
 4399              	.LASF44:
 4400 025b 69736869 		.ascii	"ishift\000"
 4400      667400
 4401              	.LASF7:
 4402 0262 73686F72 		.ascii	"short unsigned int\000"
 4402      7420756E 
 4402      7369676E 
 4402      65642069 
 4402      6E7400
 4403              	.LASF49:
 4404 0275 55415254 		.ascii	"UART_UNINIT\000"
 4404      5F554E49 
 4404      4E495400 
 4405              	.LASF50:
 4406 0281 55415254 		.ascii	"UART_STOP\000"
 4406      5F53544F 
 4406      5000
 4407              	.LASF104:
 4408 028b 5F706F72 		.ascii	"_port_irq_epilogue\000"
 4408      745F6972 
 4408      715F6570 
 4408      696C6F67 
ARM GAS  /tmp/ccJfjU4P.s 			page 81


 4408      756500
 4409              	.LASF41:
 4410 029e 55534152 		.ascii	"USART_TypeDef\000"
 4410      545F5479 
 4410      70654465 
 4410      6600
 4411              	.LASF89:
 4412 02ac 56656374 		.ascii	"VectorD8\000"
 4412      6F724438 
 4412      00
 4413              	.LASF23:
 4414 02b5 434D4152 		.ascii	"CMAR\000"
 4414      00
 4415              	.LASF85:
 4416 02ba 73657276 		.ascii	"serve_usart_irq\000"
 4416      655F7573 
 4416      6172745F 
 4416      69727100 
 4417              	.LASF102:
 4418 02ca 55415254 		.ascii	"UARTD2\000"
 4418      443200
 4419              	.LASF82:
 4420 02d1 75617274 		.ascii	"uartp\000"
 4420      7000
 4421              	.LASF108:
 4422 02d7 474E5520 		.ascii	"GNU C 4.8.2 -mcpu=cortex-m3 -mno-thumb-interwork -m"
 4422      4320342E 
 4422      382E3220 
 4422      2D6D6370 
 4422      753D636F 
 4423 030a 7468756D 		.ascii	"thumb -ggdb -O2 -fomit-frame-pointer -falign-functi"
 4423      62202D67 
 4423      67646220 
 4423      2D4F3220 
 4423      2D666F6D 
 4424 033d 6F6E733D 		.ascii	"ons=16 -ffunction-sections -fdata-sections -fno-com"
 4424      3136202D 
 4424      6666756E 
 4424      6374696F 
 4424      6E2D7365 
 4425 0370 6D6F6E20 		.ascii	"mon -fno-strict-aliasing\000"
 4425      2D666E6F 
 4425      2D737472 
 4425      6963742D 
 4425      616C6961 
 4426              	.LASF20:
 4427 0389 73697A65 		.ascii	"sizetype\000"
 4427      74797065 
 4427      00
 4428              	.LASF111:
 4429 0392 7472616E 		.ascii	"translate_errors\000"
 4429      736C6174 
 4429      655F6572 
 4429      726F7273 
 4429      00
 4430              	.LASF59:
 4431 03a3 55415254 		.ascii	"UART_RX_COMPLETE\000"
ARM GAS  /tmp/ccJfjU4P.s 			page 82


 4431      5F52585F 
 4431      434F4D50 
 4431      4C455445 
 4431      00
 4432              	.LASF110:
 4433 03b4 2F686F6D 		.ascii	"/home/dltech/gdrive/Projects/RFM_to_Modbus_TCP/Chib"
 4433      652F646C 
 4433      74656368 
 4433      2F676472 
 4433      6976652F 
 4434 03e7 694F532F 		.ascii	"iOS/F103_ChibiOS_ENC60J28/main\000"
 4434      46313033 
 4434      5F436869 
 4434      62694F53 
 4434      5F454E43 
 4435              	.LASF79:
 4436 0406 72786572 		.ascii	"rxerr_cb\000"
 4436      725F6362 
 4436      00
 4437              	.LASF88:
 4438 040f 75617274 		.ascii	"uart_lld_serve_tx_end_irq\000"
 4438      5F6C6C64 
 4438      5F736572 
 4438      76655F74 
 4438      785F656E 
 4439              	.LASF77:
 4440 0429 7278656E 		.ascii	"rxend_cb\000"
 4440      645F6362 
 4440      00
 4441              	.LASF56:
 4442 0432 75617274 		.ascii	"uarttxstate_t\000"
 4442      74787374 
 4442      6174655F 
 4442      7400
 4443              	.LASF27:
 4444 0440 41504231 		.ascii	"APB1RSTR\000"
 4444      52535452 
 4444      00
 4445              	.LASF70:
 4446 0449 646D6174 		.ascii	"dmatx\000"
 4446      7800
 4447              	.LASF33:
 4448 044f 52455345 		.ascii	"RESERVED0\000"
 4448      52564544 
 4448      3000
 4449              	.LASF34:
 4450 0459 52455345 		.ascii	"RESERVED1\000"
 4450      52564544 
 4450      3100
 4451              	.LASF35:
 4452 0463 52455345 		.ascii	"RESERVED2\000"
 4452      52564544 
 4452      3200
 4453              	.LASF36:
 4454 046d 52455345 		.ascii	"RESERVED3\000"
 4454      52564544 
 4454      3300
ARM GAS  /tmp/ccJfjU4P.s 			page 83


 4455              	.LASF37:
 4456 0477 52455345 		.ascii	"RESERVED4\000"
 4456      52564544 
 4456      3400
 4457              	.LASF38:
 4458 0481 52455345 		.ascii	"RESERVED5\000"
 4458      52564544 
 4458      3500
 4459              	.LASF40:
 4460 048b 52455345 		.ascii	"RESERVED6\000"
 4460      52564544 
 4460      3600
 4461              	.LASF47:
 4462 0495 73746D33 		.ascii	"stm32_dma_stream_t\000"
 4462      325F646D 
 4462      615F7374 
 4462      7265616D 
 4462      5F7400
 4463              	.LASF76:
 4464 04a8 7478656E 		.ascii	"txend2_cb\000"
 4464      64325F63 
 4464      6200
 4465              	.LASF19:
 4466 04b2 5F426F6F 		.ascii	"_Bool\000"
 4466      6C00
 4467              	.LASF16:
 4468 04b8 696E7433 		.ascii	"int32_t\000"
 4468      325F7400 
 4469              	.LASF4:
 4470 04c0 756E7369 		.ascii	"unsigned char\000"
 4470      676E6564 
 4470      20636861 
 4470      7200
 4471              	.LASF5:
 4472 04ce 73686F72 		.ascii	"short int\000"
 4472      7420696E 
 4472      7400
 4473              	.LASF52:
 4474 04d8 75617274 		.ascii	"uartstate_t\000"
 4474      73746174 
 4474      655F7400 
 4475              	.LASF29:
 4476 04e4 41504232 		.ascii	"APB2ENR\000"
 4476      454E5200 
 4477              	.LASF42:
 4478 04ec 6368616E 		.ascii	"channel\000"
 4478      6E656C00 
 4479              	.LASF43:
 4480 04f4 69666372 		.ascii	"ifcr\000"
 4480      00
 4481              	.LASF17:
 4482 04f9 75696E74 		.ascii	"uint32_t\000"
 4482      33325F74 
 4482      00
 4483              	.LASF109:
 4484 0502 2E2E2F6F 		.ascii	"../os/hal/platforms/STM32/USARTv1/uart_lld.c\000"
 4484      732F6861 
ARM GAS  /tmp/ccJfjU4P.s 			page 84


 4484      6C2F706C 
 4484      6174666F 
 4484      726D732F 
 4485              	.LASF107:
 4486 052f 646D6153 		.ascii	"dmaStreamRelease\000"
 4486      74726561 
 4486      6D52656C 
 4486      65617365 
 4486      00
 4487              	.LASF99:
 4488 0540 6D6F6465 		.ascii	"mode\000"
 4488      00
 4489              	.LASF66:
 4490 0545 636F6E66 		.ascii	"config\000"
 4490      696700
 4491              	.LASF57:
 4492 054c 55415254 		.ascii	"UART_RX_IDLE\000"
 4492      5F52585F 
 4492      49444C45 
 4492      00
 4493              	.LASF6:
 4494 0559 5F5F7569 		.ascii	"__uint16_t\000"
 4494      6E743136 
 4494      5F7400
 4495              	.LASF75:
 4496 0564 7478656E 		.ascii	"txend1_cb\000"
 4496      64315F63 
 4496      6200
 4497              	.LASF8:
 4498 056e 5F5F696E 		.ascii	"__int32_t\000"
 4498      7433325F 
 4498      7400
 4499              	.LASF53:
 4500 0578 55415254 		.ascii	"UART_TX_IDLE\000"
 4500      5F54585F 
 4500      49444C45 
 4500      00
 4501              	.LASF30:
 4502 0585 41504231 		.ascii	"APB1ENR\000"
 4502      454E5200 
 4503              	.LASF84:
 4504 058d 75617274 		.ascii	"uart_lld_serve_rx_end_irq\000"
 4504      5F6C6C64 
 4504      5F736572 
 4504      76655F72 
 4504      785F656E 
 4505              	.LASF21:
 4506 05a7 434E4454 		.ascii	"CNDTR\000"
 4506      5200
 4507              	.LASF31:
 4508 05ad 42444352 		.ascii	"BDCR\000"
 4508      00
 4509              	.LASF14:
 4510 05b2 75696E74 		.ascii	"uint8_t\000"
 4510      385F7400 
 4511              	.LASF91:
 4512 05ba 75736172 		.ascii	"usart_start\000"
ARM GAS  /tmp/ccJfjU4P.s 			page 85


 4512      745F7374 
 4512      61727400 
 4513              	.LASF83:
 4514 05c6 666C6167 		.ascii	"flags\000"
 4514      7300
 4515              	.LASF68:
 4516 05cc 646D616D 		.ascii	"dmamode\000"
 4516      6F646500 
 4517              	.LASF80:
 4518 05d4 73706565 		.ascii	"speed\000"
 4518      6400
 4519              	.LASF25:
 4520 05da 43464752 		.ascii	"CFGR\000"
 4520      00
 4521              	.LASF94:
 4522 05df 75617274 		.ascii	"uart_lld_start_send\000"
 4522      5F6C6C64 
 4522      5F737461 
 4522      72745F73 
 4522      656E6400 
 4523              	.LASF93:
 4524 05f3 75617274 		.ascii	"uart_lld_stop\000"
 4524      5F6C6C64 
 4524      5F73746F 
 4524      7000
 4525              	.LASF112:
 4526 0601 646D6153 		.ascii	"dmaStreamAllocate\000"
 4526      74726561 
 4526      6D416C6C 
 4526      6F636174 
 4526      6500
 4527              	.LASF28:
 4528 0613 41484245 		.ascii	"AHBENR\000"
 4528      4E5200
 4529              	.LASF55:
 4530 061a 55415254 		.ascii	"UART_TX_COMPLETE\000"
 4530      5F54585F 
 4530      434F4D50 
 4530      4C455445 
 4530      00
 4531              		.ident	"GCC: (4.8.2-14ubuntu1+6) 4.8.2"
ARM GAS  /tmp/ccJfjU4P.s 			page 86


DEFINED SYMBOLS
                            *ABS*:0000000000000000 uart_lld.c
     /tmp/ccJfjU4P.s:19     .text.set_rx_idle_loop:0000000000000000 $t
     /tmp/ccJfjU4P.s:24     .text.set_rx_idle_loop:0000000000000000 set_rx_idle_loop
     /tmp/ccJfjU4P.s:78     .text.usart_stop:0000000000000000 $t
     /tmp/ccJfjU4P.s:83     .text.usart_stop:0000000000000000 usart_stop
     /tmp/ccJfjU4P.s:136    .text.uart_lld_serve_tx_end_irq:0000000000000000 $t
     /tmp/ccJfjU4P.s:141    .text.uart_lld_serve_tx_end_irq:0000000000000000 uart_lld_serve_tx_end_irq
     /tmp/ccJfjU4P.s:216    .text.uart_lld_serve_rx_end_irq:0000000000000000 $t
     /tmp/ccJfjU4P.s:221    .text.uart_lld_serve_rx_end_irq:0000000000000000 uart_lld_serve_rx_end_irq
     /tmp/ccJfjU4P.s:325    .text.VectorD8:0000000000000000 $t
     /tmp/ccJfjU4P.s:331    .text.VectorD8:0000000000000000 VectorD8
     /tmp/ccJfjU4P.s:933    .bss.UARTD2:0000000000000000 .LANCHOR0
     /tmp/ccJfjU4P.s:458    .text.uart_lld_init:0000000000000000 $t
     /tmp/ccJfjU4P.s:464    .text.uart_lld_init:0000000000000000 uart_lld_init
     /tmp/ccJfjU4P.s:501    .text.uart_lld_init:000000000000002c $d
     /tmp/ccJfjU4P.s:506    .text.uart_lld_start:0000000000000000 $t
     /tmp/ccJfjU4P.s:512    .text.uart_lld_start:0000000000000000 uart_lld_start
     /tmp/ccJfjU4P.s:691    .text.uart_lld_stop:0000000000000000 $t
     /tmp/ccJfjU4P.s:697    .text.uart_lld_stop:0000000000000000 uart_lld_stop
     /tmp/ccJfjU4P.s:752    .text.uart_lld_start_send:0000000000000000 $t
     /tmp/ccJfjU4P.s:758    .text.uart_lld_start_send:0000000000000000 uart_lld_start_send
     /tmp/ccJfjU4P.s:792    .text.uart_lld_stop_send:0000000000000000 $t
     /tmp/ccJfjU4P.s:798    .text.uart_lld_stop_send:0000000000000000 uart_lld_stop_send
     /tmp/ccJfjU4P.s:829    .text.uart_lld_start_receive:0000000000000000 $t
     /tmp/ccJfjU4P.s:835    .text.uart_lld_start_receive:0000000000000000 uart_lld_start_receive
     /tmp/ccJfjU4P.s:887    .text.uart_lld_stop_receive:0000000000000000 $t
     /tmp/ccJfjU4P.s:893    .text.uart_lld_stop_receive:0000000000000000 uart_lld_stop_receive
     /tmp/ccJfjU4P.s:936    .bss.UARTD2:0000000000000000 UARTD2
     /tmp/ccJfjU4P.s:932    .bss.UARTD2:0000000000000000 $d
                     .debug_frame:0000000000000010 $d

UNDEFINED SYMBOLS
port_halt
_port_irq_epilogue
uartObjectInit
_stm32_dma_streams
dmaStreamAllocate
nvicEnableVector
dmaStreamRelease
nvicDisableVector
