ARM GAS  /tmp/ccsdTHuA.s 			page 1


   1              		.syntax unified
   2              		.cpu cortex-m3
   3              		.fpu softvfp
   4              		.eabi_attribute 20, 1
   5              		.eabi_attribute 21, 1
   6              		.eabi_attribute 23, 3
   7              		.eabi_attribute 24, 1
   8              		.eabi_attribute 25, 1
   9              		.eabi_attribute 26, 1
  10              		.eabi_attribute 30, 2
  11              		.eabi_attribute 34, 1
  12              		.eabi_attribute 18, 4
  13              		.thumb
  14              		.file	"uip_arp.c"
  15              		.text
  16              	.Ltext0:
  17              		.cfi_sections	.debug_frame
  18              		.section	.text.uip_arp_update.constprop.0,"ax",%progbits
  19              		.align	2
  20              		.p2align 4,,15
  21              		.thumb
  22              		.thumb_func
  23              		.type	uip_arp_update.constprop.0, %function
  24              	uip_arp_update.constprop.0:
  25              	.LFB5:
  26              		.file 1 "../uip/uip_arp.c"
  27              		.loc 1 158 0
  28              		.cfi_startproc
  29              		@ args = 0, pretend = 0, frame = 0
  30              		@ frame_needed = 0, uses_anonymous_args = 0
  31              		@ link register save eliminated.
  32              	.LVL0:
  33 0000 2DE9F007 		push	{r4, r5, r6, r7, r8, r9, r10}
  34              		.cfi_def_cfa_offset 28
  35              		.cfi_offset 4, -28
  36              		.cfi_offset 5, -24
  37              		.cfi_offset 6, -20
  38              		.cfi_offset 7, -16
  39              		.cfi_offset 8, -12
  40              		.cfi_offset 9, -8
  41              		.cfi_offset 10, -4
  42              		.loc 1 173 0
  43 0004 40F20003 		movw	r3, #:lower16:uip_buf
  44              		.loc 1 174 0
  45 0008 40F20006 		movw	r6, #:lower16:.LANCHOR1
  46              		.loc 1 173 0
  47 000c C0F20003 		movt	r3, #:upper16:uip_buf
  48              		.loc 1 174 0
  49 0010 C0F20006 		movt	r6, #:upper16:.LANCHOR1
  50              		.loc 1 164 0
  51 0014 40F20005 		movw	r5, #:lower16:.LANCHOR0
  52              		.loc 1 173 0
  53 0018 B3F81CC0 		ldrh	ip, [r3, #28]	@ unaligned
  54              		.loc 1 174 0
  55 001c B3F81E80 		ldrh	r8, [r3, #30]	@ unaligned
  56              		.loc 1 164 0
  57 0020 C0F20005 		movt	r5, #:upper16:.LANCHOR0
ARM GAS  /tmp/ccsdTHuA.s 			page 2


  58              		.loc 1 174 0
  59 0024 3346     		mov	r3, r6
  60 0026 0122     		movs	r2, #1
  61 0028 0027     		movs	r7, #0
  62 002a 05E0     		b	.L5
  63              	.LVL1:
  64              	.L2:
  65              		.loc 1 164 0
  66 002c 0929     		cmp	r1, #9
  67 002e 03F10C03 		add	r3, r3, #12
  68              	.LVL2:
  69 0032 1AD0     		beq	.L4
  70 0034 1746     		mov	r7, r2
  71 0036 0A46     		mov	r2, r1
  72              	.LVL3:
  73              	.L5:
  74              		.loc 1 168 0
  75 0038 1888     		ldrh	r0, [r3]
  76 003a 511C     		adds	r1, r2, #1
  77 003c C9B2     		uxtb	r1, r1
  78 003e 0028     		cmp	r0, #0
  79 0040 F4D0     		beq	.L2
  80              		.loc 1 169 0
  81 0042 5C88     		ldrh	r4, [r3, #2]
  82              		.loc 1 168 0
  83 0044 002C     		cmp	r4, #0
  84 0046 F1D0     		beq	.L2
  85              		.loc 1 173 0
  86 0048 6045     		cmp	r0, ip
  87 004a EFD1     		bne	.L2
  88 004c 4445     		cmp	r4, r8
  89 004e EDD1     		bne	.L2
  90              		.loc 1 177 0
  91 0050 3649     		ldr	r1, .L27
  92              	.LVL4:
  93              		.loc 1 178 0
  94 0052 40F20002 		movw	r2, #:lower16:.LANCHOR2
  95 0056 C0F20002 		movt	r2, #:upper16:.LANCHOR2
  96 005a 1478     		ldrb	r4, [r2]	@ zero_extendqisi2
  97              		.loc 1 177 0
  98 005c 0868     		ldr	r0, [r1]	@ unaligned
  99 005e 8A88     		ldrh	r2, [r1, #4]	@ unaligned
 100 0060 2F70     		strb	r7, [r5]
 101              		.loc 1 178 0
 102 0062 9C72     		strb	r4, [r3, #10]
 103              		.loc 1 177 0
 104 0064 5860     		str	r0, [r3, #4]	@ unaligned
 105 0066 1A81     		strh	r2, [r3, #8]	@ unaligned
 106 0068 2AE0     		b	.L1
 107              	.LVL5:
 108              	.L4:
 109              		.loc 1 189 0
 110 006a 40F20003 		movw	r3, #:lower16:.LANCHOR1
 111              	.LVL6:
 112 006e C0F20003 		movt	r3, #:upper16:.LANCHOR1
 113 0072 0122     		movs	r2, #1
 114 0074 0027     		movs	r7, #0
ARM GAS  /tmp/ccsdTHuA.s 			page 3


 115 0076 01E0     		b	.L9
 116              	.LVL7:
 117              	.L25:
 118 0078 1746     		mov	r7, r2
 119 007a 0A46     		mov	r2, r1
 120              	.LVL8:
 121              	.L9:
 122              		.loc 1 191 0
 123 007c 1888     		ldrh	r0, [r3]
 124 007e 511C     		adds	r1, r2, #1
 125 0080 C9B2     		uxtb	r1, r1
 126              		.loc 1 190 0
 127 0082 1C46     		mov	r4, r3
 128              		.loc 1 191 0
 129 0084 10B9     		cbnz	r0, .L6
 130 0086 5888     		ldrh	r0, [r3, #2]
 131 0088 0028     		cmp	r0, #0
 132 008a 47D0     		beq	.L24
 133              	.L6:
 134              		.loc 1 189 0
 135 008c 0929     		cmp	r1, #9
 136 008e 03F10C03 		add	r3, r3, #12
 137              	.LVL9:
 138 0092 F1D1     		bne	.L25
 139 0094 40F20003 		movw	r3, #:lower16:.LANCHOR2
 140 0098 C0F20003 		movt	r3, #:upper16:.LANCHOR2
 141              		.loc 1 199 0
 142 009c 082A     		cmp	r2, #8
 143 009e 2A70     		strb	r2, [r5]
 144 00a0 93F800C0 		ldrb	ip, [r3]	@ zero_extendqisi2
 145 00a4 0FD0     		beq	.L10
 146              	.L7:
 147              		.loc 1 215 0
 148 00a6 2249     		ldr	r1, .L27+4
 149              	.LVL10:
 150 00a8 2346     		mov	r3, r4
 151              		.loc 1 216 0
 152 00aa 0A46     		mov	r2, r1
 153 00ac 52F8060D 		ldr	r0, [r2, #-6]!	@ unaligned
 154              		.loc 1 215 0
 155 00b0 0968     		ldr	r1, [r1]	@ unaligned
 156              	.LVL11:
 157              		.loc 1 216 0
 158 00b2 9288     		ldrh	r2, [r2, #4]	@ unaligned
 159              		.loc 1 215 0
 160 00b4 43F8041B 		str	r1, [r3], #4	@ unaligned
 161              		.loc 1 216 0
 162 00b8 6060     		str	r0, [r4, #4]	@ unaligned
 163 00ba 9A80     		strh	r2, [r3, #4]	@ unaligned
 164              		.loc 1 217 0
 165 00bc 84F80AC0 		strb	ip, [r4, #10]
 166              	.LVL12:
 167              	.L1:
 168              		.loc 1 218 0
 169 00c0 BDE8F007 		pop	{r4, r5, r6, r7, r8, r9, r10}
 170 00c4 7047     		bx	lr
 171              	.LVL13:
ARM GAS  /tmp/ccsdTHuA.s 			page 4


 172              	.L10:
 173 00c6 0027     		movs	r7, #0
 174              		.loc 1 200 0
 175 00c8 40F2000A 		movw	r10, #:lower16:.LANCHOR3
 176              		.loc 1 201 0
 177 00cc 40F20009 		movw	r9, #:lower16:.LANCHOR4
 178 00d0 40F20002 		movw	r2, #:lower16:.LANCHOR1
 179              		.loc 1 200 0
 180 00d4 C0F2000A 		movt	r10, #:upper16:.LANCHOR3
 181              		.loc 1 201 0
 182 00d8 C0F20009 		movt	r9, #:upper16:.LANCHOR4
 183 00dc B846     		mov	r8, r7
 184 00de 3B46     		mov	r3, r7
 185 00e0 3846     		mov	r0, r7
 186 00e2 C0F20002 		movt	r2, #:upper16:.LANCHOR1
 187 00e6 00E0     		b	.L13
 188              	.LVL14:
 189              	.L26:
 190 00e8 3846     		mov	r0, r7
 191              	.LVL15:
 192              	.L13:
 193              		.loc 1 204 0
 194 00ea 917A     		ldrb	r1, [r2, #10]	@ zero_extendqisi2
 195 00ec DCB2     		uxtb	r4, r3
 196              	.LVL16:
 197 00ee C1EB0C01 		rsb	r1, r1, ip
 198 00f2 8142     		cmp	r1, r0
 199 00f4 03F10103 		add	r3, r3, #1
 200              		.loc 1 206 0
 201 00f8 C4BF     		itt	gt
 202 00fa A046     		movgt	r8, r4
 203              		.loc 1 205 0
 204 00fc CFB2     		uxtbgt	r7, r1
 205              		.loc 1 202 0
 206 00fe 082B     		cmp	r3, #8
 207 0100 02F10C02 		add	r2, r2, #12
 208              	.LVL17:
 209 0104 F0D1     		bne	.L26
 210              		.loc 1 210 0
 211 0106 08EB4804 		add	r4, r8, r8, lsl #1
 212 010a 8AF80070 		strb	r7, [r10]
 213 010e 89F80080 		strb	r8, [r9]
 214              		.loc 1 209 0
 215 0112 85F80080 		strb	r8, [r5]
 216              		.loc 1 210 0
 217 0116 06EB8404 		add	r4, r6, r4, lsl #2
 218              	.LVL18:
 219 011a C4E7     		b	.L7
 220              	.LVL19:
 221              	.L24:
 222 011c 40F20003 		movw	r3, #:lower16:.LANCHOR2
 223              	.LVL20:
 224 0120 C0F20003 		movt	r3, #:upper16:.LANCHOR2
 225 0124 2F70     		strb	r7, [r5]
 226 0126 93F800C0 		ldrb	ip, [r3]	@ zero_extendqisi2
 227 012a BCE7     		b	.L7
 228              	.L28:
ARM GAS  /tmp/ccsdTHuA.s 			page 5


 229              		.align	2
 230              	.L27:
 231 012c 16000000 		.word	uip_buf+22
 232 0130 1C000000 		.word	uip_buf+28
 233              		.cfi_endproc
 234              	.LFE5:
 235              		.size	uip_arp_update.constprop.0, .-uip_arp_update.constprop.0
 236 0134 AFF30080 		.section	.text.uip_arp_init,"ax",%progbits
 236      AFF30080 
 236      AFF30080 
 237              		.align	2
 238              		.p2align 4,,15
 239              		.global	uip_arp_init
 240              		.thumb
 241              		.thumb_func
 242              		.type	uip_arp_init, %function
 243              	uip_arp_init:
 244              	.LFB0:
 245              		.loc 1 126 0
 246              		.cfi_startproc
 247              		@ args = 0, pretend = 0, frame = 0
 248              		@ frame_needed = 0, uses_anonymous_args = 0
 249              		@ link register save eliminated.
 250 0000 40F20002 		movw	r2, #:lower16:.LANCHOR1
 251 0004 40F20000 		movw	r0, #:lower16:.LANCHOR0
 252 0008 10B4     		push	{r4}
 253              		.cfi_def_cfa_offset 4
 254              		.cfi_offset 4, -4
 255 000a C0F20002 		movt	r2, #:upper16:.LANCHOR1
 256 000e C0F20000 		movt	r0, #:upper16:.LANCHOR0
 257              		.loc 1 126 0
 258 0012 0123     		movs	r3, #1
 259              		.loc 1 128 0
 260 0014 0024     		movs	r4, #0
 261              	.L31:
 262 0016 591C     		adds	r1, r3, #1
 263              		.loc 1 127 0 discriminator 2
 264 0018 0370     		strb	r3, [r0]
 265 001a CBB2     		uxtb	r3, r1
 266 001c 092B     		cmp	r3, #9
 267              		.loc 1 128 0 discriminator 2
 268 001e 42F80C4B 		str	r4, [r2], #12
 269              		.loc 1 127 0 discriminator 2
 270 0022 F8D1     		bne	.L31
 271              		.loc 1 130 0
 272 0024 5DF8044B 		ldr	r4, [sp], #4
 273 0028 7047     		bx	lr
 274              		.cfi_endproc
 275              	.LFE0:
 276              		.size	uip_arp_init, .-uip_arp_init
 277 002a 00BFAFF3 		.section	.text.uip_arp_timer,"ax",%progbits
 277      0080
 278              		.align	2
 279              		.p2align 4,,15
 280              		.global	uip_arp_timer
 281              		.thumb
 282              		.thumb_func
ARM GAS  /tmp/ccsdTHuA.s 			page 6


 283              		.type	uip_arp_timer, %function
 284              	uip_arp_timer:
 285              	.LFB1:
 286              		.loc 1 143 0
 287              		.cfi_startproc
 288              		@ args = 0, pretend = 0, frame = 0
 289              		@ frame_needed = 0, uses_anonymous_args = 0
 290              		@ link register save eliminated.
 291 0000 F0B4     		push	{r4, r5, r6, r7}
 292              		.cfi_def_cfa_offset 16
 293              		.cfi_offset 4, -16
 294              		.cfi_offset 5, -12
 295              		.cfi_offset 6, -8
 296              		.cfi_offset 7, -4
 297              		.loc 1 146 0
 298 0002 40F20002 		movw	r2, #:lower16:.LANCHOR2
 299 0006 C0F20002 		movt	r2, #:upper16:.LANCHOR2
 300 000a 1678     		ldrb	r6, [r2]	@ zero_extendqisi2
 301              		.loc 1 147 0
 302 000c 40F20005 		movw	r5, #:lower16:.LANCHOR0
 303              		.loc 1 146 0
 304 0010 0136     		adds	r6, r6, #1
 305 0012 F6B2     		uxtb	r6, r6
 306 0014 40F20003 		movw	r3, #:lower16:.LANCHOR1
 307 0018 1670     		strb	r6, [r2]
 308              		.loc 1 147 0
 309 001a C0F20005 		movt	r5, #:upper16:.LANCHOR0
 310 001e C0F20003 		movt	r3, #:upper16:.LANCHOR1
 311 0022 0122     		movs	r2, #1
 312              		.loc 1 151 0
 313 0024 0027     		movs	r7, #0
 314 0026 05E0     		b	.L36
 315              	.LVL21:
 316              	.L34:
 317              		.loc 1 147 0
 318 0028 2A70     		strb	r2, [r5]
 319 002a CAB2     		uxtb	r2, r1
 320 002c 092A     		cmp	r2, #9
 321 002e 03F10C03 		add	r3, r3, #12
 322              	.LVL22:
 323 0032 18D0     		beq	.L41
 324              	.LVL23:
 325              	.L36:
 326              		.loc 1 149 0
 327 0034 5C88     		ldrh	r4, [r3, #2]
 328 0036 1888     		ldrh	r0, [r3]
 329 0038 511C     		adds	r1, r2, #1
 330 003a 2043     		orrs	r0, r0, r4
 331 003c 80B2     		uxth	r0, r0
 332 003e 0028     		cmp	r0, #0
 333 0040 F2D0     		beq	.L34
 334              		.loc 1 150 0 discriminator 1
 335 0042 987A     		ldrb	r0, [r3, #10]	@ zero_extendqisi2
 336 0044 301A     		subs	r0, r6, r0
 337              		.loc 1 149 0 discriminator 1
 338 0046 7728     		cmp	r0, #119
 339 0048 EEDD     		ble	.L34
ARM GAS  /tmp/ccsdTHuA.s 			page 7


 340              		.loc 1 151 0
 341 004a 1846     		mov	r0, r3
 342 004c 00F8017B 		strb	r7, [r0], #1
 343 0050 0130     		adds	r0, r0, #1
 344              		.loc 1 147 0
 345 0052 2A70     		strb	r2, [r5]
 346 0054 CAB2     		uxtb	r2, r1
 347              		.loc 1 151 0
 348 0056 5F70     		strb	r7, [r3, #1]
 349              		.loc 1 147 0
 350 0058 092A     		cmp	r2, #9
 351              		.loc 1 151 0
 352 005a 00F8017B 		strb	r7, [r0], #1
 353 005e 0770     		strb	r7, [r0]
 354 0060 03F10C03 		add	r3, r3, #12
 355              	.LVL24:
 356              		.loc 1 147 0
 357 0064 E6D1     		bne	.L36
 358              	.LVL25:
 359              	.L41:
 360              		.loc 1 155 0
 361 0066 F0BC     		pop	{r4, r5, r6, r7}
 362 0068 7047     		bx	lr
 363              		.cfi_endproc
 364              	.LFE1:
 365              		.size	uip_arp_timer, .-uip_arp_timer
 366 006a 00BFAFF3 		.section	.text.uip_arp_arpin,"ax",%progbits
 366      0080
 367              		.align	2
 368              		.p2align 4,,15
 369              		.global	uip_arp_arpin
 370              		.thumb
 371              		.thumb_func
 372              		.type	uip_arp_arpin, %function
 373              	uip_arp_arpin:
 374              	.LFB3:
 375              		.loc 1 279 0
 376              		.cfi_startproc
 377              		@ args = 0, pretend = 0, frame = 0
 378              		@ frame_needed = 0, uses_anonymous_args = 0
 379 0000 2DE9F84F 		push	{r3, r4, r5, r6, r7, r8, r9, r10, fp, lr}
 380              		.cfi_def_cfa_offset 40
 381              		.cfi_offset 3, -40
 382              		.cfi_offset 4, -36
 383              		.cfi_offset 5, -32
 384              		.cfi_offset 6, -28
 385              		.cfi_offset 7, -24
 386              		.cfi_offset 8, -20
 387              		.cfi_offset 9, -16
 388              		.cfi_offset 10, -12
 389              		.cfi_offset 11, -8
 390              		.cfi_offset 14, -4
 391              		.loc 1 281 0
 392 0004 40F20004 		movw	r4, #:lower16:uip_len
 393 0008 C0F20004 		movt	r4, #:upper16:uip_len
 394 000c 2388     		ldrh	r3, [r4]
 395 000e 292B     		cmp	r3, #41
ARM GAS  /tmp/ccsdTHuA.s 			page 8


 396 0010 18D9     		bls	.L47
 397              		.loc 1 287 0
 398 0012 40F20005 		movw	r5, #:lower16:uip_buf
 399 0016 C0F20005 		movt	r5, #:upper16:uip_buf
 400 001a AB8A     		ldrh	r3, [r5, #20]	@ unaligned
 401              		.loc 1 285 0
 402 001c 0026     		movs	r6, #0
 403              		.loc 1 287 0
 404 001e B3F5807F 		cmp	r3, #256
 405              		.loc 1 285 0
 406 0022 2680     		strh	r6, [r4]	@ movhi
 407              		.loc 1 287 0
 408 0024 04D0     		beq	.L45
 409 0026 B3F5007F 		cmp	r3, #512
 410 002a 0FD0     		beq	.L46
 411 002c BDE8F88F 		pop	{r3, r4, r5, r6, r7, r8, r9, r10, fp, pc}
 412              	.L45:
 413              		.loc 1 291 0
 414 0030 40F20007 		movw	r7, #:lower16:uip_hostaddr
 415 0034 C0F20007 		movt	r7, #:upper16:uip_hostaddr
 416 0038 3B88     		ldrh	r3, [r7]
 417 003a EA8C     		ldrh	r2, [r5, #38]	@ unaligned
 418 003c 9A42     		cmp	r2, r3
 419 003e 15D0     		beq	.L48
 420              	.L42:
 421 0040 BDE8F88F 		pop	{r3, r4, r5, r6, r7, r8, r9, r10, fp, pc}
 422              	.L47:
 423              		.loc 1 282 0
 424 0044 0023     		movs	r3, #0
 425 0046 2380     		strh	r3, [r4]	@ movhi
 426              		.loc 1 283 0
 427 0048 BDE8F88F 		pop	{r3, r4, r5, r6, r7, r8, r9, r10, fp, pc}
 428              	.L46:
 429              		.loc 1 317 0
 430 004c 40F20003 		movw	r3, #:lower16:uip_hostaddr
 431 0050 C0F20003 		movt	r3, #:upper16:uip_hostaddr
 432 0054 1A88     		ldrh	r2, [r3]
 433 0056 E98C     		ldrh	r1, [r5, #38]	@ unaligned
 434 0058 9142     		cmp	r1, r2
 435 005a F1D1     		bne	.L42
 436              		.loc 1 317 0 is_stmt 0 discriminator 1
 437 005c 2A8D     		ldrh	r2, [r5, #40]	@ unaligned
 438 005e 5B88     		ldrh	r3, [r3, #2]
 439 0060 9A42     		cmp	r2, r3
 440 0062 EDD1     		bne	.L42
 441              		.loc 1 324 0 is_stmt 1
 442 0064 BDE8F84F 		pop	{r3, r4, r5, r6, r7, r8, r9, r10, fp, lr}
 443              		.loc 1 318 0
 444 0068 FFF7FEBF 		b	uip_arp_update.constprop.0
 445              	.LVL26:
 446              	.L48:
 447              		.loc 1 291 0 discriminator 1
 448 006c 2A8D     		ldrh	r2, [r5, #40]	@ unaligned
 449 006e 7B88     		ldrh	r3, [r7, #2]
 450 0070 9A42     		cmp	r2, r3
 451 0072 E5D1     		bne	.L42
 452              		.loc 1 295 0
ARM GAS  /tmp/ccsdTHuA.s 			page 9


 453 0074 FFF7FEFF 		bl	uip_arp_update.constprop.0
 454              	.LVL27:
 455              		.loc 1 298 0
 456 0078 0223     		movs	r3, #2
 457              		.loc 1 300 0
 458 007a 2946     		mov	r1, r5
 459              		.loc 1 298 0
 460 007c 6B75     		strb	r3, [r5, #21]
 461              		.loc 1 300 0
 462 007e 51F8168F 		ldr	r8, [r1, #22]!	@ unaligned
 463              		.loc 1 301 0
 464 0082 40F20003 		movw	r3, #:lower16:uip_ethaddr
 465 0086 C0F20003 		movt	r3, #:upper16:uip_ethaddr
 466              		.loc 1 300 0
 467 008a B1F804C0 		ldrh	ip, [r1, #4]	@ unaligned
 468              		.loc 1 301 0
 469 008e 1A68     		ldr	r2, [r3]	@ unaligned
 470 0090 9B88     		ldrh	r3, [r3, #4]	@ unaligned
 471              		.loc 1 300 0
 472 0092 C5F82080 		str	r8, [r5, #32]	@ unaligned
 473 0096 A5F824C0 		strh	ip, [r5, #36]	@ unaligned
 474              		.loc 1 301 0
 475 009a C5F81620 		str	r2, [r5, #22]	@ unaligned
 476 009e 8B80     		strh	r3, [r1, #4]	@ unaligned
 477              		.loc 1 305 0
 478 00a0 B5F81C90 		ldrh	r9, [r5, #28]	@ unaligned
 479              		.loc 1 306 0
 480 00a4 B5F81E80 		ldrh	r8, [r5, #30]	@ unaligned
 481              		.loc 1 307 0
 482 00a8 B7F800C0 		ldrh	ip, [r7]
 483              		.loc 1 303 0
 484 00ac B5F824B0 		ldrh	fp, [r5, #36]	@ unaligned
 485 00b0 D5F820A0 		ldr	r10, [r5, #32]	@ unaligned
 486              		.loc 1 308 0
 487 00b4 7F88     		ldrh	r7, [r7, #2]
 488              		.loc 1 310 0
 489 00b6 0820     		movs	r0, #8
 490 00b8 0621     		movs	r1, #6
 491              		.loc 1 302 0
 492 00ba 6B81     		strh	r3, [r5, #10]	@ unaligned
 493              		.loc 1 311 0
 494 00bc 4FF02A03 		mov	r3, #42	@ movhi
 495              		.loc 1 298 0
 496 00c0 2E75     		strb	r6, [r5, #20]
 497              		.loc 1 302 0
 498 00c2 C5F80620 		str	r2, [r5, #6]	@ unaligned
 499              		.loc 1 303 0
 500 00c6 A5F804B0 		strh	fp, [r5, #4]	@ unaligned
 501 00ca C5F800A0 		str	r10, [r5]	@ unaligned
 502              		.loc 1 305 0
 503 00ce A5F82690 		strh	r9, [r5, #38]	@ unaligned
 504              		.loc 1 306 0
 505 00d2 A5F82880 		strh	r8, [r5, #40]	@ unaligned
 506              		.loc 1 307 0
 507 00d6 A5F81CC0 		strh	ip, [r5, #28]	@ unaligned
 508              		.loc 1 308 0
 509 00da EF83     		strh	r7, [r5, #30]	@ unaligned
ARM GAS  /tmp/ccsdTHuA.s 			page 10


 510              		.loc 1 310 0
 511 00dc 2873     		strb	r0, [r5, #12]
 512 00de 6973     		strb	r1, [r5, #13]
 513              		.loc 1 311 0
 514 00e0 2380     		strh	r3, [r4]	@ movhi
 515 00e2 BDE8F88F 		pop	{r3, r4, r5, r6, r7, r8, r9, r10, fp, pc}
 516              		.cfi_endproc
 517              	.LFE3:
 518              		.size	uip_arp_arpin, .-uip_arp_arpin
 519 00e6 00BFAFF3 		.section	.text.uip_arp_out,"ax",%progbits
 519      0080AFF3 
 519      0080
 520              		.align	2
 521              		.p2align 4,,15
 522              		.global	uip_arp_out
 523              		.thumb
 524              		.thumb_func
 525              		.type	uip_arp_out, %function
 526              	uip_arp_out:
 527              	.LFB4:
 528              		.loc 1 355 0
 529              		.cfi_startproc
 530              		@ args = 0, pretend = 0, frame = 0
 531              		@ frame_needed = 0, uses_anonymous_args = 0
 532 0000 2DE9F84F 		push	{r3, r4, r5, r6, r7, r8, r9, r10, fp, lr}
 533              		.cfi_def_cfa_offset 40
 534              		.cfi_offset 3, -40
 535              		.cfi_offset 4, -36
 536              		.cfi_offset 5, -32
 537              		.cfi_offset 6, -28
 538              		.cfi_offset 7, -24
 539              		.cfi_offset 8, -20
 540              		.cfi_offset 9, -16
 541              		.cfi_offset 10, -12
 542              		.cfi_offset 11, -8
 543              		.cfi_offset 14, -4
 544              		.loc 1 366 0
 545 0004 40F20006 		movw	r6, #:lower16:uip_buf
 546 0008 C0F20006 		movt	r6, #:upper16:uip_buf
 547 000c F28B     		ldrh	r2, [r6, #30]	@ unaligned
 548 000e 4FF6FF73 		movw	r3, #65535
 549 0012 95B2     		uxth	r5, r2
 550 0014 9D42     		cmp	r5, r3
 551 0016 6AD0     		beq	.L62
 552              	.L50:
 553              		.loc 1 370 0
 554 0018 40F20007 		movw	r7, #:lower16:uip_hostaddr
 555 001c C0F20007 		movt	r7, #:upper16:uip_hostaddr
 556 0020 40F20003 		movw	r3, #:lower16:uip_netmask
 557 0024 3888     		ldrh	r0, [r7]
 558 0026 C0F20003 		movt	r3, #:upper16:uip_netmask
 559 002a 1988     		ldrh	r1, [r3]
 560 002c 6840     		eors	r0, r0, r5
 561 002e 0842     		tst	r0, r1
 562 0030 4ED0     		beq	.L63
 563              	.L52:
 564              		.loc 1 374 0
ARM GAS  /tmp/ccsdTHuA.s 			page 11


 565 0032 40F20003 		movw	r3, #:lower16:uip_draddr
 566 0036 C0F20003 		movt	r3, #:upper16:uip_draddr
 567 003a 1D88     		ldrh	r5, [r3]
 568 003c 40F20008 		movw	r8, #:lower16:.LANCHOR6
 569 0040 5B88     		ldrh	r3, [r3, #2]
 570 0042 C0F20008 		movt	r8, #:upper16:.LANCHOR6
 571 0046 A8F80230 		strh	r3, [r8, #2]	@ movhi
 572 004a A8F80050 		strh	r5, [r8]	@ movhi
 573              	.L54:
 574              		.loc 1 380 0
 575 004e 40F2000A 		movw	r10, #:lower16:.LANCHOR0
 576 0052 40F20003 		movw	r3, #:lower16:.LANCHOR1
 577              		.loc 1 382 0
 578 0056 B8F80290 		ldrh	r9, [r8, #2]
 579              		.loc 1 380 0
 580 005a C0F2000A 		movt	r10, #:upper16:.LANCHOR0
 581 005e C0F20003 		movt	r3, #:upper16:.LANCHOR1
 582              		.loc 1 382 0
 583 0062 0124     		movs	r4, #1
 584 0064 4FF0000C 		mov	ip, #0
 585 0068 05E0     		b	.L58
 586              	.LVL28:
 587              	.L55:
 588              		.loc 1 380 0
 589 006a 092A     		cmp	r2, #9
 590 006c 03F10C03 		add	r3, r3, #12
 591 0070 0DD0     		beq	.L57
 592 0072 A446     		mov	ip, r4
 593 0074 1446     		mov	r4, r2
 594              	.LVL29:
 595              	.L58:
 596              		.loc 1 382 0
 597 0076 1988     		ldrh	r1, [r3]
 598 0078 621C     		adds	r2, r4, #1
 599 007a A942     		cmp	r1, r5
 600 007c D2B2     		uxtb	r2, r2
 601              		.loc 1 381 0
 602 007e 1846     		mov	r0, r3
 603              		.loc 1 382 0
 604 0080 F3D1     		bne	.L55
 605              		.loc 1 382 0 is_stmt 0 discriminator 1
 606 0082 5988     		ldrh	r1, [r3, #2]
 607 0084 4945     		cmp	r1, r9
 608 0086 F0D1     		bne	.L55
 609 0088 8AF800C0 		strb	ip, [r10]
 610 008c 03E0     		b	.L59
 611              	.LVL30:
 612              	.L57:
 613              		.loc 1 387 0 is_stmt 1
 614 008e 082C     		cmp	r4, #8
 615 0090 8AF80040 		strb	r4, [r10]
 616 0094 37D0     		beq	.L64
 617              	.L59:
 618              		.loc 1 412 0
 619 0096 0346     		mov	r3, r0
 620 0098 53F8040F 		ldr	r0, [r3, #4]!	@ unaligned
 621              	.LVL31:
ARM GAS  /tmp/ccsdTHuA.s 			page 12


 622 009c 9B88     		ldrh	r3, [r3, #4]	@ unaligned
 623              	.LVL32:
 624 009e 3060     		str	r0, [r6]	@ unaligned
 625 00a0 B380     		strh	r3, [r6, #4]	@ unaligned
 626              	.L51:
 627              		.loc 1 418 0
 628 00a2 40F20003 		movw	r3, #:lower16:uip_len
 629 00a6 C0F20003 		movt	r3, #:upper16:uip_len
 630              		.loc 1 414 0
 631 00aa 40F20002 		movw	r2, #:lower16:uip_ethaddr
 632 00ae C0F20002 		movt	r2, #:upper16:uip_ethaddr
 633              		.loc 1 418 0
 634 00b2 1D88     		ldrh	r5, [r3]
 635              		.loc 1 414 0
 636 00b4 1768     		ldr	r7, [r2]	@ unaligned
 637 00b6 9488     		ldrh	r4, [r2, #4]	@ unaligned
 638 00b8 3C48     		ldr	r0, .L65
 639              		.loc 1 418 0
 640 00ba 0E35     		adds	r5, r5, #14
 641              		.loc 1 416 0
 642 00bc 0021     		movs	r1, #0
 643 00be 0822     		movs	r2, #8
 644              		.loc 1 414 0
 645 00c0 C6F80670 		str	r7, [r6, #6]	@ unaligned
 646              		.loc 1 418 0
 647 00c4 1D80     		strh	r5, [r3]	@ movhi
 648              		.loc 1 414 0
 649 00c6 8480     		strh	r4, [r0, #4]	@ unaligned
 650              		.loc 1 416 0
 651 00c8 7173     		strb	r1, [r6, #13]
 652 00ca 3273     		strb	r2, [r6, #12]
 653 00cc BDE8F88F 		pop	{r3, r4, r5, r6, r7, r8, r9, r10, fp, pc}
 654              	.L63:
 655              		.loc 1 370 0 discriminator 1
 656 00d0 318C     		ldrh	r1, [r6, #32]	@ unaligned
 657 00d2 7888     		ldrh	r0, [r7, #2]
 658 00d4 5B88     		ldrh	r3, [r3, #2]
 659 00d6 4840     		eors	r0, r0, r1
 660 00d8 1842     		tst	r0, r3
 661 00da AAD1     		bne	.L52
 662              		.loc 1 377 0
 663 00dc 40F20008 		movw	r8, #:lower16:.LANCHOR6
 664 00e0 C0F20008 		movt	r8, #:upper16:.LANCHOR6
 665 00e4 A8F80020 		strh	r2, [r8]	@ movhi
 666 00e8 A8F80210 		strh	r1, [r8, #2]	@ movhi
 667 00ec AFE7     		b	.L54
 668              	.L62:
 669              		.loc 1 366 0 discriminator 1
 670 00ee 338C     		ldrh	r3, [r6, #32]	@ unaligned
 671 00f0 AB42     		cmp	r3, r5
 672 00f2 91D1     		bne	.L50
 673              		.loc 1 367 0
 674 00f4 40F20003 		movw	r3, #:lower16:.LANCHOR5
 675 00f8 C0F20003 		movt	r3, #:upper16:.LANCHOR5
 676 00fc 1868     		ldr	r0, [r3]	@ unaligned
 677 00fe 9B88     		ldrh	r3, [r3, #4]	@ unaligned
 678 0100 3060     		str	r0, [r6]	@ unaligned
ARM GAS  /tmp/ccsdTHuA.s 			page 13


 679 0102 B380     		strh	r3, [r6, #4]	@ unaligned
 680 0104 CDE7     		b	.L51
 681              	.LVL33:
 682              	.L64:
 683              		.loc 1 391 0
 684 0106 40F20000 		movw	r0, #:lower16:uip_buf
 685              	.LVL34:
 686 010a FF21     		movs	r1, #255
 687 010c 0622     		movs	r2, #6
 688 010e C0F20000 		movt	r0, #:upper16:uip_buf
 689 0112 FFF7FEFF 		bl	memset
 690              	.LVL35:
 691              		.loc 1 393 0
 692 0116 40F20003 		movw	r3, #:lower16:uip_ethaddr
 693 011a C0F20003 		movt	r3, #:upper16:uip_ethaddr
 694 011e 2348     		ldr	r0, .L65
 695              		.loc 1 396 0
 696 0120 B8F802A0 		ldrh	r10, [r8, #2]
 697              		.loc 1 393 0
 698 0124 B3F804C0 		ldrh	ip, [r3, #4]	@ unaligned
 699 0128 D3F80080 		ldr	r8, [r3]	@ unaligned
 700              		.loc 1 397 0
 701 012c B7F80090 		ldrh	r9, [r7]
 702 0130 B7F802B0 		ldrh	fp, [r7, #2]
 703              		.loc 1 405 0
 704 0134 40F20001 		movw	r1, #:lower16:uip_appdata
 705              		.loc 1 407 0
 706 0138 40F20002 		movw	r2, #:lower16:uip_len
 707              		.loc 1 392 0
 708 013c 0023     		movs	r3, #0
 709              		.loc 1 393 0
 710 013e C6F80680 		str	r8, [r6, #6]	@ unaligned
 711              		.loc 1 394 0
 712 0142 C6F81680 		str	r8, [r6, #22]	@ unaligned
 713              		.loc 1 393 0
 714 0146 A0F804C0 		strh	ip, [r0, #4]	@ unaligned
 715              		.loc 1 394 0
 716 014a A0F814C0 		strh	ip, [r0, #20]	@ unaligned
 717              		.loc 1 405 0
 718 014e C0F20001 		movt	r1, #:upper16:uip_appdata
 719              		.loc 1 407 0
 720 0152 C0F20002 		movt	r2, #:upper16:uip_len
 721 0156 2A27     		movs	r7, #42
 722              		.loc 1 396 0
 723 0158 A6F828A0 		strh	r10, [r6, #40]	@ unaligned
 724 015c F584     		strh	r5, [r6, #38]	@ unaligned
 725              		.loc 1 398 0
 726 015e 4FF0010A 		mov	r10, #1
 727              		.loc 1 401 0
 728 0162 0625     		movs	r5, #6
 729              		.loc 1 402 0
 730 0164 4FF00408 		mov	r8, #4
 731              		.loc 1 405 0
 732 0168 3030     		adds	r0, r0, #48
 733              		.loc 1 400 0
 734 016a 3474     		strb	r4, [r6, #16]
 735              		.loc 1 403 0
ARM GAS  /tmp/ccsdTHuA.s 			page 14


 736 016c 3473     		strb	r4, [r6, #12]
 737              		.loc 1 405 0
 738 016e 0860     		str	r0, [r1]
 739              		.loc 1 407 0
 740 0170 1780     		strh	r7, [r2]	@ movhi
 741              		.loc 1 397 0
 742 0172 A6F81C90 		strh	r9, [r6, #28]	@ unaligned
 743 0176 A6F81EB0 		strh	fp, [r6, #30]	@ unaligned
 744              		.loc 1 392 0
 745 017a 86F82030 		strb	r3, [r6, #32]
 746 017e 86F82130 		strb	r3, [r6, #33]
 747 0182 86F82230 		strb	r3, [r6, #34]
 748 0186 86F82330 		strb	r3, [r6, #35]
 749 018a 86F82430 		strb	r3, [r6, #36]
 750 018e 86F82530 		strb	r3, [r6, #37]
 751              		.loc 1 398 0
 752 0192 3375     		strb	r3, [r6, #20]
 753              		.loc 1 399 0
 754 0194 B373     		strb	r3, [r6, #14]
 755              		.loc 1 400 0
 756 0196 7374     		strb	r3, [r6, #17]
 757              		.loc 1 398 0
 758 0198 86F815A0 		strb	r10, [r6, #21]
 759              		.loc 1 399 0
 760 019c 86F80FA0 		strb	r10, [r6, #15]
 761              		.loc 1 401 0
 762 01a0 B574     		strb	r5, [r6, #18]
 763              		.loc 1 403 0
 764 01a2 7573     		strb	r5, [r6, #13]
 765              		.loc 1 402 0
 766 01a4 86F81380 		strb	r8, [r6, #19]
 767              		.loc 1 408 0
 768 01a8 BDE8F88F 		pop	{r3, r4, r5, r6, r7, r8, r9, r10, fp, pc}
 769              	.L66:
 770              		.align	2
 771              	.L65:
 772 01ac 06000000 		.word	uip_buf+6
 773              		.cfi_endproc
 774              	.LFE4:
 775              		.size	uip_arp_out, .-uip_arp_out
 776              		.section	.bss.i,"aw",%nobits
 777              		.set	.LANCHOR0,. + 0
 778              		.type	i, %object
 779              		.size	i, 1
 780              	i:
 781 0000 00       		.space	1
 782              		.section	.bss.tmpage,"aw",%nobits
 783              		.set	.LANCHOR3,. + 0
 784              		.type	tmpage, %object
 785              		.size	tmpage, 1
 786              	tmpage:
 787 0000 00       		.space	1
 788              		.section	.bss.arp_table,"aw",%nobits
 789              		.align	2
 790              		.set	.LANCHOR1,. + 0
 791              		.type	arp_table, %object
 792              		.size	arp_table, 96
ARM GAS  /tmp/ccsdTHuA.s 			page 15


 793              	arp_table:
 794 0000 00000000 		.space	96
 794      00000000 
 794      00000000 
 794      00000000 
 794      00000000 
 795              		.section	.rodata.broadcast_ethaddr,"a",%progbits
 796              		.align	2
 797              		.set	.LANCHOR5,. + 0
 798              		.type	broadcast_ethaddr, %object
 799              		.size	broadcast_ethaddr, 6
 800              	broadcast_ethaddr:
 801 0000 FF       		.byte	-1
 802 0001 FF       		.byte	-1
 803 0002 FF       		.byte	-1
 804 0003 FF       		.byte	-1
 805 0004 FF       		.byte	-1
 806 0005 FF       		.byte	-1
 807 0006 0000     		.section	.bss.c,"aw",%nobits
 808              		.set	.LANCHOR4,. + 0
 809              		.type	c, %object
 810              		.size	c, 1
 811              	c:
 812 0000 00       		.space	1
 813              		.section	.bss.arptime,"aw",%nobits
 814              		.set	.LANCHOR2,. + 0
 815              		.type	arptime, %object
 816              		.size	arptime, 1
 817              	arptime:
 818 0000 00       		.space	1
 819              		.section	.bss.ipaddr,"aw",%nobits
 820              		.align	2
 821              		.set	.LANCHOR6,. + 0
 822              		.type	ipaddr, %object
 823              		.size	ipaddr, 4
 824              	ipaddr:
 825 0000 00000000 		.space	4
 826              		.text
 827              	.Letext0:
 828              		.file 2 "/usr/include/newlib/machine/_default_types.h"
 829              		.file 3 "/usr/include/newlib/stdint.h"
 830              		.file 4 "./uip-conf.h"
 831              		.file 5 "../uip/uip.h"
 832              		.file 6 "../uip/uip_arp.h"
 833              		.file 7 "/usr/lib/gcc/arm-none-eabi/4.8.2/include/stddef.h"
 834              		.file 8 "/usr/include/newlib/string.h"