ARM GAS  /tmp/ccbMtfMq.s 			page 1


   1              		.syntax unified
   2              		.cpu cortex-m3
   3              		.fpu softvfp
   4              		.eabi_attribute 20, 1
   5              		.eabi_attribute 21, 1
   6              		.eabi_attribute 23, 3
   7              		.eabi_attribute 24, 1
   8              		.eabi_attribute 25, 1
   9              		.eabi_attribute 26, 1
  10              		.eabi_attribute 30, 2
  11              		.eabi_attribute 34, 1
  12              		.eabi_attribute 18, 4
  13              		.thumb
  14              		.file	"util.c"
  15              		.text
  16              	.Ltext0:
  17              		.cfi_sections	.debug_frame
  18              		.section	.text.strrev,"ax",%progbits
  19              		.align	2
  20              		.p2align 4,,15
  21              		.global	strrev
  22              		.thumb
  23              		.thumb_func
  24              		.type	strrev, %function
  25              	strrev:
  26              	.LFB56:
  27              		.file 1 "util.c"
  28              		.loc 1 31 0
  29              		.cfi_startproc
  30              		@ args = 0, pretend = 0, frame = 0
  31              		@ frame_needed = 0, uses_anonymous_args = 0
  32              	.LVL0:
  33 0000 38B5     		push	{r3, r4, r5, lr}
  34              		.cfi_def_cfa_offset 16
  35              		.cfi_offset 3, -16
  36              		.cfi_offset 4, -12
  37              		.cfi_offset 5, -8
  38              		.cfi_offset 14, -4
  39              		.loc 1 31 0
  40 0002 0546     		mov	r5, r0
  41              		.loc 1 33 0
  42 0004 FFF7FEFF 		bl	strlen
  43              	.LVL1:
  44              		.loc 1 36 0
  45 0008 4408     		lsrs	r4, r0, #1
  46 000a 0BD0     		beq	.L1
  47 000c 2B46     		mov	r3, r5
  48 000e 2844     		add	r0, r0, r5
  49              	.LVL2:
  50 0010 2C44     		add	r4, r4, r5
  51              	.LVL3:
  52              	.L4:
  53              		.loc 1 38 0 discriminator 2
  54 0012 10F8011C 		ldrb	r1, [r0, #-1]	@ zero_extendqisi2
  55              		.loc 1 37 0 discriminator 2
  56 0016 1A78     		ldrb	r2, [r3]	@ zero_extendqisi2
  57              	.LVL4:
ARM GAS  /tmp/ccbMtfMq.s 			page 2


  58              		.loc 1 38 0 discriminator 2
  59 0018 03F8011B 		strb	r1, [r3], #1
  60              	.LVL5:
  61              		.loc 1 36 0 discriminator 2
  62 001c A342     		cmp	r3, r4
  63              		.loc 1 39 0 discriminator 2
  64 001e 00F8012D 		strb	r2, [r0, #-1]!
  65              	.LVL6:
  66              		.loc 1 36 0 discriminator 2
  67 0022 F6D1     		bne	.L4
  68              	.LVL7:
  69              	.L1:
  70 0024 38BD     		pop	{r3, r4, r5, pc}
  71              		.cfi_endproc
  72              	.LFE56:
  73              		.size	strrev, .-strrev
  74 0026 00BFAFF3 		.section	.text.nitoa,"ax",%progbits
  74      0080AFF3 
  74      0080
  75              		.align	2
  76              		.p2align 4,,15
  77              		.global	nitoa
  78              		.thumb
  79              		.thumb_func
  80              		.type	nitoa, %function
  81              	nitoa:
  82              	.LFB57:
  83              		.loc 1 44 0
  84              		.cfi_startproc
  85              		@ args = 0, pretend = 0, frame = 0
  86              		@ frame_needed = 0, uses_anonymous_args = 0
  87              	.LVL8:
  88              		.loc 1 47 0
  89 0000 0139     		subs	r1, r1, #1
  90              	.LVL9:
  91              		.loc 1 44 0
  92 0002 70B5     		push	{r4, r5, r6, lr}
  93              		.cfi_def_cfa_offset 16
  94              		.cfi_offset 4, -16
  95              		.cfi_offset 5, -12
  96              		.cfi_offset 6, -8
  97              		.cfi_offset 14, -4
  98              		.loc 1 47 0
  99 0004 1CD0     		beq	.L13
 100 0006 DAB1     		cbz	r2, .L13
 101              		.loc 1 48 0
 102 0008 4CF6CD46 		movw	r6, #52429
 103 000c CCF6CC46 		movt	r6, 52428
 104              		.loc 1 47 0
 105 0010 0023     		movs	r3, #0
 106 0012 00E0     		b	.L11
 107              	.LVL10:
 108              	.L9:
 109              		.loc 1 47 0 is_stmt 0 discriminator 2
 110 0014 64B1     		cbz	r4, .L14
 111              	.LVL11:
 112              	.L11:
ARM GAS  /tmp/ccbMtfMq.s 			page 3


 113              		.loc 1 48 0 is_stmt 1 discriminator 1
 114 0016 A6FB0254 		umull	r5, r4, r6, r2
 115 001a E408     		lsrs	r4, r4, #3
 116 001c 04EB8405 		add	r5, r4, r4, lsl #2
 117 0020 A2EB4502 		sub	r2, r2, r5, lsl #1
 118              	.LVL12:
 119 0024 3032     		adds	r2, r2, #48
 120 0026 C254     		strb	r2, [r0, r3]
 121              		.loc 1 47 0 discriminator 1
 122 0028 0133     		adds	r3, r3, #1
 123              	.LVL13:
 124 002a 8B42     		cmp	r3, r1
 125              		.loc 1 49 0 discriminator 1
 126 002c 2246     		mov	r2, r4
 127              	.LVL14:
 128              		.loc 1 47 0 discriminator 1
 129 002e F1D1     		bne	.L9
 130              	.L14:
 131 0030 0133     		adds	r3, r3, #1
 132              	.LVL15:
 133 0032 1C46     		mov	r4, r3
 134              	.LVL16:
 135              	.L8:
 136              		.loc 1 51 0
 137 0034 0022     		movs	r2, #0
 138              	.LVL17:
 139 0036 C254     		strb	r2, [r0, r3]
 140              		.loc 1 52 0
 141 0038 FFF7FEFF 		bl	strrev
 142              	.LVL18:
 143              		.loc 1 54 0
 144 003c 2046     		mov	r0, r4
 145 003e 70BD     		pop	{r4, r5, r6, pc}
 146              	.LVL19:
 147              	.L13:
 148              		.loc 1 47 0
 149 0040 0124     		movs	r4, #1
 150 0042 2346     		mov	r3, r4
 151 0044 F6E7     		b	.L8
 152              		.cfi_endproc
 153              	.LFE57:
 154              		.size	nitoa, .-nitoa
 155 0046 00BFAFF3 		.section	.text.senddbgmsg,"ax",%progbits
 155      0080AFF3 
 155      0080
 156              		.align	2
 157              		.p2align 4,,15
 158              		.global	senddbgmsg
 159              		.thumb
 160              		.thumb_func
 161              		.type	senddbgmsg, %function
 162              	senddbgmsg:
 163              	.LFB58:
 164              		.loc 1 58 0
 165              		.cfi_startproc
 166              		@ args = 4, pretend = 16, frame = 104
 167              		@ frame_needed = 0, uses_anonymous_args = 1
ARM GAS  /tmp/ccbMtfMq.s 			page 4


 168              	.LVL20:
 169 0000 0FB4     		push	{r0, r1, r2, r3}
 170              		.cfi_def_cfa_offset 16
 171              		.cfi_offset 0, -16
 172              		.cfi_offset 1, -12
 173              		.cfi_offset 2, -8
 174              		.cfi_offset 3, -4
 175 0002 00B5     		push	{lr}
 176              		.cfi_def_cfa_offset 20
 177              		.cfi_offset 14, -20
 178 0004 9BB0     		sub	sp, sp, #108
 179              		.cfi_def_cfa_offset 128
 180              		.loc 1 58 0
 181 0006 1CAB     		add	r3, sp, #112
 182 0008 53F8041B 		ldr	r1, [r3], #4
 183              		.loc 1 63 0
 184 000c 01A8     		add	r0, sp, #4
 185 000e 1A46     		mov	r2, r3
 186              		.loc 1 62 0
 187 0010 0093     		str	r3, [sp]
 188              		.loc 1 63 0
 189 0012 FFF7FEFF 		bl	vsprintf
 190              	.LVL21:
 191              		.loc 1 65 0
 192 0016 40F20000 		movw	r0, #:lower16:uartMtx
 193 001a C0F20000 		movt	r0, #:upper16:uartMtx
 194 001e FFF7FEFF 		bl	chMtxTryLock
 195              	.LVL22:
 196 0022 60B1     		cbz	r0, .L15
 197              		.loc 1 70 0
 198 0024 01A8     		add	r0, sp, #4
 199 0026 FFF7FEFF 		bl	strlen
 200              	.LVL23:
 201 002a 0146     		mov	r1, r0
 202 002c 40F20000 		movw	r0, #:lower16:UARTD2
 203 0030 01AA     		add	r2, sp, #4
 204 0032 C0F20000 		movt	r0, #:upper16:UARTD2
 205 0036 FFF7FEFF 		bl	uartStartSend
 206              	.LVL24:
 207              		.loc 1 72 0
 208 003a FFF7FEFF 		bl	chMtxUnlock
 209              	.LVL25:
 210              	.L15:
 211              		.loc 1 75 0
 212 003e 1BB0     		add	sp, sp, #108
 213              		@ sp needed
 214 0040 5DF804EB 		ldr	lr, [sp], #4
 215 0044 04B0     		add	sp, sp, #16
 216 0046 7047     		bx	lr
 217              		.cfi_endproc
 218              	.LFE58:
 219              		.size	senddbgmsg, .-senddbgmsg
 220 0048 AFF30080 		.text
 220      AFF30080 
 221              	.Letext0:
 222              		.file 2 "/usr/lib/gcc/arm-none-eabi/4.8.2/include/stddef.h"
 223              		.file 3 "/usr/include/newlib/machine/_default_types.h"
ARM GAS  /tmp/ccbMtfMq.s 			page 5


 224              		.file 4 "/usr/lib/gcc/arm-none-eabi/4.8.2/include/stdarg.h"
 225              		.file 5 "/usr/include/newlib/stdint.h"
 226              		.file 6 "../os/ports/GCC/ARMCMx/chtypes.h"
 227              		.file 7 "../os/kernel/include/chlists.h"
 228              		.file 8 "<built-in>"
 229              		.file 9 "../os/kernel/include/chthreads.h"
 230              		.file 10 "../os/ports/GCC/ARMCMx/chcore_v7m.h"
 231              		.file 11 "../os/kernel/include/chmtx.h"
 232              		.file 12 "../os/hal/platforms/STM32F1xx/stm32f10x.h"
 233              		.file 13 "../os/hal/platforms/STM32F1xx/stm32_dma.h"
 234              		.file 14 "../os/hal/include/uart.h"
 235              		.file 15 "../os/hal/platforms/STM32/USARTv1/uart_lld.h"
 236              		.file 16 "../os/ports/common/ARMCMx/CMSIS/include/core_cm3.h"
 237              		.file 17 "/usr/include/newlib/string.h"
 238              		.file 18 "/usr/include/newlib/stdio.h"