ARM GAS  /tmp/ccbh0YzT.s 			page 1


   1              		.syntax unified
   2              		.cpu cortex-m3
   3              		.fpu softvfp
   4              		.eabi_attribute 20, 1
   5              		.eabi_attribute 21, 1
   6              		.eabi_attribute 23, 3
   7              		.eabi_attribute 24, 1
   8              		.eabi_attribute 25, 1
   9              		.eabi_attribute 26, 1
  10              		.eabi_attribute 30, 2
  11              		.eabi_attribute 34, 1
  12              		.eabi_attribute 18, 4
  13              		.thumb
  14              		.file	"chcore_v7m.c"
  15              		.text
  16              	.Ltext0:
  17              		.cfi_sections	.debug_frame
  18              		.section	.text._port_switch_from_isr,"ax",%progbits
  19              		.align	2
  20              		.p2align 4,,15
  21              		.global	_port_switch_from_isr
  22              		.thumb
  23              		.thumb_func
  24              		.type	_port_switch_from_isr, %function
  25              	_port_switch_from_isr:
  26              	.LFB6:
  27              		.file 1 "../os/ports/GCC/ARMCMx/chcore_v7m.c"
  28              		.loc 1 200 0
  29              		.cfi_startproc
  30              		@ Naked Function: prologue and epilogue provided by programmer.
  31              		@ args = 0, pretend = 0, frame = 0
  32              		@ frame_needed = 0, uses_anonymous_args = 0
  33              		.loc 1 203 0
  34 0000 FFF7FEFF 		bl	chSchDoReschedule
  35              	.LVL0:
  36              		.loc 1 205 0
  37              	@ 205 "../os/ports/GCC/ARMCMx/chcore_v7m.c" 1
  38              		_port_exit_from_isr:
  39              	@ 0 "" 2
  40              		.loc 1 207 0
  41              	@ 207 "../os/ports/GCC/ARMCMx/chcore_v7m.c" 1
  42 0004 00DF     		svc     #0
  43              	@ 0 "" 2
  44              		.loc 1 214 0
  45              		.thumb
  46              		.cfi_endproc
  47              	.LFE6:
  48              		.size	_port_switch_from_isr, .-_port_switch_from_isr
  49 0006 00BFAFF3 		.section	.text.SVCallVector,"ax",%progbits
  49      0080AFF3 
  49      0080
  50              		.align	2
  51              		.p2align 4,,15
  52              		.global	SVCallVector
  53              		.thumb
  54              		.thumb_func
  55              		.type	SVCallVector, %function
ARM GAS  /tmp/ccbh0YzT.s 			page 2


  56              	SVCallVector:
  57              	.LFB1:
  58              		.loc 1 65 0
  59              		.cfi_startproc
  60              		@ args = 0, pretend = 0, frame = 0
  61              		@ frame_needed = 0, uses_anonymous_args = 0
  62 0000 00B5     		push	{lr}
  63              		.cfi_def_cfa_offset 4
  64              		.cfi_offset 14, -4
  65              		.loc 1 74 0
  66              	@ 74 "../os/ports/GCC/ARMCMx/chcore_v7m.c" 1
  67 0002 EFF30983 		mrs     r3, PSP
  68              	@ 0 "" 2
  69              	.LVL1:
  70              		.loc 1 78 0
  71              		.thumb
  72 0006 2033     		adds	r3, r3, #32
  73              	.LVL2:
  74              		.loc 1 81 0
  75              	@ 81 "../os/ports/GCC/ARMCMx/chcore_v7m.c" 1
  76 0008 83F30988 		msr     PSP, r3
  77              	@ 0 "" 2
  78              		.loc 1 82 0
  79              	@ 82 "../os/ports/GCC/ARMCMx/chcore_v7m.c" 1
  80 000c FFF7FEFF 		bl      _port_unlock
  81              	@ 0 "" 2
  82              	.LVL3:
  83              		.thumb
  84 0010 5DF804FB 		ldr	pc, [sp], #4
  85              		.cfi_endproc
  86              	.LFE1:
  87              		.size	SVCallVector, .-SVCallVector
  88              		.section	.text._port_init,"ax",%progbits
  89              		.align	2
  90              		.p2align 4,,15
  91              		.global	_port_init
  92              		.thumb
  93              		.thumb_func
  94              		.type	_port_init, %function
  95              	_port_init:
  96              	.LFB2:
  97              		.loc 1 120 0
  98              		.cfi_startproc
  99              		@ args = 0, pretend = 0, frame = 0
 100              		@ frame_needed = 0, uses_anonymous_args = 0
 101 0000 08B5     		push	{r3, lr}
 102              		.cfi_def_cfa_offset 8
 103              		.cfi_offset 3, -8
 104              		.cfi_offset 14, -4
 105              		.loc 1 124 0
 106 0002 094A     		ldr	r2, .L4
 107              		.loc 1 123 0
 108 0004 094B     		ldr	r3, .L4+4
 109 0006 0021     		movs	r1, #0
 110 0008 9960     		str	r1, [r3, #8]
 111              		.loc 1 127 0
 112 000a 0720     		movs	r0, #7
ARM GAS  /tmp/ccbh0YzT.s 			page 3


 113              		.loc 1 124 0
 114 000c DA60     		str	r2, [r3, #12]
 115              		.loc 1 127 0
 116 000e 1021     		movs	r1, #16
 117 0010 FFF7FEFF 		bl	nvicSetSystemHandlerPriority
 118              	.LVL4:
 119              		.loc 1 129 0
 120 0014 0A20     		movs	r0, #10
 121 0016 2021     		movs	r1, #32
 122 0018 FFF7FEFF 		bl	nvicSetSystemHandlerPriority
 123              	.LVL5:
 124              		.loc 1 133 0
 125 001c BDE80840 		pop	{r3, lr}
 126              		.loc 1 131 0
 127 0020 0B20     		movs	r0, #11
 128 0022 8021     		movs	r1, #128
 129 0024 FFF7FEBF 		b	nvicSetSystemHandlerPriority
 130              	.LVL6:
 131              	.L5:
 132              		.align	2
 133              	.L4:
 134 0028 0003FA05 		.word	100270848
 135 002c 00ED00E0 		.word	-536810240
 136              		.cfi_endproc
 137              	.LFE2:
 138              		.size	_port_init, .-_port_init
 139              		.section	.text._port_lock,"ax",%progbits
 140              		.align	2
 141              		.p2align 4,,15
 142              		.global	_port_lock
 143              		.thumb
 144              		.thumb_func
 145              		.type	_port_lock, %function
 146              	_port_lock:
 147              	.LFB3:
 148              		.loc 1 136 0
 149              		.cfi_startproc
 150              		@ args = 0, pretend = 0, frame = 0
 151              		@ frame_needed = 0, uses_anonymous_args = 0
 152              		@ link register save eliminated.
 153              		.loc 1 137 0
 154 0000 2023     		movs	r3, #32
 155              		.loc 1 138 0
 156              	@ 138 "../os/ports/GCC/ARMCMx/chcore_v7m.c" 1
 157 0002 83F31188 		msr     BASEPRI, r3
 158              	@ 0 "" 2
 159              		.thumb
 160 0006 7047     		bx	lr
 161              		.cfi_endproc
 162              	.LFE3:
 163              		.size	_port_lock, .-_port_lock
 164 0008 AFF30080 		.section	.text._port_unlock,"ax",%progbits
 164      AFF30080 
 165              		.align	2
 166              		.p2align 4,,15
 167              		.global	_port_unlock
 168              		.thumb
ARM GAS  /tmp/ccbh0YzT.s 			page 4


 169              		.thumb_func
 170              		.type	_port_unlock, %function
 171              	_port_unlock:
 172              	.LFB4:
 173              		.loc 1 141 0
 174              		.cfi_startproc
 175              		@ args = 0, pretend = 0, frame = 0
 176              		@ frame_needed = 0, uses_anonymous_args = 0
 177              		@ link register save eliminated.
 178              		.loc 1 142 0
 179 0000 0023     		movs	r3, #0
 180              		.loc 1 143 0
 181              	@ 143 "../os/ports/GCC/ARMCMx/chcore_v7m.c" 1
 182 0002 83F31188 		msr     BASEPRI, r3
 183              	@ 0 "" 2
 184              		.thumb
 185 0006 7047     		bx	lr
 186              		.cfi_endproc
 187              	.LFE4:
 188              		.size	_port_unlock, .-_port_unlock
 189 0008 AFF30080 		.section	.text._port_irq_epilogue,"ax",%progbits
 189      AFF30080 
 190              		.align	2
 191              		.p2align 4,,15
 192              		.global	_port_irq_epilogue
 193              		.thumb
 194              		.thumb_func
 195              		.type	_port_irq_epilogue, %function
 196              	_port_irq_epilogue:
 197              	.LFB5:
 198              		.loc 1 150 0
 199              		.cfi_startproc
 200              		@ args = 0, pretend = 0, frame = 0
 201              		@ frame_needed = 0, uses_anonymous_args = 0
 202 0000 00B5     		push	{lr}
 203              		.cfi_def_cfa_offset 4
 204              		.cfi_offset 14, -4
 205              		.loc 1 152 0
 206              	@ 152 "../os/ports/GCC/ARMCMx/chcore_v7m.c" 1
 207 0002 FFF7FEFF 		bl      _port_lock
 208              	@ 0 "" 2
 209              		.loc 1 153 0
 210              		.thumb
 211 0006 174B     		ldr	r3, .L16
 212 0008 5B68     		ldr	r3, [r3, #4]
 213 000a 1B05     		lsls	r3, r3, #20
 214 000c 1AD5     		bpl	.L9
 215              	.LBB2:
 216              		.loc 1 163 0
 217              	@ 163 "../os/ports/GCC/ARMCMx/chcore_v7m.c" 1
 218 000e EFF30983 		mrs     r3, PSP
 219              	@ 0 "" 2
 220              	.LVL7:
 221              		.loc 1 168 0
 222              		.thumb
 223 0012 4FF08072 		mov	r2, #16777216
 224 0016 43F8042C 		str	r2, [r3, #-4]
ARM GAS  /tmp/ccbh0YzT.s 			page 5


 225              		.loc 1 167 0
 226 001a A3F12002 		sub	r2, r3, #32
 227              	.LVL8:
 228              		.loc 1 172 0
 229              	@ 172 "../os/ports/GCC/ARMCMx/chcore_v7m.c" 1
 230 001e 82F30988 		msr     PSP, r2
 231              	@ 0 "" 2
 232              		.loc 1 176 0
 233              		.thumb
 234 0022 1149     		ldr	r1, .L16+4
 235 0024 0A69     		ldr	r2, [r1, #16]
 236              	.LVL9:
 237 0026 0968     		ldr	r1, [r1]
 238 0028 907C     		ldrb	r0, [r2, #18]	@ zero_extendqisi2
 239 002a 8968     		ldr	r1, [r1, #8]
 240 002c 9268     		ldr	r2, [r2, #8]
 241 002e 68B1     		cbz	r0, .L10
 242              		.loc 1 176 0 is_stmt 0 discriminator 1
 243 0030 9142     		cmp	r1, r2
 244 0032 94BF     		ite	ls
 245 0034 0022     		movls	r2, #0
 246 0036 0122     		movhi	r2, #1
 247 0038 72B1     		cbz	r2, .L12
 248              	.L15:
 249              		.loc 1 178 0 is_stmt 1
 250 003a 0C4A     		ldr	r2, .L16+8
 251 003c 43F8082C 		str	r2, [r3, #-8]
 252 0040 5DF804FB 		ldr	pc, [sp], #4
 253              	.LVL10:
 254              	.L9:
 255              	.LBE2:
 256              		.loc 1 190 0
 257              	@ 190 "../os/ports/GCC/ARMCMx/chcore_v7m.c" 1
 258 0044 FFF7FEFF 		bl      _port_unlock
 259              	@ 0 "" 2
 260              		.thumb
 261 0048 5DF804FB 		ldr	pc, [sp], #4
 262              	.LVL11:
 263              	.L10:
 264              	.LBB3:
 265              		.loc 1 176 0 discriminator 2
 266 004c 9142     		cmp	r1, r2
 267 004e 34BF     		ite	cc
 268 0050 0022     		movcc	r2, #0
 269 0052 0122     		movcs	r2, #1
 270 0054 002A     		cmp	r2, #0
 271 0056 F0D1     		bne	.L15
 272              	.L12:
 273              		.loc 1 183 0
 274 0058 054A     		ldr	r2, .L16+12
 275 005a 43F8082C 		str	r2, [r3, #-8]
 276 005e 5DF804FB 		ldr	pc, [sp], #4
 277              	.L17:
 278 0062 00BF     		.align	2
 279              	.L16:
 280 0064 00ED00E0 		.word	-536810240
 281 0068 00000000 		.word	rlist
ARM GAS  /tmp/ccbh0YzT.s 			page 6


 282 006c 00000000 		.word	_port_switch_from_isr
 283 0070 04000000 		.word	_port_exit_from_isr
 284              	.LBE3:
 285              		.cfi_endproc
 286              	.LFE5:
 287              		.size	_port_irq_epilogue, .-_port_irq_epilogue
 288 0074 AFF30080 		.section	.text.SysTickVector,"ax",%progbits
 288      AFF30080 
 288      AFF30080 
 289              		.align	2
 290              		.p2align 4,,15
 291              		.global	SysTickVector
 292              		.thumb
 293              		.thumb_func
 294              		.type	SysTickVector, %function
 295              	SysTickVector:
 296              	.LFB0:
 297              		.loc 1 47 0
 298              		.cfi_startproc
 299              		@ args = 0, pretend = 0, frame = 0
 300              		@ frame_needed = 0, uses_anonymous_args = 0
 301 0000 08B5     		push	{r3, lr}
 302              		.cfi_def_cfa_offset 8
 303              		.cfi_offset 3, -8
 304              		.cfi_offset 14, -4
 305              		.loc 1 51 0
 306              	@ 51 "../os/ports/GCC/ARMCMx/chcore_v7m.c" 1
 307 0002 FFF7FEFF 		bl      _port_lock
 308              	@ 0 "" 2
 309              		.loc 1 52 0
 310              		.thumb
 311 0006 FFF7FEFF 		bl	chSysTimerHandlerI
 312              	.LVL12:
 313              		.loc 1 53 0
 314              	@ 53 "../os/ports/GCC/ARMCMx/chcore_v7m.c" 1
 315 000a FFF7FEFF 		bl      _port_unlock
 316              	@ 0 "" 2
 317              		.loc 1 56 0
 318              		.thumb
 319 000e BDE80840 		pop	{r3, lr}
 320              		.loc 1 55 0
 321 0012 FFF7FEBF 		b	_port_irq_epilogue
 322              	.LVL13:
 323              		.cfi_endproc
 324              	.LFE0:
 325              		.size	SysTickVector, .-SysTickVector
 326              		.section	.text._port_switch,"ax",%progbits
 327              		.align	2
 328              		.p2align 4,,15
 329              		.global	_port_switch
 330              		.thumb
 331              		.thumb_func
 332              		.type	_port_switch, %function
 333              	_port_switch:
 334              	.LFB7:
 335              		.loc 1 229 0
 336              		.cfi_startproc
ARM GAS  /tmp/ccbh0YzT.s 			page 7


 337              		@ Naked Function: prologue and epilogue provided by programmer.
 338              		@ args = 0, pretend = 0, frame = 0
 339              		@ frame_needed = 0, uses_anonymous_args = 0
 340              	.LVL14:
 341              		.loc 1 231 0
 342              	@ 231 "../os/ports/GCC/ARMCMx/chcore_v7m.c" 1
 343 0000 2DE9F04F 		push    {r4, r5, r6, r7, r8, r9, r10, r11, lr}
 344              	@ 0 "" 2
 345              		.loc 1 237 0
 346              	@ 237 "../os/ports/GCC/ARMCMx/chcore_v7m.c" 1
 347 0004 C1F80CD0 		str     sp, [r1, #12]                          
 348 0008 D0F80CD0 		ldr     sp, [r0, #12]
 349              	@ 0 "" 2
 350              		.loc 1 243 0
 351              	@ 243 "../os/ports/GCC/ARMCMx/chcore_v7m.c" 1
 352 000c BDE8F08F 		pop     {r4, r5, r6, r7, r8, r9, r10, r11, pc}
 353              	@ 0 "" 2
 354              		.loc 1 245 0
 355              		.thumb
 356              		.cfi_endproc
 357              	.LFE7:
 358              		.size	_port_switch, .-_port_switch
 359              		.section	.text._port_thread_start,"ax",%progbits
 360              		.align	2
 361              		.p2align 4,,15
 362              		.global	_port_thread_start
 363              		.thumb
 364              		.thumb_func
 365              		.type	_port_thread_start, %function
 366              	_port_thread_start:
 367              	.LFB8:
 368              		.loc 1 252 0
 369              		.cfi_startproc
 370              		@ args = 0, pretend = 0, frame = 0
 371              		@ frame_needed = 0, uses_anonymous_args = 0
 372 0000 00B5     		push	{lr}
 373              		.cfi_def_cfa_offset 4
 374              		.cfi_offset 14, -4
 375              		.loc 1 254 0
 376              	@ 254 "../os/ports/GCC/ARMCMx/chcore_v7m.c" 1
 377 0002 FFF7FEFF 		bl      _port_unlock
 378              	@ 0 "" 2
 379              		.loc 1 255 0
 380              	@ 255 "../os/ports/GCC/ARMCMx/chcore_v7m.c" 1
 381 0006 2846     		mov     r0, r5                                 
 382 0008 A047     		blx     r4                                     
 383 000a FFF7FEFF 		bl      chThdExit
 384              	@ 0 "" 2
 385              		.thumb
 386 000e 5DF804FB 		ldr	pc, [sp], #4
 387              		.cfi_endproc
 388              	.LFE8:
 389              		.size	_port_thread_start, .-_port_thread_start
 390 0012 00BFAFF3 		.text
 390      0080AFF3 
 390      0080AFF3 
 390      0080
ARM GAS  /tmp/ccbh0YzT.s 			page 8


 391              	.Letext0:
 392              		.file 2 "/usr/include/newlib/machine/_default_types.h"
 393              		.file 3 "/usr/include/newlib/stdint.h"
 394              		.file 4 "../os/ports/GCC/ARMCMx/chtypes.h"
 395              		.file 5 "../os/kernel/include/chlists.h"
 396              		.file 6 "../os/kernel/include/chthreads.h"
 397              		.file 7 "../os/ports/GCC/ARMCMx/chcore_v7m.h"
 398              		.file 8 "../os/ports/common/ARMCMx/nvic.h"
 399              		.file 9 "../os/kernel/include/chschd.h"
 400              		.file 10 "../os/kernel/include/chmtx.h"
 401              		.file 11 "../os/kernel/include/chsys.h"