ARM GAS  /tmp/ccbh0YzT.s 			page 1


   1              		.syntax unified
   2              		.cpu cortex-m3
   3              		.fpu softvfp
   4              		.eabi_attribute 20, 1
   5              		.eabi_attribute 21, 1
   6              		.eabi_attribute 23, 3
   7              		.eabi_attribute 24, 1
   8              		.eabi_attribute 25, 1
   9              		.eabi_attribute 26, 1
  10              		.eabi_attribute 30, 2
  11              		.eabi_attribute 34, 1
  12              		.eabi_attribute 18, 4
  13              		.thumb
  14              		.file	"chcore_v7m.c"
  15              		.text
  16              	.Ltext0:
  17              		.cfi_sections	.debug_frame
  18              		.section	.text._port_switch_from_isr,"ax",%progbits
  19              		.align	2
  20              		.p2align 4,,15
  21              		.global	_port_switch_from_isr
  22              		.thumb
  23              		.thumb_func
  24              		.type	_port_switch_from_isr, %function
  25              	_port_switch_from_isr:
  26              	.LFB6:
  27              		.file 1 "../os/ports/GCC/ARMCMx/chcore_v7m.c"
  28              		.loc 1 200 0
  29              		.cfi_startproc
  30              		@ Naked Function: prologue and epilogue provided by programmer.
  31              		@ args = 0, pretend = 0, frame = 0
  32              		@ frame_needed = 0, uses_anonymous_args = 0
  33              		.loc 1 203 0
  34 0000 FFF7FEFF 		bl	chSchDoReschedule
  35              	.LVL0:
  36              		.loc 1 205 0
  37              	@ 205 "../os/ports/GCC/ARMCMx/chcore_v7m.c" 1
  38              		_port_exit_from_isr:
  39              	@ 0 "" 2
  40              		.loc 1 207 0
  41              	@ 207 "../os/ports/GCC/ARMCMx/chcore_v7m.c" 1
  42 0004 00DF     		svc     #0
  43              	@ 0 "" 2
  44              		.loc 1 214 0
  45              		.thumb
  46              		.cfi_endproc
  47              	.LFE6:
  48              		.size	_port_switch_from_isr, .-_port_switch_from_isr
  49 0006 00BFAFF3 		.section	.text.SVCallVector,"ax",%progbits
  49      0080AFF3 
  49      0080
  50              		.align	2
  51              		.p2align 4,,15
  52              		.global	SVCallVector
  53              		.thumb
  54              		.thumb_func
  55              		.type	SVCallVector, %function
ARM GAS  /tmp/ccbh0YzT.s 			page 2


  56              	SVCallVector:
  57              	.LFB1:
  58              		.loc 1 65 0
  59              		.cfi_startproc
  60              		@ args = 0, pretend = 0, frame = 0
  61              		@ frame_needed = 0, uses_anonymous_args = 0
  62 0000 00B5     		push	{lr}
  63              		.cfi_def_cfa_offset 4
  64              		.cfi_offset 14, -4
  65              		.loc 1 74 0
  66              	@ 74 "../os/ports/GCC/ARMCMx/chcore_v7m.c" 1
  67 0002 EFF30983 		mrs     r3, PSP
  68              	@ 0 "" 2
  69              	.LVL1:
  70              		.loc 1 78 0
  71              		.thumb
  72 0006 2033     		adds	r3, r3, #32
  73              	.LVL2:
  74              		.loc 1 81 0
  75              	@ 81 "../os/ports/GCC/ARMCMx/chcore_v7m.c" 1
  76 0008 83F30988 		msr     PSP, r3
  77              	@ 0 "" 2
  78              		.loc 1 82 0
  79              	@ 82 "../os/ports/GCC/ARMCMx/chcore_v7m.c" 1
  80 000c FFF7FEFF 		bl      _port_unlock
  81              	@ 0 "" 2
  82              	.LVL3:
  83              		.thumb
  84 0010 5DF804FB 		ldr	pc, [sp], #4
  85              		.cfi_endproc
  86              	.LFE1:
  87              		.size	SVCallVector, .-SVCallVector
  88              		.section	.text._port_init,"ax",%progbits
  89              		.align	2
  90              		.p2align 4,,15
  91              		.global	_port_init
  92              		.thumb
  93              		.thumb_func
  94              		.type	_port_init, %function
  95              	_port_init:
  96              	.LFB2:
  97              		.loc 1 120 0
  98              		.cfi_startproc
  99              		@ args = 0, pretend = 0, frame = 0
 100              		@ frame_needed = 0, uses_anonymous_args = 0
 101 0000 08B5     		push	{r3, lr}
 102              		.cfi_def_cfa_offset 8
 103              		.cfi_offset 3, -8
 104              		.cfi_offset 14, -4
 105              		.loc 1 124 0
 106 0002 094A     		ldr	r2, .L4
 107              		.loc 1 123 0
 108 0004 094B     		ldr	r3, .L4+4
 109 0006 0021     		movs	r1, #0
 110 0008 9960     		str	r1, [r3, #8]
 111              		.loc 1 127 0
 112 000a 0720     		movs	r0, #7
ARM GAS  /tmp/ccbh0YzT.s 			page 3


 113              		.loc 1 124 0
 114 000c DA60     		str	r2, [r3, #12]
 115              		.loc 1 127 0
 116 000e 1021     		movs	r1, #16
 117 0010 FFF7FEFF 		bl	nvicSetSystemHandlerPriority
 118              	.LVL4:
 119              		.loc 1 129 0
 120 0014 0A20     		movs	r0, #10
 121 0016 2021     		movs	r1, #32
 122 0018 FFF7FEFF 		bl	nvicSetSystemHandlerPriority
 123              	.LVL5:
 124              		.loc 1 133 0
 125 001c BDE80840 		pop	{r3, lr}
 126              		.loc 1 131 0
 127 0020 0B20     		movs	r0, #11
 128 0022 8021     		movs	r1, #128
 129 0024 FFF7FEBF 		b	nvicSetSystemHandlerPriority
 130              	.LVL6:
 131              	.L5:
 132              		.align	2
 133              	.L4:
 134 0028 0003FA05 		.word	100270848
 135 002c 00ED00E0 		.word	-536810240
 136              		.cfi_endproc
 137              	.LFE2:
 138              		.size	_port_init, .-_port_init
 139              		.section	.text._port_lock,"ax",%progbits
 140              		.align	2
 141              		.p2align 4,,15
 142              		.global	_port_lock
 143              		.thumb
 144              		.thumb_func
 145              		.type	_port_lock, %function
 146              	_port_lock:
 147              	.LFB3:
 148              		.loc 1 136 0
 149              		.cfi_startproc
 150              		@ args = 0, pretend = 0, frame = 0
 151              		@ frame_needed = 0, uses_anonymous_args = 0
 152              		@ link register save eliminated.
 153              		.loc 1 137 0
 154 0000 2023     		movs	r3, #32
 155              		.loc 1 138 0
 156              	@ 138 "../os/ports/GCC/ARMCMx/chcore_v7m.c" 1
 157 0002 83F31188 		msr     BASEPRI, r3
 158              	@ 0 "" 2
 159              		.thumb
 160 0006 7047     		bx	lr
 161              		.cfi_endproc
 162              	.LFE3:
 163              		.size	_port_lock, .-_port_lock
 164 0008 AFF30080 		.section	.text._port_unlock,"ax",%progbits
 164      AFF30080 
 165              		.align	2
 166              		.p2align 4,,15
 167              		.global	_port_unlock
 168              		.thumb
ARM GAS  /tmp/ccbh0YzT.s 			page 4


 169              		.thumb_func
 170              		.type	_port_unlock, %function
 171              	_port_unlock:
 172              	.LFB4:
 173              		.loc 1 141 0
 174              		.cfi_startproc
 175              		@ args = 0, pretend = 0, frame = 0
 176              		@ frame_needed = 0, uses_anonymous_args = 0
 177              		@ link register save eliminated.
 178              		.loc 1 142 0
 179 0000 0023     		movs	r3, #0
 180              		.loc 1 143 0
 181              	@ 143 "../os/ports/GCC/ARMCMx/chcore_v7m.c" 1
 182 0002 83F31188 		msr     BASEPRI, r3
 183              	@ 0 "" 2
 184              		.thumb
 185 0006 7047     		bx	lr
 186              		.cfi_endproc
 187              	.LFE4:
 188              		.size	_port_unlock, .-_port_unlock
 189 0008 AFF30080 		.section	.text._port_irq_epilogue,"ax",%progbits
 189      AFF30080 
 190              		.align	2
 191              		.p2align 4,,15
 192              		.global	_port_irq_epilogue
 193              		.thumb
 194              		.thumb_func
 195              		.type	_port_irq_epilogue, %function
 196              	_port_irq_epilogue:
 197              	.LFB5:
 198              		.loc 1 150 0
 199              		.cfi_startproc
 200              		@ args = 0, pretend = 0, frame = 0
 201              		@ frame_needed = 0, uses_anonymous_args = 0
 202 0000 00B5     		push	{lr}
 203              		.cfi_def_cfa_offset 4
 204              		.cfi_offset 14, -4
 205              		.loc 1 152 0
 206              	@ 152 "../os/ports/GCC/ARMCMx/chcore_v7m.c" 1
 207 0002 FFF7FEFF 		bl      _port_lock
 208              	@ 0 "" 2
 209              		.loc 1 153 0
 210              		.thumb
 211 0006 174B     		ldr	r3, .L16
 212 0008 5B68     		ldr	r3, [r3, #4]
 213 000a 1B05     		lsls	r3, r3, #20
 214 000c 1AD5     		bpl	.L9
 215              	.LBB2:
 216              		.loc 1 163 0
 217              	@ 163 "../os/ports/GCC/ARMCMx/chcore_v7m.c" 1
 218 000e EFF30983 		mrs     r3, PSP
 219              	@ 0 "" 2
 220              	.LVL7:
 221              		.loc 1 168 0
 222              		.thumb
 223 0012 4FF08072 		mov	r2, #16777216
 224 0016 43F8042C 		str	r2, [r3, #-4]
ARM GAS  /tmp/ccbh0YzT.s 			page 5


 225              		.loc 1 167 0
 226 001a A3F12002 		sub	r2, r3, #32
 227              	.LVL8:
 228              		.loc 1 172 0
 229              	@ 172 "../os/ports/GCC/ARMCMx/chcore_v7m.c" 1
 230 001e 82F30988 		msr     PSP, r2
 231              	@ 0 "" 2
 232              		.loc 1 176 0
 233              		.thumb
 234 0022 1149     		ldr	r1, .L16+4
 235 0024 0A69     		ldr	r2, [r1, #16]
 236              	.LVL9:
 237 0026 0968     		ldr	r1, [r1]
 238 0028 907C     		ldrb	r0, [r2, #18]	@ zero_extendqisi2
 239 002a 8968     		ldr	r1, [r1, #8]
 240 002c 9268     		ldr	r2, [r2, #8]
 241 002e 68B1     		cbz	r0, .L10
 242              		.loc 1 176 0 is_stmt 0 discriminator 1
 243 0030 9142     		cmp	r1, r2
 244 0032 94BF     		ite	ls
 245 0034 0022     		movls	r2, #0
 246 0036 0122     		movhi	r2, #1
 247 0038 72B1     		cbz	r2, .L12
 248              	.L15:
 249              		.loc 1 178 0 is_stmt 1
 250 003a 0C4A     		ldr	r2, .L16+8
 251 003c 43F8082C 		str	r2, [r3, #-8]
 252 0040 5DF804FB 		ldr	pc, [sp], #4
 253              	.LVL10:
 254              	.L9:
 255              	.LBE2:
 256              		.loc 1 190 0
 257              	@ 190 "../os/ports/GCC/ARMCMx/chcore_v7m.c" 1
 258 0044 FFF7FEFF 		bl      _port_unlock
 259              	@ 0 "" 2
 260              		.thumb
 261 0048 5DF804FB 		ldr	pc, [sp], #4
 262              	.LVL11:
 263              	.L10:
 264              	.LBB3:
 265              		.loc 1 176 0 discriminator 2
 266 004c 9142     		cmp	r1, r2
 267 004e 34BF     		ite	cc
 268 0050 0022     		movcc	r2, #0
 269 0052 0122     		movcs	r2, #1
 270 0054 002A     		cmp	r2, #0
 271 0056 F0D1     		bne	.L15
 272              	.L12:
 273              		.loc 1 183 0
 274 0058 054A     		ldr	r2, .L16+12
 275 005a 43F8082C 		str	r2, [r3, #-8]
 276 005e 5DF804FB 		ldr	pc, [sp], #4
 277              	.L17:
 278 0062 00BF     		.align	2
 279              	.L16:
 280 0064 00ED00E0 		.word	-536810240
 281 0068 00000000 		.word	rlist
ARM GAS  /tmp/ccbh0YzT.s 			page 6


 282 006c 00000000 		.word	_port_switch_from_isr
 283 0070 04000000 		.word	_port_exit_from_isr
 284              	.LBE3:
 285              		.cfi_endproc
 286              	.LFE5:
 287              		.size	_port_irq_epilogue, .-_port_irq_epilogue
 288 0074 AFF30080 		.section	.text.SysTickVector,"ax",%progbits
 288      AFF30080 
 288      AFF30080 
 289              		.align	2
 290              		.p2align 4,,15
 291              		.global	SysTickVector
 292              		.thumb
 293              		.thumb_func
 294              		.type	SysTickVector, %function
 295              	SysTickVector:
 296              	.LFB0:
 297              		.loc 1 47 0
 298              		.cfi_startproc
 299              		@ args = 0, pretend = 0, frame = 0
 300              		@ frame_needed = 0, uses_anonymous_args = 0
 301 0000 08B5     		push	{r3, lr}
 302              		.cfi_def_cfa_offset 8
 303              		.cfi_offset 3, -8
 304              		.cfi_offset 14, -4
 305              		.loc 1 51 0
 306              	@ 51 "../os/ports/GCC/ARMCMx/chcore_v7m.c" 1
 307 0002 FFF7FEFF 		bl      _port_lock
 308              	@ 0 "" 2
 309              		.loc 1 52 0
 310              		.thumb
 311 0006 FFF7FEFF 		bl	chSysTimerHandlerI
 312              	.LVL12:
 313              		.loc 1 53 0
 314              	@ 53 "../os/ports/GCC/ARMCMx/chcore_v7m.c" 1
 315 000a FFF7FEFF 		bl      _port_unlock
 316              	@ 0 "" 2
 317              		.loc 1 56 0
 318              		.thumb
 319 000e BDE80840 		pop	{r3, lr}
 320              		.loc 1 55 0
 321 0012 FFF7FEBF 		b	_port_irq_epilogue
 322              	.LVL13:
 323              		.cfi_endproc
 324              	.LFE0:
 325              		.size	SysTickVector, .-SysTickVector
 326              		.section	.text._port_switch,"ax",%progbits
 327              		.align	2
 328              		.p2align 4,,15
 329              		.global	_port_switch
 330              		.thumb
 331              		.thumb_func
 332              		.type	_port_switch, %function
 333              	_port_switch:
 334              	.LFB7:
 335              		.loc 1 229 0
 336              		.cfi_startproc
ARM GAS  /tmp/ccbh0YzT.s 			page 7


 337              		@ Naked Function: prologue and epilogue provided by programmer.
 338              		@ args = 0, pretend = 0, frame = 0
 339              		@ frame_needed = 0, uses_anonymous_args = 0
 340              	.LVL14:
 341              		.loc 1 231 0
 342              	@ 231 "../os/ports/GCC/ARMCMx/chcore_v7m.c" 1
 343 0000 2DE9F04F 		push    {r4, r5, r6, r7, r8, r9, r10, r11, lr}
 344              	@ 0 "" 2
 345              		.loc 1 237 0
 346              	@ 237 "../os/ports/GCC/ARMCMx/chcore_v7m.c" 1
 347 0004 C1F80CD0 		str     sp, [r1, #12]                          
 348 0008 D0F80CD0 		ldr     sp, [r0, #12]
 349              	@ 0 "" 2
 350              		.loc 1 243 0
 351              	@ 243 "../os/ports/GCC/ARMCMx/chcore_v7m.c" 1
 352 000c BDE8F08F 		pop     {r4, r5, r6, r7, r8, r9, r10, r11, pc}
 353              	@ 0 "" 2
 354              		.loc 1 245 0
 355              		.thumb
 356              		.cfi_endproc
 357              	.LFE7:
 358              		.size	_port_switch, .-_port_switch
 359              		.section	.text._port_thread_start,"ax",%progbits
 360              		.align	2
 361              		.p2align 4,,15
 362              		.global	_port_thread_start
 363              		.thumb
 364              		.thumb_func
 365              		.type	_port_thread_start, %function
 366              	_port_thread_start:
 367              	.LFB8:
 368              		.loc 1 252 0
 369              		.cfi_startproc
 370              		@ args = 0, pretend = 0, frame = 0
 371              		@ frame_needed = 0, uses_anonymous_args = 0
 372 0000 00B5     		push	{lr}
 373              		.cfi_def_cfa_offset 4
 374              		.cfi_offset 14, -4
 375              		.loc 1 254 0
 376              	@ 254 "../os/ports/GCC/ARMCMx/chcore_v7m.c" 1
 377 0002 FFF7FEFF 		bl      _port_unlock
 378              	@ 0 "" 2
 379              		.loc 1 255 0
 380              	@ 255 "../os/ports/GCC/ARMCMx/chcore_v7m.c" 1
 381 0006 2846     		mov     r0, r5                                 
 382 0008 A047     		blx     r4                                     
 383 000a FFF7FEFF 		bl      chThdExit
 384              	@ 0 "" 2
 385              		.thumb
 386 000e 5DF804FB 		ldr	pc, [sp], #4
 387              		.cfi_endproc
 388              	.LFE8:
 389              		.size	_port_thread_start, .-_port_thread_start
 390 0012 00BFAFF3 		.text
 390      0080AFF3 
 390      0080AFF3 
 390      0080
ARM GAS  /tmp/ccbh0YzT.s 			page 8


 391              	.Letext0:
 392              		.file 2 "/usr/include/newlib/machine/_default_types.h"
 393              		.file 3 "/usr/include/newlib/stdint.h"
 394              		.file 4 "../os/ports/GCC/ARMCMx/chtypes.h"
 395              		.file 5 "../os/kernel/include/chlists.h"
 396              		.file 6 "../os/kernel/include/chthreads.h"
 397              		.file 7 "../os/ports/GCC/ARMCMx/chcore_v7m.h"
 398              		.file 8 "../os/ports/common/ARMCMx/nvic.h"
 399              		.file 9 "../os/kernel/include/chschd.h"
 400              		.file 10 "../os/kernel/include/chmtx.h"
 401              		.file 11 "../os/kernel/include/chsys.h"
 402              		.section	.debug_info,"",%progbits
 403              	.Ldebug_info0:
 404 0000 08070000 		.4byte	0x708
 405 0004 0400     		.2byte	0x4
 406 0006 00000000 		.4byte	.Ldebug_abbrev0
 407 000a 04       		.byte	0x4
 408 000b 01       		.uleb128 0x1
 409 000c 94020000 		.4byte	.LASF86
 410 0010 01       		.byte	0x1
 411 0011 8F000000 		.4byte	.LASF87
 412 0015 4B010000 		.4byte	.LASF88
 413 0019 18000000 		.4byte	.Ldebug_ranges0+0x18
 414 001d 00000000 		.4byte	0
 415 0021 00000000 		.4byte	.Ldebug_line0
 416 0025 02       		.uleb128 0x2
 417 0026 04       		.byte	0x4
 418 0027 05       		.byte	0x5
 419 0028 696E7400 		.ascii	"int\000"
 420 002c 03       		.uleb128 0x3
 421 002d 04       		.byte	0x4
 422 002e 07       		.byte	0x7
 423 002f 37010000 		.4byte	.LASF0
 424 0033 03       		.uleb128 0x3
 425 0034 01       		.byte	0x1
 426 0035 06       		.byte	0x6
 427 0036 7B000000 		.4byte	.LASF1
 428 003a 04       		.uleb128 0x4
 429 003b 0D000000 		.4byte	.LASF5
 430 003f 02       		.byte	0x2
 431 0040 1D       		.byte	0x1d
 432 0041 45000000 		.4byte	0x45
 433 0045 03       		.uleb128 0x3
 434 0046 01       		.byte	0x1
 435 0047 08       		.byte	0x8
 436 0048 67030000 		.4byte	.LASF2
 437 004c 03       		.uleb128 0x3
 438 004d 02       		.byte	0x2
 439 004e 05       		.byte	0x5
 440 004f 85030000 		.4byte	.LASF3
 441 0053 03       		.uleb128 0x3
 442 0054 02       		.byte	0x2
 443 0055 07       		.byte	0x7
 444 0056 E2010000 		.4byte	.LASF4
 445 005a 04       		.uleb128 0x4
 446 005b 0D040000 		.4byte	.LASF6
 447 005f 02       		.byte	0x2
ARM GAS  /tmp/ccbh0YzT.s 			page 9


 448 0060 3F       		.byte	0x3f
 449 0061 65000000 		.4byte	0x65
 450 0065 03       		.uleb128 0x3
 451 0066 04       		.byte	0x4
 452 0067 05       		.byte	0x5
 453 0068 BD000000 		.4byte	.LASF7
 454 006c 04       		.uleb128 0x4
 455 006d F4000000 		.4byte	.LASF8
 456 0071 02       		.byte	0x2
 457 0072 41       		.byte	0x41
 458 0073 77000000 		.4byte	0x77
 459 0077 03       		.uleb128 0x3
 460 0078 04       		.byte	0x4
 461 0079 07       		.byte	0x7
 462 007a B5010000 		.4byte	.LASF9
 463 007e 03       		.uleb128 0x3
 464 007f 08       		.byte	0x8
 465 0080 05       		.byte	0x5
 466 0081 6D000000 		.4byte	.LASF10
 467 0085 03       		.uleb128 0x3
 468 0086 08       		.byte	0x8
 469 0087 07       		.byte	0x7
 470 0088 40000000 		.4byte	.LASF11
 471 008c 04       		.uleb128 0x4
 472 008d 58040000 		.4byte	.LASF12
 473 0091 03       		.byte	0x3
 474 0092 2A       		.byte	0x2a
 475 0093 3A000000 		.4byte	0x3a
 476 0097 04       		.uleb128 0x4
 477 0098 5F030000 		.4byte	.LASF13
 478 009c 03       		.byte	0x3
 479 009d 41       		.byte	0x41
 480 009e 5A000000 		.4byte	0x5a
 481 00a2 04       		.uleb128 0x4
 482 00a3 D5030000 		.4byte	.LASF14
 483 00a7 03       		.byte	0x3
 484 00a8 42       		.byte	0x42
 485 00a9 6C000000 		.4byte	0x6c
 486 00ad 03       		.uleb128 0x3
 487 00ae 01       		.byte	0x1
 488 00af 02       		.byte	0x2
 489 00b0 59030000 		.4byte	.LASF15
 490 00b4 04       		.uleb128 0x4
 491 00b5 24020000 		.4byte	.LASF16
 492 00b9 04       		.byte	0x4
 493 00ba 2C       		.byte	0x2c
 494 00bb 8C000000 		.4byte	0x8c
 495 00bf 04       		.uleb128 0x4
 496 00c0 D3000000 		.4byte	.LASF17
 497 00c4 04       		.byte	0x4
 498 00c5 2D       		.byte	0x2d
 499 00c6 8C000000 		.4byte	0x8c
 500 00ca 04       		.uleb128 0x4
 501 00cb B3000000 		.4byte	.LASF18
 502 00cf 04       		.byte	0x4
 503 00d0 2F       		.byte	0x2f
 504 00d1 8C000000 		.4byte	0x8c
ARM GAS  /tmp/ccbh0YzT.s 			page 10


 505 00d5 04       		.uleb128 0x4
 506 00d6 8C020000 		.4byte	.LASF19
 507 00da 04       		.byte	0x4
 508 00db 30       		.byte	0x30
 509 00dc A2000000 		.4byte	0xa2
 510 00e0 04       		.uleb128 0x4
 511 00e1 FA010000 		.4byte	.LASF20
 512 00e5 04       		.byte	0x4
 513 00e6 31       		.byte	0x31
 514 00e7 97000000 		.4byte	0x97
 515 00eb 04       		.uleb128 0x4
 516 00ec 38020000 		.4byte	.LASF21
 517 00f0 04       		.byte	0x4
 518 00f1 33       		.byte	0x33
 519 00f2 A2000000 		.4byte	0xa2
 520 00f6 04       		.uleb128 0x4
 521 00f7 C3030000 		.4byte	.LASF22
 522 00fb 05       		.byte	0x5
 523 00fc 2A       		.byte	0x2a
 524 00fd 01010000 		.4byte	0x101
 525 0101 05       		.uleb128 0x5
 526 0102 C3030000 		.4byte	.LASF22
 527 0106 34       		.byte	0x34
 528 0107 06       		.byte	0x6
 529 0108 5E       		.byte	0x5e
 530 0109 B6010000 		.4byte	0x1b6
 531 010d 06       		.uleb128 0x6
 532 010e B4030000 		.4byte	.LASF23
 533 0112 06       		.byte	0x6
 534 0113 5F       		.byte	0x5f
 535 0114 D7010000 		.4byte	0x1d7
 536 0118 00       		.byte	0
 537 0119 06       		.uleb128 0x6
 538 011a 85020000 		.4byte	.LASF24
 539 011e 06       		.byte	0x6
 540 011f 61       		.byte	0x61
 541 0120 D7010000 		.4byte	0x1d7
 542 0124 04       		.byte	0x4
 543 0125 06       		.uleb128 0x6
 544 0126 66000000 		.4byte	.LASF25
 545 012a 06       		.byte	0x6
 546 012b 63       		.byte	0x63
 547 012c D5000000 		.4byte	0xd5
 548 0130 08       		.byte	0x8
 549 0131 06       		.uleb128 0x6
 550 0132 85040000 		.4byte	.LASF26
 551 0136 06       		.byte	0x6
 552 0137 64       		.byte	0x64
 553 0138 F9020000 		.4byte	0x2f9
 554 013c 0C       		.byte	0xc
 555 013d 06       		.uleb128 0x6
 556 013e 8F030000 		.4byte	.LASF27
 557 0142 06       		.byte	0x6
 558 0143 79       		.byte	0x79
 559 0144 BF000000 		.4byte	0xbf
 560 0148 10       		.byte	0x10
 561 0149 06       		.uleb128 0x6
ARM GAS  /tmp/ccbh0YzT.s 			page 11


 562 014a BB030000 		.4byte	.LASF28
 563 014e 06       		.byte	0x6
 564 014f 7D       		.byte	0x7d
 565 0150 B4000000 		.4byte	0xb4
 566 0154 11       		.byte	0x11
 567 0155 06       		.uleb128 0x6
 568 0156 97030000 		.4byte	.LASF29
 569 015a 06       		.byte	0x6
 570 015b 88       		.byte	0x88
 571 015c CA000000 		.4byte	0xca
 572 0160 12       		.byte	0x12
 573 0161 07       		.uleb128 0x7
 574 0162 705F7500 		.ascii	"p_u\000"
 575 0166 06       		.byte	0x6
 576 0167 B4       		.byte	0xb4
 577 0168 20050000 		.4byte	0x520
 578 016c 14       		.byte	0x14
 579 016d 06       		.uleb128 0x6
 580 016e 8B040000 		.4byte	.LASF30
 581 0172 06       		.byte	0x6
 582 0173 B9       		.byte	0xb9
 583 0174 FD010000 		.4byte	0x1fd
 584 0178 18       		.byte	0x18
 585 0179 06       		.uleb128 0x6
 586 017a 38040000 		.4byte	.LASF31
 587 017e 06       		.byte	0x6
 588 017f BF       		.byte	0xbf
 589 0180 DD010000 		.4byte	0x1dd
 590 0184 1C       		.byte	0x1c
 591 0185 06       		.uleb128 0x6
 592 0186 00000000 		.4byte	.LASF32
 593 018a 06       		.byte	0x6
 594 018b C3       		.byte	0xc3
 595 018c E0000000 		.4byte	0xe0
 596 0190 24       		.byte	0x24
 597 0191 06       		.uleb128 0x6
 598 0192 CA030000 		.4byte	.LASF33
 599 0196 06       		.byte	0x6
 600 0197 C9       		.byte	0xc9
 601 0198 EB000000 		.4byte	0xeb
 602 019c 28       		.byte	0x28
 603 019d 06       		.uleb128 0x6
 604 019e 7B030000 		.4byte	.LASF34
 605 01a2 06       		.byte	0x6
 606 01a3 D0       		.byte	0xd0
 607 01a4 55050000 		.4byte	0x555
 608 01a8 2C       		.byte	0x2c
 609 01a9 06       		.uleb128 0x6
 610 01aa 02040000 		.4byte	.LASF35
 611 01ae 06       		.byte	0x6
 612 01af D4       		.byte	0xd4
 613 01b0 D5000000 		.4byte	0xd5
 614 01b4 30       		.byte	0x30
 615 01b5 00       		.byte	0
 616 01b6 08       		.uleb128 0x8
 617 01b7 08       		.byte	0x8
 618 01b8 05       		.byte	0x5
ARM GAS  /tmp/ccbh0YzT.s 			page 12


 619 01b9 61       		.byte	0x61
 620 01ba D7010000 		.4byte	0x1d7
 621 01be 06       		.uleb128 0x6
 622 01bf B4030000 		.4byte	.LASF23
 623 01c3 05       		.byte	0x5
 624 01c4 62       		.byte	0x62
 625 01c5 D7010000 		.4byte	0x1d7
 626 01c9 00       		.byte	0
 627 01ca 06       		.uleb128 0x6
 628 01cb 85020000 		.4byte	.LASF24
 629 01cf 05       		.byte	0x5
 630 01d0 64       		.byte	0x64
 631 01d1 D7010000 		.4byte	0x1d7
 632 01d5 04       		.byte	0x4
 633 01d6 00       		.byte	0
 634 01d7 09       		.uleb128 0x9
 635 01d8 04       		.byte	0x4
 636 01d9 F6000000 		.4byte	0xf6
 637 01dd 04       		.uleb128 0x4
 638 01de 5E020000 		.4byte	.LASF36
 639 01e2 05       		.byte	0x5
 640 01e3 66       		.byte	0x66
 641 01e4 B6010000 		.4byte	0x1b6
 642 01e8 08       		.uleb128 0x8
 643 01e9 04       		.byte	0x4
 644 01ea 05       		.byte	0x5
 645 01eb 6B       		.byte	0x6b
 646 01ec FD010000 		.4byte	0x1fd
 647 01f0 06       		.uleb128 0x6
 648 01f1 B4030000 		.4byte	.LASF23
 649 01f5 05       		.byte	0x5
 650 01f6 6D       		.byte	0x6d
 651 01f7 D7010000 		.4byte	0x1d7
 652 01fb 00       		.byte	0
 653 01fc 00       		.byte	0
 654 01fd 04       		.uleb128 0x4
 655 01fe 2C020000 		.4byte	.LASF37
 656 0202 05       		.byte	0x5
 657 0203 70       		.byte	0x70
 658 0204 E8010000 		.4byte	0x1e8
 659 0208 04       		.uleb128 0x4
 660 0209 1C010000 		.4byte	.LASF38
 661 020d 07       		.byte	0x7
 662 020e E5       		.byte	0xe5
 663 020f 13020000 		.4byte	0x213
 664 0213 0A       		.uleb128 0xa
 665 0214 04       		.byte	0x4
 666 0215 05       		.uleb128 0x5
 667 0216 A1010000 		.4byte	.LASF39
 668 021a 20       		.byte	0x20
 669 021b 07       		.byte	0x7
 670 021c ED       		.byte	0xed
 671 021d 7D020000 		.4byte	0x27d
 672 0221 07       		.uleb128 0x7
 673 0222 723000   		.ascii	"r0\000"
 674 0225 07       		.byte	0x7
 675 0226 EE       		.byte	0xee
ARM GAS  /tmp/ccbh0YzT.s 			page 13


 676 0227 08020000 		.4byte	0x208
 677 022b 00       		.byte	0
 678 022c 07       		.uleb128 0x7
 679 022d 723100   		.ascii	"r1\000"
 680 0230 07       		.byte	0x7
 681 0231 EF       		.byte	0xef
 682 0232 08020000 		.4byte	0x208
 683 0236 04       		.byte	0x4
 684 0237 07       		.uleb128 0x7
 685 0238 723200   		.ascii	"r2\000"
 686 023b 07       		.byte	0x7
 687 023c F0       		.byte	0xf0
 688 023d 08020000 		.4byte	0x208
 689 0241 08       		.byte	0x8
 690 0242 07       		.uleb128 0x7
 691 0243 723300   		.ascii	"r3\000"
 692 0246 07       		.byte	0x7
 693 0247 F1       		.byte	0xf1
 694 0248 08020000 		.4byte	0x208
 695 024c 0C       		.byte	0xc
 696 024d 07       		.uleb128 0x7
 697 024e 72313200 		.ascii	"r12\000"
 698 0252 07       		.byte	0x7
 699 0253 F2       		.byte	0xf2
 700 0254 08020000 		.4byte	0x208
 701 0258 10       		.byte	0x10
 702 0259 06       		.uleb128 0x6
 703 025a 44010000 		.4byte	.LASF40
 704 025e 07       		.byte	0x7
 705 025f F3       		.byte	0xf3
 706 0260 08020000 		.4byte	0x208
 707 0264 14       		.byte	0x14
 708 0265 07       		.uleb128 0x7
 709 0266 706300   		.ascii	"pc\000"
 710 0269 07       		.byte	0x7
 711 026a F4       		.byte	0xf4
 712 026b 08020000 		.4byte	0x208
 713 026f 18       		.byte	0x18
 714 0270 06       		.uleb128 0x6
 715 0271 A1030000 		.4byte	.LASF41
 716 0275 07       		.byte	0x7
 717 0276 F5       		.byte	0xf5
 718 0277 08020000 		.4byte	0x208
 719 027b 1C       		.byte	0x1c
 720 027c 00       		.byte	0
 721 027d 0B       		.uleb128 0xb
 722 027e 31040000 		.4byte	.LASF42
 723 0282 24       		.byte	0x24
 724 0283 07       		.byte	0x7
 725 0284 0C01     		.2byte	0x10c
 726 0286 F9020000 		.4byte	0x2f9
 727 028a 0C       		.uleb128 0xc
 728 028b 723400   		.ascii	"r4\000"
 729 028e 07       		.byte	0x7
 730 028f 1F01     		.2byte	0x11f
 731 0291 08020000 		.4byte	0x208
 732 0295 00       		.byte	0
ARM GAS  /tmp/ccbh0YzT.s 			page 14


 733 0296 0C       		.uleb128 0xc
 734 0297 723500   		.ascii	"r5\000"
 735 029a 07       		.byte	0x7
 736 029b 2001     		.2byte	0x120
 737 029d 08020000 		.4byte	0x208
 738 02a1 04       		.byte	0x4
 739 02a2 0C       		.uleb128 0xc
 740 02a3 723600   		.ascii	"r6\000"
 741 02a6 07       		.byte	0x7
 742 02a7 2101     		.2byte	0x121
 743 02a9 08020000 		.4byte	0x208
 744 02ad 08       		.byte	0x8
 745 02ae 0C       		.uleb128 0xc
 746 02af 723700   		.ascii	"r7\000"
 747 02b2 07       		.byte	0x7
 748 02b3 2201     		.2byte	0x122
 749 02b5 08020000 		.4byte	0x208
 750 02b9 0C       		.byte	0xc
 751 02ba 0C       		.uleb128 0xc
 752 02bb 723800   		.ascii	"r8\000"
 753 02be 07       		.byte	0x7
 754 02bf 2301     		.2byte	0x123
 755 02c1 08020000 		.4byte	0x208
 756 02c5 10       		.byte	0x10
 757 02c6 0C       		.uleb128 0xc
 758 02c7 723900   		.ascii	"r9\000"
 759 02ca 07       		.byte	0x7
 760 02cb 2401     		.2byte	0x124
 761 02cd 08020000 		.4byte	0x208
 762 02d1 14       		.byte	0x14
 763 02d2 0C       		.uleb128 0xc
 764 02d3 72313000 		.ascii	"r10\000"
 765 02d7 07       		.byte	0x7
 766 02d8 2501     		.2byte	0x125
 767 02da 08020000 		.4byte	0x208
 768 02de 18       		.byte	0x18
 769 02df 0C       		.uleb128 0xc
 770 02e0 72313100 		.ascii	"r11\000"
 771 02e4 07       		.byte	0x7
 772 02e5 2601     		.2byte	0x126
 773 02e7 08020000 		.4byte	0x208
 774 02eb 1C       		.byte	0x1c
 775 02ec 0C       		.uleb128 0xc
 776 02ed 6C7200   		.ascii	"lr\000"
 777 02f0 07       		.byte	0x7
 778 02f1 2701     		.2byte	0x127
 779 02f3 08020000 		.4byte	0x208
 780 02f7 20       		.byte	0x20
 781 02f8 00       		.byte	0
 782 02f9 0B       		.uleb128 0xb
 783 02fa 24040000 		.4byte	.LASF43
 784 02fe 04       		.byte	0x4
 785 02ff 07       		.byte	0x7
 786 0300 3101     		.2byte	0x131
 787 0302 14030000 		.4byte	0x314
 788 0306 0C       		.uleb128 0xc
 789 0307 72313300 		.ascii	"r13\000"
ARM GAS  /tmp/ccbh0YzT.s 			page 15


 790 030b 07       		.byte	0x7
 791 030c 3201     		.2byte	0x132
 792 030e 14030000 		.4byte	0x314
 793 0312 00       		.byte	0
 794 0313 00       		.byte	0
 795 0314 09       		.uleb128 0x9
 796 0315 04       		.byte	0x4
 797 0316 7D020000 		.4byte	0x27d
 798 031a 04       		.uleb128 0x4
 799 031b F3030000 		.4byte	.LASF44
 800 031f 08       		.byte	0x8
 801 0320 3A       		.byte	0x3a
 802 0321 25030000 		.4byte	0x325
 803 0325 0D       		.uleb128 0xd
 804 0326 A2000000 		.4byte	0xa2
 805 032a 03       		.uleb128 0x3
 806 032b 04       		.byte	0x4
 807 032c 07       		.byte	0x7
 808 032d 4A020000 		.4byte	.LASF45
 809 0331 08       		.uleb128 0x8
 810 0332 8C       		.byte	0x8c
 811 0333 08       		.byte	0x8
 812 0334 89       		.byte	0x89
 813 0335 36040000 		.4byte	0x436
 814 0339 06       		.uleb128 0x6
 815 033a 60000000 		.4byte	.LASF46
 816 033e 08       		.byte	0x8
 817 033f 8A       		.byte	0x8a
 818 0340 1A030000 		.4byte	0x31a
 819 0344 00       		.byte	0
 820 0345 06       		.uleb128 0x6
 821 0346 F5010000 		.4byte	.LASF47
 822 034a 08       		.byte	0x8
 823 034b 8B       		.byte	0x8b
 824 034c 1A030000 		.4byte	0x31a
 825 0350 04       		.byte	0x4
 826 0351 06       		.uleb128 0x6
 827 0352 C7010000 		.4byte	.LASF48
 828 0356 08       		.byte	0x8
 829 0357 8C       		.byte	0x8c
 830 0358 1A030000 		.4byte	0x31a
 831 035c 08       		.byte	0x8
 832 035d 06       		.uleb128 0x6
 833 035e 00020000 		.4byte	.LASF49
 834 0362 08       		.byte	0x8
 835 0363 8D       		.byte	0x8d
 836 0364 1A030000 		.4byte	0x31a
 837 0368 0C       		.byte	0xc
 838 0369 07       		.uleb128 0x7
 839 036a 53435200 		.ascii	"SCR\000"
 840 036e 08       		.byte	0x8
 841 036f 8E       		.byte	0x8e
 842 0370 1A030000 		.4byte	0x31a
 843 0374 10       		.byte	0x10
 844 0375 07       		.uleb128 0x7
 845 0376 43435200 		.ascii	"CCR\000"
 846 037a 08       		.byte	0x8
ARM GAS  /tmp/ccbh0YzT.s 			page 16


 847 037b 8F       		.byte	0x8f
 848 037c 1A030000 		.4byte	0x31a
 849 0380 14       		.byte	0x14
 850 0381 06       		.uleb128 0x6
 851 0382 2C040000 		.4byte	.LASF50
 852 0386 08       		.byte	0x8
 853 0387 90       		.byte	0x90
 854 0388 46040000 		.4byte	0x446
 855 038c 18       		.byte	0x18
 856 038d 06       		.uleb128 0x6
 857 038e 75030000 		.4byte	.LASF51
 858 0392 08       		.byte	0x8
 859 0393 91       		.byte	0x91
 860 0394 1A030000 		.4byte	0x31a
 861 0398 24       		.byte	0x24
 862 0399 06       		.uleb128 0x6
 863 039a 53020000 		.4byte	.LASF52
 864 039e 08       		.byte	0x8
 865 039f 92       		.byte	0x92
 866 03a0 1A030000 		.4byte	0x31a
 867 03a4 28       		.byte	0x28
 868 03a5 06       		.uleb128 0x6
 869 03a6 78040000 		.4byte	.LASF53
 870 03aa 08       		.byte	0x8
 871 03ab 93       		.byte	0x93
 872 03ac 1A030000 		.4byte	0x31a
 873 03b0 2C       		.byte	0x2c
 874 03b1 06       		.uleb128 0x6
 875 03b2 06020000 		.4byte	.LASF54
 876 03b6 08       		.byte	0x8
 877 03b7 94       		.byte	0x94
 878 03b8 1A030000 		.4byte	0x31a
 879 03bc 30       		.byte	0x30
 880 03bd 06       		.uleb128 0x6
 881 03be 0B020000 		.4byte	.LASF55
 882 03c2 08       		.byte	0x8
 883 03c3 95       		.byte	0x95
 884 03c4 1A030000 		.4byte	0x31a
 885 03c8 34       		.byte	0x34
 886 03c9 06       		.uleb128 0x6
 887 03ca EF000000 		.4byte	.LASF56
 888 03ce 08       		.byte	0x8
 889 03cf 96       		.byte	0x96
 890 03d0 1A030000 		.4byte	0x31a
 891 03d4 38       		.byte	0x38
 892 03d5 06       		.uleb128 0x6
 893 03d6 E6030000 		.4byte	.LASF57
 894 03da 08       		.byte	0x8
 895 03db 97       		.byte	0x97
 896 03dc 1A030000 		.4byte	0x31a
 897 03e0 3C       		.byte	0x3c
 898 03e1 07       		.uleb128 0x7
 899 03e2 50465200 		.ascii	"PFR\000"
 900 03e6 08       		.byte	0x8
 901 03e7 98       		.byte	0x98
 902 03e8 5B040000 		.4byte	0x45b
 903 03ec 40       		.byte	0x40
ARM GAS  /tmp/ccbh0YzT.s 			page 17


 904 03ed 07       		.uleb128 0x7
 905 03ee 44465200 		.ascii	"DFR\000"
 906 03f2 08       		.byte	0x8
 907 03f3 99       		.byte	0x99
 908 03f4 1A030000 		.4byte	0x31a
 909 03f8 48       		.byte	0x48
 910 03f9 07       		.uleb128 0x7
 911 03fa 41445200 		.ascii	"ADR\000"
 912 03fe 08       		.byte	0x8
 913 03ff 9A       		.byte	0x9a
 914 0400 1A030000 		.4byte	0x31a
 915 0404 4C       		.byte	0x4c
 916 0405 06       		.uleb128 0x6
 917 0406 4D040000 		.4byte	.LASF58
 918 040a 08       		.byte	0x8
 919 040b 9B       		.byte	0x9b
 920 040c 70040000 		.4byte	0x470
 921 0410 50       		.byte	0x50
 922 0411 07       		.uleb128 0x7
 923 0412 53415200 		.ascii	"SAR\000"
 924 0416 08       		.byte	0x8
 925 0417 9C       		.byte	0x9c
 926 0418 85040000 		.4byte	0x485
 927 041c 60       		.byte	0x60
 928 041d 06       		.uleb128 0x6
 929 041e EB030000 		.4byte	.LASF59
 930 0422 08       		.byte	0x8
 931 0423 9D       		.byte	0x9d
 932 0424 8A040000 		.4byte	0x48a
 933 0428 74       		.byte	0x74
 934 0429 06       		.uleb128 0x6
 935 042a 72040000 		.4byte	.LASF60
 936 042e 08       		.byte	0x8
 937 042f 9E       		.byte	0x9e
 938 0430 1A030000 		.4byte	0x31a
 939 0434 88       		.byte	0x88
 940 0435 00       		.byte	0
 941 0436 0E       		.uleb128 0xe
 942 0437 1A030000 		.4byte	0x31a
 943 043b 46040000 		.4byte	0x446
 944 043f 0F       		.uleb128 0xf
 945 0440 2A030000 		.4byte	0x32a
 946 0444 02       		.byte	0x2
 947 0445 00       		.byte	0
 948 0446 0D       		.uleb128 0xd
 949 0447 36040000 		.4byte	0x436
 950 044b 0E       		.uleb128 0xe
 951 044c 1A030000 		.4byte	0x31a
 952 0450 5B040000 		.4byte	0x45b
 953 0454 0F       		.uleb128 0xf
 954 0455 2A030000 		.4byte	0x32a
 955 0459 01       		.byte	0x1
 956 045a 00       		.byte	0
 957 045b 0D       		.uleb128 0xd
 958 045c 4B040000 		.4byte	0x44b
 959 0460 0E       		.uleb128 0xe
 960 0461 1A030000 		.4byte	0x31a
ARM GAS  /tmp/ccbh0YzT.s 			page 18


 961 0465 70040000 		.4byte	0x470
 962 0469 0F       		.uleb128 0xf
 963 046a 2A030000 		.4byte	0x32a
 964 046e 03       		.byte	0x3
 965 046f 00       		.byte	0
 966 0470 0D       		.uleb128 0xd
 967 0471 60040000 		.4byte	0x460
 968 0475 0E       		.uleb128 0xe
 969 0476 1A030000 		.4byte	0x31a
 970 047a 85040000 		.4byte	0x485
 971 047e 0F       		.uleb128 0xf
 972 047f 2A030000 		.4byte	0x32a
 973 0483 04       		.byte	0x4
 974 0484 00       		.byte	0
 975 0485 0D       		.uleb128 0xd
 976 0486 75040000 		.4byte	0x475
 977 048a 0D       		.uleb128 0xd
 978 048b 75040000 		.4byte	0x475
 979 048f 04       		.uleb128 0x4
 980 0490 17000000 		.4byte	.LASF61
 981 0494 08       		.byte	0x8
 982 0495 9F       		.byte	0x9f
 983 0496 31030000 		.4byte	0x331
 984 049a 08       		.uleb128 0x8
 985 049b 14       		.byte	0x14
 986 049c 09       		.byte	0x9
 987 049d 5E       		.byte	0x5e
 988 049e D3040000 		.4byte	0x4d3
 989 04a2 06       		.uleb128 0x6
 990 04a3 DE030000 		.4byte	.LASF62
 991 04a7 09       		.byte	0x9
 992 04a8 5F       		.byte	0x5f
 993 04a9 DD010000 		.4byte	0x1dd
 994 04ad 00       		.byte	0
 995 04ae 06       		.uleb128 0x6
 996 04af A6030000 		.4byte	.LASF63
 997 04b3 09       		.byte	0x9
 998 04b4 60       		.byte	0x60
 999 04b5 D5000000 		.4byte	0xd5
 1000 04b9 08       		.byte	0x8
 1001 04ba 06       		.uleb128 0x6
 1002 04bb 58020000 		.4byte	.LASF64
 1003 04bf 09       		.byte	0x9
 1004 04c0 62       		.byte	0x62
 1005 04c1 F9020000 		.4byte	0x2f9
 1006 04c5 0C       		.byte	0xc
 1007 04c6 06       		.uleb128 0x6
 1008 04c7 6B020000 		.4byte	.LASF65
 1009 04cb 09       		.byte	0x9
 1010 04cc 69       		.byte	0x69
 1011 04cd D7010000 		.4byte	0x1d7
 1012 04d1 10       		.byte	0x10
 1013 04d2 00       		.byte	0
 1014 04d3 04       		.uleb128 0x4
 1015 04d4 43040000 		.4byte	.LASF66
 1016 04d8 09       		.byte	0x9
 1017 04d9 6B       		.byte	0x6b
ARM GAS  /tmp/ccbh0YzT.s 			page 19


 1018 04da 9A040000 		.4byte	0x49a
 1019 04de 05       		.uleb128 0x5
 1020 04df 44020000 		.4byte	.LASF67
 1021 04e3 10       		.byte	0x10
 1022 04e4 0A       		.byte	0xa
 1023 04e5 2C       		.byte	0x2c
 1024 04e6 0F050000 		.4byte	0x50f
 1025 04ea 06       		.uleb128 0x6
 1026 04eb 87000000 		.4byte	.LASF68
 1027 04ef 0A       		.byte	0xa
 1028 04f0 2D       		.byte	0x2d
 1029 04f1 DD010000 		.4byte	0x1dd
 1030 04f5 00       		.byte	0
 1031 04f6 06       		.uleb128 0x6
 1032 04f7 7D040000 		.4byte	.LASF69
 1033 04fb 0A       		.byte	0xa
 1034 04fc 2F       		.byte	0x2f
 1035 04fd D7010000 		.4byte	0x1d7
 1036 0501 08       		.byte	0x8
 1037 0502 06       		.uleb128 0x6
 1038 0503 FB030000 		.4byte	.LASF70
 1039 0507 0A       		.byte	0xa
 1040 0508 31       		.byte	0x31
 1041 0509 0F050000 		.4byte	0x50f
 1042 050d 0C       		.byte	0xc
 1043 050e 00       		.byte	0
 1044 050f 09       		.uleb128 0x9
 1045 0510 04       		.byte	0x4
 1046 0511 DE040000 		.4byte	0x4de
 1047 0515 04       		.uleb128 0x4
 1048 0516 44020000 		.4byte	.LASF67
 1049 051a 0A       		.byte	0xa
 1050 051b 33       		.byte	0x33
 1051 051c DE040000 		.4byte	0x4de
 1052 0520 10       		.uleb128 0x10
 1053 0521 04       		.byte	0x4
 1054 0522 06       		.byte	0x6
 1055 0523 96       		.byte	0x96
 1056 0524 55050000 		.4byte	0x555
 1057 0528 11       		.uleb128 0x11
 1058 0529 06000000 		.4byte	.LASF71
 1059 052d 06       		.byte	0x6
 1060 052e 9D       		.byte	0x9d
 1061 052f E0000000 		.4byte	0xe0
 1062 0533 11       		.uleb128 0x11
 1063 0534 57000000 		.4byte	.LASF72
 1064 0538 06       		.byte	0x6
 1065 0539 A4       		.byte	0xa4
 1066 053a E0000000 		.4byte	0xe0
 1067 053e 11       		.uleb128 0x11
 1068 053f 60040000 		.4byte	.LASF73
 1069 0543 06       		.byte	0x6
 1070 0544 AB       		.byte	0xab
 1071 0545 13020000 		.4byte	0x213
 1072 0549 11       		.uleb128 0x11
 1073 054a AD030000 		.4byte	.LASF74
 1074 054e 06       		.byte	0x6
ARM GAS  /tmp/ccbh0YzT.s 			page 20


 1075 054f B2       		.byte	0xb2
 1076 0550 EB000000 		.4byte	0xeb
 1077 0554 00       		.byte	0
 1078 0555 09       		.uleb128 0x9
 1079 0556 04       		.byte	0x4
 1080 0557 15050000 		.4byte	0x515
 1081 055b 12       		.uleb128 0x12
 1082 055c CC010000 		.4byte	.LASF75
 1083 0560 01       		.byte	0x1
 1084 0561 C8       		.byte	0xc8
 1085 0562 00000000 		.4byte	.LFB6
 1086 0566 06000000 		.4byte	.LFE6-.LFB6
 1087 056a 01       		.uleb128 0x1
 1088 056b 9C       		.byte	0x9c
 1089 056c 7A050000 		.4byte	0x57a
 1090 0570 13       		.uleb128 0x13
 1091 0571 04000000 		.4byte	.LVL0
 1092 0575 E6060000 		.4byte	0x6e6
 1093 0579 00       		.byte	0
 1094 057a 12       		.uleb128 0x12
 1095 057b C6000000 		.4byte	.LASF76
 1096 057f 01       		.byte	0x1
 1097 0580 41       		.byte	0x41
 1098 0581 00000000 		.4byte	.LFB1
 1099 0585 14000000 		.4byte	.LFE1-.LFB1
 1100 0589 01       		.uleb128 0x1
 1101 058a 9C       		.byte	0x9c
 1102 058b 9F050000 		.4byte	0x59f
 1103 058f 14       		.uleb128 0x14
 1104 0590 80020000 		.4byte	.LASF79
 1105 0594 01       		.byte	0x1
 1106 0595 42       		.byte	0x42
 1107 0596 9F050000 		.4byte	0x59f
 1108 059a 00000000 		.4byte	.LLST0
 1109 059e 00       		.byte	0
 1110 059f 09       		.uleb128 0x9
 1111 05a0 04       		.byte	0x4
 1112 05a1 15020000 		.4byte	0x215
 1113 05a5 12       		.uleb128 0x12
 1114 05a6 67040000 		.4byte	.LASF77
 1115 05aa 01       		.byte	0x1
 1116 05ab 78       		.byte	0x78
 1117 05ac 00000000 		.4byte	.LFB2
 1118 05b0 30000000 		.4byte	.LFE2-.LFB2
 1119 05b4 01       		.uleb128 0x1
 1120 05b5 9C       		.byte	0x9c
 1121 05b6 01060000 		.4byte	0x601
 1122 05ba 15       		.uleb128 0x15
 1123 05bb 14000000 		.4byte	.LVL4
 1124 05bf ED060000 		.4byte	0x6ed
 1125 05c3 D2050000 		.4byte	0x5d2
 1126 05c7 16       		.uleb128 0x16
 1127 05c8 01       		.uleb128 0x1
 1128 05c9 51       		.byte	0x51
 1129 05ca 01       		.uleb128 0x1
 1130 05cb 40       		.byte	0x40
 1131 05cc 16       		.uleb128 0x16
ARM GAS  /tmp/ccbh0YzT.s 			page 21


 1132 05cd 01       		.uleb128 0x1
 1133 05ce 50       		.byte	0x50
 1134 05cf 01       		.uleb128 0x1
 1135 05d0 37       		.byte	0x37
 1136 05d1 00       		.byte	0
 1137 05d2 15       		.uleb128 0x15
 1138 05d3 1C000000 		.4byte	.LVL5
 1139 05d7 ED060000 		.4byte	0x6ed
 1140 05db EB050000 		.4byte	0x5eb
 1141 05df 16       		.uleb128 0x16
 1142 05e0 01       		.uleb128 0x1
 1143 05e1 51       		.byte	0x51
 1144 05e2 02       		.uleb128 0x2
 1145 05e3 08       		.byte	0x8
 1146 05e4 20       		.byte	0x20
 1147 05e5 16       		.uleb128 0x16
 1148 05e6 01       		.uleb128 0x1
 1149 05e7 50       		.byte	0x50
 1150 05e8 01       		.uleb128 0x1
 1151 05e9 3A       		.byte	0x3a
 1152 05ea 00       		.byte	0
 1153 05eb 17       		.uleb128 0x17
 1154 05ec 28000000 		.4byte	.LVL6
 1155 05f0 ED060000 		.4byte	0x6ed
 1156 05f4 16       		.uleb128 0x16
 1157 05f5 01       		.uleb128 0x1
 1158 05f6 51       		.byte	0x51
 1159 05f7 02       		.uleb128 0x2
 1160 05f8 08       		.byte	0x8
 1161 05f9 80       		.byte	0x80
 1162 05fa 16       		.uleb128 0x16
 1163 05fb 01       		.uleb128 0x1
 1164 05fc 50       		.byte	0x50
 1165 05fd 01       		.uleb128 0x1
 1166 05fe 3B       		.byte	0x3b
 1167 05ff 00       		.byte	0
 1168 0600 00       		.byte	0
 1169 0601 12       		.uleb128 0x12
 1170 0602 75020000 		.4byte	.LASF78
 1171 0606 01       		.byte	0x1
 1172 0607 88       		.byte	0x88
 1173 0608 00000000 		.4byte	.LFB3
 1174 060c 08000000 		.4byte	.LFE3-.LFB3
 1175 0610 01       		.uleb128 0x1
 1176 0611 9C       		.byte	0x9c
 1177 0612 24060000 		.4byte	0x624
 1178 0616 18       		.uleb128 0x18
 1179 0617 746D7000 		.ascii	"tmp\000"
 1180 061b 01       		.byte	0x1
 1181 061c 89       		.byte	0x89
 1182 061d A2000000 		.4byte	0xa2
 1183 0621 01       		.uleb128 0x1
 1184 0622 53       		.byte	0x53
 1185 0623 00       		.byte	0
 1186 0624 12       		.uleb128 0x12
 1187 0625 17040000 		.4byte	.LASF80
 1188 0629 01       		.byte	0x1
ARM GAS  /tmp/ccbh0YzT.s 			page 22


 1189 062a 8D       		.byte	0x8d
 1190 062b 00000000 		.4byte	.LFB4
 1191 062f 08000000 		.4byte	.LFE4-.LFB4
 1192 0633 01       		.uleb128 0x1
 1193 0634 9C       		.byte	0x9c
 1194 0635 47060000 		.4byte	0x647
 1195 0639 18       		.uleb128 0x18
 1196 063a 746D7000 		.ascii	"tmp\000"
 1197 063e 01       		.byte	0x1
 1198 063f 8E       		.byte	0x8e
 1199 0640 A2000000 		.4byte	0xa2
 1200 0644 01       		.uleb128 0x1
 1201 0645 53       		.byte	0x53
 1202 0646 00       		.byte	0
 1203 0647 12       		.uleb128 0x12
 1204 0648 11020000 		.4byte	.LASF81
 1205 064c 01       		.byte	0x1
 1206 064d 96       		.byte	0x96
 1207 064e 00000000 		.4byte	.LFB5
 1208 0652 74000000 		.4byte	.LFE5-.LFB5
 1209 0656 01       		.uleb128 0x1
 1210 0657 9C       		.byte	0x9c
 1211 0658 72060000 		.4byte	0x672
 1212 065c 19       		.uleb128 0x19
 1213 065d 00000000 		.4byte	.Ldebug_ranges0+0
 1214 0661 14       		.uleb128 0x14
 1215 0662 80020000 		.4byte	.LASF79
 1216 0666 01       		.byte	0x1
 1217 0667 9A       		.byte	0x9a
 1218 0668 9F050000 		.4byte	0x59f
 1219 066c 20000000 		.4byte	.LLST1
 1220 0670 00       		.byte	0
 1221 0671 00       		.byte	0
 1222 0672 12       		.uleb128 0x12
 1223 0673 32000000 		.4byte	.LASF82
 1224 0677 01       		.byte	0x1
 1225 0678 2F       		.byte	0x2f
 1226 0679 00000000 		.4byte	.LFB0
 1227 067d 16000000 		.4byte	.LFE0-.LFB0
 1228 0681 01       		.uleb128 0x1
 1229 0682 9C       		.byte	0x9c
 1230 0683 9A060000 		.4byte	0x69a
 1231 0687 13       		.uleb128 0x13
 1232 0688 0A000000 		.4byte	.LVL12
 1233 068c 04070000 		.4byte	0x704
 1234 0690 1A       		.uleb128 0x1a
 1235 0691 16000000 		.4byte	.LVL13
 1236 0695 47060000 		.4byte	0x647
 1237 0699 00       		.byte	0
 1238 069a 12       		.uleb128 0x12
 1239 069b A8010000 		.4byte	.LASF83
 1240 069f 01       		.byte	0x1
 1241 06a0 E5       		.byte	0xe5
 1242 06a1 00000000 		.4byte	.LFB7
 1243 06a5 10000000 		.4byte	.LFE7-.LFB7
 1244 06a9 01       		.uleb128 0x1
 1245 06aa 9C       		.byte	0x9c
ARM GAS  /tmp/ccbh0YzT.s 			page 23


 1246 06ab CA060000 		.4byte	0x6ca
 1247 06af 1B       		.uleb128 0x1b
 1248 06b0 6E747000 		.ascii	"ntp\000"
 1249 06b4 01       		.byte	0x1
 1250 06b5 E5       		.byte	0xe5
 1251 06b6 D7010000 		.4byte	0x1d7
 1252 06ba 01       		.uleb128 0x1
 1253 06bb 50       		.byte	0x50
 1254 06bc 1B       		.uleb128 0x1b
 1255 06bd 6F747000 		.ascii	"otp\000"
 1256 06c1 01       		.byte	0x1
 1257 06c2 E5       		.byte	0xe5
 1258 06c3 D7010000 		.4byte	0x1d7
 1259 06c7 01       		.uleb128 0x1
 1260 06c8 51       		.byte	0x51
 1261 06c9 00       		.byte	0
 1262 06ca 1C       		.uleb128 0x1c
 1263 06cb DC000000 		.4byte	.LASF89
 1264 06cf 01       		.byte	0x1
 1265 06d0 FC       		.byte	0xfc
 1266 06d1 00000000 		.4byte	.LFB8
 1267 06d5 12000000 		.4byte	.LFE8-.LFB8
 1268 06d9 01       		.uleb128 0x1
 1269 06da 9C       		.byte	0x9c
 1270 06db 1D       		.uleb128 0x1d
 1271 06dc 52040000 		.4byte	.LASF90
 1272 06e0 09       		.byte	0x9
 1273 06e1 6F       		.byte	0x6f
 1274 06e2 D3040000 		.4byte	0x4d3
 1275 06e6 1E       		.uleb128 0x1e
 1276 06e7 25010000 		.4byte	.LASF84
 1277 06eb 09       		.byte	0x9
 1278 06ec A8       		.byte	0xa8
 1279 06ed 1F       		.uleb128 0x1f
 1280 06ee FF000000 		.4byte	.LASF91
 1281 06f2 08       		.byte	0x8
 1282 06f3 2501     		.2byte	0x125
 1283 06f5 04070000 		.4byte	0x704
 1284 06f9 20       		.uleb128 0x20
 1285 06fa A2000000 		.4byte	0xa2
 1286 06fe 20       		.uleb128 0x20
 1287 06ff A2000000 		.4byte	0xa2
 1288 0703 00       		.byte	0
 1289 0704 1E       		.uleb128 0x1e
 1290 0705 1F000000 		.4byte	.LASF85
 1291 0709 0B       		.byte	0xb
 1292 070a F7       		.byte	0xf7
 1293 070b 00       		.byte	0
 1294              		.section	.debug_abbrev,"",%progbits
 1295              	.Ldebug_abbrev0:
 1296 0000 01       		.uleb128 0x1
 1297 0001 11       		.uleb128 0x11
 1298 0002 01       		.byte	0x1
 1299 0003 25       		.uleb128 0x25
 1300 0004 0E       		.uleb128 0xe
 1301 0005 13       		.uleb128 0x13
 1302 0006 0B       		.uleb128 0xb
ARM GAS  /tmp/ccbh0YzT.s 			page 24


 1303 0007 03       		.uleb128 0x3
 1304 0008 0E       		.uleb128 0xe
 1305 0009 1B       		.uleb128 0x1b
 1306 000a 0E       		.uleb128 0xe
 1307 000b 55       		.uleb128 0x55
 1308 000c 17       		.uleb128 0x17
 1309 000d 11       		.uleb128 0x11
 1310 000e 01       		.uleb128 0x1
 1311 000f 10       		.uleb128 0x10
 1312 0010 17       		.uleb128 0x17
 1313 0011 00       		.byte	0
 1314 0012 00       		.byte	0
 1315 0013 02       		.uleb128 0x2
 1316 0014 24       		.uleb128 0x24
 1317 0015 00       		.byte	0
 1318 0016 0B       		.uleb128 0xb
 1319 0017 0B       		.uleb128 0xb
 1320 0018 3E       		.uleb128 0x3e
 1321 0019 0B       		.uleb128 0xb
 1322 001a 03       		.uleb128 0x3
 1323 001b 08       		.uleb128 0x8
 1324 001c 00       		.byte	0
 1325 001d 00       		.byte	0
 1326 001e 03       		.uleb128 0x3
 1327 001f 24       		.uleb128 0x24
 1328 0020 00       		.byte	0
 1329 0021 0B       		.uleb128 0xb
 1330 0022 0B       		.uleb128 0xb
 1331 0023 3E       		.uleb128 0x3e
 1332 0024 0B       		.uleb128 0xb
 1333 0025 03       		.uleb128 0x3
 1334 0026 0E       		.uleb128 0xe
 1335 0027 00       		.byte	0
 1336 0028 00       		.byte	0
 1337 0029 04       		.uleb128 0x4
 1338 002a 16       		.uleb128 0x16
 1339 002b 00       		.byte	0
 1340 002c 03       		.uleb128 0x3
 1341 002d 0E       		.uleb128 0xe
 1342 002e 3A       		.uleb128 0x3a
 1343 002f 0B       		.uleb128 0xb
 1344 0030 3B       		.uleb128 0x3b
 1345 0031 0B       		.uleb128 0xb
 1346 0032 49       		.uleb128 0x49
 1347 0033 13       		.uleb128 0x13
 1348 0034 00       		.byte	0
 1349 0035 00       		.byte	0
 1350 0036 05       		.uleb128 0x5
 1351 0037 13       		.uleb128 0x13
 1352 0038 01       		.byte	0x1
 1353 0039 03       		.uleb128 0x3
 1354 003a 0E       		.uleb128 0xe
 1355 003b 0B       		.uleb128 0xb
 1356 003c 0B       		.uleb128 0xb
 1357 003d 3A       		.uleb128 0x3a
 1358 003e 0B       		.uleb128 0xb
 1359 003f 3B       		.uleb128 0x3b
ARM GAS  /tmp/ccbh0YzT.s 			page 25


 1360 0040 0B       		.uleb128 0xb
 1361 0041 01       		.uleb128 0x1
 1362 0042 13       		.uleb128 0x13
 1363 0043 00       		.byte	0
 1364 0044 00       		.byte	0
 1365 0045 06       		.uleb128 0x6
 1366 0046 0D       		.uleb128 0xd
 1367 0047 00       		.byte	0
 1368 0048 03       		.uleb128 0x3
 1369 0049 0E       		.uleb128 0xe
 1370 004a 3A       		.uleb128 0x3a
 1371 004b 0B       		.uleb128 0xb
 1372 004c 3B       		.uleb128 0x3b
 1373 004d 0B       		.uleb128 0xb
 1374 004e 49       		.uleb128 0x49
 1375 004f 13       		.uleb128 0x13
 1376 0050 38       		.uleb128 0x38
 1377 0051 0B       		.uleb128 0xb
 1378 0052 00       		.byte	0
 1379 0053 00       		.byte	0
 1380 0054 07       		.uleb128 0x7
 1381 0055 0D       		.uleb128 0xd
 1382 0056 00       		.byte	0
 1383 0057 03       		.uleb128 0x3
 1384 0058 08       		.uleb128 0x8
 1385 0059 3A       		.uleb128 0x3a
 1386 005a 0B       		.uleb128 0xb
 1387 005b 3B       		.uleb128 0x3b
 1388 005c 0B       		.uleb128 0xb
 1389 005d 49       		.uleb128 0x49
 1390 005e 13       		.uleb128 0x13
 1391 005f 38       		.uleb128 0x38
 1392 0060 0B       		.uleb128 0xb
 1393 0061 00       		.byte	0
 1394 0062 00       		.byte	0
 1395 0063 08       		.uleb128 0x8
 1396 0064 13       		.uleb128 0x13
 1397 0065 01       		.byte	0x1
 1398 0066 0B       		.uleb128 0xb
 1399 0067 0B       		.uleb128 0xb
 1400 0068 3A       		.uleb128 0x3a
 1401 0069 0B       		.uleb128 0xb
 1402 006a 3B       		.uleb128 0x3b
 1403 006b 0B       		.uleb128 0xb
 1404 006c 01       		.uleb128 0x1
 1405 006d 13       		.uleb128 0x13
 1406 006e 00       		.byte	0
 1407 006f 00       		.byte	0
 1408 0070 09       		.uleb128 0x9
 1409 0071 0F       		.uleb128 0xf
 1410 0072 00       		.byte	0
 1411 0073 0B       		.uleb128 0xb
 1412 0074 0B       		.uleb128 0xb
 1413 0075 49       		.uleb128 0x49
 1414 0076 13       		.uleb128 0x13
 1415 0077 00       		.byte	0
 1416 0078 00       		.byte	0
ARM GAS  /tmp/ccbh0YzT.s 			page 26


 1417 0079 0A       		.uleb128 0xa
 1418 007a 0F       		.uleb128 0xf
 1419 007b 00       		.byte	0
 1420 007c 0B       		.uleb128 0xb
 1421 007d 0B       		.uleb128 0xb
 1422 007e 00       		.byte	0
 1423 007f 00       		.byte	0
 1424 0080 0B       		.uleb128 0xb
 1425 0081 13       		.uleb128 0x13
 1426 0082 01       		.byte	0x1
 1427 0083 03       		.uleb128 0x3
 1428 0084 0E       		.uleb128 0xe
 1429 0085 0B       		.uleb128 0xb
 1430 0086 0B       		.uleb128 0xb
 1431 0087 3A       		.uleb128 0x3a
 1432 0088 0B       		.uleb128 0xb
 1433 0089 3B       		.uleb128 0x3b
 1434 008a 05       		.uleb128 0x5
 1435 008b 01       		.uleb128 0x1
 1436 008c 13       		.uleb128 0x13
 1437 008d 00       		.byte	0
 1438 008e 00       		.byte	0
 1439 008f 0C       		.uleb128 0xc
 1440 0090 0D       		.uleb128 0xd
 1441 0091 00       		.byte	0
 1442 0092 03       		.uleb128 0x3
 1443 0093 08       		.uleb128 0x8
 1444 0094 3A       		.uleb128 0x3a
 1445 0095 0B       		.uleb128 0xb
 1446 0096 3B       		.uleb128 0x3b
 1447 0097 05       		.uleb128 0x5
 1448 0098 49       		.uleb128 0x49
 1449 0099 13       		.uleb128 0x13
 1450 009a 38       		.uleb128 0x38
 1451 009b 0B       		.uleb128 0xb
 1452 009c 00       		.byte	0
 1453 009d 00       		.byte	0
 1454 009e 0D       		.uleb128 0xd
 1455 009f 35       		.uleb128 0x35
 1456 00a0 00       		.byte	0
 1457 00a1 49       		.uleb128 0x49
 1458 00a2 13       		.uleb128 0x13
 1459 00a3 00       		.byte	0
 1460 00a4 00       		.byte	0
 1461 00a5 0E       		.uleb128 0xe
 1462 00a6 01       		.uleb128 0x1
 1463 00a7 01       		.byte	0x1
 1464 00a8 49       		.uleb128 0x49
 1465 00a9 13       		.uleb128 0x13
 1466 00aa 01       		.uleb128 0x1
 1467 00ab 13       		.uleb128 0x13
 1468 00ac 00       		.byte	0
 1469 00ad 00       		.byte	0
 1470 00ae 0F       		.uleb128 0xf
 1471 00af 21       		.uleb128 0x21
 1472 00b0 00       		.byte	0
 1473 00b1 49       		.uleb128 0x49
ARM GAS  /tmp/ccbh0YzT.s 			page 27


 1474 00b2 13       		.uleb128 0x13
 1475 00b3 2F       		.uleb128 0x2f
 1476 00b4 0B       		.uleb128 0xb
 1477 00b5 00       		.byte	0
 1478 00b6 00       		.byte	0
 1479 00b7 10       		.uleb128 0x10
 1480 00b8 17       		.uleb128 0x17
 1481 00b9 01       		.byte	0x1
 1482 00ba 0B       		.uleb128 0xb
 1483 00bb 0B       		.uleb128 0xb
 1484 00bc 3A       		.uleb128 0x3a
 1485 00bd 0B       		.uleb128 0xb
 1486 00be 3B       		.uleb128 0x3b
 1487 00bf 0B       		.uleb128 0xb
 1488 00c0 01       		.uleb128 0x1
 1489 00c1 13       		.uleb128 0x13
 1490 00c2 00       		.byte	0
 1491 00c3 00       		.byte	0
 1492 00c4 11       		.uleb128 0x11
 1493 00c5 0D       		.uleb128 0xd
 1494 00c6 00       		.byte	0
 1495 00c7 03       		.uleb128 0x3
 1496 00c8 0E       		.uleb128 0xe
 1497 00c9 3A       		.uleb128 0x3a
 1498 00ca 0B       		.uleb128 0xb
 1499 00cb 3B       		.uleb128 0x3b
 1500 00cc 0B       		.uleb128 0xb
 1501 00cd 49       		.uleb128 0x49
 1502 00ce 13       		.uleb128 0x13
 1503 00cf 00       		.byte	0
 1504 00d0 00       		.byte	0
 1505 00d1 12       		.uleb128 0x12
 1506 00d2 2E       		.uleb128 0x2e
 1507 00d3 01       		.byte	0x1
 1508 00d4 3F       		.uleb128 0x3f
 1509 00d5 19       		.uleb128 0x19
 1510 00d6 03       		.uleb128 0x3
 1511 00d7 0E       		.uleb128 0xe
 1512 00d8 3A       		.uleb128 0x3a
 1513 00d9 0B       		.uleb128 0xb
 1514 00da 3B       		.uleb128 0x3b
 1515 00db 0B       		.uleb128 0xb
 1516 00dc 27       		.uleb128 0x27
 1517 00dd 19       		.uleb128 0x19
 1518 00de 11       		.uleb128 0x11
 1519 00df 01       		.uleb128 0x1
 1520 00e0 12       		.uleb128 0x12
 1521 00e1 06       		.uleb128 0x6
 1522 00e2 40       		.uleb128 0x40
 1523 00e3 18       		.uleb128 0x18
 1524 00e4 9742     		.uleb128 0x2117
 1525 00e6 19       		.uleb128 0x19
 1526 00e7 01       		.uleb128 0x1
 1527 00e8 13       		.uleb128 0x13
 1528 00e9 00       		.byte	0
 1529 00ea 00       		.byte	0
 1530 00eb 13       		.uleb128 0x13
ARM GAS  /tmp/ccbh0YzT.s 			page 28


 1531 00ec 898201   		.uleb128 0x4109
 1532 00ef 00       		.byte	0
 1533 00f0 11       		.uleb128 0x11
 1534 00f1 01       		.uleb128 0x1
 1535 00f2 31       		.uleb128 0x31
 1536 00f3 13       		.uleb128 0x13
 1537 00f4 00       		.byte	0
 1538 00f5 00       		.byte	0
 1539 00f6 14       		.uleb128 0x14
 1540 00f7 34       		.uleb128 0x34
 1541 00f8 00       		.byte	0
 1542 00f9 03       		.uleb128 0x3
 1543 00fa 0E       		.uleb128 0xe
 1544 00fb 3A       		.uleb128 0x3a
 1545 00fc 0B       		.uleb128 0xb
 1546 00fd 3B       		.uleb128 0x3b
 1547 00fe 0B       		.uleb128 0xb
 1548 00ff 49       		.uleb128 0x49
 1549 0100 13       		.uleb128 0x13
 1550 0101 02       		.uleb128 0x2
 1551 0102 17       		.uleb128 0x17
 1552 0103 00       		.byte	0
 1553 0104 00       		.byte	0
 1554 0105 15       		.uleb128 0x15
 1555 0106 898201   		.uleb128 0x4109
 1556 0109 01       		.byte	0x1
 1557 010a 11       		.uleb128 0x11
 1558 010b 01       		.uleb128 0x1
 1559 010c 31       		.uleb128 0x31
 1560 010d 13       		.uleb128 0x13
 1561 010e 01       		.uleb128 0x1
 1562 010f 13       		.uleb128 0x13
 1563 0110 00       		.byte	0
 1564 0111 00       		.byte	0
 1565 0112 16       		.uleb128 0x16
 1566 0113 8A8201   		.uleb128 0x410a
 1567 0116 00       		.byte	0
 1568 0117 02       		.uleb128 0x2
 1569 0118 18       		.uleb128 0x18
 1570 0119 9142     		.uleb128 0x2111
 1571 011b 18       		.uleb128 0x18
 1572 011c 00       		.byte	0
 1573 011d 00       		.byte	0
 1574 011e 17       		.uleb128 0x17
 1575 011f 898201   		.uleb128 0x4109
 1576 0122 01       		.byte	0x1
 1577 0123 11       		.uleb128 0x11
 1578 0124 01       		.uleb128 0x1
 1579 0125 9542     		.uleb128 0x2115
 1580 0127 19       		.uleb128 0x19
 1581 0128 31       		.uleb128 0x31
 1582 0129 13       		.uleb128 0x13
 1583 012a 00       		.byte	0
 1584 012b 00       		.byte	0
 1585 012c 18       		.uleb128 0x18
 1586 012d 34       		.uleb128 0x34
 1587 012e 00       		.byte	0
ARM GAS  /tmp/ccbh0YzT.s 			page 29


 1588 012f 03       		.uleb128 0x3
 1589 0130 08       		.uleb128 0x8
 1590 0131 3A       		.uleb128 0x3a
 1591 0132 0B       		.uleb128 0xb
 1592 0133 3B       		.uleb128 0x3b
 1593 0134 0B       		.uleb128 0xb
 1594 0135 49       		.uleb128 0x49
 1595 0136 13       		.uleb128 0x13
 1596 0137 02       		.uleb128 0x2
 1597 0138 18       		.uleb128 0x18
 1598 0139 00       		.byte	0
 1599 013a 00       		.byte	0
 1600 013b 19       		.uleb128 0x19
 1601 013c 0B       		.uleb128 0xb
 1602 013d 01       		.byte	0x1
 1603 013e 55       		.uleb128 0x55
 1604 013f 17       		.uleb128 0x17
 1605 0140 00       		.byte	0
 1606 0141 00       		.byte	0
 1607 0142 1A       		.uleb128 0x1a
 1608 0143 898201   		.uleb128 0x4109
 1609 0146 00       		.byte	0
 1610 0147 11       		.uleb128 0x11
 1611 0148 01       		.uleb128 0x1
 1612 0149 9542     		.uleb128 0x2115
 1613 014b 19       		.uleb128 0x19
 1614 014c 31       		.uleb128 0x31
 1615 014d 13       		.uleb128 0x13
 1616 014e 00       		.byte	0
 1617 014f 00       		.byte	0
 1618 0150 1B       		.uleb128 0x1b
 1619 0151 05       		.uleb128 0x5
 1620 0152 00       		.byte	0
 1621 0153 03       		.uleb128 0x3
 1622 0154 08       		.uleb128 0x8
 1623 0155 3A       		.uleb128 0x3a
 1624 0156 0B       		.uleb128 0xb
 1625 0157 3B       		.uleb128 0x3b
 1626 0158 0B       		.uleb128 0xb
 1627 0159 49       		.uleb128 0x49
 1628 015a 13       		.uleb128 0x13
 1629 015b 02       		.uleb128 0x2
 1630 015c 18       		.uleb128 0x18
 1631 015d 00       		.byte	0
 1632 015e 00       		.byte	0
 1633 015f 1C       		.uleb128 0x1c
 1634 0160 2E       		.uleb128 0x2e
 1635 0161 00       		.byte	0
 1636 0162 3F       		.uleb128 0x3f
 1637 0163 19       		.uleb128 0x19
 1638 0164 03       		.uleb128 0x3
 1639 0165 0E       		.uleb128 0xe
 1640 0166 3A       		.uleb128 0x3a
 1641 0167 0B       		.uleb128 0xb
 1642 0168 3B       		.uleb128 0x3b
 1643 0169 0B       		.uleb128 0xb
 1644 016a 27       		.uleb128 0x27
ARM GAS  /tmp/ccbh0YzT.s 			page 30


 1645 016b 19       		.uleb128 0x19
 1646 016c 11       		.uleb128 0x11
 1647 016d 01       		.uleb128 0x1
 1648 016e 12       		.uleb128 0x12
 1649 016f 06       		.uleb128 0x6
 1650 0170 40       		.uleb128 0x40
 1651 0171 18       		.uleb128 0x18
 1652 0172 9742     		.uleb128 0x2117
 1653 0174 19       		.uleb128 0x19
 1654 0175 00       		.byte	0
 1655 0176 00       		.byte	0
 1656 0177 1D       		.uleb128 0x1d
 1657 0178 34       		.uleb128 0x34
 1658 0179 00       		.byte	0
 1659 017a 03       		.uleb128 0x3
 1660 017b 0E       		.uleb128 0xe
 1661 017c 3A       		.uleb128 0x3a
 1662 017d 0B       		.uleb128 0xb
 1663 017e 3B       		.uleb128 0x3b
 1664 017f 0B       		.uleb128 0xb
 1665 0180 49       		.uleb128 0x49
 1666 0181 13       		.uleb128 0x13
 1667 0182 3F       		.uleb128 0x3f
 1668 0183 19       		.uleb128 0x19
 1669 0184 3C       		.uleb128 0x3c
 1670 0185 19       		.uleb128 0x19
 1671 0186 00       		.byte	0
 1672 0187 00       		.byte	0
 1673 0188 1E       		.uleb128 0x1e
 1674 0189 2E       		.uleb128 0x2e
 1675 018a 00       		.byte	0
 1676 018b 3F       		.uleb128 0x3f
 1677 018c 19       		.uleb128 0x19
 1678 018d 03       		.uleb128 0x3
 1679 018e 0E       		.uleb128 0xe
 1680 018f 3A       		.uleb128 0x3a
 1681 0190 0B       		.uleb128 0xb
 1682 0191 3B       		.uleb128 0x3b
 1683 0192 0B       		.uleb128 0xb
 1684 0193 27       		.uleb128 0x27
 1685 0194 19       		.uleb128 0x19
 1686 0195 3C       		.uleb128 0x3c
 1687 0196 19       		.uleb128 0x19
 1688 0197 00       		.byte	0
 1689 0198 00       		.byte	0
 1690 0199 1F       		.uleb128 0x1f
 1691 019a 2E       		.uleb128 0x2e
 1692 019b 01       		.byte	0x1
 1693 019c 3F       		.uleb128 0x3f
 1694 019d 19       		.uleb128 0x19
 1695 019e 03       		.uleb128 0x3
 1696 019f 0E       		.uleb128 0xe
 1697 01a0 3A       		.uleb128 0x3a
 1698 01a1 0B       		.uleb128 0xb
 1699 01a2 3B       		.uleb128 0x3b
 1700 01a3 05       		.uleb128 0x5
 1701 01a4 27       		.uleb128 0x27
ARM GAS  /tmp/ccbh0YzT.s 			page 31


 1702 01a5 19       		.uleb128 0x19
 1703 01a6 3C       		.uleb128 0x3c
 1704 01a7 19       		.uleb128 0x19
 1705 01a8 01       		.uleb128 0x1
 1706 01a9 13       		.uleb128 0x13
 1707 01aa 00       		.byte	0
 1708 01ab 00       		.byte	0
 1709 01ac 20       		.uleb128 0x20
 1710 01ad 05       		.uleb128 0x5
 1711 01ae 00       		.byte	0
 1712 01af 49       		.uleb128 0x49
 1713 01b0 13       		.uleb128 0x13
 1714 01b1 00       		.byte	0
 1715 01b2 00       		.byte	0
 1716 01b3 00       		.byte	0
 1717              		.section	.debug_loc,"",%progbits
 1718              	.Ldebug_loc0:
 1719              	.LLST0:
 1720 0000 06000000 		.4byte	.LVL1
 1721 0004 08000000 		.4byte	.LVL2
 1722 0008 0300     		.2byte	0x3
 1723 000a 73       		.byte	0x73
 1724 000b 20       		.sleb128 32
 1725 000c 9F       		.byte	0x9f
 1726 000d 08000000 		.4byte	.LVL2
 1727 0011 10000000 		.4byte	.LVL3
 1728 0015 0100     		.2byte	0x1
 1729 0017 53       		.byte	0x53
 1730 0018 00000000 		.4byte	0
 1731 001c 00000000 		.4byte	0
 1732              	.LLST1:
 1733 0020 12000000 		.4byte	.LVL7
 1734 0024 1E000000 		.4byte	.LVL8
 1735 0028 0300     		.2byte	0x3
 1736 002a 73       		.byte	0x73
 1737 002b 60       		.sleb128 -32
 1738 002c 9F       		.byte	0x9f
 1739 002d 1E000000 		.4byte	.LVL8
 1740 0031 26000000 		.4byte	.LVL9
 1741 0035 0100     		.2byte	0x1
 1742 0037 52       		.byte	0x52
 1743 0038 26000000 		.4byte	.LVL9
 1744 003c 44000000 		.4byte	.LVL10
 1745 0040 0300     		.2byte	0x3
 1746 0042 73       		.byte	0x73
 1747 0043 60       		.sleb128 -32
 1748 0044 9F       		.byte	0x9f
 1749 0045 4C000000 		.4byte	.LVL11
 1750 0049 74000000 		.4byte	.LFE5
 1751 004d 0300     		.2byte	0x3
 1752 004f 73       		.byte	0x73
 1753 0050 60       		.sleb128 -32
 1754 0051 9F       		.byte	0x9f
 1755 0052 00000000 		.4byte	0
 1756 0056 00000000 		.4byte	0
 1757              		.section	.debug_aranges,"",%progbits
 1758 0000 5C000000 		.4byte	0x5c
ARM GAS  /tmp/ccbh0YzT.s 			page 32


 1759 0004 0200     		.2byte	0x2
 1760 0006 00000000 		.4byte	.Ldebug_info0
 1761 000a 04       		.byte	0x4
 1762 000b 00       		.byte	0
 1763 000c 0000     		.2byte	0
 1764 000e 0000     		.2byte	0
 1765 0010 00000000 		.4byte	.LFB6
 1766 0014 06000000 		.4byte	.LFE6-.LFB6
 1767 0018 00000000 		.4byte	.LFB1
 1768 001c 14000000 		.4byte	.LFE1-.LFB1
 1769 0020 00000000 		.4byte	.LFB2
 1770 0024 30000000 		.4byte	.LFE2-.LFB2
 1771 0028 00000000 		.4byte	.LFB3
 1772 002c 08000000 		.4byte	.LFE3-.LFB3
 1773 0030 00000000 		.4byte	.LFB4
 1774 0034 08000000 		.4byte	.LFE4-.LFB4
 1775 0038 00000000 		.4byte	.LFB5
 1776 003c 74000000 		.4byte	.LFE5-.LFB5
 1777 0040 00000000 		.4byte	.LFB0
 1778 0044 16000000 		.4byte	.LFE0-.LFB0
 1779 0048 00000000 		.4byte	.LFB7
 1780 004c 10000000 		.4byte	.LFE7-.LFB7
 1781 0050 00000000 		.4byte	.LFB8
 1782 0054 12000000 		.4byte	.LFE8-.LFB8
 1783 0058 00000000 		.4byte	0
 1784 005c 00000000 		.4byte	0
 1785              		.section	.debug_ranges,"",%progbits
 1786              	.Ldebug_ranges0:
 1787 0000 0E000000 		.4byte	.LBB2
 1788 0004 44000000 		.4byte	.LBE2
 1789 0008 4C000000 		.4byte	.LBB3
 1790 000c 74000000 		.4byte	.LBE3
 1791 0010 00000000 		.4byte	0
 1792 0014 00000000 		.4byte	0
 1793 0018 00000000 		.4byte	.LFB6
 1794 001c 06000000 		.4byte	.LFE6
 1795 0020 00000000 		.4byte	.LFB1
 1796 0024 14000000 		.4byte	.LFE1
 1797 0028 00000000 		.4byte	.LFB2
 1798 002c 30000000 		.4byte	.LFE2
 1799 0030 00000000 		.4byte	.LFB3
 1800 0034 08000000 		.4byte	.LFE3
 1801 0038 00000000 		.4byte	.LFB4
 1802 003c 08000000 		.4byte	.LFE4
 1803 0040 00000000 		.4byte	.LFB5
 1804 0044 74000000 		.4byte	.LFE5
 1805 0048 00000000 		.4byte	.LFB0
 1806 004c 16000000 		.4byte	.LFE0
 1807 0050 00000000 		.4byte	.LFB7
 1808 0054 10000000 		.4byte	.LFE7
 1809 0058 00000000 		.4byte	.LFB8
 1810 005c 12000000 		.4byte	.LFE8
 1811 0060 00000000 		.4byte	0
 1812 0064 00000000 		.4byte	0
 1813              		.section	.debug_line,"",%progbits
 1814              	.Ldebug_line0:
 1815 0000 F3010000 		.section	.debug_str,"MS",%progbits,1
ARM GAS  /tmp/ccbh0YzT.s 			page 33


 1815      02001E01 
 1815      00000201 
 1815      FB0E0D00 
 1815      01010101 
 1816              	.LASF32:
 1817 0000 705F6D73 		.ascii	"p_msg\000"
 1817      6700
 1818              	.LASF71:
 1819 0006 7264796D 		.ascii	"rdymsg\000"
 1819      736700
 1820              	.LASF5:
 1821 000d 5F5F7569 		.ascii	"__uint8_t\000"
 1821      6E74385F 
 1821      7400
 1822              	.LASF61:
 1823 0017 434D785F 		.ascii	"CMx_SCB\000"
 1823      53434200 
 1824              	.LASF85:
 1825 001f 63685379 		.ascii	"chSysTimerHandlerI\000"
 1825      7354696D 
 1825      65724861 
 1825      6E646C65 
 1825      724900
 1826              	.LASF82:
 1827 0032 53797354 		.ascii	"SysTickVector\000"
 1827      69636B56 
 1827      6563746F 
 1827      7200
 1828              	.LASF11:
 1829 0040 6C6F6E67 		.ascii	"long long unsigned int\000"
 1829      206C6F6E 
 1829      6720756E 
 1829      7369676E 
 1829      65642069 
 1830              	.LASF72:
 1831 0057 65786974 		.ascii	"exitcode\000"
 1831      636F6465 
 1831      00
 1832              	.LASF46:
 1833 0060 43505549 		.ascii	"CPUID\000"
 1833      4400
 1834              	.LASF25:
 1835 0066 705F7072 		.ascii	"p_prio\000"
 1835      696F00
 1836              	.LASF10:
 1837 006d 6C6F6E67 		.ascii	"long long int\000"
 1837      206C6F6E 
 1837      6720696E 
 1837      7400
 1838              	.LASF1:
 1839 007b 7369676E 		.ascii	"signed char\000"
 1839      65642063 
 1839      68617200 
 1840              	.LASF68:
 1841 0087 6D5F7175 		.ascii	"m_queue\000"
 1841      65756500 
 1842              	.LASF87:
ARM GAS  /tmp/ccbh0YzT.s 			page 34


 1843 008f 2E2E2F6F 		.ascii	"../os/ports/GCC/ARMCMx/chcore_v7m.c\000"
 1843      732F706F 
 1843      7274732F 
 1843      4743432F 
 1843      41524D43 
 1844              	.LASF18:
 1845 00b3 74736C69 		.ascii	"tslices_t\000"
 1845      6365735F 
 1845      7400
 1846              	.LASF7:
 1847 00bd 6C6F6E67 		.ascii	"long int\000"
 1847      20696E74 
 1847      00
 1848              	.LASF76:
 1849 00c6 53564361 		.ascii	"SVCallVector\000"
 1849      6C6C5665 
 1849      63746F72 
 1849      00
 1850              	.LASF17:
 1851 00d3 74737461 		.ascii	"tstate_t\000"
 1851      74655F74 
 1851      00
 1852              	.LASF89:
 1853 00dc 5F706F72 		.ascii	"_port_thread_start\000"
 1853      745F7468 
 1853      72656164 
 1853      5F737461 
 1853      727400
 1854              	.LASF56:
 1855 00ef 42464152 		.ascii	"BFAR\000"
 1855      00
 1856              	.LASF8:
 1857 00f4 5F5F7569 		.ascii	"__uint32_t\000"
 1857      6E743332 
 1857      5F7400
 1858              	.LASF91:
 1859 00ff 6E766963 		.ascii	"nvicSetSystemHandlerPriority\000"
 1859      53657453 
 1859      79737465 
 1859      6D48616E 
 1859      646C6572 
 1860              	.LASF38:
 1861 011c 72656761 		.ascii	"regarm_t\000"
 1861      726D5F74 
 1861      00
 1862              	.LASF84:
 1863 0125 63685363 		.ascii	"chSchDoReschedule\000"
 1863      68446F52 
 1863      65736368 
 1863      6564756C 
 1863      6500
 1864              	.LASF0:
 1865 0137 756E7369 		.ascii	"unsigned int\000"
 1865      676E6564 
 1865      20696E74 
 1865      00
 1866              	.LASF40:
ARM GAS  /tmp/ccbh0YzT.s 			page 35


 1867 0144 6C725F74 		.ascii	"lr_thd\000"
 1867      686400
 1868              	.LASF88:
 1869 014b 2F686F6D 		.ascii	"/home/dltech-deb/gdrive/Projects/RFM_to_Modbus_TCP/"
 1869      652F646C 
 1869      74656368 
 1869      2D646562 
 1869      2F676472 
 1870 017e 43686962 		.ascii	"ChibiOS/F103_ChibiOS_ENC60J28/main\000"
 1870      694F532F 
 1870      46313033 
 1870      5F436869 
 1870      62694F53 
 1871              	.LASF39:
 1872 01a1 65787463 		.ascii	"extctx\000"
 1872      747800
 1873              	.LASF83:
 1874 01a8 5F706F72 		.ascii	"_port_switch\000"
 1874      745F7377 
 1874      69746368 
 1874      00
 1875              	.LASF9:
 1876 01b5 6C6F6E67 		.ascii	"long unsigned int\000"
 1876      20756E73 
 1876      69676E65 
 1876      6420696E 
 1876      7400
 1877              	.LASF48:
 1878 01c7 56544F52 		.ascii	"VTOR\000"
 1878      00
 1879              	.LASF75:
 1880 01cc 5F706F72 		.ascii	"_port_switch_from_isr\000"
 1880      745F7377 
 1880      69746368 
 1880      5F66726F 
 1880      6D5F6973 
 1881              	.LASF4:
 1882 01e2 73686F72 		.ascii	"short unsigned int\000"
 1882      7420756E 
 1882      7369676E 
 1882      65642069 
 1882      6E7400
 1883              	.LASF47:
 1884 01f5 49435352 		.ascii	"ICSR\000"
 1884      00
 1885              	.LASF20:
 1886 01fa 6D73675F 		.ascii	"msg_t\000"
 1886      7400
 1887              	.LASF49:
 1888 0200 41495243 		.ascii	"AIRCR\000"
 1888      5200
 1889              	.LASF54:
 1890 0206 44465352 		.ascii	"DFSR\000"
 1890      00
 1891              	.LASF55:
 1892 020b 4D4D4641 		.ascii	"MMFAR\000"
 1892      5200
ARM GAS  /tmp/ccbh0YzT.s 			page 36


 1893              	.LASF81:
 1894 0211 5F706F72 		.ascii	"_port_irq_epilogue\000"
 1894      745F6972 
 1894      715F6570 
 1894      696C6F67 
 1894      756500
 1895              	.LASF16:
 1896 0224 746D6F64 		.ascii	"tmode_t\000"
 1896      655F7400 
 1897              	.LASF37:
 1898 022c 54687265 		.ascii	"ThreadsList\000"
 1898      6164734C 
 1898      69737400 
 1899              	.LASF21:
 1900 0238 6576656E 		.ascii	"eventmask_t\000"
 1900      746D6173 
 1900      6B5F7400 
 1901              	.LASF67:
 1902 0244 4D757465 		.ascii	"Mutex\000"
 1902      7800
 1903              	.LASF45:
 1904 024a 73697A65 		.ascii	"sizetype\000"
 1904      74797065 
 1904      00
 1905              	.LASF52:
 1906 0253 43465352 		.ascii	"CFSR\000"
 1906      00
 1907              	.LASF64:
 1908 0258 725F6374 		.ascii	"r_ctx\000"
 1908      7800
 1909              	.LASF36:
 1910 025e 54687265 		.ascii	"ThreadsQueue\000"
 1910      61647351 
 1910      75657565 
 1910      00
 1911              	.LASF65:
 1912 026b 725F6375 		.ascii	"r_current\000"
 1912      7272656E 
 1912      7400
 1913              	.LASF78:
 1914 0275 5F706F72 		.ascii	"_port_lock\000"
 1914      745F6C6F 
 1914      636B00
 1915              	.LASF79:
 1916 0280 63747870 		.ascii	"ctxp\000"
 1916      00
 1917              	.LASF24:
 1918 0285 705F7072 		.ascii	"p_prev\000"
 1918      657600
 1919              	.LASF19:
 1920 028c 74707269 		.ascii	"tprio_t\000"
 1920      6F5F7400 
 1921              	.LASF86:
 1922 0294 474E5520 		.ascii	"GNU C 4.8.4 20141219 (release) -mcpu=cortex-m3 -mno"
 1922      4320342E 
 1922      382E3420 
 1922      32303134 
ARM GAS  /tmp/ccbh0YzT.s 			page 37


 1922      31323139 
 1923 02c7 2D746875 		.ascii	"-thumb-interwork -mthumb -ggdb -O2 -fomit-frame-poi"
 1923      6D622D69 
 1923      6E746572 
 1923      776F726B 
 1923      202D6D74 
 1924 02fa 6E746572 		.ascii	"nter -falign-functions=16 -ffunction-sections -fdat"
 1924      202D6661 
 1924      6C69676E 
 1924      2D66756E 
 1924      6374696F 
 1925 032d 612D7365 		.ascii	"a-sections -fno-common -fno-strict-aliasing\000"
 1925      6374696F 
 1925      6E73202D 
 1925      666E6F2D 
 1925      636F6D6D 
 1926              	.LASF15:
 1927 0359 5F426F6F 		.ascii	"_Bool\000"
 1927      6C00
 1928              	.LASF13:
 1929 035f 696E7433 		.ascii	"int32_t\000"
 1929      325F7400 
 1930              	.LASF2:
 1931 0367 756E7369 		.ascii	"unsigned char\000"
 1931      676E6564 
 1931      20636861 
 1931      7200
 1932              	.LASF51:
 1933 0375 53484353 		.ascii	"SHCSR\000"
 1933      5200
 1934              	.LASF34:
 1935 037b 705F6D74 		.ascii	"p_mtxlist\000"
 1935      786C6973 
 1935      7400
 1936              	.LASF3:
 1937 0385 73686F72 		.ascii	"short int\000"
 1937      7420696E 
 1937      7400
 1938              	.LASF27:
 1939 038f 705F7374 		.ascii	"p_state\000"
 1939      61746500 
 1940              	.LASF29:
 1941 0397 705F7072 		.ascii	"p_preempt\000"
 1941      65656D70 
 1941      7400
 1942              	.LASF41:
 1943 03a1 78707372 		.ascii	"xpsr\000"
 1943      00
 1944              	.LASF63:
 1945 03a6 725F7072 		.ascii	"r_prio\000"
 1945      696F00
 1946              	.LASF74:
 1947 03ad 65776D61 		.ascii	"ewmask\000"
 1947      736B00
 1948              	.LASF23:
 1949 03b4 705F6E65 		.ascii	"p_next\000"
 1949      787400
ARM GAS  /tmp/ccbh0YzT.s 			page 38


 1950              	.LASF28:
 1951 03bb 705F666C 		.ascii	"p_flags\000"
 1951      61677300 
 1952              	.LASF22:
 1953 03c3 54687265 		.ascii	"Thread\000"
 1953      616400
 1954              	.LASF33:
 1955 03ca 705F6570 		.ascii	"p_epending\000"
 1955      656E6469 
 1955      6E6700
 1956              	.LASF14:
 1957 03d5 75696E74 		.ascii	"uint32_t\000"
 1957      33325F74 
 1957      00
 1958              	.LASF62:
 1959 03de 725F7175 		.ascii	"r_queue\000"
 1959      65756500 
 1960              	.LASF57:
 1961 03e6 41465352 		.ascii	"AFSR\000"
 1961      00
 1962              	.LASF59:
 1963 03eb 756E7573 		.ascii	"unused1\000"
 1963      65643100 
 1964              	.LASF44:
 1965 03f3 494F5245 		.ascii	"IOREG32\000"
 1965      47333200 
 1966              	.LASF70:
 1967 03fb 6D5F6E65 		.ascii	"m_next\000"
 1967      787400
 1968              	.LASF35:
 1969 0402 705F7265 		.ascii	"p_realprio\000"
 1969      616C7072 
 1969      696F00
 1970              	.LASF6:
 1971 040d 5F5F696E 		.ascii	"__int32_t\000"
 1971      7433325F 
 1971      7400
 1972              	.LASF80:
 1973 0417 5F706F72 		.ascii	"_port_unlock\000"
 1973      745F756E 
 1973      6C6F636B 
 1973      00
 1974              	.LASF43:
 1975 0424 636F6E74 		.ascii	"context\000"
 1975      65787400 
 1976              	.LASF50:
 1977 042c 53485052 		.ascii	"SHPR\000"
 1977      00
 1978              	.LASF42:
 1979 0431 696E7463 		.ascii	"intctx\000"
 1979      747800
 1980              	.LASF31:
 1981 0438 705F6D73 		.ascii	"p_msgqueue\000"
 1981      67717565 
 1981      756500
 1982              	.LASF66:
 1983 0443 52656164 		.ascii	"ReadyList\000"
ARM GAS  /tmp/ccbh0YzT.s 			page 39


 1983      794C6973 
 1983      7400
 1984              	.LASF58:
 1985 044d 4D4D4652 		.ascii	"MMFR\000"
 1985      00
 1986              	.LASF90:
 1987 0452 726C6973 		.ascii	"rlist\000"
 1987      7400
 1988              	.LASF12:
 1989 0458 75696E74 		.ascii	"uint8_t\000"
 1989      385F7400 
 1990              	.LASF73:
 1991 0460 77746F62 		.ascii	"wtobjp\000"
 1991      6A7000
 1992              	.LASF77:
 1993 0467 5F706F72 		.ascii	"_port_init\000"
 1993      745F696E 
 1993      697400
 1994              	.LASF60:
 1995 0472 43504143 		.ascii	"CPACR\000"
 1995      5200
 1996              	.LASF53:
 1997 0478 48465352 		.ascii	"HFSR\000"
 1997      00
 1998              	.LASF69:
 1999 047d 6D5F6F77 		.ascii	"m_owner\000"
 1999      6E657200 
 2000              	.LASF26:
 2001 0485 705F6374 		.ascii	"p_ctx\000"
 2001      7800
 2002              	.LASF30:
 2003 048b 705F7761 		.ascii	"p_waiting\000"
 2003      6974696E 
 2003      6700
 2004              		.ident	"GCC: (4.8.4-1+11-1) 4.8.4 20141219 (release)"
ARM GAS  /tmp/ccbh0YzT.s 			page 40


DEFINED SYMBOLS
                            *ABS*:0000000000000000 chcore_v7m.c
     /tmp/ccbh0YzT.s:19     .text._port_switch_from_isr:0000000000000000 $t
     /tmp/ccbh0YzT.s:25     .text._port_switch_from_isr:0000000000000000 _port_switch_from_isr
     /tmp/ccbh0YzT.s:38     .text._port_switch_from_isr:0000000000000004 _port_exit_from_isr
     /tmp/ccbh0YzT.s:50     .text.SVCallVector:0000000000000000 $t
     /tmp/ccbh0YzT.s:56     .text.SVCallVector:0000000000000000 SVCallVector
     /tmp/ccbh0YzT.s:171    .text._port_unlock:0000000000000000 _port_unlock
     /tmp/ccbh0YzT.s:89     .text._port_init:0000000000000000 $t
     /tmp/ccbh0YzT.s:95     .text._port_init:0000000000000000 _port_init
     /tmp/ccbh0YzT.s:134    .text._port_init:0000000000000028 $d
     /tmp/ccbh0YzT.s:140    .text._port_lock:0000000000000000 $t
     /tmp/ccbh0YzT.s:146    .text._port_lock:0000000000000000 _port_lock
     /tmp/ccbh0YzT.s:165    .text._port_unlock:0000000000000000 $t
     /tmp/ccbh0YzT.s:190    .text._port_irq_epilogue:0000000000000000 $t
     /tmp/ccbh0YzT.s:196    .text._port_irq_epilogue:0000000000000000 _port_irq_epilogue
     /tmp/ccbh0YzT.s:280    .text._port_irq_epilogue:0000000000000064 $d
     /tmp/ccbh0YzT.s:289    .text.SysTickVector:0000000000000000 $t
     /tmp/ccbh0YzT.s:295    .text.SysTickVector:0000000000000000 SysTickVector
     /tmp/ccbh0YzT.s:327    .text._port_switch:0000000000000000 $t
     /tmp/ccbh0YzT.s:333    .text._port_switch:0000000000000000 _port_switch
     /tmp/ccbh0YzT.s:360    .text._port_thread_start:0000000000000000 $t
     /tmp/ccbh0YzT.s:366    .text._port_thread_start:0000000000000000 _port_thread_start
                     .debug_frame:0000000000000010 $d
     /tmp/ccbh0YzT.s:288    .text._port_irq_epilogue:0000000000000074 $t

UNDEFINED SYMBOLS
chSchDoReschedule
nvicSetSystemHandlerPriority
rlist
chSysTimerHandlerI
chThdExit
