ARM GAS  /tmp/ccWwr2wE.s 			page 1


   1              		.syntax unified
   2              		.cpu cortex-m3
   3              		.fpu softvfp
   4              		.eabi_attribute 20, 1
   5              		.eabi_attribute 21, 1
   6              		.eabi_attribute 23, 3
   7              		.eabi_attribute 24, 1
   8              		.eabi_attribute 25, 1
   9              		.eabi_attribute 26, 1
  10              		.eabi_attribute 30, 2
  11              		.eabi_attribute 34, 1
  12              		.eabi_attribute 18, 4
  13              		.thumb
  14              		.file	"chevents.c"
  15              		.text
  16              	.Ltext0:
  17              		.cfi_sections	.debug_frame
  18              		.section	.text.chEvtRegisterMask,"ax",%progbits
  19              		.align	2
  20              		.p2align 4,,15
  21              		.global	chEvtRegisterMask
  22              		.thumb
  23              		.thumb_func
  24              		.type	chEvtRegisterMask, %function
  25              	chEvtRegisterMask:
  26              	.LFB0:
  27              		.file 1 "../os/kernel/src/chevents.c"
  28              		.loc 1 85 0
  29              		.cfi_startproc
  30              		@ args = 0, pretend = 0, frame = 0
  31              		@ frame_needed = 0, uses_anonymous_args = 0
  32              	.LVL0:
  33 0000 10B5     		push	{r4, lr}
  34              		.cfi_def_cfa_offset 8
  35              		.cfi_offset 4, -8
  36              		.cfi_offset 14, -4
  37              		.loc 1 89 0
  38              	@ 89 "../os/kernel/src/chevents.c" 1
  39 0002 FFF7FEFF 		bl      _port_lock
  40              	@ 0 "" 2
  41              		.loc 1 90 0
  42              		.thumb
  43 0006 0368     		ldr	r3, [r0]
  44              		.loc 1 92 0
  45 0008 054C     		ldr	r4, .L2
  46              		.loc 1 90 0
  47 000a 0B60     		str	r3, [r1]
  48              		.loc 1 91 0
  49 000c 0160     		str	r1, [r0]
  50              		.loc 1 92 0
  51 000e 2369     		ldr	r3, [r4, #16]
  52              		.loc 1 94 0
  53 0010 0020     		movs	r0, #0
  54              	.LVL1:
  55              		.loc 1 92 0
  56 0012 4B60     		str	r3, [r1, #4]
  57              		.loc 1 93 0
ARM GAS  /tmp/ccWwr2wE.s 			page 2


  58 0014 8A60     		str	r2, [r1, #8]
  59              		.loc 1 94 0
  60 0016 C860     		str	r0, [r1, #12]
  61              		.loc 1 95 0
  62              	@ 95 "../os/kernel/src/chevents.c" 1
  63 0018 FFF7FEFF 		bl      _port_unlock
  64              	@ 0 "" 2
  65              		.thumb
  66 001c 10BD     		pop	{r4, pc}
  67              	.L3:
  68 001e 00BF     		.align	2
  69              	.L2:
  70 0020 00000000 		.word	rlist
  71              		.cfi_endproc
  72              	.LFE0:
  73              		.size	chEvtRegisterMask, .-chEvtRegisterMask
  74 0024 AFF30080 		.section	.text.chEvtUnregister,"ax",%progbits
  74      AFF30080 
  74      AFF30080 
  75              		.align	2
  76              		.p2align 4,,15
  77              		.global	chEvtUnregister
  78              		.thumb
  79              		.thumb_func
  80              		.type	chEvtUnregister, %function
  81              	chEvtUnregister:
  82              	.LFB1:
  83              		.loc 1 111 0
  84              		.cfi_startproc
  85              		@ args = 0, pretend = 0, frame = 0
  86              		@ frame_needed = 0, uses_anonymous_args = 0
  87              	.LVL2:
  88 0000 00B5     		push	{lr}
  89              		.cfi_def_cfa_offset 4
  90              		.cfi_offset 14, -4
  91              		.loc 1 117 0
  92              	@ 117 "../os/kernel/src/chevents.c" 1
  93 0002 FFF7FEFF 		bl      _port_lock
  94              	@ 0 "" 2
  95              		.loc 1 116 0
  96              		.thumb
  97 0006 0246     		mov	r2, r0
  98              		.loc 1 118 0
  99 0008 02E0     		b	.L5
 100              	.LVL3:
 101              	.L8:
 102              		.loc 1 119 0
 103 000a 9942     		cmp	r1, r3
 104 000c 07D0     		beq	.L10
 105 000e 1A46     		mov	r2, r3
 106              	.LVL4:
 107              	.L5:
 108              		.loc 1 118 0 discriminator 1
 109 0010 1368     		ldr	r3, [r2]
 110 0012 8342     		cmp	r3, r0
 111 0014 F9D1     		bne	.L8
 112              		.loc 1 125 0
ARM GAS  /tmp/ccWwr2wE.s 			page 3


 113              	@ 125 "../os/kernel/src/chevents.c" 1
 114 0016 FFF7FEFF 		bl      _port_unlock
 115              	@ 0 "" 2
 116              		.thumb
 117 001a 5DF804FB 		ldr	pc, [sp], #4
 118              	.L10:
 119              		.loc 1 120 0
 120 001e 0B68     		ldr	r3, [r1]
 121 0020 1360     		str	r3, [r2]
 122              		.loc 1 125 0
 123              	@ 125 "../os/kernel/src/chevents.c" 1
 124 0022 FFF7FEFF 		bl      _port_unlock
 125              	@ 0 "" 2
 126              		.thumb
 127 0026 5DF804FB 		ldr	pc, [sp], #4
 128              		.cfi_endproc
 129              	.LFE1:
 130              		.size	chEvtUnregister, .-chEvtUnregister
 131 002a 00BFAFF3 		.section	.text.chEvtGetAndClearEvents,"ax",%progbits
 131      0080
 132              		.align	2
 133              		.p2align 4,,15
 134              		.global	chEvtGetAndClearEvents
 135              		.thumb
 136              		.thumb_func
 137              		.type	chEvtGetAndClearEvents, %function
 138              	chEvtGetAndClearEvents:
 139              	.LFB2:
 140              		.loc 1 136 0
 141              		.cfi_startproc
 142              		@ args = 0, pretend = 0, frame = 0
 143              		@ frame_needed = 0, uses_anonymous_args = 0
 144              	.LVL5:
 145 0000 00B5     		push	{lr}
 146              		.cfi_def_cfa_offset 4
 147              		.cfi_offset 14, -4
 148              		.loc 1 139 0
 149              	@ 139 "../os/kernel/src/chevents.c" 1
 150 0002 FFF7FEFF 		bl      _port_lock
 151              	@ 0 "" 2
 152              		.loc 1 141 0
 153              		.thumb
 154 0006 054B     		ldr	r3, .L12
 155 0008 1B69     		ldr	r3, [r3, #16]
 156 000a 9A6A     		ldr	r2, [r3, #40]
 157              	.LVL6:
 158              		.loc 1 142 0
 159 000c 22EA0001 		bic	r1, r2, r0
 160 0010 9962     		str	r1, [r3, #40]
 161              		.loc 1 144 0
 162              	@ 144 "../os/kernel/src/chevents.c" 1
 163 0012 FFF7FEFF 		bl      _port_unlock
 164              	@ 0 "" 2
 165              		.loc 1 146 0
 166              		.thumb
 167 0016 1040     		ands	r0, r0, r2
 168              	.LVL7:
ARM GAS  /tmp/ccWwr2wE.s 			page 4


 169 0018 5DF804FB 		ldr	pc, [sp], #4
 170              	.L13:
 171              		.align	2
 172              	.L12:
 173 001c 00000000 		.word	rlist
 174              		.cfi_endproc
 175              	.LFE2:
 176              		.size	chEvtGetAndClearEvents, .-chEvtGetAndClearEvents
 177              		.section	.text.chEvtAddEvents,"ax",%progbits
 178              		.align	2
 179              		.p2align 4,,15
 180              		.global	chEvtAddEvents
 181              		.thumb
 182              		.thumb_func
 183              		.type	chEvtAddEvents, %function
 184              	chEvtAddEvents:
 185              	.LFB3:
 186              		.loc 1 157 0
 187              		.cfi_startproc
 188              		@ args = 0, pretend = 0, frame = 0
 189              		@ frame_needed = 0, uses_anonymous_args = 0
 190              	.LVL8:
 191 0000 00B5     		push	{lr}
 192              		.cfi_def_cfa_offset 4
 193              		.cfi_offset 14, -4
 194              		.loc 1 159 0
 195              	@ 159 "../os/kernel/src/chevents.c" 1
 196 0002 FFF7FEFF 		bl      _port_lock
 197              	@ 0 "" 2
 198              		.loc 1 161 0
 199              		.thumb
 200 0006 044B     		ldr	r3, .L15
 201 0008 1B69     		ldr	r3, [r3, #16]
 202 000a 9A6A     		ldr	r2, [r3, #40]
 203 000c 1043     		orrs	r0, r0, r2
 204              	.LVL9:
 205 000e 9862     		str	r0, [r3, #40]
 206              	.LVL10:
 207              		.loc 1 163 0
 208              	@ 163 "../os/kernel/src/chevents.c" 1
 209 0010 FFF7FEFF 		bl      _port_unlock
 210              	@ 0 "" 2
 211              		.loc 1 165 0
 212              		.thumb
 213 0014 5DF804FB 		ldr	pc, [sp], #4
 214              	.L16:
 215              		.align	2
 216              	.L15:
 217 0018 00000000 		.word	rlist
 218              		.cfi_endproc
 219              	.LFE3:
 220              		.size	chEvtAddEvents, .-chEvtAddEvents
 221 001c AFF30080 		.section	.text.chEvtGetAndClearFlags,"ax",%progbits
 222              		.align	2
 223              		.p2align 4,,15
 224              		.global	chEvtGetAndClearFlags
 225              		.thumb
ARM GAS  /tmp/ccWwr2wE.s 			page 5


 226              		.thumb_func
 227              		.type	chEvtGetAndClearFlags, %function
 228              	chEvtGetAndClearFlags:
 229              	.LFB5:
 230              		.loc 1 209 0
 231              		.cfi_startproc
 232              		@ args = 0, pretend = 0, frame = 0
 233              		@ frame_needed = 0, uses_anonymous_args = 0
 234              	.LVL11:
 235 0000 00B5     		push	{lr}
 236              		.cfi_def_cfa_offset 4
 237              		.cfi_offset 14, -4
 238              		.loc 1 209 0
 239 0002 0246     		mov	r2, r0
 240              		.loc 1 212 0
 241              	@ 212 "../os/kernel/src/chevents.c" 1
 242 0004 FFF7FEFF 		bl      _port_lock
 243              	@ 0 "" 2
 244              		.loc 1 215 0
 245              		.thumb
 246 0008 0023     		movs	r3, #0
 247              		.loc 1 214 0
 248 000a C068     		ldr	r0, [r0, #12]
 249              	.LVL12:
 250              		.loc 1 215 0
 251 000c D360     		str	r3, [r2, #12]
 252              		.loc 1 217 0
 253              	@ 217 "../os/kernel/src/chevents.c" 1
 254 000e FFF7FEFF 		bl      _port_unlock
 255              	@ 0 "" 2
 256              		.loc 1 219 0
 257              		.thumb
 258 0012 5DF804FB 		ldr	pc, [sp], #4
 259              		.cfi_endproc
 260              	.LFE5:
 261              		.size	chEvtGetAndClearFlags, .-chEvtGetAndClearFlags
 262 0016 00BFAFF3 		.section	.text.chEvtSignalI,"ax",%progbits
 262      0080AFF3 
 262      0080
 263              		.align	2
 264              		.p2align 4,,15
 265              		.global	chEvtSignalI
 266              		.thumb
 267              		.thumb_func
 268              		.type	chEvtSignalI, %function
 269              	chEvtSignalI:
 270              	.LFB7:
 271              		.loc 1 251 0
 272              		.cfi_startproc
 273              		@ args = 0, pretend = 0, frame = 0
 274              		@ frame_needed = 0, uses_anonymous_args = 0
 275              	.LVL13:
 276 0000 08B5     		push	{r3, lr}
 277              		.cfi_def_cfa_offset 8
 278              		.cfi_offset 3, -8
 279              		.cfi_offset 14, -4
 280              		.loc 1 256 0
ARM GAS  /tmp/ccWwr2wE.s 			page 6


 281 0002 826A     		ldr	r2, [r0, #40]
 282              		.loc 1 258 0
 283 0004 037C     		ldrb	r3, [r0, #16]	@ zero_extendqisi2
 284              		.loc 1 256 0
 285 0006 1143     		orrs	r1, r1, r2
 286              	.LVL14:
 287              		.loc 1 258 0
 288 0008 082B     		cmp	r3, #8
 289              		.loc 1 256 0
 290 000a 8162     		str	r1, [r0, #40]
 291              		.loc 1 258 0
 292 000c 0BD0     		beq	.L22
 293              		.loc 1 259 0
 294 000e 092B     		cmp	r3, #9
 295 0010 00D0     		beq	.L23
 296              	.L18:
 297 0012 08BD     		pop	{r3, pc}
 298              	.L23:
 299              		.loc 1 261 0
 300 0014 4369     		ldr	r3, [r0, #20]
 301 0016 1940     		ands	r1, r1, r3
 302              		.loc 1 260 0
 303 0018 8B42     		cmp	r3, r1
 304 001a FAD1     		bne	.L18
 305              	.L20:
 306              	.LVL15:
 307              	.LBB4:
 308              	.LBB5:
 309              		.loc 1 262 0
 310 001c FFF7FEFF 		bl	chSchReadyI
 311              	.LVL16:
 312 0020 0023     		movs	r3, #0
 313 0022 4361     		str	r3, [r0, #20]
 314 0024 08BD     		pop	{r3, pc}
 315              	.LVL17:
 316              	.L22:
 317              	.LBE5:
 318              	.LBE4:
 319              		.loc 1 259 0 discriminator 1
 320 0026 4369     		ldr	r3, [r0, #20]
 321              		.loc 1 258 0 discriminator 1
 322 0028 1942     		tst	r1, r3
 323 002a F7D1     		bne	.L20
 324 002c 08BD     		pop	{r3, pc}
 325              		.cfi_endproc
 326              	.LFE7:
 327              		.size	chEvtSignalI, .-chEvtSignalI
 328 002e 00BF     		.section	.text.chEvtBroadcastFlagsI,"ax",%progbits
 329              		.align	2
 330              		.p2align 4,,15
 331              		.global	chEvtBroadcastFlagsI
 332              		.thumb
 333              		.thumb_func
 334              		.type	chEvtBroadcastFlagsI, %function
 335              	chEvtBroadcastFlagsI:
 336              	.LFB4:
 337              		.loc 1 184 0
ARM GAS  /tmp/ccWwr2wE.s 			page 7


 338              		.cfi_startproc
 339              		@ args = 0, pretend = 0, frame = 0
 340              		@ frame_needed = 0, uses_anonymous_args = 0
 341              	.LVL18:
 342 0000 70B5     		push	{r4, r5, r6, lr}
 343              		.cfi_def_cfa_offset 16
 344              		.cfi_offset 4, -16
 345              		.cfi_offset 5, -12
 346              		.cfi_offset 6, -8
 347              		.cfi_offset 14, -4
 348              		.loc 1 190 0
 349 0002 0468     		ldr	r4, [r0]
 350              	.LVL19:
 351              		.loc 1 184 0
 352 0004 0546     		mov	r5, r0
 353              		.loc 1 191 0
 354 0006 A042     		cmp	r0, r4
 355              		.loc 1 184 0
 356 0008 0E46     		mov	r6, r1
 357              		.loc 1 191 0
 358 000a 09D0     		beq	.L24
 359              	.LVL20:
 360              	.L27:
 361              		.loc 1 192 0
 362 000c E368     		ldr	r3, [r4, #12]
 363              		.loc 1 193 0
 364 000e 6068     		ldr	r0, [r4, #4]
 365              		.loc 1 192 0
 366 0010 3343     		orrs	r3, r3, r6
 367 0012 E360     		str	r3, [r4, #12]
 368              		.loc 1 193 0
 369 0014 A168     		ldr	r1, [r4, #8]
 370 0016 FFF7FEFF 		bl	chEvtSignalI
 371              	.LVL21:
 372              		.loc 1 194 0
 373 001a 2468     		ldr	r4, [r4]
 374              	.LVL22:
 375              		.loc 1 191 0
 376 001c A542     		cmp	r5, r4
 377 001e F5D1     		bne	.L27
 378              	.L24:
 379 0020 70BD     		pop	{r4, r5, r6, pc}
 380              		.cfi_endproc
 381              	.LFE4:
 382              		.size	chEvtBroadcastFlagsI, .-chEvtBroadcastFlagsI
 383 0022 00BFAFF3 		.section	.text.chEvtSignal,"ax",%progbits
 383      0080AFF3 
 383      0080AFF3 
 383      0080
 384              		.align	2
 385              		.p2align 4,,15
 386              		.global	chEvtSignal
 387              		.thumb
 388              		.thumb_func
 389              		.type	chEvtSignal, %function
 390              	chEvtSignal:
 391              	.LFB6:
ARM GAS  /tmp/ccWwr2wE.s 			page 8


 392              		.loc 1 229 0
 393              		.cfi_startproc
 394              		@ args = 0, pretend = 0, frame = 0
 395              		@ frame_needed = 0, uses_anonymous_args = 0
 396              	.LVL23:
 397 0000 08B5     		push	{r3, lr}
 398              		.cfi_def_cfa_offset 8
 399              		.cfi_offset 3, -8
 400              		.cfi_offset 14, -4
 401              		.loc 1 233 0
 402              	@ 233 "../os/kernel/src/chevents.c" 1
 403 0002 FFF7FEFF 		bl      _port_lock
 404              	@ 0 "" 2
 405              		.loc 1 234 0
 406              		.thumb
 407 0006 FFF7FEFF 		bl	chEvtSignalI
 408              	.LVL24:
 409              		.loc 1 235 0
 410 000a FFF7FEFF 		bl	chSchRescheduleS
 411              	.LVL25:
 412              		.loc 1 236 0
 413              	@ 236 "../os/kernel/src/chevents.c" 1
 414 000e FFF7FEFF 		bl      _port_unlock
 415              	@ 0 "" 2
 416              		.thumb
 417 0012 08BD     		pop	{r3, pc}
 418              		.cfi_endproc
 419              	.LFE6:
 420              		.size	chEvtSignal, .-chEvtSignal
 421 0014 AFF30080 		.section	.text.chEvtBroadcastFlags,"ax",%progbits
 421      AFF30080 
 421      AFF30080 
 422              		.align	2
 423              		.p2align 4,,15
 424              		.global	chEvtBroadcastFlags
 425              		.thumb
 426              		.thumb_func
 427              		.type	chEvtBroadcastFlags, %function
 428              	chEvtBroadcastFlags:
 429              	.LFB8:
 430              		.loc 1 278 0
 431              		.cfi_startproc
 432              		@ args = 0, pretend = 0, frame = 0
 433              		@ frame_needed = 0, uses_anonymous_args = 0
 434              	.LVL26:
 435 0000 08B5     		push	{r3, lr}
 436              		.cfi_def_cfa_offset 8
 437              		.cfi_offset 3, -8
 438              		.cfi_offset 14, -4
 439              		.loc 1 280 0
 440              	@ 280 "../os/kernel/src/chevents.c" 1
 441 0002 FFF7FEFF 		bl      _port_lock
 442              	@ 0 "" 2
 443              		.loc 1 281 0
 444              		.thumb
 445 0006 FFF7FEFF 		bl	chEvtBroadcastFlagsI
 446              	.LVL27:
ARM GAS  /tmp/ccWwr2wE.s 			page 9


 447              		.loc 1 282 0
 448 000a FFF7FEFF 		bl	chSchRescheduleS
 449              	.LVL28:
 450              		.loc 1 283 0
 451              	@ 283 "../os/kernel/src/chevents.c" 1
 452 000e FFF7FEFF 		bl      _port_unlock
 453              	@ 0 "" 2
 454              		.thumb
 455 0012 08BD     		pop	{r3, pc}
 456              		.cfi_endproc
 457              	.LFE8:
 458              		.size	chEvtBroadcastFlags, .-chEvtBroadcastFlags
 459 0014 AFF30080 		.section	.text.chEvtGetAndClearFlagsI,"ax",%progbits
 459      AFF30080 
 459      AFF30080 
 460              		.align	2
 461              		.p2align 4,,15
 462              		.global	chEvtGetAndClearFlagsI
 463              		.thumb
 464              		.thumb_func
 465              		.type	chEvtGetAndClearFlagsI, %function
 466              	chEvtGetAndClearFlagsI:
 467              	.LFB9:
 468              		.loc 1 297 0
 469              		.cfi_startproc
 470              		@ args = 0, pretend = 0, frame = 0
 471              		@ frame_needed = 0, uses_anonymous_args = 0
 472              		@ link register save eliminated.
 473              	.LVL29:
 474              		.loc 1 297 0
 475 0000 0346     		mov	r3, r0
 476              		.loc 1 301 0
 477 0002 0022     		movs	r2, #0
 478              		.loc 1 300 0
 479 0004 C068     		ldr	r0, [r0, #12]
 480              	.LVL30:
 481              		.loc 1 301 0
 482 0006 DA60     		str	r2, [r3, #12]
 483              		.loc 1 304 0
 484 0008 7047     		bx	lr
 485              		.cfi_endproc
 486              	.LFE9:
 487              		.size	chEvtGetAndClearFlagsI, .-chEvtGetAndClearFlagsI
 488 000a 00BFAFF3 		.section	.text.chEvtDispatch,"ax",%progbits
 488      0080
 489              		.align	2
 490              		.p2align 4,,15
 491              		.global	chEvtDispatch
 492              		.thumb
 493              		.thumb_func
 494              		.type	chEvtDispatch, %function
 495              	chEvtDispatch:
 496              	.LFB10:
 497              		.loc 1 315 0
 498              		.cfi_startproc
 499              		@ args = 0, pretend = 0, frame = 0
 500              		@ frame_needed = 0, uses_anonymous_args = 0
ARM GAS  /tmp/ccWwr2wE.s 			page 10


 501              	.LVL31:
 502 0000 F8B5     		push	{r3, r4, r5, r6, r7, lr}
 503              		.cfi_def_cfa_offset 24
 504              		.cfi_offset 3, -24
 505              		.cfi_offset 4, -20
 506              		.cfi_offset 5, -16
 507              		.cfi_offset 6, -12
 508              		.cfi_offset 7, -8
 509              		.cfi_offset 14, -4
 510              		.loc 1 321 0
 511 0002 0D46     		mov	r5, r1
 512              		.loc 1 315 0
 513 0004 0746     		mov	r7, r0
 514              		.loc 1 321 0
 515 0006 89B1     		cbz	r1, .L31
 516              		.loc 1 320 0
 517 0008 0024     		movs	r4, #0
 518              		.loc 1 322 0
 519 000a 0126     		movs	r6, #1
 520 000c 01E0     		b	.L35
 521              	.LVL32:
 522              	.L33:
 523              		.loc 1 329 0
 524 000e 0134     		adds	r4, r4, #1
 525              	.LVL33:
 526              		.loc 1 321 0
 527 0010 65B1     		cbz	r5, .L31
 528              	.LVL34:
 529              	.L35:
 530              		.loc 1 322 0
 531 0012 06FA04F3 		lsl	r3, r6, r4
 532 0016 2B42     		tst	r3, r5
 533 0018 F9D0     		beq	.L33
 534              		.loc 1 327 0
 535 001a 57F82420 		ldr	r2, [r7, r4, lsl #2]
 536 001e 2046     		mov	r0, r4
 537              		.loc 1 326 0
 538 0020 25EA0305 		bic	r5, r5, r3
 539              	.LVL35:
 540              		.loc 1 329 0
 541 0024 0134     		adds	r4, r4, #1
 542              	.LVL36:
 543              		.loc 1 327 0
 544 0026 9047     		blx	r2
 545              	.LVL37:
 546              		.loc 1 321 0
 547 0028 002D     		cmp	r5, #0
 548 002a F2D1     		bne	.L35
 549              	.LVL38:
 550              	.L31:
 551 002c F8BD     		pop	{r3, r4, r5, r6, r7, pc}
 552              		.cfi_endproc
 553              	.LFE10:
 554              		.size	chEvtDispatch, .-chEvtDispatch
 555 002e 00BF     		.section	.text.chEvtWaitOneTimeout,"ax",%progbits
 556              		.align	2
 557              		.p2align 4,,15
ARM GAS  /tmp/ccWwr2wE.s 			page 11


 558              		.global	chEvtWaitOneTimeout
 559              		.thumb
 560              		.thumb_func
 561              		.type	chEvtWaitOneTimeout, %function
 562              	chEvtWaitOneTimeout:
 563              	.LFB11:
 564              		.loc 1 446 0
 565              		.cfi_startproc
 566              		@ args = 0, pretend = 0, frame = 0
 567              		@ frame_needed = 0, uses_anonymous_args = 0
 568              	.LVL39:
 569 0000 70B5     		push	{r4, r5, r6, lr}
 570              		.cfi_def_cfa_offset 16
 571              		.cfi_offset 4, -16
 572              		.cfi_offset 5, -12
 573              		.cfi_offset 6, -8
 574              		.cfi_offset 14, -4
 575              		.loc 1 447 0
 576 0002 114B     		ldr	r3, .L49
 577              		.loc 1 446 0
 578 0004 0446     		mov	r4, r0
 579              		.loc 1 447 0
 580 0006 1D69     		ldr	r5, [r3, #16]
 581              	.LVL40:
 582              		.loc 1 446 0
 583 0008 0846     		mov	r0, r1
 584              	.LVL41:
 585              		.loc 1 450 0
 586              	@ 450 "../os/kernel/src/chevents.c" 1
 587 000a FFF7FEFF 		bl      _port_lock
 588              	@ 0 "" 2
 589              		.loc 1 452 0
 590              		.thumb
 591 000e AB6A     		ldr	r3, [r5, #40]
 592              	.LVL42:
 593 0010 14EA0306 		ands	r6, r4, r3
 594              	.LVL43:
 595 0014 0CD1     		bne	.L43
 596              		.loc 1 453 0
 597 0016 11B9     		cbnz	r1, .L44
 598              		.loc 1 467 0
 599              	@ 467 "../os/kernel/src/chevents.c" 1
 600 0018 FFF7FEFF 		bl      _port_unlock
 601              	@ 0 "" 2
 602              		.loc 1 469 0
 603              		.thumb
 604 001c 70BD     		pop	{r4, r5, r6, pc}
 605              	.LVL44:
 606              	.L44:
 607              		.loc 1 457 0
 608 001e 6C61     		str	r4, [r5, #20]
 609              		.loc 1 458 0
 610 0020 0820     		movs	r0, #8
 611 0022 FFF7FEFF 		bl	chSchGoSleepTimeoutS
 612              	.LVL45:
 613 0026 0028     		cmp	r0, #0
 614 0028 0ADB     		blt	.L48
ARM GAS  /tmp/ccWwr2wE.s 			page 12


 615              		.loc 1 462 0
 616 002a AB6A     		ldr	r3, [r5, #40]
 617 002c 04EA0306 		and	r6, r4, r3
 618              	.LVL46:
 619              	.L43:
 620              		.loc 1 464 0
 621 0030 7042     		negs	r0, r6
 622 0032 3040     		ands	r0, r0, r6
 623              	.LVL47:
 624              		.loc 1 465 0
 625 0034 23EA0003 		bic	r3, r3, r0
 626 0038 AB62     		str	r3, [r5, #40]
 627              		.loc 1 467 0
 628              	@ 467 "../os/kernel/src/chevents.c" 1
 629 003a FFF7FEFF 		bl      _port_unlock
 630              	@ 0 "" 2
 631              		.loc 1 469 0
 632              		.thumb
 633 003e 70BD     		pop	{r4, r5, r6, pc}
 634              	.LVL48:
 635              	.L48:
 636              		.loc 1 459 0
 637              	@ 459 "../os/kernel/src/chevents.c" 1
 638 0040 FFF7FEFF 		bl      _port_unlock
 639              	@ 0 "" 2
 640              		.loc 1 460 0
 641              		.thumb
 642 0044 3046     		mov	r0, r6
 643 0046 70BD     		pop	{r4, r5, r6, pc}
 644              	.LVL49:
 645              	.L50:
 646              		.align	2
 647              	.L49:
 648 0048 00000000 		.word	rlist
 649              		.cfi_endproc
 650              	.LFE11:
 651              		.size	chEvtWaitOneTimeout, .-chEvtWaitOneTimeout
 652 004c AFF30080 		.section	.text.chEvtWaitAnyTimeout,"ax",%progbits
 653              		.align	2
 654              		.p2align 4,,15
 655              		.global	chEvtWaitAnyTimeout
 656              		.thumb
 657              		.thumb_func
 658              		.type	chEvtWaitAnyTimeout, %function
 659              	chEvtWaitAnyTimeout:
 660              	.LFB12:
 661              		.loc 1 489 0
 662              		.cfi_startproc
 663              		@ args = 0, pretend = 0, frame = 0
 664              		@ frame_needed = 0, uses_anonymous_args = 0
 665              	.LVL50:
 666 0000 70B5     		push	{r4, r5, r6, lr}
 667              		.cfi_def_cfa_offset 16
 668              		.cfi_offset 4, -16
 669              		.cfi_offset 5, -12
 670              		.cfi_offset 6, -8
 671              		.cfi_offset 14, -4
ARM GAS  /tmp/ccWwr2wE.s 			page 13


 672              		.loc 1 490 0
 673 0002 0F4B     		ldr	r3, .L57
 674              		.loc 1 489 0
 675 0004 0446     		mov	r4, r0
 676              		.loc 1 490 0
 677 0006 1D69     		ldr	r5, [r3, #16]
 678              	.LVL51:
 679              		.loc 1 489 0
 680 0008 0846     		mov	r0, r1
 681              	.LVL52:
 682              		.loc 1 493 0
 683              	@ 493 "../os/kernel/src/chevents.c" 1
 684 000a FFF7FEFF 		bl      _port_lock
 685              	@ 0 "" 2
 686              		.loc 1 495 0
 687              		.thumb
 688 000e AB6A     		ldr	r3, [r5, #40]
 689              	.LVL53:
 690 0010 14EA0306 		ands	r6, r4, r3
 691              	.LVL54:
 692 0014 0CD1     		bne	.L52
 693              		.loc 1 496 0
 694 0016 11B9     		cbnz	r1, .L53
 695              		.loc 1 497 0
 696              	@ 497 "../os/kernel/src/chevents.c" 1
 697 0018 FFF7FEFF 		bl      _port_unlock
 698              	@ 0 "" 2
 699              		.loc 1 498 0
 700              		.thumb
 701 001c 70BD     		pop	{r4, r5, r6, pc}
 702              	.LVL55:
 703              	.L53:
 704              		.loc 1 500 0
 705 001e 6C61     		str	r4, [r5, #20]
 706              		.loc 1 501 0
 707 0020 0820     		movs	r0, #8
 708 0022 FFF7FEFF 		bl	chSchGoSleepTimeoutS
 709              	.LVL56:
 710 0026 0028     		cmp	r0, #0
 711 0028 05DB     		blt	.L56
 712              		.loc 1 505 0
 713 002a AB6A     		ldr	r3, [r5, #40]
 714 002c 04EA0306 		and	r6, r4, r3
 715              	.LVL57:
 716              	.L52:
 717              		.loc 1 507 0
 718 0030 23EA0603 		bic	r3, r3, r6
 719 0034 AB62     		str	r3, [r5, #40]
 720              	.L56:
 721              		.loc 1 509 0
 722              	@ 509 "../os/kernel/src/chevents.c" 1
 723 0036 FFF7FEFF 		bl      _port_unlock
 724              	@ 0 "" 2
 725              		.loc 1 510 0
 726              		.thumb
 727 003a 3046     		mov	r0, r6
 728              		.loc 1 511 0
ARM GAS  /tmp/ccWwr2wE.s 			page 14


 729 003c 70BD     		pop	{r4, r5, r6, pc}
 730              	.LVL58:
 731              	.L58:
 732 003e 00BF     		.align	2
 733              	.L57:
 734 0040 00000000 		.word	rlist
 735              		.cfi_endproc
 736              	.LFE12:
 737              		.size	chEvtWaitAnyTimeout, .-chEvtWaitAnyTimeout
 738 0044 AFF30080 		.section	.text.chEvtWaitAllTimeout,"ax",%progbits
 738      AFF30080 
 738      AFF30080 
 739              		.align	2
 740              		.p2align 4,,15
 741              		.global	chEvtWaitAllTimeout
 742              		.thumb
 743              		.thumb_func
 744              		.type	chEvtWaitAllTimeout, %function
 745              	chEvtWaitAllTimeout:
 746              	.LFB13:
 747              		.loc 1 530 0
 748              		.cfi_startproc
 749              		@ args = 0, pretend = 0, frame = 0
 750              		@ frame_needed = 0, uses_anonymous_args = 0
 751              	.LVL59:
 752 0000 38B5     		push	{r3, r4, r5, lr}
 753              		.cfi_def_cfa_offset 16
 754              		.cfi_offset 3, -16
 755              		.cfi_offset 4, -12
 756              		.cfi_offset 5, -8
 757              		.cfi_offset 14, -4
 758              		.loc 1 531 0
 759 0002 104B     		ldr	r3, .L64
 760              		.loc 1 530 0
 761 0004 0446     		mov	r4, r0
 762              		.loc 1 531 0
 763 0006 1D69     		ldr	r5, [r3, #16]
 764              	.LVL60:
 765              		.loc 1 530 0
 766 0008 0846     		mov	r0, r1
 767              	.LVL61:
 768              		.loc 1 533 0
 769              	@ 533 "../os/kernel/src/chevents.c" 1
 770 000a FFF7FEFF 		bl      _port_lock
 771              	@ 0 "" 2
 772              		.loc 1 535 0
 773              		.thumb
 774 000e AB6A     		ldr	r3, [r5, #40]
 775 0010 04EA0302 		and	r2, r4, r3
 776 0014 A242     		cmp	r2, r4
 777 0016 0AD0     		beq	.L60
 778              		.loc 1 536 0
 779 0018 11B9     		cbnz	r1, .L61
 780              		.loc 1 537 0
 781              	@ 537 "../os/kernel/src/chevents.c" 1
 782 001a FFF7FEFF 		bl      _port_unlock
 783              	@ 0 "" 2
ARM GAS  /tmp/ccWwr2wE.s 			page 15


 784              		.loc 1 538 0
 785              		.thumb
 786 001e 38BD     		pop	{r3, r4, r5, pc}
 787              	.LVL62:
 788              	.L61:
 789              		.loc 1 540 0
 790 0020 6C61     		str	r4, [r5, #20]
 791              		.loc 1 541 0
 792 0022 0920     		movs	r0, #9
 793 0024 FFF7FEFF 		bl	chSchGoSleepTimeoutS
 794              	.LVL63:
 795 0028 0028     		cmp	r0, #0
 796 002a 07DB     		blt	.L63
 797 002c AB6A     		ldr	r3, [r5, #40]
 798              	.L60:
 799              		.loc 1 546 0
 800 002e 23EA0403 		bic	r3, r3, r4
 801 0032 AB62     		str	r3, [r5, #40]
 802              		.loc 1 548 0
 803              	@ 548 "../os/kernel/src/chevents.c" 1
 804 0034 FFF7FEFF 		bl      _port_unlock
 805              	@ 0 "" 2
 806              		.loc 1 549 0
 807              		.thumb
 808 0038 2046     		mov	r0, r4
 809              		.loc 1 550 0
 810 003a 38BD     		pop	{r3, r4, r5, pc}
 811              	.LVL64:
 812              	.L63:
 813              		.loc 1 542 0
 814              	@ 542 "../os/kernel/src/chevents.c" 1
 815 003c FFF7FEFF 		bl      _port_unlock
 816              	@ 0 "" 2
 817              		.loc 1 543 0
 818              		.thumb
 819 0040 0020     		movs	r0, #0
 820 0042 38BD     		pop	{r3, r4, r5, pc}
 821              	.LVL65:
 822              	.L65:
 823              		.align	2
 824              	.L64:
 825 0044 00000000 		.word	rlist
 826              		.cfi_endproc
 827              	.LFE13:
 828              		.size	chEvtWaitAllTimeout, .-chEvtWaitAllTimeout
 829 0048 AFF30080 		.text
 829      AFF30080 
 830              	.Letext0:
 831              		.file 2 "/usr/include/newlib/machine/_default_types.h"
 832              		.file 3 "/usr/include/newlib/stdint.h"
 833              		.file 4 "../os/ports/GCC/ARMCMx/chtypes.h"
 834              		.file 5 "../os/kernel/include/chlists.h"
 835              		.file 6 "../os/kernel/include/chthreads.h"
 836              		.file 7 "../os/ports/GCC/ARMCMx/chcore_v7m.h"
 837              		.file 8 "../os/kernel/include/chschd.h"
 838              		.file 9 "../os/kernel/include/chmtx.h"
 839              		.file 10 "../os/kernel/include/chevents.h"
ARM GAS  /tmp/ccWwr2wE.s 			page 16

