ARM GAS  /tmp/ccWwr2wE.s 			page 1


   1              		.syntax unified
   2              		.cpu cortex-m3
   3              		.fpu softvfp
   4              		.eabi_attribute 20, 1
   5              		.eabi_attribute 21, 1
   6              		.eabi_attribute 23, 3
   7              		.eabi_attribute 24, 1
   8              		.eabi_attribute 25, 1
   9              		.eabi_attribute 26, 1
  10              		.eabi_attribute 30, 2
  11              		.eabi_attribute 34, 1
  12              		.eabi_attribute 18, 4
  13              		.thumb
  14              		.file	"chevents.c"
  15              		.text
  16              	.Ltext0:
  17              		.cfi_sections	.debug_frame
  18              		.section	.text.chEvtRegisterMask,"ax",%progbits
  19              		.align	2
  20              		.p2align 4,,15
  21              		.global	chEvtRegisterMask
  22              		.thumb
  23              		.thumb_func
  24              		.type	chEvtRegisterMask, %function
  25              	chEvtRegisterMask:
  26              	.LFB0:
  27              		.file 1 "../os/kernel/src/chevents.c"
  28              		.loc 1 85 0
  29              		.cfi_startproc
  30              		@ args = 0, pretend = 0, frame = 0
  31              		@ frame_needed = 0, uses_anonymous_args = 0
  32              	.LVL0:
  33 0000 10B5     		push	{r4, lr}
  34              		.cfi_def_cfa_offset 8
  35              		.cfi_offset 4, -8
  36              		.cfi_offset 14, -4
  37              		.loc 1 89 0
  38              	@ 89 "../os/kernel/src/chevents.c" 1
  39 0002 FFF7FEFF 		bl      _port_lock
  40              	@ 0 "" 2
  41              		.loc 1 90 0
  42              		.thumb
  43 0006 0368     		ldr	r3, [r0]
  44              		.loc 1 92 0
  45 0008 054C     		ldr	r4, .L2
  46              		.loc 1 90 0
  47 000a 0B60     		str	r3, [r1]
  48              		.loc 1 91 0
  49 000c 0160     		str	r1, [r0]
  50              		.loc 1 92 0
  51 000e 2369     		ldr	r3, [r4, #16]
  52              		.loc 1 94 0
  53 0010 0020     		movs	r0, #0
  54              	.LVL1:
  55              		.loc 1 92 0
  56 0012 4B60     		str	r3, [r1, #4]
  57              		.loc 1 93 0
ARM GAS  /tmp/ccWwr2wE.s 			page 2


  58 0014 8A60     		str	r2, [r1, #8]
  59              		.loc 1 94 0
  60 0016 C860     		str	r0, [r1, #12]
  61              		.loc 1 95 0
  62              	@ 95 "../os/kernel/src/chevents.c" 1
  63 0018 FFF7FEFF 		bl      _port_unlock
  64              	@ 0 "" 2
  65              		.thumb
  66 001c 10BD     		pop	{r4, pc}
  67              	.L3:
  68 001e 00BF     		.align	2
  69              	.L2:
  70 0020 00000000 		.word	rlist
  71              		.cfi_endproc
  72              	.LFE0:
  73              		.size	chEvtRegisterMask, .-chEvtRegisterMask
  74 0024 AFF30080 		.section	.text.chEvtUnregister,"ax",%progbits
  74      AFF30080 
  74      AFF30080 
  75              		.align	2
  76              		.p2align 4,,15
  77              		.global	chEvtUnregister
  78              		.thumb
  79              		.thumb_func
  80              		.type	chEvtUnregister, %function
  81              	chEvtUnregister:
  82              	.LFB1:
  83              		.loc 1 111 0
  84              		.cfi_startproc
  85              		@ args = 0, pretend = 0, frame = 0
  86              		@ frame_needed = 0, uses_anonymous_args = 0
  87              	.LVL2:
  88 0000 00B5     		push	{lr}
  89              		.cfi_def_cfa_offset 4
  90              		.cfi_offset 14, -4
  91              		.loc 1 117 0
  92              	@ 117 "../os/kernel/src/chevents.c" 1
  93 0002 FFF7FEFF 		bl      _port_lock
  94              	@ 0 "" 2
  95              		.loc 1 116 0
  96              		.thumb
  97 0006 0246     		mov	r2, r0
  98              		.loc 1 118 0
  99 0008 02E0     		b	.L5
 100              	.LVL3:
 101              	.L8:
 102              		.loc 1 119 0
 103 000a 9942     		cmp	r1, r3
 104 000c 07D0     		beq	.L10
 105 000e 1A46     		mov	r2, r3
 106              	.LVL4:
 107              	.L5:
 108              		.loc 1 118 0 discriminator 1
 109 0010 1368     		ldr	r3, [r2]
 110 0012 8342     		cmp	r3, r0
 111 0014 F9D1     		bne	.L8
 112              		.loc 1 125 0
ARM GAS  /tmp/ccWwr2wE.s 			page 3


 113              	@ 125 "../os/kernel/src/chevents.c" 1
 114 0016 FFF7FEFF 		bl      _port_unlock
 115              	@ 0 "" 2
 116              		.thumb
 117 001a 5DF804FB 		ldr	pc, [sp], #4
 118              	.L10:
 119              		.loc 1 120 0
 120 001e 0B68     		ldr	r3, [r1]
 121 0020 1360     		str	r3, [r2]
 122              		.loc 1 125 0
 123              	@ 125 "../os/kernel/src/chevents.c" 1
 124 0022 FFF7FEFF 		bl      _port_unlock
 125              	@ 0 "" 2
 126              		.thumb
 127 0026 5DF804FB 		ldr	pc, [sp], #4
 128              		.cfi_endproc
 129              	.LFE1:
 130              		.size	chEvtUnregister, .-chEvtUnregister
 131 002a 00BFAFF3 		.section	.text.chEvtGetAndClearEvents,"ax",%progbits
 131      0080
 132              		.align	2
 133              		.p2align 4,,15
 134              		.global	chEvtGetAndClearEvents
 135              		.thumb
 136              		.thumb_func
 137              		.type	chEvtGetAndClearEvents, %function
 138              	chEvtGetAndClearEvents:
 139              	.LFB2:
 140              		.loc 1 136 0
 141              		.cfi_startproc
 142              		@ args = 0, pretend = 0, frame = 0
 143              		@ frame_needed = 0, uses_anonymous_args = 0
 144              	.LVL5:
 145 0000 00B5     		push	{lr}
 146              		.cfi_def_cfa_offset 4
 147              		.cfi_offset 14, -4
 148              		.loc 1 139 0
 149              	@ 139 "../os/kernel/src/chevents.c" 1
 150 0002 FFF7FEFF 		bl      _port_lock
 151              	@ 0 "" 2
 152              		.loc 1 141 0
 153              		.thumb
 154 0006 054B     		ldr	r3, .L12
 155 0008 1B69     		ldr	r3, [r3, #16]
 156 000a 9A6A     		ldr	r2, [r3, #40]
 157              	.LVL6:
 158              		.loc 1 142 0
 159 000c 22EA0001 		bic	r1, r2, r0
 160 0010 9962     		str	r1, [r3, #40]
 161              		.loc 1 144 0
 162              	@ 144 "../os/kernel/src/chevents.c" 1
 163 0012 FFF7FEFF 		bl      _port_unlock
 164              	@ 0 "" 2
 165              		.loc 1 146 0
 166              		.thumb
 167 0016 1040     		ands	r0, r0, r2
 168              	.LVL7:
ARM GAS  /tmp/ccWwr2wE.s 			page 4


 169 0018 5DF804FB 		ldr	pc, [sp], #4
 170              	.L13:
 171              		.align	2
 172              	.L12:
 173 001c 00000000 		.word	rlist
 174              		.cfi_endproc
 175              	.LFE2:
 176              		.size	chEvtGetAndClearEvents, .-chEvtGetAndClearEvents
 177              		.section	.text.chEvtAddEvents,"ax",%progbits
 178              		.align	2
 179              		.p2align 4,,15
 180              		.global	chEvtAddEvents
 181              		.thumb
 182              		.thumb_func
 183              		.type	chEvtAddEvents, %function
 184              	chEvtAddEvents:
 185              	.LFB3:
 186              		.loc 1 157 0
 187              		.cfi_startproc
 188              		@ args = 0, pretend = 0, frame = 0
 189              		@ frame_needed = 0, uses_anonymous_args = 0
 190              	.LVL8:
 191 0000 00B5     		push	{lr}
 192              		.cfi_def_cfa_offset 4
 193              		.cfi_offset 14, -4
 194              		.loc 1 159 0
 195              	@ 159 "../os/kernel/src/chevents.c" 1
 196 0002 FFF7FEFF 		bl      _port_lock
 197              	@ 0 "" 2
 198              		.loc 1 161 0
 199              		.thumb
 200 0006 044B     		ldr	r3, .L15
 201 0008 1B69     		ldr	r3, [r3, #16]
 202 000a 9A6A     		ldr	r2, [r3, #40]
 203 000c 1043     		orrs	r0, r0, r2
 204              	.LVL9:
 205 000e 9862     		str	r0, [r3, #40]
 206              	.LVL10:
 207              		.loc 1 163 0
 208              	@ 163 "../os/kernel/src/chevents.c" 1
 209 0010 FFF7FEFF 		bl      _port_unlock
 210              	@ 0 "" 2
 211              		.loc 1 165 0
 212              		.thumb
 213 0014 5DF804FB 		ldr	pc, [sp], #4
 214              	.L16:
 215              		.align	2
 216              	.L15:
 217 0018 00000000 		.word	rlist
 218              		.cfi_endproc
 219              	.LFE3:
 220              		.size	chEvtAddEvents, .-chEvtAddEvents
 221 001c AFF30080 		.section	.text.chEvtGetAndClearFlags,"ax",%progbits
 222              		.align	2
 223              		.p2align 4,,15
 224              		.global	chEvtGetAndClearFlags
 225              		.thumb
ARM GAS  /tmp/ccWwr2wE.s 			page 5


 226              		.thumb_func
 227              		.type	chEvtGetAndClearFlags, %function
 228              	chEvtGetAndClearFlags:
 229              	.LFB5:
 230              		.loc 1 209 0
 231              		.cfi_startproc
 232              		@ args = 0, pretend = 0, frame = 0
 233              		@ frame_needed = 0, uses_anonymous_args = 0
 234              	.LVL11:
 235 0000 00B5     		push	{lr}
 236              		.cfi_def_cfa_offset 4
 237              		.cfi_offset 14, -4
 238              		.loc 1 209 0
 239 0002 0246     		mov	r2, r0
 240              		.loc 1 212 0
 241              	@ 212 "../os/kernel/src/chevents.c" 1
 242 0004 FFF7FEFF 		bl      _port_lock
 243              	@ 0 "" 2
 244              		.loc 1 215 0
 245              		.thumb
 246 0008 0023     		movs	r3, #0
 247              		.loc 1 214 0
 248 000a C068     		ldr	r0, [r0, #12]
 249              	.LVL12:
 250              		.loc 1 215 0
 251 000c D360     		str	r3, [r2, #12]
 252              		.loc 1 217 0
 253              	@ 217 "../os/kernel/src/chevents.c" 1
 254 000e FFF7FEFF 		bl      _port_unlock
 255              	@ 0 "" 2
 256              		.loc 1 219 0
 257              		.thumb
 258 0012 5DF804FB 		ldr	pc, [sp], #4
 259              		.cfi_endproc
 260              	.LFE5:
 261              		.size	chEvtGetAndClearFlags, .-chEvtGetAndClearFlags
 262 0016 00BFAFF3 		.section	.text.chEvtSignalI,"ax",%progbits
 262      0080AFF3 
 262      0080
 263              		.align	2
 264              		.p2align 4,,15
 265              		.global	chEvtSignalI
 266              		.thumb
 267              		.thumb_func
 268              		.type	chEvtSignalI, %function
 269              	chEvtSignalI:
 270              	.LFB7:
 271              		.loc 1 251 0
 272              		.cfi_startproc
 273              		@ args = 0, pretend = 0, frame = 0
 274              		@ frame_needed = 0, uses_anonymous_args = 0
 275              	.LVL13:
 276 0000 08B5     		push	{r3, lr}
 277              		.cfi_def_cfa_offset 8
 278              		.cfi_offset 3, -8
 279              		.cfi_offset 14, -4
 280              		.loc 1 256 0
ARM GAS  /tmp/ccWwr2wE.s 			page 6


 281 0002 826A     		ldr	r2, [r0, #40]
 282              		.loc 1 258 0
 283 0004 037C     		ldrb	r3, [r0, #16]	@ zero_extendqisi2
 284              		.loc 1 256 0
 285 0006 1143     		orrs	r1, r1, r2
 286              	.LVL14:
 287              		.loc 1 258 0
 288 0008 082B     		cmp	r3, #8
 289              		.loc 1 256 0
 290 000a 8162     		str	r1, [r0, #40]
 291              		.loc 1 258 0
 292 000c 0BD0     		beq	.L22
 293              		.loc 1 259 0
 294 000e 092B     		cmp	r3, #9
 295 0010 00D0     		beq	.L23
 296              	.L18:
 297 0012 08BD     		pop	{r3, pc}
 298              	.L23:
 299              		.loc 1 261 0
 300 0014 4369     		ldr	r3, [r0, #20]
 301 0016 1940     		ands	r1, r1, r3
 302              		.loc 1 260 0
 303 0018 8B42     		cmp	r3, r1
 304 001a FAD1     		bne	.L18
 305              	.L20:
 306              	.LVL15:
 307              	.LBB4:
 308              	.LBB5:
 309              		.loc 1 262 0
 310 001c FFF7FEFF 		bl	chSchReadyI
 311              	.LVL16:
 312 0020 0023     		movs	r3, #0
 313 0022 4361     		str	r3, [r0, #20]
 314 0024 08BD     		pop	{r3, pc}
 315              	.LVL17:
 316              	.L22:
 317              	.LBE5:
 318              	.LBE4:
 319              		.loc 1 259 0 discriminator 1
 320 0026 4369     		ldr	r3, [r0, #20]
 321              		.loc 1 258 0 discriminator 1
 322 0028 1942     		tst	r1, r3
 323 002a F7D1     		bne	.L20
 324 002c 08BD     		pop	{r3, pc}
 325              		.cfi_endproc
 326              	.LFE7:
 327              		.size	chEvtSignalI, .-chEvtSignalI
 328 002e 00BF     		.section	.text.chEvtBroadcastFlagsI,"ax",%progbits
 329              		.align	2
 330              		.p2align 4,,15
 331              		.global	chEvtBroadcastFlagsI
 332              		.thumb
 333              		.thumb_func
 334              		.type	chEvtBroadcastFlagsI, %function
 335              	chEvtBroadcastFlagsI:
 336              	.LFB4:
 337              		.loc 1 184 0
ARM GAS  /tmp/ccWwr2wE.s 			page 7


 338              		.cfi_startproc
 339              		@ args = 0, pretend = 0, frame = 0
 340              		@ frame_needed = 0, uses_anonymous_args = 0
 341              	.LVL18:
 342 0000 70B5     		push	{r4, r5, r6, lr}
 343              		.cfi_def_cfa_offset 16
 344              		.cfi_offset 4, -16
 345              		.cfi_offset 5, -12
 346              		.cfi_offset 6, -8
 347              		.cfi_offset 14, -4
 348              		.loc 1 190 0
 349 0002 0468     		ldr	r4, [r0]
 350              	.LVL19:
 351              		.loc 1 184 0
 352 0004 0546     		mov	r5, r0
 353              		.loc 1 191 0
 354 0006 A042     		cmp	r0, r4
 355              		.loc 1 184 0
 356 0008 0E46     		mov	r6, r1
 357              		.loc 1 191 0
 358 000a 09D0     		beq	.L24
 359              	.LVL20:
 360              	.L27:
 361              		.loc 1 192 0
 362 000c E368     		ldr	r3, [r4, #12]
 363              		.loc 1 193 0
 364 000e 6068     		ldr	r0, [r4, #4]
 365              		.loc 1 192 0
 366 0010 3343     		orrs	r3, r3, r6
 367 0012 E360     		str	r3, [r4, #12]
 368              		.loc 1 193 0
 369 0014 A168     		ldr	r1, [r4, #8]
 370 0016 FFF7FEFF 		bl	chEvtSignalI
 371              	.LVL21:
 372              		.loc 1 194 0
 373 001a 2468     		ldr	r4, [r4]
 374              	.LVL22:
 375              		.loc 1 191 0
 376 001c A542     		cmp	r5, r4
 377 001e F5D1     		bne	.L27
 378              	.L24:
 379 0020 70BD     		pop	{r4, r5, r6, pc}
 380              		.cfi_endproc
 381              	.LFE4:
 382              		.size	chEvtBroadcastFlagsI, .-chEvtBroadcastFlagsI
 383 0022 00BFAFF3 		.section	.text.chEvtSignal,"ax",%progbits
 383      0080AFF3 
 383      0080AFF3 
 383      0080
 384              		.align	2
 385              		.p2align 4,,15
 386              		.global	chEvtSignal
 387              		.thumb
 388              		.thumb_func
 389              		.type	chEvtSignal, %function
 390              	chEvtSignal:
 391              	.LFB6:
ARM GAS  /tmp/ccWwr2wE.s 			page 8


 392              		.loc 1 229 0
 393              		.cfi_startproc
 394              		@ args = 0, pretend = 0, frame = 0
 395              		@ frame_needed = 0, uses_anonymous_args = 0
 396              	.LVL23:
 397 0000 08B5     		push	{r3, lr}
 398              		.cfi_def_cfa_offset 8
 399              		.cfi_offset 3, -8
 400              		.cfi_offset 14, -4
 401              		.loc 1 233 0
 402              	@ 233 "../os/kernel/src/chevents.c" 1
 403 0002 FFF7FEFF 		bl      _port_lock
 404              	@ 0 "" 2
 405              		.loc 1 234 0
 406              		.thumb
 407 0006 FFF7FEFF 		bl	chEvtSignalI
 408              	.LVL24:
 409              		.loc 1 235 0
 410 000a FFF7FEFF 		bl	chSchRescheduleS
 411              	.LVL25:
 412              		.loc 1 236 0
 413              	@ 236 "../os/kernel/src/chevents.c" 1
 414 000e FFF7FEFF 		bl      _port_unlock
 415              	@ 0 "" 2
 416              		.thumb
 417 0012 08BD     		pop	{r3, pc}
 418              		.cfi_endproc
 419              	.LFE6:
 420              		.size	chEvtSignal, .-chEvtSignal
 421 0014 AFF30080 		.section	.text.chEvtBroadcastFlags,"ax",%progbits
 421      AFF30080 
 421      AFF30080 
 422              		.align	2
 423              		.p2align 4,,15
 424              		.global	chEvtBroadcastFlags
 425              		.thumb
 426              		.thumb_func
 427              		.type	chEvtBroadcastFlags, %function
 428              	chEvtBroadcastFlags:
 429              	.LFB8:
 430              		.loc 1 278 0
 431              		.cfi_startproc
 432              		@ args = 0, pretend = 0, frame = 0
 433              		@ frame_needed = 0, uses_anonymous_args = 0
 434              	.LVL26:
 435 0000 08B5     		push	{r3, lr}
 436              		.cfi_def_cfa_offset 8
 437              		.cfi_offset 3, -8
 438              		.cfi_offset 14, -4
 439              		.loc 1 280 0
 440              	@ 280 "../os/kernel/src/chevents.c" 1
 441 0002 FFF7FEFF 		bl      _port_lock
 442              	@ 0 "" 2
 443              		.loc 1 281 0
 444              		.thumb
 445 0006 FFF7FEFF 		bl	chEvtBroadcastFlagsI
 446              	.LVL27:
ARM GAS  /tmp/ccWwr2wE.s 			page 9


 447              		.loc 1 282 0
 448 000a FFF7FEFF 		bl	chSchRescheduleS
 449              	.LVL28:
 450              		.loc 1 283 0
 451              	@ 283 "../os/kernel/src/chevents.c" 1
 452 000e FFF7FEFF 		bl      _port_unlock
 453              	@ 0 "" 2
 454              		.thumb
 455 0012 08BD     		pop	{r3, pc}
 456              		.cfi_endproc
 457              	.LFE8:
 458              		.size	chEvtBroadcastFlags, .-chEvtBroadcastFlags
 459 0014 AFF30080 		.section	.text.chEvtGetAndClearFlagsI,"ax",%progbits
 459      AFF30080 
 459      AFF30080 
 460              		.align	2
 461              		.p2align 4,,15
 462              		.global	chEvtGetAndClearFlagsI
 463              		.thumb
 464              		.thumb_func
 465              		.type	chEvtGetAndClearFlagsI, %function
 466              	chEvtGetAndClearFlagsI:
 467              	.LFB9:
 468              		.loc 1 297 0
 469              		.cfi_startproc
 470              		@ args = 0, pretend = 0, frame = 0
 471              		@ frame_needed = 0, uses_anonymous_args = 0
 472              		@ link register save eliminated.
 473              	.LVL29:
 474              		.loc 1 297 0
 475 0000 0346     		mov	r3, r0
 476              		.loc 1 301 0
 477 0002 0022     		movs	r2, #0
 478              		.loc 1 300 0
 479 0004 C068     		ldr	r0, [r0, #12]
 480              	.LVL30:
 481              		.loc 1 301 0
 482 0006 DA60     		str	r2, [r3, #12]
 483              		.loc 1 304 0
 484 0008 7047     		bx	lr
 485              		.cfi_endproc
 486              	.LFE9:
 487              		.size	chEvtGetAndClearFlagsI, .-chEvtGetAndClearFlagsI
 488 000a 00BFAFF3 		.section	.text.chEvtDispatch,"ax",%progbits
 488      0080
 489              		.align	2
 490              		.p2align 4,,15
 491              		.global	chEvtDispatch
 492              		.thumb
 493              		.thumb_func
 494              		.type	chEvtDispatch, %function
 495              	chEvtDispatch:
 496              	.LFB10:
 497              		.loc 1 315 0
 498              		.cfi_startproc
 499              		@ args = 0, pretend = 0, frame = 0
 500              		@ frame_needed = 0, uses_anonymous_args = 0
ARM GAS  /tmp/ccWwr2wE.s 			page 10


 501              	.LVL31:
 502 0000 F8B5     		push	{r3, r4, r5, r6, r7, lr}
 503              		.cfi_def_cfa_offset 24
 504              		.cfi_offset 3, -24
 505              		.cfi_offset 4, -20
 506              		.cfi_offset 5, -16
 507              		.cfi_offset 6, -12
 508              		.cfi_offset 7, -8
 509              		.cfi_offset 14, -4
 510              		.loc 1 321 0
 511 0002 0D46     		mov	r5, r1
 512              		.loc 1 315 0
 513 0004 0746     		mov	r7, r0
 514              		.loc 1 321 0
 515 0006 89B1     		cbz	r1, .L31
 516              		.loc 1 320 0
 517 0008 0024     		movs	r4, #0
 518              		.loc 1 322 0
 519 000a 0126     		movs	r6, #1
 520 000c 01E0     		b	.L35
 521              	.LVL32:
 522              	.L33:
 523              		.loc 1 329 0
 524 000e 0134     		adds	r4, r4, #1
 525              	.LVL33:
 526              		.loc 1 321 0
 527 0010 65B1     		cbz	r5, .L31
 528              	.LVL34:
 529              	.L35:
 530              		.loc 1 322 0
 531 0012 06FA04F3 		lsl	r3, r6, r4
 532 0016 2B42     		tst	r3, r5
 533 0018 F9D0     		beq	.L33
 534              		.loc 1 327 0
 535 001a 57F82420 		ldr	r2, [r7, r4, lsl #2]
 536 001e 2046     		mov	r0, r4
 537              		.loc 1 326 0
 538 0020 25EA0305 		bic	r5, r5, r3
 539              	.LVL35:
 540              		.loc 1 329 0
 541 0024 0134     		adds	r4, r4, #1
 542              	.LVL36:
 543              		.loc 1 327 0
 544 0026 9047     		blx	r2
 545              	.LVL37:
 546              		.loc 1 321 0
 547 0028 002D     		cmp	r5, #0
 548 002a F2D1     		bne	.L35
 549              	.LVL38:
 550              	.L31:
 551 002c F8BD     		pop	{r3, r4, r5, r6, r7, pc}
 552              		.cfi_endproc
 553              	.LFE10:
 554              		.size	chEvtDispatch, .-chEvtDispatch
 555 002e 00BF     		.section	.text.chEvtWaitOneTimeout,"ax",%progbits
 556              		.align	2
 557              		.p2align 4,,15
ARM GAS  /tmp/ccWwr2wE.s 			page 11


 558              		.global	chEvtWaitOneTimeout
 559              		.thumb
 560              		.thumb_func
 561              		.type	chEvtWaitOneTimeout, %function
 562              	chEvtWaitOneTimeout:
 563              	.LFB11:
 564              		.loc 1 446 0
 565              		.cfi_startproc
 566              		@ args = 0, pretend = 0, frame = 0
 567              		@ frame_needed = 0, uses_anonymous_args = 0
 568              	.LVL39:
 569 0000 70B5     		push	{r4, r5, r6, lr}
 570              		.cfi_def_cfa_offset 16
 571              		.cfi_offset 4, -16
 572              		.cfi_offset 5, -12
 573              		.cfi_offset 6, -8
 574              		.cfi_offset 14, -4
 575              		.loc 1 447 0
 576 0002 114B     		ldr	r3, .L49
 577              		.loc 1 446 0
 578 0004 0446     		mov	r4, r0
 579              		.loc 1 447 0
 580 0006 1D69     		ldr	r5, [r3, #16]
 581              	.LVL40:
 582              		.loc 1 446 0
 583 0008 0846     		mov	r0, r1
 584              	.LVL41:
 585              		.loc 1 450 0
 586              	@ 450 "../os/kernel/src/chevents.c" 1
 587 000a FFF7FEFF 		bl      _port_lock
 588              	@ 0 "" 2
 589              		.loc 1 452 0
 590              		.thumb
 591 000e AB6A     		ldr	r3, [r5, #40]
 592              	.LVL42:
 593 0010 14EA0306 		ands	r6, r4, r3
 594              	.LVL43:
 595 0014 0CD1     		bne	.L43
 596              		.loc 1 453 0
 597 0016 11B9     		cbnz	r1, .L44
 598              		.loc 1 467 0
 599              	@ 467 "../os/kernel/src/chevents.c" 1
 600 0018 FFF7FEFF 		bl      _port_unlock
 601              	@ 0 "" 2
 602              		.loc 1 469 0
 603              		.thumb
 604 001c 70BD     		pop	{r4, r5, r6, pc}
 605              	.LVL44:
 606              	.L44:
 607              		.loc 1 457 0
 608 001e 6C61     		str	r4, [r5, #20]
 609              		.loc 1 458 0
 610 0020 0820     		movs	r0, #8
 611 0022 FFF7FEFF 		bl	chSchGoSleepTimeoutS
 612              	.LVL45:
 613 0026 0028     		cmp	r0, #0
 614 0028 0ADB     		blt	.L48
ARM GAS  /tmp/ccWwr2wE.s 			page 12


 615              		.loc 1 462 0
 616 002a AB6A     		ldr	r3, [r5, #40]
 617 002c 04EA0306 		and	r6, r4, r3
 618              	.LVL46:
 619              	.L43:
 620              		.loc 1 464 0
 621 0030 7042     		negs	r0, r6
 622 0032 3040     		ands	r0, r0, r6
 623              	.LVL47:
 624              		.loc 1 465 0
 625 0034 23EA0003 		bic	r3, r3, r0
 626 0038 AB62     		str	r3, [r5, #40]
 627              		.loc 1 467 0
 628              	@ 467 "../os/kernel/src/chevents.c" 1
 629 003a FFF7FEFF 		bl      _port_unlock
 630              	@ 0 "" 2
 631              		.loc 1 469 0
 632              		.thumb
 633 003e 70BD     		pop	{r4, r5, r6, pc}
 634              	.LVL48:
 635              	.L48:
 636              		.loc 1 459 0
 637              	@ 459 "../os/kernel/src/chevents.c" 1
 638 0040 FFF7FEFF 		bl      _port_unlock
 639              	@ 0 "" 2
 640              		.loc 1 460 0
 641              		.thumb
 642 0044 3046     		mov	r0, r6
 643 0046 70BD     		pop	{r4, r5, r6, pc}
 644              	.LVL49:
 645              	.L50:
 646              		.align	2
 647              	.L49:
 648 0048 00000000 		.word	rlist
 649              		.cfi_endproc
 650              	.LFE11:
 651              		.size	chEvtWaitOneTimeout, .-chEvtWaitOneTimeout
 652 004c AFF30080 		.section	.text.chEvtWaitAnyTimeout,"ax",%progbits
 653              		.align	2
 654              		.p2align 4,,15
 655              		.global	chEvtWaitAnyTimeout
 656              		.thumb
 657              		.thumb_func
 658              		.type	chEvtWaitAnyTimeout, %function
 659              	chEvtWaitAnyTimeout:
 660              	.LFB12:
 661              		.loc 1 489 0
 662              		.cfi_startproc
 663              		@ args = 0, pretend = 0, frame = 0
 664              		@ frame_needed = 0, uses_anonymous_args = 0
 665              	.LVL50:
 666 0000 70B5     		push	{r4, r5, r6, lr}
 667              		.cfi_def_cfa_offset 16
 668              		.cfi_offset 4, -16
 669              		.cfi_offset 5, -12
 670              		.cfi_offset 6, -8
 671              		.cfi_offset 14, -4
ARM GAS  /tmp/ccWwr2wE.s 			page 13


 672              		.loc 1 490 0
 673 0002 0F4B     		ldr	r3, .L57
 674              		.loc 1 489 0
 675 0004 0446     		mov	r4, r0
 676              		.loc 1 490 0
 677 0006 1D69     		ldr	r5, [r3, #16]
 678              	.LVL51:
 679              		.loc 1 489 0
 680 0008 0846     		mov	r0, r1
 681              	.LVL52:
 682              		.loc 1 493 0
 683              	@ 493 "../os/kernel/src/chevents.c" 1
 684 000a FFF7FEFF 		bl      _port_lock
 685              	@ 0 "" 2
 686              		.loc 1 495 0
 687              		.thumb
 688 000e AB6A     		ldr	r3, [r5, #40]
 689              	.LVL53:
 690 0010 14EA0306 		ands	r6, r4, r3
 691              	.LVL54:
 692 0014 0CD1     		bne	.L52
 693              		.loc 1 496 0
 694 0016 11B9     		cbnz	r1, .L53
 695              		.loc 1 497 0
 696              	@ 497 "../os/kernel/src/chevents.c" 1
 697 0018 FFF7FEFF 		bl      _port_unlock
 698              	@ 0 "" 2
 699              		.loc 1 498 0
 700              		.thumb
 701 001c 70BD     		pop	{r4, r5, r6, pc}
 702              	.LVL55:
 703              	.L53:
 704              		.loc 1 500 0
 705 001e 6C61     		str	r4, [r5, #20]
 706              		.loc 1 501 0
 707 0020 0820     		movs	r0, #8
 708 0022 FFF7FEFF 		bl	chSchGoSleepTimeoutS
 709              	.LVL56:
 710 0026 0028     		cmp	r0, #0
 711 0028 05DB     		blt	.L56
 712              		.loc 1 505 0
 713 002a AB6A     		ldr	r3, [r5, #40]
 714 002c 04EA0306 		and	r6, r4, r3
 715              	.LVL57:
 716              	.L52:
 717              		.loc 1 507 0
 718 0030 23EA0603 		bic	r3, r3, r6
 719 0034 AB62     		str	r3, [r5, #40]
 720              	.L56:
 721              		.loc 1 509 0
 722              	@ 509 "../os/kernel/src/chevents.c" 1
 723 0036 FFF7FEFF 		bl      _port_unlock
 724              	@ 0 "" 2
 725              		.loc 1 510 0
 726              		.thumb
 727 003a 3046     		mov	r0, r6
 728              		.loc 1 511 0
ARM GAS  /tmp/ccWwr2wE.s 			page 14


 729 003c 70BD     		pop	{r4, r5, r6, pc}
 730              	.LVL58:
 731              	.L58:
 732 003e 00BF     		.align	2
 733              	.L57:
 734 0040 00000000 		.word	rlist
 735              		.cfi_endproc
 736              	.LFE12:
 737              		.size	chEvtWaitAnyTimeout, .-chEvtWaitAnyTimeout
 738 0044 AFF30080 		.section	.text.chEvtWaitAllTimeout,"ax",%progbits
 738      AFF30080 
 738      AFF30080 
 739              		.align	2
 740              		.p2align 4,,15
 741              		.global	chEvtWaitAllTimeout
 742              		.thumb
 743              		.thumb_func
 744              		.type	chEvtWaitAllTimeout, %function
 745              	chEvtWaitAllTimeout:
 746              	.LFB13:
 747              		.loc 1 530 0
 748              		.cfi_startproc
 749              		@ args = 0, pretend = 0, frame = 0
 750              		@ frame_needed = 0, uses_anonymous_args = 0
 751              	.LVL59:
 752 0000 38B5     		push	{r3, r4, r5, lr}
 753              		.cfi_def_cfa_offset 16
 754              		.cfi_offset 3, -16
 755              		.cfi_offset 4, -12
 756              		.cfi_offset 5, -8
 757              		.cfi_offset 14, -4
 758              		.loc 1 531 0
 759 0002 104B     		ldr	r3, .L64
 760              		.loc 1 530 0
 761 0004 0446     		mov	r4, r0
 762              		.loc 1 531 0
 763 0006 1D69     		ldr	r5, [r3, #16]
 764              	.LVL60:
 765              		.loc 1 530 0
 766 0008 0846     		mov	r0, r1
 767              	.LVL61:
 768              		.loc 1 533 0
 769              	@ 533 "../os/kernel/src/chevents.c" 1
 770 000a FFF7FEFF 		bl      _port_lock
 771              	@ 0 "" 2
 772              		.loc 1 535 0
 773              		.thumb
 774 000e AB6A     		ldr	r3, [r5, #40]
 775 0010 04EA0302 		and	r2, r4, r3
 776 0014 A242     		cmp	r2, r4
 777 0016 0AD0     		beq	.L60
 778              		.loc 1 536 0
 779 0018 11B9     		cbnz	r1, .L61
 780              		.loc 1 537 0
 781              	@ 537 "../os/kernel/src/chevents.c" 1
 782 001a FFF7FEFF 		bl      _port_unlock
 783              	@ 0 "" 2
ARM GAS  /tmp/ccWwr2wE.s 			page 15


 784              		.loc 1 538 0
 785              		.thumb
 786 001e 38BD     		pop	{r3, r4, r5, pc}
 787              	.LVL62:
 788              	.L61:
 789              		.loc 1 540 0
 790 0020 6C61     		str	r4, [r5, #20]
 791              		.loc 1 541 0
 792 0022 0920     		movs	r0, #9
 793 0024 FFF7FEFF 		bl	chSchGoSleepTimeoutS
 794              	.LVL63:
 795 0028 0028     		cmp	r0, #0
 796 002a 07DB     		blt	.L63
 797 002c AB6A     		ldr	r3, [r5, #40]
 798              	.L60:
 799              		.loc 1 546 0
 800 002e 23EA0403 		bic	r3, r3, r4
 801 0032 AB62     		str	r3, [r5, #40]
 802              		.loc 1 548 0
 803              	@ 548 "../os/kernel/src/chevents.c" 1
 804 0034 FFF7FEFF 		bl      _port_unlock
 805              	@ 0 "" 2
 806              		.loc 1 549 0
 807              		.thumb
 808 0038 2046     		mov	r0, r4
 809              		.loc 1 550 0
 810 003a 38BD     		pop	{r3, r4, r5, pc}
 811              	.LVL64:
 812              	.L63:
 813              		.loc 1 542 0
 814              	@ 542 "../os/kernel/src/chevents.c" 1
 815 003c FFF7FEFF 		bl      _port_unlock
 816              	@ 0 "" 2
 817              		.loc 1 543 0
 818              		.thumb
 819 0040 0020     		movs	r0, #0
 820 0042 38BD     		pop	{r3, r4, r5, pc}
 821              	.LVL65:
 822              	.L65:
 823              		.align	2
 824              	.L64:
 825 0044 00000000 		.word	rlist
 826              		.cfi_endproc
 827              	.LFE13:
 828              		.size	chEvtWaitAllTimeout, .-chEvtWaitAllTimeout
 829 0048 AFF30080 		.text
 829      AFF30080 
 830              	.Letext0:
 831              		.file 2 "/usr/include/newlib/machine/_default_types.h"
 832              		.file 3 "/usr/include/newlib/stdint.h"
 833              		.file 4 "../os/ports/GCC/ARMCMx/chtypes.h"
 834              		.file 5 "../os/kernel/include/chlists.h"
 835              		.file 6 "../os/kernel/include/chthreads.h"
 836              		.file 7 "../os/ports/GCC/ARMCMx/chcore_v7m.h"
 837              		.file 8 "../os/kernel/include/chschd.h"
 838              		.file 9 "../os/kernel/include/chmtx.h"
 839              		.file 10 "../os/kernel/include/chevents.h"
ARM GAS  /tmp/ccWwr2wE.s 			page 16


 840              		.section	.debug_info,"",%progbits
 841              	.Ldebug_info0:
 842 0000 AE080000 		.4byte	0x8ae
 843 0004 0400     		.2byte	0x4
 844 0006 00000000 		.4byte	.Ldebug_abbrev0
 845 000a 04       		.byte	0x4
 846 000b 01       		.uleb128 0x1
 847 000c 9E020000 		.4byte	.LASF85
 848 0010 01       		.byte	0x1
 849 0011 BA030000 		.4byte	.LASF86
 850 0015 56010000 		.4byte	.LASF87
 851 0019 00000000 		.4byte	.Ldebug_ranges0+0
 852 001d 00000000 		.4byte	0
 853 0021 00000000 		.4byte	.Ldebug_line0
 854 0025 02       		.uleb128 0x2
 855 0026 04       		.byte	0x4
 856 0027 05       		.byte	0x5
 857 0028 696E7400 		.ascii	"int\000"
 858 002c 03       		.uleb128 0x3
 859 002d 04       		.byte	0x4
 860 002e 07       		.byte	0x7
 861 002f 49010000 		.4byte	.LASF0
 862 0033 03       		.uleb128 0x3
 863 0034 01       		.byte	0x1
 864 0035 06       		.byte	0x6
 865 0036 7B000000 		.4byte	.LASF1
 866 003a 04       		.uleb128 0x4
 867 003b 0D000000 		.4byte	.LASF5
 868 003f 02       		.byte	0x2
 869 0040 1D       		.byte	0x1d
 870 0041 45000000 		.4byte	0x45
 871 0045 03       		.uleb128 0x3
 872 0046 01       		.byte	0x1
 873 0047 08       		.byte	0x8
 874 0048 71030000 		.4byte	.LASF2
 875 004c 03       		.uleb128 0x3
 876 004d 02       		.byte	0x2
 877 004e 05       		.byte	0x5
 878 004f 9E030000 		.4byte	.LASF3
 879 0053 03       		.uleb128 0x3
 880 0054 02       		.byte	0x2
 881 0055 07       		.byte	0x7
 882 0056 D5010000 		.4byte	.LASF4
 883 005a 04       		.uleb128 0x4
 884 005b 4E040000 		.4byte	.LASF6
 885 005f 02       		.byte	0x2
 886 0060 3F       		.byte	0x3f
 887 0061 65000000 		.4byte	0x65
 888 0065 03       		.uleb128 0x3
 889 0066 04       		.byte	0x4
 890 0067 05       		.byte	0x5
 891 0068 AD000000 		.4byte	.LASF7
 892 006c 04       		.uleb128 0x4
 893 006d FA000000 		.4byte	.LASF8
 894 0071 02       		.byte	0x2
 895 0072 41       		.byte	0x41
 896 0073 77000000 		.4byte	0x77
ARM GAS  /tmp/ccWwr2wE.s 			page 17


 897 0077 03       		.uleb128 0x3
 898 0078 04       		.byte	0x4
 899 0079 07       		.byte	0x7
 900 007a AC010000 		.4byte	.LASF9
 901 007e 03       		.uleb128 0x3
 902 007f 08       		.byte	0x8
 903 0080 05       		.byte	0x5
 904 0081 6D000000 		.4byte	.LASF10
 905 0085 03       		.uleb128 0x3
 906 0086 08       		.byte	0x8
 907 0087 07       		.byte	0x7
 908 0088 23000000 		.4byte	.LASF11
 909 008c 04       		.uleb128 0x4
 910 008d 96040000 		.4byte	.LASF12
 911 0091 03       		.byte	0x3
 912 0092 2A       		.byte	0x2a
 913 0093 3A000000 		.4byte	0x3a
 914 0097 04       		.uleb128 0x4
 915 0098 69030000 		.4byte	.LASF13
 916 009c 03       		.byte	0x3
 917 009d 41       		.byte	0x41
 918 009e 5A000000 		.4byte	0x5a
 919 00a2 04       		.uleb128 0x4
 920 00a3 15040000 		.4byte	.LASF14
 921 00a7 03       		.byte	0x3
 922 00a8 42       		.byte	0x42
 923 00a9 6C000000 		.4byte	0x6c
 924 00ad 03       		.uleb128 0x3
 925 00ae 01       		.byte	0x1
 926 00af 02       		.byte	0x2
 927 00b0 63030000 		.4byte	.LASF15
 928 00b4 04       		.uleb128 0x4
 929 00b5 18020000 		.4byte	.LASF16
 930 00b9 04       		.byte	0x4
 931 00ba 2C       		.byte	0x2c
 932 00bb 8C000000 		.4byte	0x8c
 933 00bf 04       		.uleb128 0x4
 934 00c0 B6000000 		.4byte	.LASF17
 935 00c4 04       		.byte	0x4
 936 00c5 2D       		.byte	0x2d
 937 00c6 8C000000 		.4byte	0x8c
 938 00ca 04       		.uleb128 0x4
 939 00cb A3000000 		.4byte	.LASF18
 940 00cf 04       		.byte	0x4
 941 00d0 2F       		.byte	0x2f
 942 00d1 8C000000 		.4byte	0x8c
 943 00d5 04       		.uleb128 0x4
 944 00d6 96020000 		.4byte	.LASF19
 945 00da 04       		.byte	0x4
 946 00db 30       		.byte	0x30
 947 00dc A2000000 		.4byte	0xa2
 948 00e0 04       		.uleb128 0x4
 949 00e1 FA010000 		.4byte	.LASF20
 950 00e5 04       		.byte	0x4
 951 00e6 31       		.byte	0x31
 952 00e7 97000000 		.4byte	0x97
 953 00eb 04       		.uleb128 0x4
ARM GAS  /tmp/ccWwr2wE.s 			page 18


 954 00ec 27010000 		.4byte	.LASF21
 955 00f0 04       		.byte	0x4
 956 00f1 32       		.byte	0x32
 957 00f2 97000000 		.4byte	0x97
 958 00f6 04       		.uleb128 0x4
 959 00f7 2C020000 		.4byte	.LASF22
 960 00fb 04       		.byte	0x4
 961 00fc 33       		.byte	0x33
 962 00fd A2000000 		.4byte	0xa2
 963 0101 04       		.uleb128 0x4
 964 0102 72040000 		.4byte	.LASF23
 965 0106 04       		.byte	0x4
 966 0107 34       		.byte	0x34
 967 0108 A2000000 		.4byte	0xa2
 968 010c 04       		.uleb128 0x4
 969 010d 39040000 		.4byte	.LASF24
 970 0111 04       		.byte	0x4
 971 0112 35       		.byte	0x35
 972 0113 A2000000 		.4byte	0xa2
 973 0117 04       		.uleb128 0x4
 974 0118 03040000 		.4byte	.LASF25
 975 011c 05       		.byte	0x5
 976 011d 2A       		.byte	0x2a
 977 011e 22010000 		.4byte	0x122
 978 0122 05       		.uleb128 0x5
 979 0123 03040000 		.4byte	.LASF25
 980 0127 34       		.byte	0x34
 981 0128 06       		.byte	0x6
 982 0129 5E       		.byte	0x5e
 983 012a D7010000 		.4byte	0x1d7
 984 012e 06       		.uleb128 0x6
 985 012f F4030000 		.4byte	.LASF26
 986 0133 06       		.byte	0x6
 987 0134 5F       		.byte	0x5f
 988 0135 F8010000 		.4byte	0x1f8
 989 0139 00       		.byte	0
 990 013a 06       		.uleb128 0x6
 991 013b 8F020000 		.4byte	.LASF27
 992 013f 06       		.byte	0x6
 993 0140 61       		.byte	0x61
 994 0141 F8010000 		.4byte	0x1f8
 995 0145 04       		.byte	0x4
 996 0146 06       		.uleb128 0x6
 997 0147 66000000 		.4byte	.LASF28
 998 014b 06       		.byte	0x6
 999 014c 63       		.byte	0x63
 1000 014d D5000000 		.4byte	0xd5
 1001 0151 08       		.byte	0x8
 1002 0152 06       		.uleb128 0x6
 1003 0153 EB040000 		.4byte	.LASF29
 1004 0157 06       		.byte	0x6
 1005 0158 64       		.byte	0x64
 1006 0159 B2020000 		.4byte	0x2b2
 1007 015d 0C       		.byte	0xc
 1008 015e 06       		.uleb128 0x6
 1009 015f A8030000 		.4byte	.LASF30
 1010 0163 06       		.byte	0x6
ARM GAS  /tmp/ccWwr2wE.s 			page 19


 1011 0164 79       		.byte	0x79
 1012 0165 BF000000 		.4byte	0xbf
 1013 0169 10       		.byte	0x10
 1014 016a 06       		.uleb128 0x6
 1015 016b FB030000 		.4byte	.LASF31
 1016 016f 06       		.byte	0x6
 1017 0170 7D       		.byte	0x7d
 1018 0171 B4000000 		.4byte	0xb4
 1019 0175 11       		.byte	0x11
 1020 0176 06       		.uleb128 0x6
 1021 0177 B0030000 		.4byte	.LASF32
 1022 017b 06       		.byte	0x6
 1023 017c 88       		.byte	0x88
 1024 017d CA000000 		.4byte	0xca
 1025 0181 12       		.byte	0x12
 1026 0182 07       		.uleb128 0x7
 1027 0183 705F7500 		.ascii	"p_u\000"
 1028 0187 06       		.byte	0x6
 1029 0188 B4       		.byte	0xb4
 1030 0189 EE030000 		.4byte	0x3ee
 1031 018d 14       		.byte	0x14
 1032 018e 06       		.uleb128 0x6
 1033 018f F1040000 		.4byte	.LASF33
 1034 0193 06       		.byte	0x6
 1035 0194 B9       		.byte	0xb9
 1036 0195 1E020000 		.4byte	0x21e
 1037 0199 18       		.byte	0x18
 1038 019a 06       		.uleb128 0x6
 1039 019b 67040000 		.4byte	.LASF34
 1040 019f 06       		.byte	0x6
 1041 01a0 BF       		.byte	0xbf
 1042 01a1 FE010000 		.4byte	0x1fe
 1043 01a5 1C       		.byte	0x1c
 1044 01a6 06       		.uleb128 0x6
 1045 01a7 00000000 		.4byte	.LASF35
 1046 01ab 06       		.byte	0x6
 1047 01ac C3       		.byte	0xc3
 1048 01ad E0000000 		.4byte	0xe0
 1049 01b1 24       		.byte	0x24
 1050 01b2 06       		.uleb128 0x6
 1051 01b3 0A040000 		.4byte	.LASF36
 1052 01b7 06       		.byte	0x6
 1053 01b8 C9       		.byte	0xc9
 1054 01b9 F6000000 		.4byte	0xf6
 1055 01bd 28       		.byte	0x28
 1056 01be 06       		.uleb128 0x6
 1057 01bf 94030000 		.4byte	.LASF37
 1058 01c3 06       		.byte	0x6
 1059 01c4 D0       		.byte	0xd0
 1060 01c5 23040000 		.4byte	0x423
 1061 01c9 2C       		.byte	0x2c
 1062 01ca 06       		.uleb128 0x6
 1063 01cb 43040000 		.4byte	.LASF38
 1064 01cf 06       		.byte	0x6
 1065 01d0 D4       		.byte	0xd4
 1066 01d1 D5000000 		.4byte	0xd5
 1067 01d5 30       		.byte	0x30
ARM GAS  /tmp/ccWwr2wE.s 			page 20


 1068 01d6 00       		.byte	0
 1069 01d7 08       		.uleb128 0x8
 1070 01d8 08       		.byte	0x8
 1071 01d9 05       		.byte	0x5
 1072 01da 61       		.byte	0x61
 1073 01db F8010000 		.4byte	0x1f8
 1074 01df 06       		.uleb128 0x6
 1075 01e0 F4030000 		.4byte	.LASF26
 1076 01e4 05       		.byte	0x5
 1077 01e5 62       		.byte	0x62
 1078 01e6 F8010000 		.4byte	0x1f8
 1079 01ea 00       		.byte	0
 1080 01eb 06       		.uleb128 0x6
 1081 01ec 8F020000 		.4byte	.LASF27
 1082 01f0 05       		.byte	0x5
 1083 01f1 64       		.byte	0x64
 1084 01f2 F8010000 		.4byte	0x1f8
 1085 01f6 04       		.byte	0x4
 1086 01f7 00       		.byte	0
 1087 01f8 09       		.uleb128 0x9
 1088 01f9 04       		.byte	0x4
 1089 01fa 17010000 		.4byte	0x117
 1090 01fe 04       		.uleb128 0x4
 1091 01ff 62020000 		.4byte	.LASF39
 1092 0203 05       		.byte	0x5
 1093 0204 66       		.byte	0x66
 1094 0205 D7010000 		.4byte	0x1d7
 1095 0209 08       		.uleb128 0x8
 1096 020a 04       		.byte	0x4
 1097 020b 05       		.byte	0x5
 1098 020c 6B       		.byte	0x6b
 1099 020d 1E020000 		.4byte	0x21e
 1100 0211 06       		.uleb128 0x6
 1101 0212 F4030000 		.4byte	.LASF26
 1102 0216 05       		.byte	0x5
 1103 0217 6D       		.byte	0x6d
 1104 0218 F8010000 		.4byte	0x1f8
 1105 021c 00       		.byte	0
 1106 021d 00       		.byte	0
 1107 021e 04       		.uleb128 0x4
 1108 021f 20020000 		.4byte	.LASF40
 1109 0223 05       		.byte	0x5
 1110 0224 70       		.byte	0x70
 1111 0225 09020000 		.4byte	0x209
 1112 0229 04       		.uleb128 0x4
 1113 022a 0A010000 		.4byte	.LASF41
 1114 022e 07       		.byte	0x7
 1115 022f E5       		.byte	0xe5
 1116 0230 34020000 		.4byte	0x234
 1117 0234 0A       		.uleb128 0xa
 1118 0235 04       		.byte	0x4
 1119 0236 0B       		.uleb128 0xb
 1120 0237 60040000 		.4byte	.LASF42
 1121 023b 24       		.byte	0x24
 1122 023c 07       		.byte	0x7
 1123 023d 0C01     		.2byte	0x10c
 1124 023f B2020000 		.4byte	0x2b2
ARM GAS  /tmp/ccWwr2wE.s 			page 21


 1125 0243 0C       		.uleb128 0xc
 1126 0244 723400   		.ascii	"r4\000"
 1127 0247 07       		.byte	0x7
 1128 0248 1F01     		.2byte	0x11f
 1129 024a 29020000 		.4byte	0x229
 1130 024e 00       		.byte	0
 1131 024f 0C       		.uleb128 0xc
 1132 0250 723500   		.ascii	"r5\000"
 1133 0253 07       		.byte	0x7
 1134 0254 2001     		.2byte	0x120
 1135 0256 29020000 		.4byte	0x229
 1136 025a 04       		.byte	0x4
 1137 025b 0C       		.uleb128 0xc
 1138 025c 723600   		.ascii	"r6\000"
 1139 025f 07       		.byte	0x7
 1140 0260 2101     		.2byte	0x121
 1141 0262 29020000 		.4byte	0x229
 1142 0266 08       		.byte	0x8
 1143 0267 0C       		.uleb128 0xc
 1144 0268 723700   		.ascii	"r7\000"
 1145 026b 07       		.byte	0x7
 1146 026c 2201     		.2byte	0x122
 1147 026e 29020000 		.4byte	0x229
 1148 0272 0C       		.byte	0xc
 1149 0273 0C       		.uleb128 0xc
 1150 0274 723800   		.ascii	"r8\000"
 1151 0277 07       		.byte	0x7
 1152 0278 2301     		.2byte	0x123
 1153 027a 29020000 		.4byte	0x229
 1154 027e 10       		.byte	0x10
 1155 027f 0C       		.uleb128 0xc
 1156 0280 723900   		.ascii	"r9\000"
 1157 0283 07       		.byte	0x7
 1158 0284 2401     		.2byte	0x124
 1159 0286 29020000 		.4byte	0x229
 1160 028a 14       		.byte	0x14
 1161 028b 0C       		.uleb128 0xc
 1162 028c 72313000 		.ascii	"r10\000"
 1163 0290 07       		.byte	0x7
 1164 0291 2501     		.2byte	0x125
 1165 0293 29020000 		.4byte	0x229
 1166 0297 18       		.byte	0x18
 1167 0298 0C       		.uleb128 0xc
 1168 0299 72313100 		.ascii	"r11\000"
 1169 029d 07       		.byte	0x7
 1170 029e 2601     		.2byte	0x126
 1171 02a0 29020000 		.4byte	0x229
 1172 02a4 1C       		.byte	0x1c
 1173 02a5 0C       		.uleb128 0xc
 1174 02a6 6C7200   		.ascii	"lr\000"
 1175 02a9 07       		.byte	0x7
 1176 02aa 2701     		.2byte	0x127
 1177 02ac 29020000 		.4byte	0x229
 1178 02b0 20       		.byte	0x20
 1179 02b1 00       		.byte	0
 1180 02b2 0B       		.uleb128 0xb
 1181 02b3 58040000 		.4byte	.LASF43
ARM GAS  /tmp/ccWwr2wE.s 			page 22


 1182 02b7 04       		.byte	0x4
 1183 02b8 07       		.byte	0x7
 1184 02b9 3101     		.2byte	0x131
 1185 02bb CD020000 		.4byte	0x2cd
 1186 02bf 0C       		.uleb128 0xc
 1187 02c0 72313300 		.ascii	"r13\000"
 1188 02c4 07       		.byte	0x7
 1189 02c5 3201     		.2byte	0x132
 1190 02c7 CD020000 		.4byte	0x2cd
 1191 02cb 00       		.byte	0
 1192 02cc 00       		.byte	0
 1193 02cd 09       		.uleb128 0x9
 1194 02ce 04       		.byte	0x4
 1195 02cf 36020000 		.4byte	0x236
 1196 02d3 03       		.uleb128 0x3
 1197 02d4 04       		.byte	0x4
 1198 02d5 07       		.byte	0x7
 1199 02d6 45020000 		.4byte	.LASF44
 1200 02da 08       		.uleb128 0x8
 1201 02db 14       		.byte	0x14
 1202 02dc 08       		.byte	0x8
 1203 02dd 5E       		.byte	0x5e
 1204 02de 13030000 		.4byte	0x313
 1205 02e2 06       		.uleb128 0x6
 1206 02e3 1E040000 		.4byte	.LASF45
 1207 02e7 08       		.byte	0x8
 1208 02e8 5F       		.byte	0x5f
 1209 02e9 FE010000 		.4byte	0x1fe
 1210 02ed 00       		.byte	0
 1211 02ee 06       		.uleb128 0x6
 1212 02ef 3E020000 		.4byte	.LASF46
 1213 02f3 08       		.byte	0x8
 1214 02f4 60       		.byte	0x60
 1215 02f5 D5000000 		.4byte	0xd5
 1216 02f9 08       		.byte	0x8
 1217 02fa 06       		.uleb128 0x6
 1218 02fb 5C020000 		.4byte	.LASF47
 1219 02ff 08       		.byte	0x8
 1220 0300 62       		.byte	0x62
 1221 0301 B2020000 		.4byte	0x2b2
 1222 0305 0C       		.byte	0xc
 1223 0306 06       		.uleb128 0x6
 1224 0307 74020000 		.4byte	.LASF48
 1225 030b 08       		.byte	0x8
 1226 030c 69       		.byte	0x69
 1227 030d F8010000 		.4byte	0x1f8
 1228 0311 10       		.byte	0x10
 1229 0312 00       		.byte	0
 1230 0313 04       		.uleb128 0x4
 1231 0314 86040000 		.4byte	.LASF49
 1232 0318 08       		.byte	0x8
 1233 0319 6B       		.byte	0x6b
 1234 031a DA020000 		.4byte	0x2da
 1235 031e 05       		.uleb128 0x5
 1236 031f 38020000 		.4byte	.LASF50
 1237 0323 10       		.byte	0x10
 1238 0324 09       		.byte	0x9
ARM GAS  /tmp/ccWwr2wE.s 			page 23


 1239 0325 2C       		.byte	0x2c
 1240 0326 4F030000 		.4byte	0x34f
 1241 032a 06       		.uleb128 0x6
 1242 032b 9B000000 		.4byte	.LASF51
 1243 032f 09       		.byte	0x9
 1244 0330 2D       		.byte	0x2d
 1245 0331 FE010000 		.4byte	0x1fe
 1246 0335 00       		.byte	0
 1247 0336 06       		.uleb128 0x6
 1248 0337 E3040000 		.4byte	.LASF52
 1249 033b 09       		.byte	0x9
 1250 033c 2F       		.byte	0x2f
 1251 033d F8010000 		.4byte	0x1f8
 1252 0341 08       		.byte	0x8
 1253 0342 06       		.uleb128 0x6
 1254 0343 32040000 		.4byte	.LASF53
 1255 0347 09       		.byte	0x9
 1256 0348 31       		.byte	0x31
 1257 0349 4F030000 		.4byte	0x34f
 1258 034d 0C       		.byte	0xc
 1259 034e 00       		.byte	0
 1260 034f 09       		.uleb128 0x9
 1261 0350 04       		.byte	0x4
 1262 0351 1E030000 		.4byte	0x31e
 1263 0355 04       		.uleb128 0x4
 1264 0356 38020000 		.4byte	.LASF50
 1265 035a 09       		.byte	0x9
 1266 035b 33       		.byte	0x33
 1267 035c 1E030000 		.4byte	0x31e
 1268 0360 04       		.uleb128 0x4
 1269 0361 A4040000 		.4byte	.LASF54
 1270 0365 0A       		.byte	0xa
 1271 0366 2C       		.byte	0x2c
 1272 0367 6B030000 		.4byte	0x36b
 1273 036b 05       		.uleb128 0x5
 1274 036c A4040000 		.4byte	.LASF54
 1275 0370 10       		.byte	0x10
 1276 0371 0A       		.byte	0xa
 1277 0372 31       		.byte	0x31
 1278 0373 A8030000 		.4byte	0x3a8
 1279 0377 06       		.uleb128 0x6
 1280 0378 00020000 		.4byte	.LASF55
 1281 037c 0A       		.byte	0xa
 1282 037d 32       		.byte	0x32
 1283 037e A8030000 		.4byte	0x3a8
 1284 0382 00       		.byte	0
 1285 0383 06       		.uleb128 0x6
 1286 0384 7F030000 		.4byte	.LASF56
 1287 0388 0A       		.byte	0xa
 1288 0389 35       		.byte	0x35
 1289 038a F8010000 		.4byte	0x1f8
 1290 038e 04       		.byte	0x4
 1291 038f 06       		.uleb128 0x6
 1292 0390 7E020000 		.4byte	.LASF57
 1293 0394 0A       		.byte	0xa
 1294 0395 37       		.byte	0x37
 1295 0396 F6000000 		.4byte	0xf6
ARM GAS  /tmp/ccWwr2wE.s 			page 24


 1296 039a 08       		.byte	0x8
 1297 039b 06       		.uleb128 0x6
 1298 039c 8B030000 		.4byte	.LASF58
 1299 03a0 0A       		.byte	0xa
 1300 03a1 3A       		.byte	0x3a
 1301 03a2 01010000 		.4byte	0x101
 1302 03a6 0C       		.byte	0xc
 1303 03a7 00       		.byte	0
 1304 03a8 09       		.uleb128 0x9
 1305 03a9 04       		.byte	0x4
 1306 03aa 60030000 		.4byte	0x360
 1307 03ae 05       		.uleb128 0x5
 1308 03af 31010000 		.4byte	.LASF59
 1309 03b3 04       		.byte	0x4
 1310 03b4 0A       		.byte	0xa
 1311 03b5 41       		.byte	0x41
 1312 03b6 C7030000 		.4byte	0x3c7
 1313 03ba 06       		.uleb128 0x6
 1314 03bb 7E040000 		.4byte	.LASF60
 1315 03bf 0A       		.byte	0xa
 1316 03c0 42       		.byte	0x42
 1317 03c1 A8030000 		.4byte	0x3a8
 1318 03c5 00       		.byte	0
 1319 03c6 00       		.byte	0
 1320 03c7 04       		.uleb128 0x4
 1321 03c8 31010000 		.4byte	.LASF59
 1322 03cc 0A       		.byte	0xa
 1323 03cd 45       		.byte	0x45
 1324 03ce AE030000 		.4byte	0x3ae
 1325 03d2 04       		.uleb128 0x4
 1326 03d3 3D010000 		.4byte	.LASF61
 1327 03d7 0A       		.byte	0xa
 1328 03d8 4A       		.byte	0x4a
 1329 03d9 DD030000 		.4byte	0x3dd
 1330 03dd 09       		.uleb128 0x9
 1331 03de 04       		.byte	0x4
 1332 03df E3030000 		.4byte	0x3e3
 1333 03e3 0D       		.uleb128 0xd
 1334 03e4 EE030000 		.4byte	0x3ee
 1335 03e8 0E       		.uleb128 0xe
 1336 03e9 EB000000 		.4byte	0xeb
 1337 03ed 00       		.byte	0
 1338 03ee 0F       		.uleb128 0xf
 1339 03ef 04       		.byte	0x4
 1340 03f0 06       		.byte	0x6
 1341 03f1 96       		.byte	0x96
 1342 03f2 23040000 		.4byte	0x423
 1343 03f6 10       		.uleb128 0x10
 1344 03f7 06000000 		.4byte	.LASF62
 1345 03fb 06       		.byte	0x6
 1346 03fc 9D       		.byte	0x9d
 1347 03fd E0000000 		.4byte	0xe0
 1348 0401 10       		.uleb128 0x10
 1349 0402 49000000 		.4byte	.LASF63
 1350 0406 06       		.byte	0x6
 1351 0407 A4       		.byte	0xa4
 1352 0408 E0000000 		.4byte	0xe0
ARM GAS  /tmp/ccWwr2wE.s 			page 25


 1353 040c 10       		.uleb128 0x10
 1354 040d C6040000 		.4byte	.LASF64
 1355 0411 06       		.byte	0x6
 1356 0412 AB       		.byte	0xab
 1357 0413 34020000 		.4byte	0x234
 1358 0417 10       		.uleb128 0x10
 1359 0418 ED030000 		.4byte	.LASF65
 1360 041c 06       		.byte	0x6
 1361 041d B2       		.byte	0xb2
 1362 041e F6000000 		.4byte	0xf6
 1363 0422 00       		.byte	0
 1364 0423 09       		.uleb128 0x9
 1365 0424 04       		.byte	0x4
 1366 0425 55030000 		.4byte	0x355
 1367 0429 11       		.uleb128 0x11
 1368 042a FB040000 		.4byte	.LASF83
 1369 042e 01       		.byte	0x1
 1370 042f FB       		.byte	0xfb
 1371 0430 01       		.byte	0x1
 1372 0431 4B040000 		.4byte	0x44b
 1373 0435 12       		.uleb128 0x12
 1374 0436 747000   		.ascii	"tp\000"
 1375 0439 01       		.byte	0x1
 1376 043a FB       		.byte	0xfb
 1377 043b F8010000 		.4byte	0x1f8
 1378 043f 13       		.uleb128 0x13
 1379 0440 05010000 		.4byte	.LASF66
 1380 0444 01       		.byte	0x1
 1381 0445 FB       		.byte	0xfb
 1382 0446 F6000000 		.4byte	0xf6
 1383 044a 00       		.byte	0
 1384 044b 14       		.uleb128 0x14
 1385 044c E8010000 		.4byte	.LASF67
 1386 0450 01       		.byte	0x1
 1387 0451 55       		.byte	0x55
 1388 0452 00000000 		.4byte	.LFB0
 1389 0456 24000000 		.4byte	.LFE0-.LFB0
 1390 045a 01       		.uleb128 0x1
 1391 045b 9C       		.byte	0x9c
 1392 045c 8A040000 		.4byte	0x48a
 1393 0460 15       		.uleb128 0x15
 1394 0461 65737000 		.ascii	"esp\000"
 1395 0465 01       		.byte	0x1
 1396 0466 55       		.byte	0x55
 1397 0467 8A040000 		.4byte	0x48a
 1398 046b 00000000 		.4byte	.LLST0
 1399 046f 16       		.uleb128 0x16
 1400 0470 656C7000 		.ascii	"elp\000"
 1401 0474 01       		.byte	0x1
 1402 0475 55       		.byte	0x55
 1403 0476 A8030000 		.4byte	0x3a8
 1404 047a 01       		.uleb128 0x1
 1405 047b 51       		.byte	0x51
 1406 047c 17       		.uleb128 0x17
 1407 047d 05010000 		.4byte	.LASF66
 1408 0481 01       		.byte	0x1
 1409 0482 55       		.byte	0x55
ARM GAS  /tmp/ccWwr2wE.s 			page 26


 1410 0483 F6000000 		.4byte	0xf6
 1411 0487 01       		.uleb128 0x1
 1412 0488 52       		.byte	0x52
 1413 0489 00       		.byte	0
 1414 048a 09       		.uleb128 0x9
 1415 048b 04       		.byte	0x4
 1416 048c C7030000 		.4byte	0x3c7
 1417 0490 14       		.uleb128 0x14
 1418 0491 08020000 		.4byte	.LASF68
 1419 0495 01       		.byte	0x1
 1420 0496 6F       		.byte	0x6f
 1421 0497 00000000 		.4byte	.LFB1
 1422 049b 2A000000 		.4byte	.LFE1-.LFB1
 1423 049f 01       		.uleb128 0x1
 1424 04a0 9C       		.byte	0x9c
 1425 04a1 CD040000 		.4byte	0x4cd
 1426 04a5 16       		.uleb128 0x16
 1427 04a6 65737000 		.ascii	"esp\000"
 1428 04aa 01       		.byte	0x1
 1429 04ab 6F       		.byte	0x6f
 1430 04ac 8A040000 		.4byte	0x48a
 1431 04b0 01       		.uleb128 0x1
 1432 04b1 50       		.byte	0x50
 1433 04b2 16       		.uleb128 0x16
 1434 04b3 656C7000 		.ascii	"elp\000"
 1435 04b7 01       		.byte	0x1
 1436 04b8 6F       		.byte	0x6f
 1437 04b9 A8030000 		.4byte	0x3a8
 1438 04bd 01       		.uleb128 0x1
 1439 04be 51       		.byte	0x51
 1440 04bf 18       		.uleb128 0x18
 1441 04c0 7000     		.ascii	"p\000"
 1442 04c2 01       		.byte	0x1
 1443 04c3 70       		.byte	0x70
 1444 04c4 A8030000 		.4byte	0x3a8
 1445 04c8 21000000 		.4byte	.LLST1
 1446 04cc 00       		.byte	0
 1447 04cd 19       		.uleb128 0x19
 1448 04ce BE010000 		.4byte	.LASF69
 1449 04d2 01       		.byte	0x1
 1450 04d3 88       		.byte	0x88
 1451 04d4 F6000000 		.4byte	0xf6
 1452 04d8 00000000 		.4byte	.LFB2
 1453 04dc 20000000 		.4byte	.LFE2-.LFB2
 1454 04e0 01       		.uleb128 0x1
 1455 04e1 9C       		.byte	0x9c
 1456 04e2 03050000 		.4byte	0x503
 1457 04e6 1A       		.uleb128 0x1a
 1458 04e7 05010000 		.4byte	.LASF66
 1459 04eb 01       		.byte	0x1
 1460 04ec 88       		.byte	0x88
 1461 04ed F6000000 		.4byte	0xf6
 1462 04f1 3F000000 		.4byte	.LLST2
 1463 04f5 18       		.uleb128 0x18
 1464 04f6 6D00     		.ascii	"m\000"
 1465 04f8 01       		.byte	0x1
 1466 04f9 89       		.byte	0x89
ARM GAS  /tmp/ccWwr2wE.s 			page 27


 1467 04fa F6000000 		.4byte	0xf6
 1468 04fe 60000000 		.4byte	.LLST3
 1469 0502 00       		.byte	0
 1470 0503 19       		.uleb128 0x19
 1471 0504 3A000000 		.4byte	.LASF70
 1472 0508 01       		.byte	0x1
 1473 0509 9D       		.byte	0x9d
 1474 050a F6000000 		.4byte	0xf6
 1475 050e 00000000 		.4byte	.LFB3
 1476 0512 1C000000 		.4byte	.LFE3-.LFB3
 1477 0516 01       		.uleb128 0x1
 1478 0517 9C       		.byte	0x9c
 1479 0518 2C050000 		.4byte	0x52c
 1480 051c 1A       		.uleb128 0x1a
 1481 051d 05010000 		.4byte	.LASF66
 1482 0521 01       		.byte	0x1
 1483 0522 9D       		.byte	0x9d
 1484 0523 F6000000 		.4byte	0xf6
 1485 0527 83000000 		.4byte	.LLST4
 1486 052b 00       		.byte	0
 1487 052c 19       		.uleb128 0x19
 1488 052d CD040000 		.4byte	.LASF71
 1489 0531 01       		.byte	0x1
 1490 0532 D1       		.byte	0xd1
 1491 0533 01010000 		.4byte	0x101
 1492 0537 00000000 		.4byte	.LFB5
 1493 053b 16000000 		.4byte	.LFE5-.LFB5
 1494 053f 01       		.uleb128 0x1
 1495 0540 9C       		.byte	0x9c
 1496 0541 62050000 		.4byte	0x562
 1497 0545 15       		.uleb128 0x15
 1498 0546 656C7000 		.ascii	"elp\000"
 1499 054a 01       		.byte	0x1
 1500 054b D1       		.byte	0xd1
 1501 054c A8030000 		.4byte	0x3a8
 1502 0550 AF000000 		.4byte	.LLST5
 1503 0554 1B       		.uleb128 0x1b
 1504 0555 9E040000 		.4byte	.LASF72
 1505 0559 01       		.byte	0x1
 1506 055a D2       		.byte	0xd2
 1507 055b 01010000 		.4byte	0x101
 1508 055f 01       		.uleb128 0x1
 1509 0560 50       		.byte	0x50
 1510 0561 00       		.byte	0
 1511 0562 1C       		.uleb128 0x1c
 1512 0563 29040000 		.4byte	0x429
 1513 0567 00000000 		.4byte	.LFB7
 1514 056b 2E000000 		.4byte	.LFE7-.LFB7
 1515 056f 01       		.uleb128 0x1
 1516 0570 9C       		.byte	0x9c
 1517 0571 B5050000 		.4byte	0x5b5
 1518 0575 1D       		.uleb128 0x1d
 1519 0576 35040000 		.4byte	0x435
 1520 057a CD000000 		.4byte	.LLST6
 1521 057e 1D       		.uleb128 0x1d
 1522 057f 3F040000 		.4byte	0x43f
 1523 0583 F9000000 		.4byte	.LLST7
ARM GAS  /tmp/ccWwr2wE.s 			page 28


 1524 0587 1E       		.uleb128 0x1e
 1525 0588 1C000000 		.4byte	.LBB4
 1526 058c 0A000000 		.4byte	.LBE4-.LBB4
 1527 0590 1D       		.uleb128 0x1d
 1528 0591 3F040000 		.4byte	0x43f
 1529 0595 1A010000 		.4byte	.LLST8
 1530 0599 1D       		.uleb128 0x1d
 1531 059a 35040000 		.4byte	0x435
 1532 059e 30010000 		.4byte	.LLST9
 1533 05a2 1F       		.uleb128 0x1f
 1534 05a3 20000000 		.4byte	.LVL16
 1535 05a7 7F080000 		.4byte	0x87f
 1536 05ab 20       		.uleb128 0x20
 1537 05ac 01       		.uleb128 0x1
 1538 05ad 50       		.byte	0x50
 1539 05ae 03       		.uleb128 0x3
 1540 05af F3       		.byte	0xf3
 1541 05b0 01       		.uleb128 0x1
 1542 05b1 50       		.byte	0x50
 1543 05b2 00       		.byte	0
 1544 05b3 00       		.byte	0
 1545 05b4 00       		.byte	0
 1546 05b5 14       		.uleb128 0x14
 1547 05b6 D4000000 		.4byte	.LASF73
 1548 05ba 01       		.byte	0x1
 1549 05bb B8       		.byte	0xb8
 1550 05bc 00000000 		.4byte	.LFB4
 1551 05c0 22000000 		.4byte	.LFE4-.LFB4
 1552 05c4 01       		.uleb128 0x1
 1553 05c5 9C       		.byte	0x9c
 1554 05c6 FF050000 		.4byte	0x5ff
 1555 05ca 15       		.uleb128 0x15
 1556 05cb 65737000 		.ascii	"esp\000"
 1557 05cf 01       		.byte	0x1
 1558 05d0 B8       		.byte	0xb8
 1559 05d1 8A040000 		.4byte	0x48a
 1560 05d5 51010000 		.4byte	.LLST10
 1561 05d9 1A       		.uleb128 0x1a
 1562 05da 9E040000 		.4byte	.LASF72
 1563 05de 01       		.byte	0x1
 1564 05df B8       		.byte	0xb8
 1565 05e0 01010000 		.4byte	0x101
 1566 05e4 6F010000 		.4byte	.LLST11
 1567 05e8 21       		.uleb128 0x21
 1568 05e9 656C7000 		.ascii	"elp\000"
 1569 05ed 01       		.byte	0x1
 1570 05ee B9       		.byte	0xb9
 1571 05ef A8030000 		.4byte	0x3a8
 1572 05f3 01       		.uleb128 0x1
 1573 05f4 54       		.byte	0x54
 1574 05f5 22       		.uleb128 0x22
 1575 05f6 1A000000 		.4byte	.LVL21
 1576 05fa 29040000 		.4byte	0x429
 1577 05fe 00       		.byte	0
 1578 05ff 14       		.uleb128 0x14
 1579 0600 17000000 		.4byte	.LASF74
 1580 0604 01       		.byte	0x1
ARM GAS  /tmp/ccWwr2wE.s 			page 29


 1581 0605 E5       		.byte	0xe5
 1582 0606 00000000 		.4byte	.LFB6
 1583 060a 14000000 		.4byte	.LFE6-.LFB6
 1584 060e 01       		.uleb128 0x1
 1585 060f 9C       		.byte	0x9c
 1586 0610 57060000 		.4byte	0x657
 1587 0614 15       		.uleb128 0x15
 1588 0615 747000   		.ascii	"tp\000"
 1589 0618 01       		.byte	0x1
 1590 0619 E5       		.byte	0xe5
 1591 061a F8010000 		.4byte	0x1f8
 1592 061e 8D010000 		.4byte	.LLST12
 1593 0622 1A       		.uleb128 0x1a
 1594 0623 05010000 		.4byte	.LASF66
 1595 0627 01       		.byte	0x1
 1596 0628 E5       		.byte	0xe5
 1597 0629 F6000000 		.4byte	0xf6
 1598 062d AE010000 		.4byte	.LLST13
 1599 0631 23       		.uleb128 0x23
 1600 0632 0A000000 		.4byte	.LVL24
 1601 0636 29040000 		.4byte	0x429
 1602 063a 4D060000 		.4byte	0x64d
 1603 063e 20       		.uleb128 0x20
 1604 063f 01       		.uleb128 0x1
 1605 0640 51       		.byte	0x51
 1606 0641 03       		.uleb128 0x3
 1607 0642 F3       		.byte	0xf3
 1608 0643 01       		.uleb128 0x1
 1609 0644 51       		.byte	0x51
 1610 0645 20       		.uleb128 0x20
 1611 0646 01       		.uleb128 0x1
 1612 0647 50       		.byte	0x50
 1613 0648 03       		.uleb128 0x3
 1614 0649 F3       		.byte	0xf3
 1615 064a 01       		.uleb128 0x1
 1616 064b 50       		.byte	0x50
 1617 064c 00       		.byte	0
 1618 064d 22       		.uleb128 0x22
 1619 064e 0E000000 		.4byte	.LVL25
 1620 0652 94080000 		.4byte	0x894
 1621 0656 00       		.byte	0
 1622 0657 24       		.uleb128 0x24
 1623 0658 13010000 		.4byte	.LASF75
 1624 065c 01       		.byte	0x1
 1625 065d 1601     		.2byte	0x116
 1626 065f 00000000 		.4byte	.LFB8
 1627 0663 14000000 		.4byte	.LFE8-.LFB8
 1628 0667 01       		.uleb128 0x1
 1629 0668 9C       		.byte	0x9c
 1630 0669 B3060000 		.4byte	0x6b3
 1631 066d 25       		.uleb128 0x25
 1632 066e 65737000 		.ascii	"esp\000"
 1633 0672 01       		.byte	0x1
 1634 0673 1601     		.2byte	0x116
 1635 0675 8A040000 		.4byte	0x48a
 1636 0679 CF010000 		.4byte	.LLST14
 1637 067d 26       		.uleb128 0x26
ARM GAS  /tmp/ccWwr2wE.s 			page 30


 1638 067e 9E040000 		.4byte	.LASF72
 1639 0682 01       		.byte	0x1
 1640 0683 1601     		.2byte	0x116
 1641 0685 01010000 		.4byte	0x101
 1642 0689 F0010000 		.4byte	.LLST15
 1643 068d 23       		.uleb128 0x23
 1644 068e 0A000000 		.4byte	.LVL27
 1645 0692 B5050000 		.4byte	0x5b5
 1646 0696 A9060000 		.4byte	0x6a9
 1647 069a 20       		.uleb128 0x20
 1648 069b 01       		.uleb128 0x1
 1649 069c 51       		.byte	0x51
 1650 069d 03       		.uleb128 0x3
 1651 069e F3       		.byte	0xf3
 1652 069f 01       		.uleb128 0x1
 1653 06a0 51       		.byte	0x51
 1654 06a1 20       		.uleb128 0x20
 1655 06a2 01       		.uleb128 0x1
 1656 06a3 50       		.byte	0x50
 1657 06a4 03       		.uleb128 0x3
 1658 06a5 F3       		.byte	0xf3
 1659 06a6 01       		.uleb128 0x1
 1660 06a7 50       		.byte	0x50
 1661 06a8 00       		.byte	0
 1662 06a9 22       		.uleb128 0x22
 1663 06aa 0E000000 		.4byte	.LVL28
 1664 06ae 94080000 		.4byte	0x894
 1665 06b2 00       		.byte	0
 1666 06b3 27       		.uleb128 0x27
 1667 06b4 D6030000 		.4byte	.LASF76
 1668 06b8 01       		.byte	0x1
 1669 06b9 2901     		.2byte	0x129
 1670 06bb 01010000 		.4byte	0x101
 1671 06bf 00000000 		.4byte	.LFB9
 1672 06c3 0A000000 		.4byte	.LFE9-.LFB9
 1673 06c7 01       		.uleb128 0x1
 1674 06c8 9C       		.byte	0x9c
 1675 06c9 EC060000 		.4byte	0x6ec
 1676 06cd 25       		.uleb128 0x25
 1677 06ce 656C7000 		.ascii	"elp\000"
 1678 06d2 01       		.byte	0x1
 1679 06d3 2901     		.2byte	0x129
 1680 06d5 A8030000 		.4byte	0x3a8
 1681 06d9 11020000 		.4byte	.LLST16
 1682 06dd 28       		.uleb128 0x28
 1683 06de 9E040000 		.4byte	.LASF72
 1684 06e2 01       		.byte	0x1
 1685 06e3 2A01     		.2byte	0x12a
 1686 06e5 01010000 		.4byte	0x101
 1687 06e9 01       		.uleb128 0x1
 1688 06ea 50       		.byte	0x50
 1689 06eb 00       		.byte	0
 1690 06ec 24       		.uleb128 0x24
 1691 06ed 4E020000 		.4byte	.LASF77
 1692 06f1 01       		.byte	0x1
 1693 06f2 3B01     		.2byte	0x13b
 1694 06f4 00000000 		.4byte	.LFB10
ARM GAS  /tmp/ccWwr2wE.s 			page 31


 1695 06f8 2E000000 		.4byte	.LFE10-.LFB10
 1696 06fc 01       		.uleb128 0x1
 1697 06fd 9C       		.byte	0x9c
 1698 06fe 3F070000 		.4byte	0x73f
 1699 0702 26       		.uleb128 0x26
 1700 0703 86020000 		.4byte	.LASF78
 1701 0707 01       		.byte	0x1
 1702 0708 3B01     		.2byte	0x13b
 1703 070a 3F070000 		.4byte	0x73f
 1704 070e 2F020000 		.4byte	.LLST17
 1705 0712 26       		.uleb128 0x26
 1706 0713 05010000 		.4byte	.LASF66
 1707 0717 01       		.byte	0x1
 1708 0718 3B01     		.2byte	0x13b
 1709 071a F6000000 		.4byte	0xf6
 1710 071e 4D020000 		.4byte	.LLST18
 1711 0722 29       		.uleb128 0x29
 1712 0723 65696400 		.ascii	"eid\000"
 1713 0727 01       		.byte	0x1
 1714 0728 3C01     		.2byte	0x13c
 1715 072a EB000000 		.4byte	0xeb
 1716 072e 6B020000 		.4byte	.LLST19
 1717 0732 2A       		.uleb128 0x2a
 1718 0733 28000000 		.4byte	.LVL37
 1719 0737 20       		.uleb128 0x20
 1720 0738 01       		.uleb128 0x1
 1721 0739 50       		.byte	0x50
 1722 073a 02       		.uleb128 0x2
 1723 073b 74       		.byte	0x74
 1724 073c 7F       		.sleb128 -1
 1725 073d 00       		.byte	0
 1726 073e 00       		.byte	0
 1727 073f 09       		.uleb128 0x9
 1728 0740 04       		.byte	0x4
 1729 0741 45070000 		.4byte	0x745
 1730 0745 2B       		.uleb128 0x2b
 1731 0746 D2030000 		.4byte	0x3d2
 1732 074a 27       		.uleb128 0x27
 1733 074b B2040000 		.4byte	.LASF79
 1734 074f 01       		.byte	0x1
 1735 0750 BE01     		.2byte	0x1be
 1736 0752 F6000000 		.4byte	0xf6
 1737 0756 00000000 		.4byte	.LFB11
 1738 075a 4C000000 		.4byte	.LFE11-.LFB11
 1739 075e 01       		.uleb128 0x1
 1740 075f 9C       		.byte	0x9c
 1741 0760 B2070000 		.4byte	0x7b2
 1742 0764 26       		.uleb128 0x26
 1743 0765 05010000 		.4byte	.LASF66
 1744 0769 01       		.byte	0x1
 1745 076a BE01     		.2byte	0x1be
 1746 076c F6000000 		.4byte	0xf6
 1747 0770 AD020000 		.4byte	.LLST20
 1748 0774 26       		.uleb128 0x26
 1749 0775 6F020000 		.4byte	.LASF80
 1750 0779 01       		.byte	0x1
 1751 077a BE01     		.2byte	0x1be
ARM GAS  /tmp/ccWwr2wE.s 			page 32


 1752 077c 0C010000 		.4byte	0x10c
 1753 0780 D9020000 		.4byte	.LLST21
 1754 0784 29       		.uleb128 0x29
 1755 0785 63747000 		.ascii	"ctp\000"
 1756 0789 01       		.byte	0x1
 1757 078a BF01     		.2byte	0x1bf
 1758 078c F8010000 		.4byte	0x1f8
 1759 0790 FA020000 		.4byte	.LLST22
 1760 0794 29       		.uleb128 0x29
 1761 0795 6D00     		.ascii	"m\000"
 1762 0797 01       		.byte	0x1
 1763 0798 C001     		.2byte	0x1c0
 1764 079a F6000000 		.4byte	0xf6
 1765 079e 0D030000 		.4byte	.LLST23
 1766 07a2 1F       		.uleb128 0x1f
 1767 07a3 26000000 		.4byte	.LVL45
 1768 07a7 9B080000 		.4byte	0x89b
 1769 07ab 20       		.uleb128 0x20
 1770 07ac 01       		.uleb128 0x1
 1771 07ad 50       		.byte	0x50
 1772 07ae 01       		.uleb128 0x1
 1773 07af 38       		.byte	0x38
 1774 07b0 00       		.byte	0
 1775 07b1 00       		.byte	0
 1776 07b2 27       		.uleb128 0x27
 1777 07b3 52000000 		.4byte	.LASF81
 1778 07b7 01       		.byte	0x1
 1779 07b8 E901     		.2byte	0x1e9
 1780 07ba F6000000 		.4byte	0xf6
 1781 07be 00000000 		.4byte	.LFB12
 1782 07c2 44000000 		.4byte	.LFE12-.LFB12
 1783 07c6 01       		.uleb128 0x1
 1784 07c7 9C       		.byte	0x9c
 1785 07c8 1A080000 		.4byte	0x81a
 1786 07cc 26       		.uleb128 0x26
 1787 07cd 05010000 		.4byte	.LASF66
 1788 07d1 01       		.byte	0x1
 1789 07d2 E901     		.2byte	0x1e9
 1790 07d4 F6000000 		.4byte	0xf6
 1791 07d8 51030000 		.4byte	.LLST24
 1792 07dc 26       		.uleb128 0x26
 1793 07dd 6F020000 		.4byte	.LASF80
 1794 07e1 01       		.byte	0x1
 1795 07e2 E901     		.2byte	0x1e9
 1796 07e4 0C010000 		.4byte	0x10c
 1797 07e8 7D030000 		.4byte	.LLST25
 1798 07ec 29       		.uleb128 0x29
 1799 07ed 63747000 		.ascii	"ctp\000"
 1800 07f1 01       		.byte	0x1
 1801 07f2 EA01     		.2byte	0x1ea
 1802 07f4 F8010000 		.4byte	0x1f8
 1803 07f8 9E030000 		.4byte	.LLST26
 1804 07fc 29       		.uleb128 0x29
 1805 07fd 6D00     		.ascii	"m\000"
 1806 07ff 01       		.byte	0x1
 1807 0800 EB01     		.2byte	0x1eb
 1808 0802 F6000000 		.4byte	0xf6
ARM GAS  /tmp/ccWwr2wE.s 			page 33


 1809 0806 B1030000 		.4byte	.LLST27
 1810 080a 1F       		.uleb128 0x1f
 1811 080b 26000000 		.4byte	.LVL56
 1812 080f 9B080000 		.4byte	0x89b
 1813 0813 20       		.uleb128 0x20
 1814 0814 01       		.uleb128 0x1
 1815 0815 50       		.byte	0x50
 1816 0816 01       		.uleb128 0x1
 1817 0817 38       		.byte	0x38
 1818 0818 00       		.byte	0
 1819 0819 00       		.byte	0
 1820 081a 27       		.uleb128 0x27
 1821 081b 87000000 		.4byte	.LASF82
 1822 081f 01       		.byte	0x1
 1823 0820 1202     		.2byte	0x212
 1824 0822 F6000000 		.4byte	0xf6
 1825 0826 00000000 		.4byte	.LFB13
 1826 082a 48000000 		.4byte	.LFE13-.LFB13
 1827 082e 01       		.uleb128 0x1
 1828 082f 9C       		.byte	0x9c
 1829 0830 74080000 		.4byte	0x874
 1830 0834 26       		.uleb128 0x26
 1831 0835 05010000 		.4byte	.LASF66
 1832 0839 01       		.byte	0x1
 1833 083a 1202     		.2byte	0x212
 1834 083c F6000000 		.4byte	0xf6
 1835 0840 DF030000 		.4byte	.LLST28
 1836 0844 26       		.uleb128 0x26
 1837 0845 6F020000 		.4byte	.LASF80
 1838 0849 01       		.byte	0x1
 1839 084a 1202     		.2byte	0x212
 1840 084c 0C010000 		.4byte	0x10c
 1841 0850 0B040000 		.4byte	.LLST29
 1842 0854 29       		.uleb128 0x29
 1843 0855 63747000 		.ascii	"ctp\000"
 1844 0859 01       		.byte	0x1
 1845 085a 1302     		.2byte	0x213
 1846 085c F8010000 		.4byte	0x1f8
 1847 0860 2C040000 		.4byte	.LLST30
 1848 0864 1F       		.uleb128 0x1f
 1849 0865 28000000 		.4byte	.LVL63
 1850 0869 9B080000 		.4byte	0x89b
 1851 086d 20       		.uleb128 0x20
 1852 086e 01       		.uleb128 0x1
 1853 086f 50       		.byte	0x50
 1854 0870 01       		.uleb128 0x1
 1855 0871 39       		.byte	0x39
 1856 0872 00       		.byte	0
 1857 0873 00       		.byte	0
 1858 0874 2C       		.uleb128 0x2c
 1859 0875 90040000 		.4byte	.LASF88
 1860 0879 08       		.byte	0x8
 1861 087a 6F       		.byte	0x6f
 1862 087b 13030000 		.4byte	0x313
 1863 087f 2D       		.uleb128 0x2d
 1864 0880 26040000 		.4byte	.LASF89
 1865 0884 08       		.byte	0x8
ARM GAS  /tmp/ccWwr2wE.s 			page 34


 1866 0885 90       		.byte	0x90
 1867 0886 F8010000 		.4byte	0x1f8
 1868 088a 94080000 		.4byte	0x894
 1869 088e 0E       		.uleb128 0xe
 1870 088f F8010000 		.4byte	0x1f8
 1871 0893 00       		.byte	0
 1872 0894 2E       		.uleb128 0x2e
 1873 0895 E9000000 		.4byte	.LASF90
 1874 0899 08       		.byte	0x8
 1875 089a 9C       		.byte	0x9c
 1876 089b 2F       		.uleb128 0x2f
 1877 089c BF000000 		.4byte	.LASF84
 1878 08a0 08       		.byte	0x8
 1879 08a1 96       		.byte	0x96
 1880 08a2 E0000000 		.4byte	0xe0
 1881 08a6 0E       		.uleb128 0xe
 1882 08a7 BF000000 		.4byte	0xbf
 1883 08ab 0E       		.uleb128 0xe
 1884 08ac 0C010000 		.4byte	0x10c
 1885 08b0 00       		.byte	0
 1886 08b1 00       		.byte	0
 1887              		.section	.debug_abbrev,"",%progbits
 1888              	.Ldebug_abbrev0:
 1889 0000 01       		.uleb128 0x1
 1890 0001 11       		.uleb128 0x11
 1891 0002 01       		.byte	0x1
 1892 0003 25       		.uleb128 0x25
 1893 0004 0E       		.uleb128 0xe
 1894 0005 13       		.uleb128 0x13
 1895 0006 0B       		.uleb128 0xb
 1896 0007 03       		.uleb128 0x3
 1897 0008 0E       		.uleb128 0xe
 1898 0009 1B       		.uleb128 0x1b
 1899 000a 0E       		.uleb128 0xe
 1900 000b 55       		.uleb128 0x55
 1901 000c 17       		.uleb128 0x17
 1902 000d 11       		.uleb128 0x11
 1903 000e 01       		.uleb128 0x1
 1904 000f 10       		.uleb128 0x10
 1905 0010 17       		.uleb128 0x17
 1906 0011 00       		.byte	0
 1907 0012 00       		.byte	0
 1908 0013 02       		.uleb128 0x2
 1909 0014 24       		.uleb128 0x24
 1910 0015 00       		.byte	0
 1911 0016 0B       		.uleb128 0xb
 1912 0017 0B       		.uleb128 0xb
 1913 0018 3E       		.uleb128 0x3e
 1914 0019 0B       		.uleb128 0xb
 1915 001a 03       		.uleb128 0x3
 1916 001b 08       		.uleb128 0x8
 1917 001c 00       		.byte	0
 1918 001d 00       		.byte	0
 1919 001e 03       		.uleb128 0x3
 1920 001f 24       		.uleb128 0x24
 1921 0020 00       		.byte	0
 1922 0021 0B       		.uleb128 0xb
ARM GAS  /tmp/ccWwr2wE.s 			page 35


 1923 0022 0B       		.uleb128 0xb
 1924 0023 3E       		.uleb128 0x3e
 1925 0024 0B       		.uleb128 0xb
 1926 0025 03       		.uleb128 0x3
 1927 0026 0E       		.uleb128 0xe
 1928 0027 00       		.byte	0
 1929 0028 00       		.byte	0
 1930 0029 04       		.uleb128 0x4
 1931 002a 16       		.uleb128 0x16
 1932 002b 00       		.byte	0
 1933 002c 03       		.uleb128 0x3
 1934 002d 0E       		.uleb128 0xe
 1935 002e 3A       		.uleb128 0x3a
 1936 002f 0B       		.uleb128 0xb
 1937 0030 3B       		.uleb128 0x3b
 1938 0031 0B       		.uleb128 0xb
 1939 0032 49       		.uleb128 0x49
 1940 0033 13       		.uleb128 0x13
 1941 0034 00       		.byte	0
 1942 0035 00       		.byte	0
 1943 0036 05       		.uleb128 0x5
 1944 0037 13       		.uleb128 0x13
 1945 0038 01       		.byte	0x1
 1946 0039 03       		.uleb128 0x3
 1947 003a 0E       		.uleb128 0xe
 1948 003b 0B       		.uleb128 0xb
 1949 003c 0B       		.uleb128 0xb
 1950 003d 3A       		.uleb128 0x3a
 1951 003e 0B       		.uleb128 0xb
 1952 003f 3B       		.uleb128 0x3b
 1953 0040 0B       		.uleb128 0xb
 1954 0041 01       		.uleb128 0x1
 1955 0042 13       		.uleb128 0x13
 1956 0043 00       		.byte	0
 1957 0044 00       		.byte	0
 1958 0045 06       		.uleb128 0x6
 1959 0046 0D       		.uleb128 0xd
 1960 0047 00       		.byte	0
 1961 0048 03       		.uleb128 0x3
 1962 0049 0E       		.uleb128 0xe
 1963 004a 3A       		.uleb128 0x3a
 1964 004b 0B       		.uleb128 0xb
 1965 004c 3B       		.uleb128 0x3b
 1966 004d 0B       		.uleb128 0xb
 1967 004e 49       		.uleb128 0x49
 1968 004f 13       		.uleb128 0x13
 1969 0050 38       		.uleb128 0x38
 1970 0051 0B       		.uleb128 0xb
 1971 0052 00       		.byte	0
 1972 0053 00       		.byte	0
 1973 0054 07       		.uleb128 0x7
 1974 0055 0D       		.uleb128 0xd
 1975 0056 00       		.byte	0
 1976 0057 03       		.uleb128 0x3
 1977 0058 08       		.uleb128 0x8
 1978 0059 3A       		.uleb128 0x3a
 1979 005a 0B       		.uleb128 0xb
ARM GAS  /tmp/ccWwr2wE.s 			page 36


 1980 005b 3B       		.uleb128 0x3b
 1981 005c 0B       		.uleb128 0xb
 1982 005d 49       		.uleb128 0x49
 1983 005e 13       		.uleb128 0x13
 1984 005f 38       		.uleb128 0x38
 1985 0060 0B       		.uleb128 0xb
 1986 0061 00       		.byte	0
 1987 0062 00       		.byte	0
 1988 0063 08       		.uleb128 0x8
 1989 0064 13       		.uleb128 0x13
 1990 0065 01       		.byte	0x1
 1991 0066 0B       		.uleb128 0xb
 1992 0067 0B       		.uleb128 0xb
 1993 0068 3A       		.uleb128 0x3a
 1994 0069 0B       		.uleb128 0xb
 1995 006a 3B       		.uleb128 0x3b
 1996 006b 0B       		.uleb128 0xb
 1997 006c 01       		.uleb128 0x1
 1998 006d 13       		.uleb128 0x13
 1999 006e 00       		.byte	0
 2000 006f 00       		.byte	0
 2001 0070 09       		.uleb128 0x9
 2002 0071 0F       		.uleb128 0xf
 2003 0072 00       		.byte	0
 2004 0073 0B       		.uleb128 0xb
 2005 0074 0B       		.uleb128 0xb
 2006 0075 49       		.uleb128 0x49
 2007 0076 13       		.uleb128 0x13
 2008 0077 00       		.byte	0
 2009 0078 00       		.byte	0
 2010 0079 0A       		.uleb128 0xa
 2011 007a 0F       		.uleb128 0xf
 2012 007b 00       		.byte	0
 2013 007c 0B       		.uleb128 0xb
 2014 007d 0B       		.uleb128 0xb
 2015 007e 00       		.byte	0
 2016 007f 00       		.byte	0
 2017 0080 0B       		.uleb128 0xb
 2018 0081 13       		.uleb128 0x13
 2019 0082 01       		.byte	0x1
 2020 0083 03       		.uleb128 0x3
 2021 0084 0E       		.uleb128 0xe
 2022 0085 0B       		.uleb128 0xb
 2023 0086 0B       		.uleb128 0xb
 2024 0087 3A       		.uleb128 0x3a
 2025 0088 0B       		.uleb128 0xb
 2026 0089 3B       		.uleb128 0x3b
 2027 008a 05       		.uleb128 0x5
 2028 008b 01       		.uleb128 0x1
 2029 008c 13       		.uleb128 0x13
 2030 008d 00       		.byte	0
 2031 008e 00       		.byte	0
 2032 008f 0C       		.uleb128 0xc
 2033 0090 0D       		.uleb128 0xd
 2034 0091 00       		.byte	0
 2035 0092 03       		.uleb128 0x3
 2036 0093 08       		.uleb128 0x8
ARM GAS  /tmp/ccWwr2wE.s 			page 37


 2037 0094 3A       		.uleb128 0x3a
 2038 0095 0B       		.uleb128 0xb
 2039 0096 3B       		.uleb128 0x3b
 2040 0097 05       		.uleb128 0x5
 2041 0098 49       		.uleb128 0x49
 2042 0099 13       		.uleb128 0x13
 2043 009a 38       		.uleb128 0x38
 2044 009b 0B       		.uleb128 0xb
 2045 009c 00       		.byte	0
 2046 009d 00       		.byte	0
 2047 009e 0D       		.uleb128 0xd
 2048 009f 15       		.uleb128 0x15
 2049 00a0 01       		.byte	0x1
 2050 00a1 27       		.uleb128 0x27
 2051 00a2 19       		.uleb128 0x19
 2052 00a3 01       		.uleb128 0x1
 2053 00a4 13       		.uleb128 0x13
 2054 00a5 00       		.byte	0
 2055 00a6 00       		.byte	0
 2056 00a7 0E       		.uleb128 0xe
 2057 00a8 05       		.uleb128 0x5
 2058 00a9 00       		.byte	0
 2059 00aa 49       		.uleb128 0x49
 2060 00ab 13       		.uleb128 0x13
 2061 00ac 00       		.byte	0
 2062 00ad 00       		.byte	0
 2063 00ae 0F       		.uleb128 0xf
 2064 00af 17       		.uleb128 0x17
 2065 00b0 01       		.byte	0x1
 2066 00b1 0B       		.uleb128 0xb
 2067 00b2 0B       		.uleb128 0xb
 2068 00b3 3A       		.uleb128 0x3a
 2069 00b4 0B       		.uleb128 0xb
 2070 00b5 3B       		.uleb128 0x3b
 2071 00b6 0B       		.uleb128 0xb
 2072 00b7 01       		.uleb128 0x1
 2073 00b8 13       		.uleb128 0x13
 2074 00b9 00       		.byte	0
 2075 00ba 00       		.byte	0
 2076 00bb 10       		.uleb128 0x10
 2077 00bc 0D       		.uleb128 0xd
 2078 00bd 00       		.byte	0
 2079 00be 03       		.uleb128 0x3
 2080 00bf 0E       		.uleb128 0xe
 2081 00c0 3A       		.uleb128 0x3a
 2082 00c1 0B       		.uleb128 0xb
 2083 00c2 3B       		.uleb128 0x3b
 2084 00c3 0B       		.uleb128 0xb
 2085 00c4 49       		.uleb128 0x49
 2086 00c5 13       		.uleb128 0x13
 2087 00c6 00       		.byte	0
 2088 00c7 00       		.byte	0
 2089 00c8 11       		.uleb128 0x11
 2090 00c9 2E       		.uleb128 0x2e
 2091 00ca 01       		.byte	0x1
 2092 00cb 3F       		.uleb128 0x3f
 2093 00cc 19       		.uleb128 0x19
ARM GAS  /tmp/ccWwr2wE.s 			page 38


 2094 00cd 03       		.uleb128 0x3
 2095 00ce 0E       		.uleb128 0xe
 2096 00cf 3A       		.uleb128 0x3a
 2097 00d0 0B       		.uleb128 0xb
 2098 00d1 3B       		.uleb128 0x3b
 2099 00d2 0B       		.uleb128 0xb
 2100 00d3 27       		.uleb128 0x27
 2101 00d4 19       		.uleb128 0x19
 2102 00d5 20       		.uleb128 0x20
 2103 00d6 0B       		.uleb128 0xb
 2104 00d7 01       		.uleb128 0x1
 2105 00d8 13       		.uleb128 0x13
 2106 00d9 00       		.byte	0
 2107 00da 00       		.byte	0
 2108 00db 12       		.uleb128 0x12
 2109 00dc 05       		.uleb128 0x5
 2110 00dd 00       		.byte	0
 2111 00de 03       		.uleb128 0x3
 2112 00df 08       		.uleb128 0x8
 2113 00e0 3A       		.uleb128 0x3a
 2114 00e1 0B       		.uleb128 0xb
 2115 00e2 3B       		.uleb128 0x3b
 2116 00e3 0B       		.uleb128 0xb
 2117 00e4 49       		.uleb128 0x49
 2118 00e5 13       		.uleb128 0x13
 2119 00e6 00       		.byte	0
 2120 00e7 00       		.byte	0
 2121 00e8 13       		.uleb128 0x13
 2122 00e9 05       		.uleb128 0x5
 2123 00ea 00       		.byte	0
 2124 00eb 03       		.uleb128 0x3
 2125 00ec 0E       		.uleb128 0xe
 2126 00ed 3A       		.uleb128 0x3a
 2127 00ee 0B       		.uleb128 0xb
 2128 00ef 3B       		.uleb128 0x3b
 2129 00f0 0B       		.uleb128 0xb
 2130 00f1 49       		.uleb128 0x49
 2131 00f2 13       		.uleb128 0x13
 2132 00f3 00       		.byte	0
 2133 00f4 00       		.byte	0
 2134 00f5 14       		.uleb128 0x14
 2135 00f6 2E       		.uleb128 0x2e
 2136 00f7 01       		.byte	0x1
 2137 00f8 3F       		.uleb128 0x3f
 2138 00f9 19       		.uleb128 0x19
 2139 00fa 03       		.uleb128 0x3
 2140 00fb 0E       		.uleb128 0xe
 2141 00fc 3A       		.uleb128 0x3a
 2142 00fd 0B       		.uleb128 0xb
 2143 00fe 3B       		.uleb128 0x3b
 2144 00ff 0B       		.uleb128 0xb
 2145 0100 27       		.uleb128 0x27
 2146 0101 19       		.uleb128 0x19
 2147 0102 11       		.uleb128 0x11
 2148 0103 01       		.uleb128 0x1
 2149 0104 12       		.uleb128 0x12
 2150 0105 06       		.uleb128 0x6
ARM GAS  /tmp/ccWwr2wE.s 			page 39


 2151 0106 40       		.uleb128 0x40
 2152 0107 18       		.uleb128 0x18
 2153 0108 9742     		.uleb128 0x2117
 2154 010a 19       		.uleb128 0x19
 2155 010b 01       		.uleb128 0x1
 2156 010c 13       		.uleb128 0x13
 2157 010d 00       		.byte	0
 2158 010e 00       		.byte	0
 2159 010f 15       		.uleb128 0x15
 2160 0110 05       		.uleb128 0x5
 2161 0111 00       		.byte	0
 2162 0112 03       		.uleb128 0x3
 2163 0113 08       		.uleb128 0x8
 2164 0114 3A       		.uleb128 0x3a
 2165 0115 0B       		.uleb128 0xb
 2166 0116 3B       		.uleb128 0x3b
 2167 0117 0B       		.uleb128 0xb
 2168 0118 49       		.uleb128 0x49
 2169 0119 13       		.uleb128 0x13
 2170 011a 02       		.uleb128 0x2
 2171 011b 17       		.uleb128 0x17
 2172 011c 00       		.byte	0
 2173 011d 00       		.byte	0
 2174 011e 16       		.uleb128 0x16
 2175 011f 05       		.uleb128 0x5
 2176 0120 00       		.byte	0
 2177 0121 03       		.uleb128 0x3
 2178 0122 08       		.uleb128 0x8
 2179 0123 3A       		.uleb128 0x3a
 2180 0124 0B       		.uleb128 0xb
 2181 0125 3B       		.uleb128 0x3b
 2182 0126 0B       		.uleb128 0xb
 2183 0127 49       		.uleb128 0x49
 2184 0128 13       		.uleb128 0x13
 2185 0129 02       		.uleb128 0x2
 2186 012a 18       		.uleb128 0x18
 2187 012b 00       		.byte	0
 2188 012c 00       		.byte	0
 2189 012d 17       		.uleb128 0x17
 2190 012e 05       		.uleb128 0x5
 2191 012f 00       		.byte	0
 2192 0130 03       		.uleb128 0x3
 2193 0131 0E       		.uleb128 0xe
 2194 0132 3A       		.uleb128 0x3a
 2195 0133 0B       		.uleb128 0xb
 2196 0134 3B       		.uleb128 0x3b
 2197 0135 0B       		.uleb128 0xb
 2198 0136 49       		.uleb128 0x49
 2199 0137 13       		.uleb128 0x13
 2200 0138 02       		.uleb128 0x2
 2201 0139 18       		.uleb128 0x18
 2202 013a 00       		.byte	0
 2203 013b 00       		.byte	0
 2204 013c 18       		.uleb128 0x18
 2205 013d 34       		.uleb128 0x34
 2206 013e 00       		.byte	0
 2207 013f 03       		.uleb128 0x3
ARM GAS  /tmp/ccWwr2wE.s 			page 40


 2208 0140 08       		.uleb128 0x8
 2209 0141 3A       		.uleb128 0x3a
 2210 0142 0B       		.uleb128 0xb
 2211 0143 3B       		.uleb128 0x3b
 2212 0144 0B       		.uleb128 0xb
 2213 0145 49       		.uleb128 0x49
 2214 0146 13       		.uleb128 0x13
 2215 0147 02       		.uleb128 0x2
 2216 0148 17       		.uleb128 0x17
 2217 0149 00       		.byte	0
 2218 014a 00       		.byte	0
 2219 014b 19       		.uleb128 0x19
 2220 014c 2E       		.uleb128 0x2e
 2221 014d 01       		.byte	0x1
 2222 014e 3F       		.uleb128 0x3f
 2223 014f 19       		.uleb128 0x19
 2224 0150 03       		.uleb128 0x3
 2225 0151 0E       		.uleb128 0xe
 2226 0152 3A       		.uleb128 0x3a
 2227 0153 0B       		.uleb128 0xb
 2228 0154 3B       		.uleb128 0x3b
 2229 0155 0B       		.uleb128 0xb
 2230 0156 27       		.uleb128 0x27
 2231 0157 19       		.uleb128 0x19
 2232 0158 49       		.uleb128 0x49
 2233 0159 13       		.uleb128 0x13
 2234 015a 11       		.uleb128 0x11
 2235 015b 01       		.uleb128 0x1
 2236 015c 12       		.uleb128 0x12
 2237 015d 06       		.uleb128 0x6
 2238 015e 40       		.uleb128 0x40
 2239 015f 18       		.uleb128 0x18
 2240 0160 9742     		.uleb128 0x2117
 2241 0162 19       		.uleb128 0x19
 2242 0163 01       		.uleb128 0x1
 2243 0164 13       		.uleb128 0x13
 2244 0165 00       		.byte	0
 2245 0166 00       		.byte	0
 2246 0167 1A       		.uleb128 0x1a
 2247 0168 05       		.uleb128 0x5
 2248 0169 00       		.byte	0
 2249 016a 03       		.uleb128 0x3
 2250 016b 0E       		.uleb128 0xe
 2251 016c 3A       		.uleb128 0x3a
 2252 016d 0B       		.uleb128 0xb
 2253 016e 3B       		.uleb128 0x3b
 2254 016f 0B       		.uleb128 0xb
 2255 0170 49       		.uleb128 0x49
 2256 0171 13       		.uleb128 0x13
 2257 0172 02       		.uleb128 0x2
 2258 0173 17       		.uleb128 0x17
 2259 0174 00       		.byte	0
 2260 0175 00       		.byte	0
 2261 0176 1B       		.uleb128 0x1b
 2262 0177 34       		.uleb128 0x34
 2263 0178 00       		.byte	0
 2264 0179 03       		.uleb128 0x3
ARM GAS  /tmp/ccWwr2wE.s 			page 41


 2265 017a 0E       		.uleb128 0xe
 2266 017b 3A       		.uleb128 0x3a
 2267 017c 0B       		.uleb128 0xb
 2268 017d 3B       		.uleb128 0x3b
 2269 017e 0B       		.uleb128 0xb
 2270 017f 49       		.uleb128 0x49
 2271 0180 13       		.uleb128 0x13
 2272 0181 02       		.uleb128 0x2
 2273 0182 18       		.uleb128 0x18
 2274 0183 00       		.byte	0
 2275 0184 00       		.byte	0
 2276 0185 1C       		.uleb128 0x1c
 2277 0186 2E       		.uleb128 0x2e
 2278 0187 01       		.byte	0x1
 2279 0188 31       		.uleb128 0x31
 2280 0189 13       		.uleb128 0x13
 2281 018a 11       		.uleb128 0x11
 2282 018b 01       		.uleb128 0x1
 2283 018c 12       		.uleb128 0x12
 2284 018d 06       		.uleb128 0x6
 2285 018e 40       		.uleb128 0x40
 2286 018f 18       		.uleb128 0x18
 2287 0190 9742     		.uleb128 0x2117
 2288 0192 19       		.uleb128 0x19
 2289 0193 01       		.uleb128 0x1
 2290 0194 13       		.uleb128 0x13
 2291 0195 00       		.byte	0
 2292 0196 00       		.byte	0
 2293 0197 1D       		.uleb128 0x1d
 2294 0198 05       		.uleb128 0x5
 2295 0199 00       		.byte	0
 2296 019a 31       		.uleb128 0x31
 2297 019b 13       		.uleb128 0x13
 2298 019c 02       		.uleb128 0x2
 2299 019d 17       		.uleb128 0x17
 2300 019e 00       		.byte	0
 2301 019f 00       		.byte	0
 2302 01a0 1E       		.uleb128 0x1e
 2303 01a1 0B       		.uleb128 0xb
 2304 01a2 01       		.byte	0x1
 2305 01a3 11       		.uleb128 0x11
 2306 01a4 01       		.uleb128 0x1
 2307 01a5 12       		.uleb128 0x12
 2308 01a6 06       		.uleb128 0x6
 2309 01a7 00       		.byte	0
 2310 01a8 00       		.byte	0
 2311 01a9 1F       		.uleb128 0x1f
 2312 01aa 898201   		.uleb128 0x4109
 2313 01ad 01       		.byte	0x1
 2314 01ae 11       		.uleb128 0x11
 2315 01af 01       		.uleb128 0x1
 2316 01b0 31       		.uleb128 0x31
 2317 01b1 13       		.uleb128 0x13
 2318 01b2 00       		.byte	0
 2319 01b3 00       		.byte	0
 2320 01b4 20       		.uleb128 0x20
 2321 01b5 8A8201   		.uleb128 0x410a
ARM GAS  /tmp/ccWwr2wE.s 			page 42


 2322 01b8 00       		.byte	0
 2323 01b9 02       		.uleb128 0x2
 2324 01ba 18       		.uleb128 0x18
 2325 01bb 9142     		.uleb128 0x2111
 2326 01bd 18       		.uleb128 0x18
 2327 01be 00       		.byte	0
 2328 01bf 00       		.byte	0
 2329 01c0 21       		.uleb128 0x21
 2330 01c1 34       		.uleb128 0x34
 2331 01c2 00       		.byte	0
 2332 01c3 03       		.uleb128 0x3
 2333 01c4 08       		.uleb128 0x8
 2334 01c5 3A       		.uleb128 0x3a
 2335 01c6 0B       		.uleb128 0xb
 2336 01c7 3B       		.uleb128 0x3b
 2337 01c8 0B       		.uleb128 0xb
 2338 01c9 49       		.uleb128 0x49
 2339 01ca 13       		.uleb128 0x13
 2340 01cb 02       		.uleb128 0x2
 2341 01cc 18       		.uleb128 0x18
 2342 01cd 00       		.byte	0
 2343 01ce 00       		.byte	0
 2344 01cf 22       		.uleb128 0x22
 2345 01d0 898201   		.uleb128 0x4109
 2346 01d3 00       		.byte	0
 2347 01d4 11       		.uleb128 0x11
 2348 01d5 01       		.uleb128 0x1
 2349 01d6 31       		.uleb128 0x31
 2350 01d7 13       		.uleb128 0x13
 2351 01d8 00       		.byte	0
 2352 01d9 00       		.byte	0
 2353 01da 23       		.uleb128 0x23
 2354 01db 898201   		.uleb128 0x4109
 2355 01de 01       		.byte	0x1
 2356 01df 11       		.uleb128 0x11
 2357 01e0 01       		.uleb128 0x1
 2358 01e1 31       		.uleb128 0x31
 2359 01e2 13       		.uleb128 0x13
 2360 01e3 01       		.uleb128 0x1
 2361 01e4 13       		.uleb128 0x13
 2362 01e5 00       		.byte	0
 2363 01e6 00       		.byte	0
 2364 01e7 24       		.uleb128 0x24
 2365 01e8 2E       		.uleb128 0x2e
 2366 01e9 01       		.byte	0x1
 2367 01ea 3F       		.uleb128 0x3f
 2368 01eb 19       		.uleb128 0x19
 2369 01ec 03       		.uleb128 0x3
 2370 01ed 0E       		.uleb128 0xe
 2371 01ee 3A       		.uleb128 0x3a
 2372 01ef 0B       		.uleb128 0xb
 2373 01f0 3B       		.uleb128 0x3b
 2374 01f1 05       		.uleb128 0x5
 2375 01f2 27       		.uleb128 0x27
 2376 01f3 19       		.uleb128 0x19
 2377 01f4 11       		.uleb128 0x11
 2378 01f5 01       		.uleb128 0x1
ARM GAS  /tmp/ccWwr2wE.s 			page 43


 2379 01f6 12       		.uleb128 0x12
 2380 01f7 06       		.uleb128 0x6
 2381 01f8 40       		.uleb128 0x40
 2382 01f9 18       		.uleb128 0x18
 2383 01fa 9742     		.uleb128 0x2117
 2384 01fc 19       		.uleb128 0x19
 2385 01fd 01       		.uleb128 0x1
 2386 01fe 13       		.uleb128 0x13
 2387 01ff 00       		.byte	0
 2388 0200 00       		.byte	0
 2389 0201 25       		.uleb128 0x25
 2390 0202 05       		.uleb128 0x5
 2391 0203 00       		.byte	0
 2392 0204 03       		.uleb128 0x3
 2393 0205 08       		.uleb128 0x8
 2394 0206 3A       		.uleb128 0x3a
 2395 0207 0B       		.uleb128 0xb
 2396 0208 3B       		.uleb128 0x3b
 2397 0209 05       		.uleb128 0x5
 2398 020a 49       		.uleb128 0x49
 2399 020b 13       		.uleb128 0x13
 2400 020c 02       		.uleb128 0x2
 2401 020d 17       		.uleb128 0x17
 2402 020e 00       		.byte	0
 2403 020f 00       		.byte	0
 2404 0210 26       		.uleb128 0x26
 2405 0211 05       		.uleb128 0x5
 2406 0212 00       		.byte	0
 2407 0213 03       		.uleb128 0x3
 2408 0214 0E       		.uleb128 0xe
 2409 0215 3A       		.uleb128 0x3a
 2410 0216 0B       		.uleb128 0xb
 2411 0217 3B       		.uleb128 0x3b
 2412 0218 05       		.uleb128 0x5
 2413 0219 49       		.uleb128 0x49
 2414 021a 13       		.uleb128 0x13
 2415 021b 02       		.uleb128 0x2
 2416 021c 17       		.uleb128 0x17
 2417 021d 00       		.byte	0
 2418 021e 00       		.byte	0
 2419 021f 27       		.uleb128 0x27
 2420 0220 2E       		.uleb128 0x2e
 2421 0221 01       		.byte	0x1
 2422 0222 3F       		.uleb128 0x3f
 2423 0223 19       		.uleb128 0x19
 2424 0224 03       		.uleb128 0x3
 2425 0225 0E       		.uleb128 0xe
 2426 0226 3A       		.uleb128 0x3a
 2427 0227 0B       		.uleb128 0xb
 2428 0228 3B       		.uleb128 0x3b
 2429 0229 05       		.uleb128 0x5
 2430 022a 27       		.uleb128 0x27
 2431 022b 19       		.uleb128 0x19
 2432 022c 49       		.uleb128 0x49
 2433 022d 13       		.uleb128 0x13
 2434 022e 11       		.uleb128 0x11
 2435 022f 01       		.uleb128 0x1
ARM GAS  /tmp/ccWwr2wE.s 			page 44


 2436 0230 12       		.uleb128 0x12
 2437 0231 06       		.uleb128 0x6
 2438 0232 40       		.uleb128 0x40
 2439 0233 18       		.uleb128 0x18
 2440 0234 9742     		.uleb128 0x2117
 2441 0236 19       		.uleb128 0x19
 2442 0237 01       		.uleb128 0x1
 2443 0238 13       		.uleb128 0x13
 2444 0239 00       		.byte	0
 2445 023a 00       		.byte	0
 2446 023b 28       		.uleb128 0x28
 2447 023c 34       		.uleb128 0x34
 2448 023d 00       		.byte	0
 2449 023e 03       		.uleb128 0x3
 2450 023f 0E       		.uleb128 0xe
 2451 0240 3A       		.uleb128 0x3a
 2452 0241 0B       		.uleb128 0xb
 2453 0242 3B       		.uleb128 0x3b
 2454 0243 05       		.uleb128 0x5
 2455 0244 49       		.uleb128 0x49
 2456 0245 13       		.uleb128 0x13
 2457 0246 02       		.uleb128 0x2
 2458 0247 18       		.uleb128 0x18
 2459 0248 00       		.byte	0
 2460 0249 00       		.byte	0
 2461 024a 29       		.uleb128 0x29
 2462 024b 34       		.uleb128 0x34
 2463 024c 00       		.byte	0
 2464 024d 03       		.uleb128 0x3
 2465 024e 08       		.uleb128 0x8
 2466 024f 3A       		.uleb128 0x3a
 2467 0250 0B       		.uleb128 0xb
 2468 0251 3B       		.uleb128 0x3b
 2469 0252 05       		.uleb128 0x5
 2470 0253 49       		.uleb128 0x49
 2471 0254 13       		.uleb128 0x13
 2472 0255 02       		.uleb128 0x2
 2473 0256 17       		.uleb128 0x17
 2474 0257 00       		.byte	0
 2475 0258 00       		.byte	0
 2476 0259 2A       		.uleb128 0x2a
 2477 025a 898201   		.uleb128 0x4109
 2478 025d 01       		.byte	0x1
 2479 025e 11       		.uleb128 0x11
 2480 025f 01       		.uleb128 0x1
 2481 0260 00       		.byte	0
 2482 0261 00       		.byte	0
 2483 0262 2B       		.uleb128 0x2b
 2484 0263 26       		.uleb128 0x26
 2485 0264 00       		.byte	0
 2486 0265 49       		.uleb128 0x49
 2487 0266 13       		.uleb128 0x13
 2488 0267 00       		.byte	0
 2489 0268 00       		.byte	0
 2490 0269 2C       		.uleb128 0x2c
 2491 026a 34       		.uleb128 0x34
 2492 026b 00       		.byte	0
ARM GAS  /tmp/ccWwr2wE.s 			page 45


 2493 026c 03       		.uleb128 0x3
 2494 026d 0E       		.uleb128 0xe
 2495 026e 3A       		.uleb128 0x3a
 2496 026f 0B       		.uleb128 0xb
 2497 0270 3B       		.uleb128 0x3b
 2498 0271 0B       		.uleb128 0xb
 2499 0272 49       		.uleb128 0x49
 2500 0273 13       		.uleb128 0x13
 2501 0274 3F       		.uleb128 0x3f
 2502 0275 19       		.uleb128 0x19
 2503 0276 3C       		.uleb128 0x3c
 2504 0277 19       		.uleb128 0x19
 2505 0278 00       		.byte	0
 2506 0279 00       		.byte	0
 2507 027a 2D       		.uleb128 0x2d
 2508 027b 2E       		.uleb128 0x2e
 2509 027c 01       		.byte	0x1
 2510 027d 3F       		.uleb128 0x3f
 2511 027e 19       		.uleb128 0x19
 2512 027f 03       		.uleb128 0x3
 2513 0280 0E       		.uleb128 0xe
 2514 0281 3A       		.uleb128 0x3a
 2515 0282 0B       		.uleb128 0xb
 2516 0283 3B       		.uleb128 0x3b
 2517 0284 0B       		.uleb128 0xb
 2518 0285 27       		.uleb128 0x27
 2519 0286 19       		.uleb128 0x19
 2520 0287 49       		.uleb128 0x49
 2521 0288 13       		.uleb128 0x13
 2522 0289 3C       		.uleb128 0x3c
 2523 028a 19       		.uleb128 0x19
 2524 028b 01       		.uleb128 0x1
 2525 028c 13       		.uleb128 0x13
 2526 028d 00       		.byte	0
 2527 028e 00       		.byte	0
 2528 028f 2E       		.uleb128 0x2e
 2529 0290 2E       		.uleb128 0x2e
 2530 0291 00       		.byte	0
 2531 0292 3F       		.uleb128 0x3f
 2532 0293 19       		.uleb128 0x19
 2533 0294 03       		.uleb128 0x3
 2534 0295 0E       		.uleb128 0xe
 2535 0296 3A       		.uleb128 0x3a
 2536 0297 0B       		.uleb128 0xb
 2537 0298 3B       		.uleb128 0x3b
 2538 0299 0B       		.uleb128 0xb
 2539 029a 27       		.uleb128 0x27
 2540 029b 19       		.uleb128 0x19
 2541 029c 3C       		.uleb128 0x3c
 2542 029d 19       		.uleb128 0x19
 2543 029e 00       		.byte	0
 2544 029f 00       		.byte	0
 2545 02a0 2F       		.uleb128 0x2f
 2546 02a1 2E       		.uleb128 0x2e
 2547 02a2 01       		.byte	0x1
 2548 02a3 3F       		.uleb128 0x3f
 2549 02a4 19       		.uleb128 0x19
ARM GAS  /tmp/ccWwr2wE.s 			page 46


 2550 02a5 03       		.uleb128 0x3
 2551 02a6 0E       		.uleb128 0xe
 2552 02a7 3A       		.uleb128 0x3a
 2553 02a8 0B       		.uleb128 0xb
 2554 02a9 3B       		.uleb128 0x3b
 2555 02aa 0B       		.uleb128 0xb
 2556 02ab 27       		.uleb128 0x27
 2557 02ac 19       		.uleb128 0x19
 2558 02ad 49       		.uleb128 0x49
 2559 02ae 13       		.uleb128 0x13
 2560 02af 3C       		.uleb128 0x3c
 2561 02b0 19       		.uleb128 0x19
 2562 02b1 00       		.byte	0
 2563 02b2 00       		.byte	0
 2564 02b3 00       		.byte	0
 2565              		.section	.debug_loc,"",%progbits
 2566              	.Ldebug_loc0:
 2567              	.LLST0:
 2568 0000 00000000 		.4byte	.LVL0
 2569 0004 12000000 		.4byte	.LVL1
 2570 0008 0100     		.2byte	0x1
 2571 000a 50       		.byte	0x50
 2572 000b 12000000 		.4byte	.LVL1
 2573 000f 24000000 		.4byte	.LFE0
 2574 0013 0400     		.2byte	0x4
 2575 0015 F3       		.byte	0xf3
 2576 0016 01       		.uleb128 0x1
 2577 0017 50       		.byte	0x50
 2578 0018 9F       		.byte	0x9f
 2579 0019 00000000 		.4byte	0
 2580 001d 00000000 		.4byte	0
 2581              	.LLST1:
 2582 0021 00000000 		.4byte	.LVL2
 2583 0025 0A000000 		.4byte	.LVL3
 2584 0029 0100     		.2byte	0x1
 2585 002b 50       		.byte	0x50
 2586 002c 0A000000 		.4byte	.LVL3
 2587 0030 2A000000 		.4byte	.LFE1
 2588 0034 0100     		.2byte	0x1
 2589 0036 52       		.byte	0x52
 2590 0037 00000000 		.4byte	0
 2591 003b 00000000 		.4byte	0
 2592              	.LLST2:
 2593 003f 00000000 		.4byte	.LVL5
 2594 0043 18000000 		.4byte	.LVL7
 2595 0047 0100     		.2byte	0x1
 2596 0049 50       		.byte	0x50
 2597 004a 18000000 		.4byte	.LVL7
 2598 004e 20000000 		.4byte	.LFE2
 2599 0052 0400     		.2byte	0x4
 2600 0054 F3       		.byte	0xf3
 2601 0055 01       		.uleb128 0x1
 2602 0056 50       		.byte	0x50
 2603 0057 9F       		.byte	0x9f
 2604 0058 00000000 		.4byte	0
 2605 005c 00000000 		.4byte	0
 2606              	.LLST3:
ARM GAS  /tmp/ccWwr2wE.s 			page 47


 2607 0060 0C000000 		.4byte	.LVL6
 2608 0064 18000000 		.4byte	.LVL7
 2609 0068 0600     		.2byte	0x6
 2610 006a 70       		.byte	0x70
 2611 006b 00       		.sleb128 0
 2612 006c 72       		.byte	0x72
 2613 006d 00       		.sleb128 0
 2614 006e 1A       		.byte	0x1a
 2615 006f 9F       		.byte	0x9f
 2616 0070 18000000 		.4byte	.LVL7
 2617 0074 20000000 		.4byte	.LFE2
 2618 0078 0100     		.2byte	0x1
 2619 007a 50       		.byte	0x50
 2620 007b 00000000 		.4byte	0
 2621 007f 00000000 		.4byte	0
 2622              	.LLST4:
 2623 0083 00000000 		.4byte	.LVL8
 2624 0087 0E000000 		.4byte	.LVL9
 2625 008b 0100     		.2byte	0x1
 2626 008d 50       		.byte	0x50
 2627 008e 0E000000 		.4byte	.LVL9
 2628 0092 10000000 		.4byte	.LVL10
 2629 0096 0400     		.2byte	0x4
 2630 0098 F3       		.byte	0xf3
 2631 0099 01       		.uleb128 0x1
 2632 009a 50       		.byte	0x50
 2633 009b 9F       		.byte	0x9f
 2634 009c 10000000 		.4byte	.LVL10
 2635 00a0 1C000000 		.4byte	.LFE3
 2636 00a4 0100     		.2byte	0x1
 2637 00a6 50       		.byte	0x50
 2638 00a7 00000000 		.4byte	0
 2639 00ab 00000000 		.4byte	0
 2640              	.LLST5:
 2641 00af 00000000 		.4byte	.LVL11
 2642 00b3 0C000000 		.4byte	.LVL12
 2643 00b7 0100     		.2byte	0x1
 2644 00b9 50       		.byte	0x50
 2645 00ba 0C000000 		.4byte	.LVL12
 2646 00be 16000000 		.4byte	.LFE5
 2647 00c2 0100     		.2byte	0x1
 2648 00c4 52       		.byte	0x52
 2649 00c5 00000000 		.4byte	0
 2650 00c9 00000000 		.4byte	0
 2651              	.LLST6:
 2652 00cd 00000000 		.4byte	.LVL13
 2653 00d1 1F000000 		.4byte	.LVL16-1
 2654 00d5 0100     		.2byte	0x1
 2655 00d7 50       		.byte	0x50
 2656 00d8 1F000000 		.4byte	.LVL16-1
 2657 00dc 26000000 		.4byte	.LVL17
 2658 00e0 0400     		.2byte	0x4
 2659 00e2 F3       		.byte	0xf3
 2660 00e3 01       		.uleb128 0x1
 2661 00e4 50       		.byte	0x50
 2662 00e5 9F       		.byte	0x9f
 2663 00e6 26000000 		.4byte	.LVL17
ARM GAS  /tmp/ccWwr2wE.s 			page 48


 2664 00ea 2E000000 		.4byte	.LFE7
 2665 00ee 0100     		.2byte	0x1
 2666 00f0 50       		.byte	0x50
 2667 00f1 00000000 		.4byte	0
 2668 00f5 00000000 		.4byte	0
 2669              	.LLST7:
 2670 00f9 00000000 		.4byte	.LVL13
 2671 00fd 08000000 		.4byte	.LVL14
 2672 0101 0100     		.2byte	0x1
 2673 0103 51       		.byte	0x51
 2674 0104 08000000 		.4byte	.LVL14
 2675 0108 2E000000 		.4byte	.LFE7
 2676 010c 0400     		.2byte	0x4
 2677 010e F3       		.byte	0xf3
 2678 010f 01       		.uleb128 0x1
 2679 0110 51       		.byte	0x51
 2680 0111 9F       		.byte	0x9f
 2681 0112 00000000 		.4byte	0
 2682 0116 00000000 		.4byte	0
 2683              	.LLST8:
 2684 011a 1C000000 		.4byte	.LVL15
 2685 011e 26000000 		.4byte	.LVL17
 2686 0122 0400     		.2byte	0x4
 2687 0124 F3       		.byte	0xf3
 2688 0125 01       		.uleb128 0x1
 2689 0126 51       		.byte	0x51
 2690 0127 9F       		.byte	0x9f
 2691 0128 00000000 		.4byte	0
 2692 012c 00000000 		.4byte	0
 2693              	.LLST9:
 2694 0130 1C000000 		.4byte	.LVL15
 2695 0134 1F000000 		.4byte	.LVL16-1
 2696 0138 0100     		.2byte	0x1
 2697 013a 50       		.byte	0x50
 2698 013b 1F000000 		.4byte	.LVL16-1
 2699 013f 26000000 		.4byte	.LVL17
 2700 0143 0400     		.2byte	0x4
 2701 0145 F3       		.byte	0xf3
 2702 0146 01       		.uleb128 0x1
 2703 0147 50       		.byte	0x50
 2704 0148 9F       		.byte	0x9f
 2705 0149 00000000 		.4byte	0
 2706 014d 00000000 		.4byte	0
 2707              	.LLST10:
 2708 0151 00000000 		.4byte	.LVL18
 2709 0155 0C000000 		.4byte	.LVL20
 2710 0159 0100     		.2byte	0x1
 2711 015b 50       		.byte	0x50
 2712 015c 0C000000 		.4byte	.LVL20
 2713 0160 22000000 		.4byte	.LFE4
 2714 0164 0100     		.2byte	0x1
 2715 0166 55       		.byte	0x55
 2716 0167 00000000 		.4byte	0
 2717 016b 00000000 		.4byte	0
 2718              	.LLST11:
 2719 016f 00000000 		.4byte	.LVL18
 2720 0173 0C000000 		.4byte	.LVL20
ARM GAS  /tmp/ccWwr2wE.s 			page 49


 2721 0177 0100     		.2byte	0x1
 2722 0179 51       		.byte	0x51
 2723 017a 0C000000 		.4byte	.LVL20
 2724 017e 22000000 		.4byte	.LFE4
 2725 0182 0100     		.2byte	0x1
 2726 0184 56       		.byte	0x56
 2727 0185 00000000 		.4byte	0
 2728 0189 00000000 		.4byte	0
 2729              	.LLST12:
 2730 018d 00000000 		.4byte	.LVL23
 2731 0191 09000000 		.4byte	.LVL24-1
 2732 0195 0100     		.2byte	0x1
 2733 0197 50       		.byte	0x50
 2734 0198 09000000 		.4byte	.LVL24-1
 2735 019c 14000000 		.4byte	.LFE6
 2736 01a0 0400     		.2byte	0x4
 2737 01a2 F3       		.byte	0xf3
 2738 01a3 01       		.uleb128 0x1
 2739 01a4 50       		.byte	0x50
 2740 01a5 9F       		.byte	0x9f
 2741 01a6 00000000 		.4byte	0
 2742 01aa 00000000 		.4byte	0
 2743              	.LLST13:
 2744 01ae 00000000 		.4byte	.LVL23
 2745 01b2 09000000 		.4byte	.LVL24-1
 2746 01b6 0100     		.2byte	0x1
 2747 01b8 51       		.byte	0x51
 2748 01b9 09000000 		.4byte	.LVL24-1
 2749 01bd 14000000 		.4byte	.LFE6
 2750 01c1 0400     		.2byte	0x4
 2751 01c3 F3       		.byte	0xf3
 2752 01c4 01       		.uleb128 0x1
 2753 01c5 51       		.byte	0x51
 2754 01c6 9F       		.byte	0x9f
 2755 01c7 00000000 		.4byte	0
 2756 01cb 00000000 		.4byte	0
 2757              	.LLST14:
 2758 01cf 00000000 		.4byte	.LVL26
 2759 01d3 09000000 		.4byte	.LVL27-1
 2760 01d7 0100     		.2byte	0x1
 2761 01d9 50       		.byte	0x50
 2762 01da 09000000 		.4byte	.LVL27-1
 2763 01de 14000000 		.4byte	.LFE8
 2764 01e2 0400     		.2byte	0x4
 2765 01e4 F3       		.byte	0xf3
 2766 01e5 01       		.uleb128 0x1
 2767 01e6 50       		.byte	0x50
 2768 01e7 9F       		.byte	0x9f
 2769 01e8 00000000 		.4byte	0
 2770 01ec 00000000 		.4byte	0
 2771              	.LLST15:
 2772 01f0 00000000 		.4byte	.LVL26
 2773 01f4 09000000 		.4byte	.LVL27-1
 2774 01f8 0100     		.2byte	0x1
 2775 01fa 51       		.byte	0x51
 2776 01fb 09000000 		.4byte	.LVL27-1
 2777 01ff 14000000 		.4byte	.LFE8
ARM GAS  /tmp/ccWwr2wE.s 			page 50


 2778 0203 0400     		.2byte	0x4
 2779 0205 F3       		.byte	0xf3
 2780 0206 01       		.uleb128 0x1
 2781 0207 51       		.byte	0x51
 2782 0208 9F       		.byte	0x9f
 2783 0209 00000000 		.4byte	0
 2784 020d 00000000 		.4byte	0
 2785              	.LLST16:
 2786 0211 00000000 		.4byte	.LVL29
 2787 0215 06000000 		.4byte	.LVL30
 2788 0219 0100     		.2byte	0x1
 2789 021b 50       		.byte	0x50
 2790 021c 06000000 		.4byte	.LVL30
 2791 0220 0A000000 		.4byte	.LFE9
 2792 0224 0100     		.2byte	0x1
 2793 0226 53       		.byte	0x53
 2794 0227 00000000 		.4byte	0
 2795 022b 00000000 		.4byte	0
 2796              	.LLST17:
 2797 022f 00000000 		.4byte	.LVL31
 2798 0233 0E000000 		.4byte	.LVL32
 2799 0237 0100     		.2byte	0x1
 2800 0239 50       		.byte	0x50
 2801 023a 0E000000 		.4byte	.LVL32
 2802 023e 2E000000 		.4byte	.LFE10
 2803 0242 0100     		.2byte	0x1
 2804 0244 57       		.byte	0x57
 2805 0245 00000000 		.4byte	0
 2806 0249 00000000 		.4byte	0
 2807              	.LLST18:
 2808 024d 00000000 		.4byte	.LVL31
 2809 0251 0E000000 		.4byte	.LVL32
 2810 0255 0100     		.2byte	0x1
 2811 0257 51       		.byte	0x51
 2812 0258 0E000000 		.4byte	.LVL32
 2813 025c 2E000000 		.4byte	.LFE10
 2814 0260 0100     		.2byte	0x1
 2815 0262 55       		.byte	0x55
 2816 0263 00000000 		.4byte	0
 2817 0267 00000000 		.4byte	0
 2818              	.LLST19:
 2819 026b 00000000 		.4byte	.LVL31
 2820 026f 0E000000 		.4byte	.LVL32
 2821 0273 0200     		.2byte	0x2
 2822 0275 30       		.byte	0x30
 2823 0276 9F       		.byte	0x9f
 2824 0277 0E000000 		.4byte	.LVL32
 2825 027b 26000000 		.4byte	.LVL36
 2826 027f 0100     		.2byte	0x1
 2827 0281 54       		.byte	0x54
 2828 0282 26000000 		.4byte	.LVL36
 2829 0286 27000000 		.4byte	.LVL37-1
 2830 028a 0100     		.2byte	0x1
 2831 028c 50       		.byte	0x50
 2832 028d 27000000 		.4byte	.LVL37-1
 2833 0291 28000000 		.4byte	.LVL37
 2834 0295 0300     		.2byte	0x3
ARM GAS  /tmp/ccWwr2wE.s 			page 51


 2835 0297 74       		.byte	0x74
 2836 0298 7F       		.sleb128 -1
 2837 0299 9F       		.byte	0x9f
 2838 029a 28000000 		.4byte	.LVL37
 2839 029e 2C000000 		.4byte	.LVL38
 2840 02a2 0100     		.2byte	0x1
 2841 02a4 54       		.byte	0x54
 2842 02a5 00000000 		.4byte	0
 2843 02a9 00000000 		.4byte	0
 2844              	.LLST20:
 2845 02ad 00000000 		.4byte	.LVL39
 2846 02b1 0A000000 		.4byte	.LVL41
 2847 02b5 0100     		.2byte	0x1
 2848 02b7 50       		.byte	0x50
 2849 02b8 0A000000 		.4byte	.LVL41
 2850 02bc 48000000 		.4byte	.LVL49
 2851 02c0 0100     		.2byte	0x1
 2852 02c2 54       		.byte	0x54
 2853 02c3 48000000 		.4byte	.LVL49
 2854 02c7 4C000000 		.4byte	.LFE11
 2855 02cb 0400     		.2byte	0x4
 2856 02cd F3       		.byte	0xf3
 2857 02ce 01       		.uleb128 0x1
 2858 02cf 50       		.byte	0x50
 2859 02d0 9F       		.byte	0x9f
 2860 02d1 00000000 		.4byte	0
 2861 02d5 00000000 		.4byte	0
 2862              	.LLST21:
 2863 02d9 00000000 		.4byte	.LVL39
 2864 02dd 25000000 		.4byte	.LVL45-1
 2865 02e1 0100     		.2byte	0x1
 2866 02e3 51       		.byte	0x51
 2867 02e4 25000000 		.4byte	.LVL45-1
 2868 02e8 4C000000 		.4byte	.LFE11
 2869 02ec 0400     		.2byte	0x4
 2870 02ee F3       		.byte	0xf3
 2871 02ef 01       		.uleb128 0x1
 2872 02f0 51       		.byte	0x51
 2873 02f1 9F       		.byte	0x9f
 2874 02f2 00000000 		.4byte	0
 2875 02f6 00000000 		.4byte	0
 2876              	.LLST22:
 2877 02fa 08000000 		.4byte	.LVL40
 2878 02fe 48000000 		.4byte	.LVL49
 2879 0302 0100     		.2byte	0x1
 2880 0304 55       		.byte	0x55
 2881 0305 00000000 		.4byte	0
 2882 0309 00000000 		.4byte	0
 2883              	.LLST23:
 2884 030d 10000000 		.4byte	.LVL42
 2885 0311 14000000 		.4byte	.LVL43
 2886 0315 0600     		.2byte	0x6
 2887 0317 74       		.byte	0x74
 2888 0318 00       		.sleb128 0
 2889 0319 73       		.byte	0x73
 2890 031a 00       		.sleb128 0
 2891 031b 1A       		.byte	0x1a
ARM GAS  /tmp/ccWwr2wE.s 			page 52


 2892 031c 9F       		.byte	0x9f
 2893 031d 14000000 		.4byte	.LVL43
 2894 0321 34000000 		.4byte	.LVL47
 2895 0325 0100     		.2byte	0x1
 2896 0327 56       		.byte	0x56
 2897 0328 34000000 		.4byte	.LVL47
 2898 032c 40000000 		.4byte	.LVL48
 2899 0330 0100     		.2byte	0x1
 2900 0332 50       		.byte	0x50
 2901 0333 40000000 		.4byte	.LVL48
 2902 0337 48000000 		.4byte	.LVL49
 2903 033b 0100     		.2byte	0x1
 2904 033d 56       		.byte	0x56
 2905 033e 48000000 		.4byte	.LVL49
 2906 0342 4C000000 		.4byte	.LFE11
 2907 0346 0100     		.2byte	0x1
 2908 0348 50       		.byte	0x50
 2909 0349 00000000 		.4byte	0
 2910 034d 00000000 		.4byte	0
 2911              	.LLST24:
 2912 0351 00000000 		.4byte	.LVL50
 2913 0355 0A000000 		.4byte	.LVL52
 2914 0359 0100     		.2byte	0x1
 2915 035b 50       		.byte	0x50
 2916 035c 0A000000 		.4byte	.LVL52
 2917 0360 3E000000 		.4byte	.LVL58
 2918 0364 0100     		.2byte	0x1
 2919 0366 54       		.byte	0x54
 2920 0367 3E000000 		.4byte	.LVL58
 2921 036b 44000000 		.4byte	.LFE12
 2922 036f 0400     		.2byte	0x4
 2923 0371 F3       		.byte	0xf3
 2924 0372 01       		.uleb128 0x1
 2925 0373 50       		.byte	0x50
 2926 0374 9F       		.byte	0x9f
 2927 0375 00000000 		.4byte	0
 2928 0379 00000000 		.4byte	0
 2929              	.LLST25:
 2930 037d 00000000 		.4byte	.LVL50
 2931 0381 25000000 		.4byte	.LVL56-1
 2932 0385 0100     		.2byte	0x1
 2933 0387 51       		.byte	0x51
 2934 0388 25000000 		.4byte	.LVL56-1
 2935 038c 44000000 		.4byte	.LFE12
 2936 0390 0400     		.2byte	0x4
 2937 0392 F3       		.byte	0xf3
 2938 0393 01       		.uleb128 0x1
 2939 0394 51       		.byte	0x51
 2940 0395 9F       		.byte	0x9f
 2941 0396 00000000 		.4byte	0
 2942 039a 00000000 		.4byte	0
 2943              	.LLST26:
 2944 039e 08000000 		.4byte	.LVL51
 2945 03a2 3E000000 		.4byte	.LVL58
 2946 03a6 0100     		.2byte	0x1
 2947 03a8 55       		.byte	0x55
 2948 03a9 00000000 		.4byte	0
ARM GAS  /tmp/ccWwr2wE.s 			page 53


 2949 03ad 00000000 		.4byte	0
 2950              	.LLST27:
 2951 03b1 10000000 		.4byte	.LVL53
 2952 03b5 14000000 		.4byte	.LVL54
 2953 03b9 0600     		.2byte	0x6
 2954 03bb 74       		.byte	0x74
 2955 03bc 00       		.sleb128 0
 2956 03bd 73       		.byte	0x73
 2957 03be 00       		.sleb128 0
 2958 03bf 1A       		.byte	0x1a
 2959 03c0 9F       		.byte	0x9f
 2960 03c1 14000000 		.4byte	.LVL54
 2961 03c5 3E000000 		.4byte	.LVL58
 2962 03c9 0100     		.2byte	0x1
 2963 03cb 56       		.byte	0x56
 2964 03cc 3E000000 		.4byte	.LVL58
 2965 03d0 44000000 		.4byte	.LFE12
 2966 03d4 0100     		.2byte	0x1
 2967 03d6 50       		.byte	0x50
 2968 03d7 00000000 		.4byte	0
 2969 03db 00000000 		.4byte	0
 2970              	.LLST28:
 2971 03df 00000000 		.4byte	.LVL59
 2972 03e3 0A000000 		.4byte	.LVL61
 2973 03e7 0100     		.2byte	0x1
 2974 03e9 50       		.byte	0x50
 2975 03ea 0A000000 		.4byte	.LVL61
 2976 03ee 44000000 		.4byte	.LVL65
 2977 03f2 0100     		.2byte	0x1
 2978 03f4 54       		.byte	0x54
 2979 03f5 44000000 		.4byte	.LVL65
 2980 03f9 48000000 		.4byte	.LFE13
 2981 03fd 0400     		.2byte	0x4
 2982 03ff F3       		.byte	0xf3
 2983 0400 01       		.uleb128 0x1
 2984 0401 50       		.byte	0x50
 2985 0402 9F       		.byte	0x9f
 2986 0403 00000000 		.4byte	0
 2987 0407 00000000 		.4byte	0
 2988              	.LLST29:
 2989 040b 00000000 		.4byte	.LVL59
 2990 040f 27000000 		.4byte	.LVL63-1
 2991 0413 0100     		.2byte	0x1
 2992 0415 51       		.byte	0x51
 2993 0416 27000000 		.4byte	.LVL63-1
 2994 041a 48000000 		.4byte	.LFE13
 2995 041e 0400     		.2byte	0x4
 2996 0420 F3       		.byte	0xf3
 2997 0421 01       		.uleb128 0x1
 2998 0422 51       		.byte	0x51
 2999 0423 9F       		.byte	0x9f
 3000 0424 00000000 		.4byte	0
 3001 0428 00000000 		.4byte	0
 3002              	.LLST30:
 3003 042c 08000000 		.4byte	.LVL60
 3004 0430 44000000 		.4byte	.LVL65
 3005 0434 0100     		.2byte	0x1
ARM GAS  /tmp/ccWwr2wE.s 			page 54


 3006 0436 55       		.byte	0x55
 3007 0437 00000000 		.4byte	0
 3008 043b 00000000 		.4byte	0
 3009              		.section	.debug_aranges,"",%progbits
 3010 0000 84000000 		.4byte	0x84
 3011 0004 0200     		.2byte	0x2
 3012 0006 00000000 		.4byte	.Ldebug_info0
 3013 000a 04       		.byte	0x4
 3014 000b 00       		.byte	0
 3015 000c 0000     		.2byte	0
 3016 000e 0000     		.2byte	0
 3017 0010 00000000 		.4byte	.LFB0
 3018 0014 24000000 		.4byte	.LFE0-.LFB0
 3019 0018 00000000 		.4byte	.LFB1
 3020 001c 2A000000 		.4byte	.LFE1-.LFB1
 3021 0020 00000000 		.4byte	.LFB2
 3022 0024 20000000 		.4byte	.LFE2-.LFB2
 3023 0028 00000000 		.4byte	.LFB3
 3024 002c 1C000000 		.4byte	.LFE3-.LFB3
 3025 0030 00000000 		.4byte	.LFB5
 3026 0034 16000000 		.4byte	.LFE5-.LFB5
 3027 0038 00000000 		.4byte	.LFB7
 3028 003c 2E000000 		.4byte	.LFE7-.LFB7
 3029 0040 00000000 		.4byte	.LFB4
 3030 0044 22000000 		.4byte	.LFE4-.LFB4
 3031 0048 00000000 		.4byte	.LFB6
 3032 004c 14000000 		.4byte	.LFE6-.LFB6
 3033 0050 00000000 		.4byte	.LFB8
 3034 0054 14000000 		.4byte	.LFE8-.LFB8
 3035 0058 00000000 		.4byte	.LFB9
 3036 005c 0A000000 		.4byte	.LFE9-.LFB9
 3037 0060 00000000 		.4byte	.LFB10
 3038 0064 2E000000 		.4byte	.LFE10-.LFB10
 3039 0068 00000000 		.4byte	.LFB11
 3040 006c 4C000000 		.4byte	.LFE11-.LFB11
 3041 0070 00000000 		.4byte	.LFB12
 3042 0074 44000000 		.4byte	.LFE12-.LFB12
 3043 0078 00000000 		.4byte	.LFB13
 3044 007c 48000000 		.4byte	.LFE13-.LFB13
 3045 0080 00000000 		.4byte	0
 3046 0084 00000000 		.4byte	0
 3047              		.section	.debug_ranges,"",%progbits
 3048              	.Ldebug_ranges0:
 3049 0000 00000000 		.4byte	.LFB0
 3050 0004 24000000 		.4byte	.LFE0
 3051 0008 00000000 		.4byte	.LFB1
 3052 000c 2A000000 		.4byte	.LFE1
 3053 0010 00000000 		.4byte	.LFB2
 3054 0014 20000000 		.4byte	.LFE2
 3055 0018 00000000 		.4byte	.LFB3
 3056 001c 1C000000 		.4byte	.LFE3
 3057 0020 00000000 		.4byte	.LFB5
 3058 0024 16000000 		.4byte	.LFE5
 3059 0028 00000000 		.4byte	.LFB7
 3060 002c 2E000000 		.4byte	.LFE7
 3061 0030 00000000 		.4byte	.LFB4
 3062 0034 22000000 		.4byte	.LFE4
ARM GAS  /tmp/ccWwr2wE.s 			page 55


 3063 0038 00000000 		.4byte	.LFB6
 3064 003c 14000000 		.4byte	.LFE6
 3065 0040 00000000 		.4byte	.LFB8
 3066 0044 14000000 		.4byte	.LFE8
 3067 0048 00000000 		.4byte	.LFB9
 3068 004c 0A000000 		.4byte	.LFE9
 3069 0050 00000000 		.4byte	.LFB10
 3070 0054 2E000000 		.4byte	.LFE10
 3071 0058 00000000 		.4byte	.LFB11
 3072 005c 4C000000 		.4byte	.LFE11
 3073 0060 00000000 		.4byte	.LFB12
 3074 0064 44000000 		.4byte	.LFE12
 3075 0068 00000000 		.4byte	.LFB13
 3076 006c 48000000 		.4byte	.LFE13
 3077 0070 00000000 		.4byte	0
 3078 0074 00000000 		.4byte	0
 3079              		.section	.debug_line,"",%progbits
 3080              	.Ldebug_line0:
 3081 0000 97020000 		.section	.debug_str,"MS",%progbits,1
 3081      02000C01 
 3081      00000201 
 3081      FB0E0D00 
 3081      01010101 
 3082              	.LASF35:
 3083 0000 705F6D73 		.ascii	"p_msg\000"
 3083      6700
 3084              	.LASF62:
 3085 0006 7264796D 		.ascii	"rdymsg\000"
 3085      736700
 3086              	.LASF5:
 3087 000d 5F5F7569 		.ascii	"__uint8_t\000"
 3087      6E74385F 
 3087      7400
 3088              	.LASF74:
 3089 0017 63684576 		.ascii	"chEvtSignal\000"
 3089      74536967 
 3089      6E616C00 
 3090              	.LASF11:
 3091 0023 6C6F6E67 		.ascii	"long long unsigned int\000"
 3091      206C6F6E 
 3091      6720756E 
 3091      7369676E 
 3091      65642069 
 3092              	.LASF70:
 3093 003a 63684576 		.ascii	"chEvtAddEvents\000"
 3093      74416464 
 3093      4576656E 
 3093      747300
 3094              	.LASF63:
 3095 0049 65786974 		.ascii	"exitcode\000"
 3095      636F6465 
 3095      00
 3096              	.LASF81:
 3097 0052 63684576 		.ascii	"chEvtWaitAnyTimeout\000"
 3097      74576169 
 3097      74416E79 
 3097      54696D65 
ARM GAS  /tmp/ccWwr2wE.s 			page 56


 3097      6F757400 
 3098              	.LASF28:
 3099 0066 705F7072 		.ascii	"p_prio\000"
 3099      696F00
 3100              	.LASF10:
 3101 006d 6C6F6E67 		.ascii	"long long int\000"
 3101      206C6F6E 
 3101      6720696E 
 3101      7400
 3102              	.LASF1:
 3103 007b 7369676E 		.ascii	"signed char\000"
 3103      65642063 
 3103      68617200 
 3104              	.LASF82:
 3105 0087 63684576 		.ascii	"chEvtWaitAllTimeout\000"
 3105      74576169 
 3105      74416C6C 
 3105      54696D65 
 3105      6F757400 
 3106              	.LASF51:
 3107 009b 6D5F7175 		.ascii	"m_queue\000"
 3107      65756500 
 3108              	.LASF18:
 3109 00a3 74736C69 		.ascii	"tslices_t\000"
 3109      6365735F 
 3109      7400
 3110              	.LASF7:
 3111 00ad 6C6F6E67 		.ascii	"long int\000"
 3111      20696E74 
 3111      00
 3112              	.LASF17:
 3113 00b6 74737461 		.ascii	"tstate_t\000"
 3113      74655F74 
 3113      00
 3114              	.LASF84:
 3115 00bf 63685363 		.ascii	"chSchGoSleepTimeoutS\000"
 3115      68476F53 
 3115      6C656570 
 3115      54696D65 
 3115      6F757453 
 3116              	.LASF73:
 3117 00d4 63684576 		.ascii	"chEvtBroadcastFlagsI\000"
 3117      7442726F 
 3117      61646361 
 3117      7374466C 
 3117      61677349 
 3118              	.LASF90:
 3119 00e9 63685363 		.ascii	"chSchRescheduleS\000"
 3119      68526573 
 3119      63686564 
 3119      756C6553 
 3119      00
 3120              	.LASF8:
 3121 00fa 5F5F7569 		.ascii	"__uint32_t\000"
 3121      6E743332 
 3121      5F7400
 3122              	.LASF66:
ARM GAS  /tmp/ccWwr2wE.s 			page 57


 3123 0105 6D61736B 		.ascii	"mask\000"
 3123      00
 3124              	.LASF41:
 3125 010a 72656761 		.ascii	"regarm_t\000"
 3125      726D5F74 
 3125      00
 3126              	.LASF75:
 3127 0113 63684576 		.ascii	"chEvtBroadcastFlags\000"
 3127      7442726F 
 3127      61646361 
 3127      7374466C 
 3127      61677300 
 3128              	.LASF21:
 3129 0127 6576656E 		.ascii	"eventid_t\000"
 3129      7469645F 
 3129      7400
 3130              	.LASF59:
 3131 0131 4576656E 		.ascii	"EventSource\000"
 3131      74536F75 
 3131      72636500 
 3132              	.LASF61:
 3133 013d 65766861 		.ascii	"evhandler_t\000"
 3133      6E646C65 
 3133      725F7400 
 3134              	.LASF0:
 3135 0149 756E7369 		.ascii	"unsigned int\000"
 3135      676E6564 
 3135      20696E74 
 3135      00
 3136              	.LASF87:
 3137 0156 2F686F6D 		.ascii	"/home/dltech-deb/gdrive/Projects/RFM_to_Modbus_TCP/"
 3137      652F646C 
 3137      74656368 
 3137      2D646562 
 3137      2F676472 
 3138 0189 43686962 		.ascii	"ChibiOS/F103_ChibiOS_ENC60J28/main\000"
 3138      694F532F 
 3138      46313033 
 3138      5F436869 
 3138      62694F53 
 3139              	.LASF9:
 3140 01ac 6C6F6E67 		.ascii	"long unsigned int\000"
 3140      20756E73 
 3140      69676E65 
 3140      6420696E 
 3140      7400
 3141              	.LASF69:
 3142 01be 63684576 		.ascii	"chEvtGetAndClearEvents\000"
 3142      74476574 
 3142      416E6443 
 3142      6C656172 
 3142      4576656E 
 3143              	.LASF4:
 3144 01d5 73686F72 		.ascii	"short unsigned int\000"
 3144      7420756E 
 3144      7369676E 
 3144      65642069 
ARM GAS  /tmp/ccWwr2wE.s 			page 58


 3144      6E7400
 3145              	.LASF67:
 3146 01e8 63684576 		.ascii	"chEvtRegisterMask\000"
 3146      74526567 
 3146      69737465 
 3146      724D6173 
 3146      6B00
 3147              	.LASF20:
 3148 01fa 6D73675F 		.ascii	"msg_t\000"
 3148      7400
 3149              	.LASF55:
 3150 0200 656C5F6E 		.ascii	"el_next\000"
 3150      65787400 
 3151              	.LASF68:
 3152 0208 63684576 		.ascii	"chEvtUnregister\000"
 3152      74556E72 
 3152      65676973 
 3152      74657200 
 3153              	.LASF16:
 3154 0218 746D6F64 		.ascii	"tmode_t\000"
 3154      655F7400 
 3155              	.LASF40:
 3156 0220 54687265 		.ascii	"ThreadsList\000"
 3156      6164734C 
 3156      69737400 
 3157              	.LASF22:
 3158 022c 6576656E 		.ascii	"eventmask_t\000"
 3158      746D6173 
 3158      6B5F7400 
 3159              	.LASF50:
 3160 0238 4D757465 		.ascii	"Mutex\000"
 3160      7800
 3161              	.LASF46:
 3162 023e 725F7072 		.ascii	"r_prio\000"
 3162      696F00
 3163              	.LASF44:
 3164 0245 73697A65 		.ascii	"sizetype\000"
 3164      74797065 
 3164      00
 3165              	.LASF77:
 3166 024e 63684576 		.ascii	"chEvtDispatch\000"
 3166      74446973 
 3166      70617463 
 3166      6800
 3167              	.LASF47:
 3168 025c 725F6374 		.ascii	"r_ctx\000"
 3168      7800
 3169              	.LASF39:
 3170 0262 54687265 		.ascii	"ThreadsQueue\000"
 3170      61647351 
 3170      75657565 
 3170      00
 3171              	.LASF80:
 3172 026f 74696D65 		.ascii	"time\000"
 3172      00
 3173              	.LASF48:
 3174 0274 725F6375 		.ascii	"r_current\000"
ARM GAS  /tmp/ccWwr2wE.s 			page 59


 3174      7272656E 
 3174      7400
 3175              	.LASF57:
 3176 027e 656C5F6D 		.ascii	"el_mask\000"
 3176      61736B00 
 3177              	.LASF78:
 3178 0286 68616E64 		.ascii	"handlers\000"
 3178      6C657273 
 3178      00
 3179              	.LASF27:
 3180 028f 705F7072 		.ascii	"p_prev\000"
 3180      657600
 3181              	.LASF19:
 3182 0296 74707269 		.ascii	"tprio_t\000"
 3182      6F5F7400 
 3183              	.LASF85:
 3184 029e 474E5520 		.ascii	"GNU C 4.8.4 20141219 (release) -mcpu=cortex-m3 -mno"
 3184      4320342E 
 3184      382E3420 
 3184      32303134 
 3184      31323139 
 3185 02d1 2D746875 		.ascii	"-thumb-interwork -mthumb -ggdb -O2 -fomit-frame-poi"
 3185      6D622D69 
 3185      6E746572 
 3185      776F726B 
 3185      202D6D74 
 3186 0304 6E746572 		.ascii	"nter -falign-functions=16 -ffunction-sections -fdat"
 3186      202D6661 
 3186      6C69676E 
 3186      2D66756E 
 3186      6374696F 
 3187 0337 612D7365 		.ascii	"a-sections -fno-common -fno-strict-aliasing\000"
 3187      6374696F 
 3187      6E73202D 
 3187      666E6F2D 
 3187      636F6D6D 
 3188              	.LASF15:
 3189 0363 5F426F6F 		.ascii	"_Bool\000"
 3189      6C00
 3190              	.LASF13:
 3191 0369 696E7433 		.ascii	"int32_t\000"
 3191      325F7400 
 3192              	.LASF2:
 3193 0371 756E7369 		.ascii	"unsigned char\000"
 3193      676E6564 
 3193      20636861 
 3193      7200
 3194              	.LASF56:
 3195 037f 656C5F6C 		.ascii	"el_listener\000"
 3195      69737465 
 3195      6E657200 
 3196              	.LASF58:
 3197 038b 656C5F66 		.ascii	"el_flags\000"
 3197      6C616773 
 3197      00
 3198              	.LASF37:
 3199 0394 705F6D74 		.ascii	"p_mtxlist\000"
ARM GAS  /tmp/ccWwr2wE.s 			page 60


 3199      786C6973 
 3199      7400
 3200              	.LASF3:
 3201 039e 73686F72 		.ascii	"short int\000"
 3201      7420696E 
 3201      7400
 3202              	.LASF30:
 3203 03a8 705F7374 		.ascii	"p_state\000"
 3203      61746500 
 3204              	.LASF32:
 3205 03b0 705F7072 		.ascii	"p_preempt\000"
 3205      65656D70 
 3205      7400
 3206              	.LASF86:
 3207 03ba 2E2E2F6F 		.ascii	"../os/kernel/src/chevents.c\000"
 3207      732F6B65 
 3207      726E656C 
 3207      2F737263 
 3207      2F636865 
 3208              	.LASF76:
 3209 03d6 63684576 		.ascii	"chEvtGetAndClearFlagsI\000"
 3209      74476574 
 3209      416E6443 
 3209      6C656172 
 3209      466C6167 
 3210              	.LASF65:
 3211 03ed 65776D61 		.ascii	"ewmask\000"
 3211      736B00
 3212              	.LASF26:
 3213 03f4 705F6E65 		.ascii	"p_next\000"
 3213      787400
 3214              	.LASF31:
 3215 03fb 705F666C 		.ascii	"p_flags\000"
 3215      61677300 
 3216              	.LASF25:
 3217 0403 54687265 		.ascii	"Thread\000"
 3217      616400
 3218              	.LASF36:
 3219 040a 705F6570 		.ascii	"p_epending\000"
 3219      656E6469 
 3219      6E6700
 3220              	.LASF14:
 3221 0415 75696E74 		.ascii	"uint32_t\000"
 3221      33325F74 
 3221      00
 3222              	.LASF45:
 3223 041e 725F7175 		.ascii	"r_queue\000"
 3223      65756500 
 3224              	.LASF89:
 3225 0426 63685363 		.ascii	"chSchReadyI\000"
 3225      68526561 
 3225      64794900 
 3226              	.LASF53:
 3227 0432 6D5F6E65 		.ascii	"m_next\000"
 3227      787400
 3228              	.LASF24:
 3229 0439 73797374 		.ascii	"systime_t\000"
ARM GAS  /tmp/ccWwr2wE.s 			page 61


 3229      696D655F 
 3229      7400
 3230              	.LASF38:
 3231 0443 705F7265 		.ascii	"p_realprio\000"
 3231      616C7072 
 3231      696F00
 3232              	.LASF6:
 3233 044e 5F5F696E 		.ascii	"__int32_t\000"
 3233      7433325F 
 3233      7400
 3234              	.LASF43:
 3235 0458 636F6E74 		.ascii	"context\000"
 3235      65787400 
 3236              	.LASF42:
 3237 0460 696E7463 		.ascii	"intctx\000"
 3237      747800
 3238              	.LASF34:
 3239 0467 705F6D73 		.ascii	"p_msgqueue\000"
 3239      67717565 
 3239      756500
 3240              	.LASF23:
 3241 0472 666C6167 		.ascii	"flagsmask_t\000"
 3241      736D6173 
 3241      6B5F7400 
 3242              	.LASF60:
 3243 047e 65735F6E 		.ascii	"es_next\000"
 3243      65787400 
 3244              	.LASF49:
 3245 0486 52656164 		.ascii	"ReadyList\000"
 3245      794C6973 
 3245      7400
 3246              	.LASF88:
 3247 0490 726C6973 		.ascii	"rlist\000"
 3247      7400
 3248              	.LASF12:
 3249 0496 75696E74 		.ascii	"uint8_t\000"
 3249      385F7400 
 3250              	.LASF72:
 3251 049e 666C6167 		.ascii	"flags\000"
 3251      7300
 3252              	.LASF54:
 3253 04a4 4576656E 		.ascii	"EventListener\000"
 3253      744C6973 
 3253      74656E65 
 3253      7200
 3254              	.LASF79:
 3255 04b2 63684576 		.ascii	"chEvtWaitOneTimeout\000"
 3255      74576169 
 3255      744F6E65 
 3255      54696D65 
 3255      6F757400 
 3256              	.LASF64:
 3257 04c6 77746F62 		.ascii	"wtobjp\000"
 3257      6A7000
 3258              	.LASF71:
 3259 04cd 63684576 		.ascii	"chEvtGetAndClearFlags\000"
 3259      74476574 
ARM GAS  /tmp/ccWwr2wE.s 			page 62


 3259      416E6443 
 3259      6C656172 
 3259      466C6167 
 3260              	.LASF52:
 3261 04e3 6D5F6F77 		.ascii	"m_owner\000"
 3261      6E657200 
 3262              	.LASF29:
 3263 04eb 705F6374 		.ascii	"p_ctx\000"
 3263      7800
 3264              	.LASF33:
 3265 04f1 705F7761 		.ascii	"p_waiting\000"
 3265      6974696E 
 3265      6700
 3266              	.LASF83:
 3267 04fb 63684576 		.ascii	"chEvtSignalI\000"
 3267      74536967 
 3267      6E616C49 
 3267      00
 3268              		.ident	"GCC: (4.8.4-1+11-1) 4.8.4 20141219 (release)"
ARM GAS  /tmp/ccWwr2wE.s 			page 63


DEFINED SYMBOLS
                            *ABS*:0000000000000000 chevents.c
     /tmp/ccWwr2wE.s:19     .text.chEvtRegisterMask:0000000000000000 $t
     /tmp/ccWwr2wE.s:25     .text.chEvtRegisterMask:0000000000000000 chEvtRegisterMask
     /tmp/ccWwr2wE.s:70     .text.chEvtRegisterMask:0000000000000020 $d
     /tmp/ccWwr2wE.s:75     .text.chEvtUnregister:0000000000000000 $t
     /tmp/ccWwr2wE.s:81     .text.chEvtUnregister:0000000000000000 chEvtUnregister
     /tmp/ccWwr2wE.s:132    .text.chEvtGetAndClearEvents:0000000000000000 $t
     /tmp/ccWwr2wE.s:138    .text.chEvtGetAndClearEvents:0000000000000000 chEvtGetAndClearEvents
     /tmp/ccWwr2wE.s:173    .text.chEvtGetAndClearEvents:000000000000001c $d
     /tmp/ccWwr2wE.s:178    .text.chEvtAddEvents:0000000000000000 $t
     /tmp/ccWwr2wE.s:184    .text.chEvtAddEvents:0000000000000000 chEvtAddEvents
     /tmp/ccWwr2wE.s:217    .text.chEvtAddEvents:0000000000000018 $d
     /tmp/ccWwr2wE.s:222    .text.chEvtGetAndClearFlags:0000000000000000 $t
     /tmp/ccWwr2wE.s:228    .text.chEvtGetAndClearFlags:0000000000000000 chEvtGetAndClearFlags
     /tmp/ccWwr2wE.s:263    .text.chEvtSignalI:0000000000000000 $t
     /tmp/ccWwr2wE.s:269    .text.chEvtSignalI:0000000000000000 chEvtSignalI
     /tmp/ccWwr2wE.s:329    .text.chEvtBroadcastFlagsI:0000000000000000 $t
     /tmp/ccWwr2wE.s:335    .text.chEvtBroadcastFlagsI:0000000000000000 chEvtBroadcastFlagsI
     /tmp/ccWwr2wE.s:384    .text.chEvtSignal:0000000000000000 $t
     /tmp/ccWwr2wE.s:390    .text.chEvtSignal:0000000000000000 chEvtSignal
     /tmp/ccWwr2wE.s:422    .text.chEvtBroadcastFlags:0000000000000000 $t
     /tmp/ccWwr2wE.s:428    .text.chEvtBroadcastFlags:0000000000000000 chEvtBroadcastFlags
     /tmp/ccWwr2wE.s:460    .text.chEvtGetAndClearFlagsI:0000000000000000 $t
     /tmp/ccWwr2wE.s:466    .text.chEvtGetAndClearFlagsI:0000000000000000 chEvtGetAndClearFlagsI
     /tmp/ccWwr2wE.s:489    .text.chEvtDispatch:0000000000000000 $t
     /tmp/ccWwr2wE.s:495    .text.chEvtDispatch:0000000000000000 chEvtDispatch
     /tmp/ccWwr2wE.s:556    .text.chEvtWaitOneTimeout:0000000000000000 $t
     /tmp/ccWwr2wE.s:562    .text.chEvtWaitOneTimeout:0000000000000000 chEvtWaitOneTimeout
     /tmp/ccWwr2wE.s:648    .text.chEvtWaitOneTimeout:0000000000000048 $d
     /tmp/ccWwr2wE.s:653    .text.chEvtWaitAnyTimeout:0000000000000000 $t
     /tmp/ccWwr2wE.s:659    .text.chEvtWaitAnyTimeout:0000000000000000 chEvtWaitAnyTimeout
     /tmp/ccWwr2wE.s:734    .text.chEvtWaitAnyTimeout:0000000000000040 $d
     /tmp/ccWwr2wE.s:739    .text.chEvtWaitAllTimeout:0000000000000000 $t
     /tmp/ccWwr2wE.s:745    .text.chEvtWaitAllTimeout:0000000000000000 chEvtWaitAllTimeout
     /tmp/ccWwr2wE.s:825    .text.chEvtWaitAllTimeout:0000000000000044 $d
                     .debug_frame:0000000000000010 $d
     /tmp/ccWwr2wE.s:74     .text.chEvtRegisterMask:0000000000000024 $t
     /tmp/ccWwr2wE.s:221    .text.chEvtAddEvents:000000000000001c $t
     /tmp/ccWwr2wE.s:652    .text.chEvtWaitOneTimeout:000000000000004c $t
     /tmp/ccWwr2wE.s:738    .text.chEvtWaitAnyTimeout:0000000000000044 $t
     /tmp/ccWwr2wE.s:829    .text.chEvtWaitAllTimeout:0000000000000048 $t

UNDEFINED SYMBOLS
_port_lock
_port_unlock
rlist
chSchReadyI
chSchRescheduleS
chSchGoSleepTimeoutS
