ARM GAS  /tmp/ccBRXz2L.s 			page 1


   1              		.syntax unified
   2              		.cpu cortex-m3
   3              		.fpu softvfp
   4              		.eabi_attribute 20, 1
   5              		.eabi_attribute 21, 1
   6              		.eabi_attribute 23, 3
   7              		.eabi_attribute 24, 1
   8              		.eabi_attribute 25, 1
   9              		.eabi_attribute 26, 1
  10              		.eabi_attribute 30, 2
  11              		.eabi_attribute 34, 1
  12              		.eabi_attribute 18, 4
  13              		.thumb
  14              		.file	"chmsg.c"
  15              		.text
  16              	.Ltext0:
  17              		.cfi_sections	.debug_frame
  18              		.section	.text.chMsgSend,"ax",%progbits
  19              		.align	2
  20              		.p2align 4,,15
  21              		.global	chMsgSend
  22              		.thumb
  23              		.thumb_func
  24              		.type	chMsgSend, %function
  25              	chMsgSend:
  26              	.LFB0:
  27              		.file 1 "../os/kernel/src/chmsg.c"
  28              		.loc 1 75 0
  29              		.cfi_startproc
  30              		@ args = 0, pretend = 0, frame = 0
  31              		@ frame_needed = 0, uses_anonymous_args = 0
  32              	.LVL0:
  33 0000 38B5     		push	{r3, r4, r5, lr}
  34              		.cfi_def_cfa_offset 16
  35              		.cfi_offset 3, -16
  36              		.cfi_offset 4, -12
  37              		.cfi_offset 5, -8
  38              		.cfi_offset 14, -4
  39              		.loc 1 76 0
  40 0002 0D4B     		ldr	r3, .L5
  41              		.loc 1 75 0
  42 0004 0546     		mov	r5, r0
  43              		.loc 1 76 0
  44 0006 1C69     		ldr	r4, [r3, #16]
  45              	.LVL1:
  46              		.loc 1 80 0
  47              	@ 80 "../os/kernel/src/chmsg.c" 1
  48 0008 FFF7FEFF 		bl      _port_lock
  49              	@ 0 "" 2
  50              		.loc 1 82 0
  51              		.thumb
  52 000c 00F11C03 		add	r3, r0, #28
  53              		.loc 1 81 0
  54 0010 6162     		str	r1, [r4, #36]
  55              		.loc 1 82 0
  56 0012 6361     		str	r3, [r4, #20]
  57              		.loc 1 83 0
ARM GAS  /tmp/ccBRXz2L.s 			page 2


  58 0014 1946     		mov	r1, r3
  59              	.LVL2:
  60 0016 2046     		mov	r0, r4
  61              	.LVL3:
  62 0018 FFF7FEFF 		bl	queue_insert
  63              	.LVL4:
  64              		.loc 1 84 0
  65 001c 2B7C     		ldrb	r3, [r5, #16]	@ zero_extendqisi2
  66 001e 0C2B     		cmp	r3, #12
  67 0020 06D0     		beq	.L4
  68              	.L2:
  69              		.loc 1 86 0
  70 0022 0A20     		movs	r0, #10
  71 0024 FFF7FEFF 		bl	chSchGoSleepS
  72              	.LVL5:
  73              		.loc 1 87 0
  74 0028 6069     		ldr	r0, [r4, #20]
  75              	.LVL6:
  76              		.loc 1 88 0
  77              	@ 88 "../os/kernel/src/chmsg.c" 1
  78 002a FFF7FEFF 		bl      _port_unlock
  79              	@ 0 "" 2
  80              		.loc 1 90 0
  81              		.thumb
  82 002e 38BD     		pop	{r3, r4, r5, pc}
  83              	.LVL7:
  84              	.L4:
  85              		.loc 1 85 0
  86 0030 2846     		mov	r0, r5
  87 0032 FFF7FEFF 		bl	chSchReadyI
  88              	.LVL8:
  89 0036 F4E7     		b	.L2
  90              	.L6:
  91              		.align	2
  92              	.L5:
  93 0038 00000000 		.word	rlist
  94              		.cfi_endproc
  95              	.LFE0:
  96              		.size	chMsgSend, .-chMsgSend
  97 003c AFF30080 		.section	.text.chMsgWait,"ax",%progbits
  98              		.align	2
  99              		.p2align 4,,15
 100              		.global	chMsgWait
 101              		.thumb
 102              		.thumb_func
 103              		.type	chMsgWait, %function
 104              	chMsgWait:
 105              	.LFB1:
 106              		.loc 1 106 0
 107              		.cfi_startproc
 108              		@ args = 0, pretend = 0, frame = 0
 109              		@ frame_needed = 0, uses_anonymous_args = 0
 110 0000 10B5     		push	{r4, lr}
 111              		.cfi_def_cfa_offset 8
 112              		.cfi_offset 4, -8
 113              		.cfi_offset 14, -4
 114              		.loc 1 109 0
ARM GAS  /tmp/ccBRXz2L.s 			page 3


 115              	@ 109 "../os/kernel/src/chmsg.c" 1
 116 0002 FFF7FEFF 		bl      _port_lock
 117              	@ 0 "" 2
 118              		.loc 1 110 0
 119              		.thumb
 120 0006 094C     		ldr	r4, .L10
 121 0008 2069     		ldr	r0, [r4, #16]
 122 000a C369     		ldr	r3, [r0, #28]
 123 000c 1C30     		adds	r0, r0, #28
 124 000e 8342     		cmp	r3, r0
 125 0010 06D0     		beq	.L9
 126              	.L8:
 127              		.loc 1 112 0
 128 0012 FFF7FEFF 		bl	fifo_remove
 129              	.LVL9:
 130              		.loc 1 113 0
 131 0016 0B23     		movs	r3, #11
 132 0018 0374     		strb	r3, [r0, #16]
 133              		.loc 1 114 0
 134              	@ 114 "../os/kernel/src/chmsg.c" 1
 135 001a FFF7FEFF 		bl      _port_unlock
 136              	@ 0 "" 2
 137              		.loc 1 116 0
 138              		.thumb
 139 001e 10BD     		pop	{r4, pc}
 140              	.LVL10:
 141              	.L9:
 142              		.loc 1 111 0
 143 0020 0C20     		movs	r0, #12
 144 0022 FFF7FEFF 		bl	chSchGoSleepS
 145              	.LVL11:
 146 0026 2069     		ldr	r0, [r4, #16]
 147 0028 1C30     		adds	r0, r0, #28
 148 002a F2E7     		b	.L8
 149              	.L11:
 150              		.align	2
 151              	.L10:
 152 002c 00000000 		.word	rlist
 153              		.cfi_endproc
 154              	.LFE1:
 155              		.size	chMsgWait, .-chMsgWait
 156              		.section	.text.chMsgRelease,"ax",%progbits
 157              		.align	2
 158              		.p2align 4,,15
 159              		.global	chMsgRelease
 160              		.thumb
 161              		.thumb_func
 162              		.type	chMsgRelease, %function
 163              	chMsgRelease:
 164              	.LFB2:
 165              		.loc 1 128 0
 166              		.cfi_startproc
 167              		@ args = 0, pretend = 0, frame = 0
 168              		@ frame_needed = 0, uses_anonymous_args = 0
 169              	.LVL12:
 170 0000 08B5     		push	{r3, lr}
 171              		.cfi_def_cfa_offset 8
ARM GAS  /tmp/ccBRXz2L.s 			page 4


 172              		.cfi_offset 3, -8
 173              		.cfi_offset 14, -4
 174              		.loc 1 130 0
 175              	@ 130 "../os/kernel/src/chmsg.c" 1
 176 0002 FFF7FEFF 		bl      _port_lock
 177              	@ 0 "" 2
 178              		.loc 1 133 0
 179              		.thumb
 180 0006 FFF7FEFF 		bl	chSchWakeupS
 181              	.LVL13:
 182              		.loc 1 134 0
 183              	@ 134 "../os/kernel/src/chmsg.c" 1
 184 000a FFF7FEFF 		bl      _port_unlock
 185              	@ 0 "" 2
 186              		.thumb
 187 000e 08BD     		pop	{r3, pc}
 188              		.cfi_endproc
 189              	.LFE2:
 190              		.size	chMsgRelease, .-chMsgRelease
 191              		.text
 192              	.Letext0:
 193              		.file 2 "/usr/include/newlib/machine/_default_types.h"
 194              		.file 3 "/usr/include/newlib/stdint.h"
 195              		.file 4 "../os/ports/GCC/ARMCMx/chtypes.h"
 196              		.file 5 "../os/kernel/include/chlists.h"
 197              		.file 6 "../os/kernel/include/chthreads.h"
 198              		.file 7 "../os/ports/GCC/ARMCMx/chcore_v7m.h"
 199              		.file 8 "../os/kernel/include/chschd.h"
 200              		.file 9 "../os/kernel/include/chmtx.h"