ARM GAS  /tmp/cckJEaq5.s 			page 1


   1              		.syntax unified
   2              		.cpu cortex-m3
   3              		.fpu softvfp
   4              		.eabi_attribute 20, 1
   5              		.eabi_attribute 21, 1
   6              		.eabi_attribute 23, 3
   7              		.eabi_attribute 24, 1
   8              		.eabi_attribute 25, 1
   9              		.eabi_attribute 26, 1
  10              		.eabi_attribute 30, 2
  11              		.eabi_attribute 34, 1
  12              		.eabi_attribute 18, 4
  13              		.thumb
  14              		.file	"chschd.c"
  15              		.text
  16              	.Ltext0:
  17              		.cfi_sections	.debug_frame
  18              		.section	.text.wakeup,"ax",%progbits
  19              		.align	2
  20              		.p2align 4,,15
  21              		.thumb
  22              		.thumb_func
  23              		.type	wakeup, %function
  24              	wakeup:
  25              	.LFB3:
  26              		.file 1 "../os/kernel/src/chschd.c"
  27              		.loc 1 136 0
  28              		.cfi_startproc
  29              		@ args = 0, pretend = 0, frame = 0
  30              		@ frame_needed = 0, uses_anonymous_args = 0
  31              	.LVL0:
  32 0000 10B5     		push	{r4, lr}
  33              		.cfi_def_cfa_offset 8
  34              		.cfi_offset 4, -8
  35              		.cfi_offset 14, -4
  36              		.loc 1 136 0
  37 0002 0446     		mov	r4, r0
  38              	.LVL1:
  39              		.loc 1 139 0
  40              	@ 139 "../os/kernel/src/chschd.c" 1
  41 0004 FFF7FEFF 		bl      _port_lock
  42              	@ 0 "" 2
  43              		.loc 1 140 0
  44              		.thumb
  45 0008 037C     		ldrb	r3, [r0, #16]	@ zero_extendqisi2
  46 000a 0D2B     		cmp	r3, #13
  47 000c 0FD8     		bhi	.L2
  48 000e DFE803F0 		tbb	[pc, r3]
  49              	.L4:
  50 0012 1E       		.byte	(.L10-.L4)/2
  51 0013 0E       		.byte	(.L2-.L4)/2
  52 0014 0E       		.byte	(.L2-.L4)/2
  53 0015 07       		.byte	(.L5-.L4)/2
  54 0016 0E       		.byte	(.L2-.L4)/2
  55 0017 0B       		.byte	(.L6-.L4)/2
  56 0018 0E       		.byte	(.L2-.L4)/2
  57 0019 0E       		.byte	(.L2-.L4)/2
ARM GAS  /tmp/cckJEaq5.s 			page 2


  58 001a 0E       		.byte	(.L2-.L4)/2
  59 001b 0E       		.byte	(.L2-.L4)/2
  60 001c 0E       		.byte	(.L2-.L4)/2
  61 001d 0E       		.byte	(.L2-.L4)/2
  62 001e 0E       		.byte	(.L2-.L4)/2
  63 001f 0B       		.byte	(.L6-.L4)/2
  64              		.p2align 1
  65              	.L5:
  66              		.loc 1 150 0
  67 0020 4369     		ldr	r3, [r0, #20]
  68 0022 9A68     		ldr	r2, [r3, #8]
  69 0024 0132     		adds	r2, r2, #1
  70 0026 9A60     		str	r2, [r3, #8]
  71              	.L6:
  72              		.loc 1 160 0
  73 0028 2046     		mov	r0, r4
  74              	.LVL2:
  75 002a FFF7FEFF 		bl	dequeue
  76              	.LVL3:
  77              	.L2:
  78              		.loc 1 163 0
  79 002e 4FF0FF30 		mov	r0, #-1
  80              	.LBB11:
  81              	.LBB12:
  82              		.loc 1 92 0
  83 0032 0022     		movs	r2, #0
  84 0034 A168     		ldr	r1, [r4, #8]
  85              		.loc 1 93 0
  86 0036 074B     		ldr	r3, .L12
  87              	.LBE12:
  88              	.LBE11:
  89              		.loc 1 163 0
  90 0038 6061     		str	r0, [r4, #20]
  91              	.LVL4:
  92              	.LBB14:
  93              	.LBB13:
  94              		.loc 1 92 0
  95 003a 2274     		strb	r2, [r4, #16]
  96              	.LVL5:
  97              	.L9:
  98              		.loc 1 95 0
  99 003c 1B68     		ldr	r3, [r3]
 100              	.LVL6:
 101              		.loc 1 96 0
 102 003e 9A68     		ldr	r2, [r3, #8]
 103 0040 8A42     		cmp	r2, r1
 104 0042 FBD2     		bcs	.L9
 105              		.loc 1 98 0
 106 0044 2360     		str	r3, [r4]
 107              		.loc 1 99 0
 108 0046 5A68     		ldr	r2, [r3, #4]
 109 0048 6260     		str	r2, [r4, #4]
 110              		.loc 1 100 0
 111 004a 5C60     		str	r4, [r3, #4]
 112 004c 1460     		str	r4, [r2]
 113              	.LVL7:
 114              	.L10:
ARM GAS  /tmp/cckJEaq5.s 			page 3


 115              	.LBE13:
 116              	.LBE14:
 117              		.loc 1 165 0
 118              	@ 165 "../os/kernel/src/chschd.c" 1
 119 004e FFF7FEFF 		bl      _port_unlock
 120              	@ 0 "" 2
 121              		.thumb
 122 0052 10BD     		pop	{r4, pc}
 123              	.LVL8:
 124              	.L13:
 125              		.align	2
 126              	.L12:
 127 0054 00000000 		.word	.LANCHOR0
 128              		.cfi_endproc
 129              	.LFE3:
 130              		.size	wakeup, .-wakeup
 131 0058 AFF30080 		.section	.text._scheduler_init,"ax",%progbits
 131      AFF30080 
 132              		.align	2
 133              		.p2align 4,,15
 134              		.global	_scheduler_init
 135              		.thumb
 136              		.thumb_func
 137              		.type	_scheduler_init, %function
 138              	_scheduler_init:
 139              	.LFB0:
 140              		.loc 1 55 0
 141              		.cfi_startproc
 142              		@ args = 0, pretend = 0, frame = 0
 143              		@ frame_needed = 0, uses_anonymous_args = 0
 144              		@ link register save eliminated.
 145              		.loc 1 57 0
 146 0000 024B     		ldr	r3, .L15
 147              		.loc 1 58 0
 148 0002 0022     		movs	r2, #0
 149              		.loc 1 57 0
 150 0004 5B60     		str	r3, [r3, #4]
 151 0006 1B60     		str	r3, [r3]
 152              		.loc 1 58 0
 153 0008 9A60     		str	r2, [r3, #8]
 154 000a 7047     		bx	lr
 155              	.L16:
 156              		.align	2
 157              	.L15:
 158 000c 00000000 		.word	.LANCHOR0
 159              		.cfi_endproc
 160              	.LFE0:
 161              		.size	_scheduler_init, .-_scheduler_init
 162              		.section	.text.chSchReadyI,"ax",%progbits
 163              		.align	2
 164              		.p2align 4,,15
 165              		.global	chSchReadyI
 166              		.thumb
 167              		.thumb_func
 168              		.type	chSchReadyI, %function
 169              	chSchReadyI:
 170              	.LFB1:
ARM GAS  /tmp/cckJEaq5.s 			page 4


 171              		.loc 1 81 0
 172              		.cfi_startproc
 173              		@ args = 0, pretend = 0, frame = 0
 174              		@ frame_needed = 0, uses_anonymous_args = 0
 175              		@ link register save eliminated.
 176              	.LVL9:
 177 0000 10B4     		push	{r4}
 178              		.cfi_def_cfa_offset 4
 179              		.cfi_offset 4, -4
 180              		.loc 1 92 0
 181 0002 0022     		movs	r2, #0
 182 0004 8168     		ldr	r1, [r0, #8]
 183              		.loc 1 93 0
 184 0006 084B     		ldr	r3, .L20
 185              		.loc 1 81 0
 186 0008 0446     		mov	r4, r0
 187              		.loc 1 92 0
 188 000a 0274     		strb	r2, [r0, #16]
 189              	.LVL10:
 190              	.L19:
 191              		.loc 1 95 0 discriminator 1
 192 000c 1B68     		ldr	r3, [r3]
 193              	.LVL11:
 194              		.loc 1 96 0 discriminator 1
 195 000e 9A68     		ldr	r2, [r3, #8]
 196 0010 8A42     		cmp	r2, r1
 197 0012 FBD2     		bcs	.L19
 198              		.loc 1 98 0
 199 0014 2360     		str	r3, [r4]
 200              		.loc 1 99 0
 201 0016 5A68     		ldr	r2, [r3, #4]
 202              		.loc 1 102 0
 203 0018 2046     		mov	r0, r4
 204              	.LVL12:
 205              		.loc 1 99 0
 206 001a 6260     		str	r2, [r4, #4]
 207              		.loc 1 100 0
 208 001c 5C60     		str	r4, [r3, #4]
 209 001e 1460     		str	r4, [r2]
 210              		.loc 1 102 0
 211 0020 5DF8044B 		ldr	r4, [sp], #4
 212              	.LVL13:
 213 0024 7047     		bx	lr
 214              	.L21:
 215 0026 00BF     		.align	2
 216              	.L20:
 217 0028 00000000 		.word	.LANCHOR0
 218              		.cfi_endproc
 219              	.LFE1:
 220              		.size	chSchReadyI, .-chSchReadyI
 221 002c AFF30080 		.section	.text.chSchGoSleepS,"ax",%progbits
 222              		.align	2
 223              		.p2align 4,,15
 224              		.global	chSchGoSleepS
 225              		.thumb
 226              		.thumb_func
 227              		.type	chSchGoSleepS, %function
ARM GAS  /tmp/cckJEaq5.s 			page 5


 228              	chSchGoSleepS:
 229              	.LFB2:
 230              		.loc 1 115 0
 231              		.cfi_startproc
 232              		@ args = 0, pretend = 0, frame = 0
 233              		@ frame_needed = 0, uses_anonymous_args = 0
 234              	.LVL14:
 235 0000 38B5     		push	{r3, r4, r5, lr}
 236              		.cfi_def_cfa_offset 16
 237              		.cfi_offset 3, -16
 238              		.cfi_offset 4, -12
 239              		.cfi_offset 5, -8
 240              		.cfi_offset 14, -4
 241              		.loc 1 120 0
 242 0002 084C     		ldr	r4, .L23
 243              		.loc 1 124 0
 244 0004 1423     		movs	r3, #20
 245              		.loc 1 120 0
 246 0006 2569     		ldr	r5, [r4, #16]
 247              	.LVL15:
 248 0008 2874     		strb	r0, [r5, #16]
 249              		.loc 1 124 0
 250 000a AB74     		strb	r3, [r5, #18]
 251              		.loc 1 126 0
 252 000c 2046     		mov	r0, r4
 253              	.LVL16:
 254 000e FFF7FEFF 		bl	fifo_remove
 255              	.LVL17:
 256              		.loc 1 127 0
 257 0012 0123     		movs	r3, #1
 258              		.loc 1 126 0
 259 0014 2061     		str	r0, [r4, #16]
 260              		.loc 1 127 0
 261 0016 0374     		strb	r3, [r0, #16]
 262              		.loc 1 128 0
 263 0018 2946     		mov	r1, r5
 264 001a 2069     		ldr	r0, [r4, #16]
 265              		.loc 1 129 0
 266 001c BDE83840 		pop	{r3, r4, r5, lr}
 267              	.LVL18:
 268              		.loc 1 128 0
 269 0020 FFF7FEBF 		b	_port_switch
 270              	.LVL19:
 271              	.L24:
 272              		.align	2
 273              	.L23:
 274 0024 00000000 		.word	.LANCHOR0
 275              		.cfi_endproc
 276              	.LFE2:
 277              		.size	chSchGoSleepS, .-chSchGoSleepS
 278 0028 AFF30080 		.section	.text.chSchGoSleepTimeoutS,"ax",%progbits
 278      AFF30080 
 279              		.align	2
 280              		.p2align 4,,15
 281              		.global	chSchGoSleepTimeoutS
 282              		.thumb
 283              		.thumb_func
ARM GAS  /tmp/cckJEaq5.s 			page 6


 284              		.type	chSchGoSleepTimeoutS, %function
 285              	chSchGoSleepTimeoutS:
 286              	.LFB4:
 287              		.loc 1 189 0
 288              		.cfi_startproc
 289              		@ args = 0, pretend = 0, frame = 24
 290              		@ frame_needed = 0, uses_anonymous_args = 0
 291              	.LVL20:
 292 0000 30B5     		push	{r4, r5, lr}
 293              		.cfi_def_cfa_offset 12
 294              		.cfi_offset 4, -12
 295              		.cfi_offset 5, -8
 296              		.cfi_offset 14, -4
 297              		.loc 1 193 0
 298 0002 4B1C     		adds	r3, r1, #1
 299              		.loc 1 189 0
 300 0004 87B0     		sub	sp, sp, #28
 301              		.cfi_def_cfa_offset 40
 302              		.loc 1 189 0
 303 0006 0546     		mov	r5, r0
 304              		.loc 1 193 0
 305 0008 11D0     		beq	.L26
 306              	.LBB15:
 307              		.loc 1 196 0
 308 000a 0C4C     		ldr	r4, .L32
 309 000c 01A8     		add	r0, sp, #4
 310              	.LVL21:
 311 000e 2369     		ldr	r3, [r4, #16]
 312 0010 0B4A     		ldr	r2, .L32+4
 313 0012 FFF7FEFF 		bl	chVTSetI
 314              	.LVL22:
 315              		.loc 1 197 0
 316 0016 2846     		mov	r0, r5
 317 0018 FFF7FEFF 		bl	chSchGoSleepS
 318              	.LVL23:
 319              		.loc 1 198 0
 320 001c 049B     		ldr	r3, [sp, #16]
 321 001e 13B1     		cbz	r3, .L28
 322              		.loc 1 199 0
 323 0020 01A8     		add	r0, sp, #4
 324 0022 FFF7FEFF 		bl	chVTResetI
 325              	.LVL24:
 326              	.L28:
 327              	.LBE15:
 328              		.loc 1 203 0
 329 0026 2369     		ldr	r3, [r4, #16]
 330              		.loc 1 204 0
 331 0028 5869     		ldr	r0, [r3, #20]
 332 002a 07B0     		add	sp, sp, #28
 333              		@ sp needed
 334 002c 30BD     		pop	{r4, r5, pc}
 335              	.LVL25:
 336              	.L26:
 337              		.loc 1 202 0
 338 002e FFF7FEFF 		bl	chSchGoSleepS
 339              	.LVL26:
 340 0032 024C     		ldr	r4, .L32
ARM GAS  /tmp/cckJEaq5.s 			page 7


 341              		.loc 1 203 0
 342 0034 2369     		ldr	r3, [r4, #16]
 343              		.loc 1 204 0
 344 0036 5869     		ldr	r0, [r3, #20]
 345 0038 07B0     		add	sp, sp, #28
 346              		@ sp needed
 347 003a 30BD     		pop	{r4, r5, pc}
 348              	.L33:
 349              		.align	2
 350              	.L32:
 351 003c 00000000 		.word	.LANCHOR0
 352 0040 00000000 		.word	wakeup
 353              		.cfi_endproc
 354              	.LFE4:
 355              		.size	chSchGoSleepTimeoutS, .-chSchGoSleepTimeoutS
 356 0044 AFF30080 		.section	.text.chSchWakeupS,"ax",%progbits
 356      AFF30080 
 356      AFF30080 
 357              		.align	2
 358              		.p2align 4,,15
 359              		.global	chSchWakeupS
 360              		.thumb
 361              		.thumb_func
 362              		.type	chSchWakeupS, %function
 363              	chSchWakeupS:
 364              	.LFB5:
 365              		.loc 1 225 0
 366              		.cfi_startproc
 367              		@ args = 0, pretend = 0, frame = 0
 368              		@ frame_needed = 0, uses_anonymous_args = 0
 369              		@ link register save eliminated.
 370              	.LVL27:
 371 0000 F0B4     		push	{r4, r5, r6, r7}
 372              		.cfi_def_cfa_offset 16
 373              		.cfi_offset 4, -16
 374              		.cfi_offset 5, -12
 375              		.cfi_offset 6, -8
 376              		.cfi_offset 7, -4
 377              		.loc 1 234 0
 378 0002 DFF858C0 		ldr	ip, .L42
 379              		.loc 1 229 0
 380 0006 4161     		str	r1, [r0, #20]
 381              		.loc 1 234 0
 382 0008 DCF81070 		ldr	r7, [ip, #16]
 383 000c 8568     		ldr	r5, [r0, #8]
 384 000e BC68     		ldr	r4, [r7, #8]
 385              		.loc 1 225 0
 386 0010 0646     		mov	r6, r0
 387              		.loc 1 234 0
 388 0012 A542     		cmp	r5, r4
 389 0014 0DD8     		bhi	.L35
 390              	.LVL28:
 391              	.LBB16:
 392              	.LBB17:
 393              		.loc 1 92 0
 394 0016 0022     		movs	r2, #0
 395              		.loc 1 93 0
ARM GAS  /tmp/cckJEaq5.s 			page 8


 396 0018 6346     		mov	r3, ip
 397              		.loc 1 92 0
 398 001a 0274     		strb	r2, [r0, #16]
 399              	.LVL29:
 400              	.L37:
 401              		.loc 1 95 0
 402 001c 1B68     		ldr	r3, [r3]
 403              	.LVL30:
 404              		.loc 1 96 0
 405 001e 9A68     		ldr	r2, [r3, #8]
 406 0020 9542     		cmp	r5, r2
 407 0022 FBD9     		bls	.L37
 408              		.loc 1 98 0
 409 0024 3360     		str	r3, [r6]
 410              		.loc 1 99 0
 411 0026 5A68     		ldr	r2, [r3, #4]
 412 0028 7260     		str	r2, [r6, #4]
 413              		.loc 1 100 0
 414 002a 5E60     		str	r6, [r3, #4]
 415 002c 1660     		str	r6, [r2]
 416              	.LBE17:
 417              	.LBE16:
 418              		.loc 1 242 0
 419 002e F0BC     		pop	{r4, r5, r6, r7}
 420 0030 7047     		bx	lr
 421              	.LVL31:
 422              	.L35:
 423              	.LBB18:
 424              	.LBB19:
 425              	.LBB20:
 426              		.loc 1 92 0
 427 0032 0023     		movs	r3, #0
 428 0034 3B74     		strb	r3, [r7, #16]
 429              	.LVL32:
 430              		.loc 1 93 0
 431 0036 6346     		mov	r3, ip
 432              	.LVL33:
 433              	.L40:
 434              		.loc 1 95 0
 435 0038 1B68     		ldr	r3, [r3]
 436              	.LVL34:
 437              		.loc 1 96 0
 438 003a 9A68     		ldr	r2, [r3, #8]
 439 003c 9442     		cmp	r4, r2
 440 003e FBD9     		bls	.L40
 441              		.loc 1 98 0
 442 0040 3B60     		str	r3, [r7]
 443              		.loc 1 99 0
 444 0042 5A68     		ldr	r2, [r3, #4]
 445              	.LBE20:
 446              	.LBE19:
 447              		.loc 1 239 0
 448 0044 0124     		movs	r4, #1
 449              	.LBB22:
 450              	.LBB21:
 451              		.loc 1 99 0
 452 0046 7A60     		str	r2, [r7, #4]
ARM GAS  /tmp/cckJEaq5.s 			page 9


 453              		.loc 1 100 0
 454 0048 5F60     		str	r7, [r3, #4]
 455 004a 1760     		str	r7, [r2]
 456              	.LBE21:
 457              	.LBE22:
 458              		.loc 1 238 0
 459 004c CCF81060 		str	r6, [ip, #16]
 460              		.loc 1 239 0
 461 0050 3474     		strb	r4, [r6, #16]
 462              		.loc 1 240 0
 463 0052 3946     		mov	r1, r7
 464              	.LVL35:
 465 0054 3046     		mov	r0, r6
 466              	.LVL36:
 467              	.LBE18:
 468              		.loc 1 242 0
 469 0056 F0BC     		pop	{r4, r5, r6, r7}
 470              	.LVL37:
 471              	.LBB23:
 472              		.loc 1 240 0
 473 0058 FFF7FEBF 		b	_port_switch
 474              	.LVL38:
 475              	.L43:
 476              		.align	2
 477              	.L42:
 478 005c 00000000 		.word	.LANCHOR0
 479              	.LBE23:
 480              		.cfi_endproc
 481              	.LFE5:
 482              		.size	chSchWakeupS, .-chSchWakeupS
 483              		.section	.text.chSchDoRescheduleBehind,"ax",%progbits
 484              		.align	2
 485              		.p2align 4,,15
 486              		.global	chSchDoRescheduleBehind
 487              		.thumb
 488              		.thumb_func
 489              		.type	chSchDoRescheduleBehind, %function
 490              	chSchDoRescheduleBehind:
 491              	.LFB7:
 492              		.loc 1 304 0
 493              		.cfi_startproc
 494              		@ args = 0, pretend = 0, frame = 0
 495              		@ frame_needed = 0, uses_anonymous_args = 0
 496 0000 38B5     		push	{r3, r4, r5, lr}
 497              		.cfi_def_cfa_offset 16
 498              		.cfi_offset 3, -16
 499              		.cfi_offset 4, -12
 500              		.cfi_offset 5, -8
 501              		.cfi_offset 14, -4
 502              		.loc 1 307 0
 503 0002 0F4C     		ldr	r4, .L47
 504              		.loc 1 309 0
 505 0004 2046     		mov	r0, r4
 506              		.loc 1 307 0
 507 0006 2569     		ldr	r5, [r4, #16]
 508              	.LVL39:
 509              		.loc 1 309 0
ARM GAS  /tmp/cckJEaq5.s 			page 10


 510 0008 FFF7FEFF 		bl	fifo_remove
 511              	.LVL40:
 512              		.loc 1 310 0
 513 000c 0123     		movs	r3, #1
 514              		.loc 1 309 0
 515 000e 2061     		str	r0, [r4, #16]
 516              		.loc 1 310 0
 517 0010 0374     		strb	r3, [r0, #16]
 518              		.loc 1 312 0
 519 0012 1422     		movs	r2, #20
 520              	.LBB24:
 521              	.LBB25:
 522              		.loc 1 93 0
 523 0014 2046     		mov	r0, r4
 524              		.loc 1 92 0
 525 0016 0023     		movs	r3, #0
 526 0018 AC68     		ldr	r4, [r5, #8]
 527 001a 2B74     		strb	r3, [r5, #16]
 528              	.LBE25:
 529              	.LBE24:
 530              		.loc 1 312 0
 531 001c AA74     		strb	r2, [r5, #18]
 532              	.LVL41:
 533              	.LBB28:
 534              	.LBB26:
 535              		.loc 1 93 0
 536 001e 0346     		mov	r3, r0
 537              	.LVL42:
 538              	.L46:
 539              		.loc 1 95 0
 540 0020 1B68     		ldr	r3, [r3]
 541              	.LVL43:
 542              		.loc 1 96 0
 543 0022 9A68     		ldr	r2, [r3, #8]
 544 0024 A242     		cmp	r2, r4
 545 0026 FBD2     		bcs	.L46
 546              		.loc 1 98 0
 547 0028 2B60     		str	r3, [r5]
 548              		.loc 1 99 0
 549 002a 5A68     		ldr	r2, [r3, #4]
 550              	.LBE26:
 551              	.LBE28:
 552              		.loc 1 315 0
 553 002c 2946     		mov	r1, r5
 554              	.LBB29:
 555              	.LBB27:
 556              		.loc 1 99 0
 557 002e 6A60     		str	r2, [r5, #4]
 558              		.loc 1 100 0
 559 0030 5D60     		str	r5, [r3, #4]
 560 0032 1560     		str	r5, [r2]
 561              	.LBE27:
 562              	.LBE29:
 563              		.loc 1 315 0
 564 0034 0069     		ldr	r0, [r0, #16]
 565              		.loc 1 316 0
 566 0036 BDE83840 		pop	{r3, r4, r5, lr}
ARM GAS  /tmp/cckJEaq5.s 			page 11


 567              	.LVL44:
 568              		.loc 1 315 0
 569 003a FFF7FEBF 		b	_port_switch
 570              	.LVL45:
 571              	.L48:
 572 003e 00BF     		.align	2
 573              	.L47:
 574 0040 00000000 		.word	.LANCHOR0
 575              		.cfi_endproc
 576              	.LFE7:
 577              		.size	chSchDoRescheduleBehind, .-chSchDoRescheduleBehind
 578 0044 AFF30080 		.section	.text.chSchDoRescheduleAhead,"ax",%progbits
 578      AFF30080 
 578      AFF30080 
 579              		.align	2
 580              		.p2align 4,,15
 581              		.global	chSchDoRescheduleAhead
 582              		.thumb
 583              		.thumb_func
 584              		.type	chSchDoRescheduleAhead, %function
 585              	chSchDoRescheduleAhead:
 586              	.LFB8:
 587              		.loc 1 329 0
 588              		.cfi_startproc
 589              		@ args = 0, pretend = 0, frame = 0
 590              		@ frame_needed = 0, uses_anonymous_args = 0
 591 0000 38B5     		push	{r3, r4, r5, lr}
 592              		.cfi_def_cfa_offset 16
 593              		.cfi_offset 3, -16
 594              		.cfi_offset 4, -12
 595              		.cfi_offset 5, -8
 596              		.cfi_offset 14, -4
 597              		.loc 1 332 0
 598 0002 0E4C     		ldr	r4, .L52
 599              		.loc 1 334 0
 600 0004 2046     		mov	r0, r4
 601              		.loc 1 332 0
 602 0006 2569     		ldr	r5, [r4, #16]
 603              	.LVL46:
 604              		.loc 1 334 0
 605 0008 FFF7FEFF 		bl	fifo_remove
 606              	.LVL47:
 607              		.loc 1 335 0
 608 000c 0123     		movs	r3, #1
 609              		.loc 1 334 0
 610 000e 2061     		str	r0, [r4, #16]
 611              		.loc 1 335 0
 612 0010 0374     		strb	r3, [r0, #16]
 613              		.loc 1 338 0
 614 0012 2046     		mov	r0, r4
 615              		.loc 1 337 0
 616 0014 0023     		movs	r3, #0
 617 0016 AC68     		ldr	r4, [r5, #8]
 618 0018 2B74     		strb	r3, [r5, #16]
 619              	.LVL48:
 620              		.loc 1 338 0
 621 001a 0346     		mov	r3, r0
ARM GAS  /tmp/cckJEaq5.s 			page 12


 622              	.LVL49:
 623              	.L51:
 624              		.loc 1 340 0 discriminator 1
 625 001c 1B68     		ldr	r3, [r3]
 626              	.LVL50:
 627              		.loc 1 341 0 discriminator 1
 628 001e 9A68     		ldr	r2, [r3, #8]
 629 0020 A242     		cmp	r2, r4
 630 0022 FBD8     		bhi	.L51
 631              		.loc 1 343 0
 632 0024 2B60     		str	r3, [r5]
 633              		.loc 1 344 0
 634 0026 5A68     		ldr	r2, [r3, #4]
 635              		.loc 1 347 0
 636 0028 2946     		mov	r1, r5
 637              		.loc 1 344 0
 638 002a 6A60     		str	r2, [r5, #4]
 639              		.loc 1 345 0
 640 002c 5D60     		str	r5, [r3, #4]
 641 002e 1560     		str	r5, [r2]
 642              		.loc 1 347 0
 643 0030 0069     		ldr	r0, [r0, #16]
 644              		.loc 1 348 0
 645 0032 BDE83840 		pop	{r3, r4, r5, lr}
 646              	.LVL51:
 647              		.loc 1 347 0
 648 0036 FFF7FEBF 		b	_port_switch
 649              	.LVL52:
 650              	.L53:
 651 003a 00BF     		.align	2
 652              	.L52:
 653 003c 00000000 		.word	.LANCHOR0
 654              		.cfi_endproc
 655              	.LFE8:
 656              		.size	chSchDoRescheduleAhead, .-chSchDoRescheduleAhead
 657              		.section	.text.chSchRescheduleS,"ax",%progbits
 658              		.align	2
 659              		.p2align 4,,15
 660              		.global	chSchRescheduleS
 661              		.thumb
 662              		.thumb_func
 663              		.type	chSchRescheduleS, %function
 664              	chSchRescheduleS:
 665              	.LFB6:
 666              		.loc 1 253 0
 667              		.cfi_startproc
 668              		@ args = 0, pretend = 0, frame = 0
 669              		@ frame_needed = 0, uses_anonymous_args = 0
 670              		@ link register save eliminated.
 671              		.loc 1 257 0
 672 0000 044B     		ldr	r3, .L57
 673 0002 1A68     		ldr	r2, [r3]
 674 0004 1B69     		ldr	r3, [r3, #16]
 675 0006 9268     		ldr	r2, [r2, #8]
 676 0008 9B68     		ldr	r3, [r3, #8]
 677 000a 9A42     		cmp	r2, r3
 678 000c 00D8     		bhi	.L56
ARM GAS  /tmp/cckJEaq5.s 			page 13


 679 000e 7047     		bx	lr
 680              	.L56:
 681              		.loc 1 258 0
 682 0010 FFF7FEBF 		b	chSchDoRescheduleAhead
 683              	.LVL53:
 684              	.L58:
 685              		.align	2
 686              	.L57:
 687 0014 00000000 		.word	.LANCHOR0
 688              		.cfi_endproc
 689              	.LFE6:
 690              		.size	chSchRescheduleS, .-chSchRescheduleS
 691 0018 AFF30080 		.section	.text.chSchDoReschedule,"ax",%progbits
 691      AFF30080 
 692              		.align	2
 693              		.p2align 4,,15
 694              		.global	chSchDoReschedule
 695              		.thumb
 696              		.thumb_func
 697              		.type	chSchDoReschedule, %function
 698              	chSchDoReschedule:
 699              	.LFB9:
 700              		.loc 1 362 0
 701              		.cfi_startproc
 702              		@ args = 0, pretend = 0, frame = 0
 703              		@ frame_needed = 0, uses_anonymous_args = 0
 704              		@ link register save eliminated.
 705              		.loc 1 367 0
 706 0000 034B     		ldr	r3, .L62
 707 0002 1B69     		ldr	r3, [r3, #16]
 708 0004 9B7C     		ldrb	r3, [r3, #18]	@ zero_extendqisi2
 709 0006 0BB1     		cbz	r3, .L61
 710              		.loc 1 375 0
 711 0008 FFF7FEBF 		b	chSchDoRescheduleAhead
 712              	.LVL54:
 713              	.L61:
 714              		.loc 1 370 0
 715 000c FFF7FEBF 		b	chSchDoRescheduleBehind
 716              	.LVL55:
 717              	.L63:
 718              		.align	2
 719              	.L62:
 720 0010 00000000 		.word	.LANCHOR0
 721              		.cfi_endproc
 722              	.LFE9:
 723              		.size	chSchDoReschedule, .-chSchDoReschedule
 724              		.global	rlist
 725 0014 AFF30080 		.section	.bss.rlist,"aw",%nobits
 725      AFF30080 
 725      AFF30080 
 726              		.align	2
 727              		.set	.LANCHOR0,. + 0
 728              		.type	rlist, %object
 729              		.size	rlist, 20
 730              	rlist:
 731 0000 00000000 		.space	20
 731      00000000 
ARM GAS  /tmp/cckJEaq5.s 			page 14


 731      00000000 
 731      00000000 
 731      00000000 
 732              		.text
 733              	.Letext0:
 734              		.file 2 "/usr/include/newlib/machine/_default_types.h"
 735              		.file 3 "/usr/include/newlib/stdint.h"
 736              		.file 4 "../os/ports/GCC/ARMCMx/chtypes.h"
 737              		.file 5 "../os/kernel/include/chlists.h"
 738              		.file 6 "../os/kernel/include/chthreads.h"
 739              		.file 7 "../os/ports/GCC/ARMCMx/chcore_v7m.h"
 740              		.file 8 "../os/kernel/include/chvt.h"
 741              		.file 9 "../os/kernel/include/chschd.h"
 742              		.file 10 "../os/kernel/include/chsem.h"
 743              		.file 11 "../os/kernel/include/chmtx.h"
 744              		.section	.debug_info,"",%progbits
 745              	.Ldebug_info0:
 746 0000 32080000 		.4byte	0x832
 747 0004 0400     		.2byte	0x4
 748 0006 00000000 		.4byte	.Ldebug_abbrev0
 749 000a 04       		.byte	0x4
 750 000b 01       		.uleb128 0x1
 751 000c 5B020000 		.4byte	.LASF80
 752 0010 01       		.byte	0x1
 753 0011 9A030000 		.4byte	.LASF81
 754 0015 0C010000 		.4byte	.LASF82
 755 0019 68000000 		.4byte	.Ldebug_ranges0+0x68
 756 001d 00000000 		.4byte	0
 757 0021 00000000 		.4byte	.Ldebug_line0
 758 0025 02       		.uleb128 0x2
 759 0026 04       		.byte	0x4
 760 0027 05       		.byte	0x5
 761 0028 696E7400 		.ascii	"int\000"
 762 002c 03       		.uleb128 0x3
 763 002d 04       		.byte	0x4
 764 002e 07       		.byte	0x7
 765 002f F0000000 		.4byte	.LASF0
 766 0033 03       		.uleb128 0x3
 767 0034 01       		.byte	0x1
 768 0035 06       		.byte	0x6
 769 0036 73000000 		.4byte	.LASF1
 770 003a 04       		.uleb128 0x4
 771 003b 24000000 		.4byte	.LASF5
 772 003f 02       		.byte	0x2
 773 0040 1D       		.byte	0x1d
 774 0041 45000000 		.4byte	0x45
 775 0045 03       		.uleb128 0x3
 776 0046 01       		.byte	0x1
 777 0047 08       		.byte	0x8
 778 0048 2E030000 		.4byte	.LASF2
 779 004c 03       		.uleb128 0x3
 780 004d 02       		.byte	0x2
 781 004e 05       		.byte	0x5
 782 004f 4F030000 		.4byte	.LASF3
 783 0053 03       		.uleb128 0x3
 784 0054 02       		.byte	0x2
 785 0055 07       		.byte	0x7
ARM GAS  /tmp/cckJEaq5.s 			page 15


 786 0056 90010000 		.4byte	.LASF4
 787 005a 04       		.uleb128 0x4
 788 005b 13040000 		.4byte	.LASF6
 789 005f 02       		.byte	0x2
 790 0060 3F       		.byte	0x3f
 791 0061 65000000 		.4byte	0x65
 792 0065 03       		.uleb128 0x3
 793 0066 04       		.byte	0x4
 794 0067 05       		.byte	0x5
 795 0068 91000000 		.4byte	.LASF7
 796 006c 04       		.uleb128 0x4
 797 006d BC000000 		.4byte	.LASF8
 798 0071 02       		.byte	0x2
 799 0072 41       		.byte	0x41
 800 0073 77000000 		.4byte	0x77
 801 0077 03       		.uleb128 0x3
 802 0078 04       		.byte	0x4
 803 0079 07       		.byte	0x7
 804 007a 6F010000 		.4byte	.LASF9
 805 007e 03       		.uleb128 0x3
 806 007f 08       		.byte	0x8
 807 0080 05       		.byte	0x5
 808 0081 65000000 		.4byte	.LASF10
 809 0085 03       		.uleb128 0x3
 810 0086 08       		.byte	0x8
 811 0087 07       		.byte	0x7
 812 0088 2E000000 		.4byte	.LASF11
 813 008c 04       		.uleb128 0x4
 814 008d 58040000 		.4byte	.LASF12
 815 0091 03       		.byte	0x3
 816 0092 2A       		.byte	0x2a
 817 0093 3A000000 		.4byte	0x3a
 818 0097 04       		.uleb128 0x4
 819 0098 26030000 		.4byte	.LASF13
 820 009c 03       		.byte	0x3
 821 009d 41       		.byte	0x41
 822 009e 5A000000 		.4byte	0x5a
 823 00a2 04       		.uleb128 0x4
 824 00a3 CD030000 		.4byte	.LASF14
 825 00a7 03       		.byte	0x3
 826 00a8 42       		.byte	0x42
 827 00a9 6C000000 		.4byte	0x6c
 828 00ad 03       		.uleb128 0x3
 829 00ae 01       		.byte	0x1
 830 00af 02       		.byte	0x2
 831 00b0 20030000 		.4byte	.LASF15
 832 00b4 04       		.uleb128 0x4
 833 00b5 B6010000 		.4byte	.LASF16
 834 00b9 04       		.byte	0x4
 835 00ba 2C       		.byte	0x2c
 836 00bb 8C000000 		.4byte	0x8c
 837 00bf 04       		.uleb128 0x4
 838 00c0 9A000000 		.4byte	.LASF17
 839 00c4 04       		.byte	0x4
 840 00c5 2D       		.byte	0x2d
 841 00c6 8C000000 		.4byte	0x8c
 842 00ca 04       		.uleb128 0x4
ARM GAS  /tmp/cckJEaq5.s 			page 16


 843 00cb 87000000 		.4byte	.LASF18
 844 00cf 04       		.byte	0x4
 845 00d0 2F       		.byte	0x2f
 846 00d1 8C000000 		.4byte	0x8c
 847 00d5 04       		.uleb128 0x4
 848 00d6 53020000 		.4byte	.LASF19
 849 00da 04       		.byte	0x4
 850 00db 30       		.byte	0x30
 851 00dc A2000000 		.4byte	0xa2
 852 00e0 04       		.uleb128 0x4
 853 00e1 B0010000 		.4byte	.LASF20
 854 00e5 04       		.byte	0x4
 855 00e6 31       		.byte	0x31
 856 00e7 97000000 		.4byte	0x97
 857 00eb 04       		.uleb128 0x4
 858 00ec CA010000 		.4byte	.LASF21
 859 00f0 04       		.byte	0x4
 860 00f1 33       		.byte	0x33
 861 00f2 A2000000 		.4byte	0xa2
 862 00f6 04       		.uleb128 0x4
 863 00f7 FE030000 		.4byte	.LASF22
 864 00fb 04       		.byte	0x4
 865 00fc 35       		.byte	0x35
 866 00fd A2000000 		.4byte	0xa2
 867 0101 04       		.uleb128 0x4
 868 0102 EA000000 		.4byte	.LASF23
 869 0106 04       		.byte	0x4
 870 0107 36       		.byte	0x36
 871 0108 97000000 		.4byte	0x97
 872 010c 04       		.uleb128 0x4
 873 010d 88030000 		.4byte	.LASF24
 874 0111 05       		.byte	0x5
 875 0112 2A       		.byte	0x2a
 876 0113 17010000 		.4byte	0x117
 877 0117 05       		.uleb128 0x5
 878 0118 88030000 		.4byte	.LASF24
 879 011c 34       		.byte	0x34
 880 011d 06       		.byte	0x6
 881 011e 5E       		.byte	0x5e
 882 011f CC010000 		.4byte	0x1cc
 883 0123 06       		.uleb128 0x6
 884 0124 79030000 		.4byte	.LASF25
 885 0128 06       		.byte	0x6
 886 0129 5F       		.byte	0x5f
 887 012a ED010000 		.4byte	0x1ed
 888 012e 00       		.byte	0
 889 012f 06       		.uleb128 0x6
 890 0130 4C020000 		.4byte	.LASF26
 891 0134 06       		.byte	0x6
 892 0135 61       		.byte	0x61
 893 0136 ED010000 		.4byte	0x1ed
 894 013a 04       		.byte	0x4
 895 013b 06       		.uleb128 0x6
 896 013c 4E000000 		.4byte	.LASF27
 897 0140 06       		.byte	0x6
 898 0141 63       		.byte	0x63
 899 0142 D5000000 		.4byte	0xd5
ARM GAS  /tmp/cckJEaq5.s 			page 17


 900 0146 08       		.byte	0x8
 901 0147 06       		.uleb128 0x6
 902 0148 84040000 		.4byte	.LASF28
 903 014c 06       		.byte	0x6
 904 014d 64       		.byte	0x64
 905 014e A7020000 		.4byte	0x2a7
 906 0152 0C       		.byte	0xc
 907 0153 06       		.uleb128 0x6
 908 0154 59030000 		.4byte	.LASF29
 909 0158 06       		.byte	0x6
 910 0159 79       		.byte	0x79
 911 015a BF000000 		.4byte	0xbf
 912 015e 10       		.byte	0x10
 913 015f 06       		.uleb128 0x6
 914 0160 80030000 		.4byte	.LASF30
 915 0164 06       		.byte	0x6
 916 0165 7D       		.byte	0x7d
 917 0166 B4000000 		.4byte	0xb4
 918 016a 11       		.byte	0x11
 919 016b 06       		.uleb128 0x6
 920 016c 61030000 		.4byte	.LASF31
 921 0170 06       		.byte	0x6
 922 0171 88       		.byte	0x88
 923 0172 CA000000 		.4byte	0xca
 924 0176 12       		.byte	0x12
 925 0177 07       		.uleb128 0x7
 926 0178 705F7500 		.ascii	"p_u\000"
 927 017c 06       		.byte	0x6
 928 017d B4       		.byte	0xb4
 929 017e FB030000 		.4byte	0x3fb
 930 0182 14       		.byte	0x14
 931 0183 06       		.uleb128 0x6
 932 0184 8A040000 		.4byte	.LASF32
 933 0188 06       		.byte	0x6
 934 0189 B9       		.byte	0xb9
 935 018a 13020000 		.4byte	0x213
 936 018e 18       		.byte	0x18
 937 018f 06       		.uleb128 0x6
 938 0190 2C040000 		.4byte	.LASF33
 939 0194 06       		.byte	0x6
 940 0195 BF       		.byte	0xbf
 941 0196 F3010000 		.4byte	0x1f3
 942 019a 1C       		.byte	0x1c
 943 019b 06       		.uleb128 0x6
 944 019c 00000000 		.4byte	.LASF34
 945 01a0 06       		.byte	0x6
 946 01a1 C3       		.byte	0xc3
 947 01a2 E0000000 		.4byte	0xe0
 948 01a6 24       		.byte	0x24
 949 01a7 06       		.uleb128 0x6
 950 01a8 C2030000 		.4byte	.LASF35
 951 01ac 06       		.byte	0x6
 952 01ad C9       		.byte	0xc9
 953 01ae EB000000 		.4byte	0xeb
 954 01b2 28       		.byte	0x28
 955 01b3 06       		.uleb128 0x6
 956 01b4 45030000 		.4byte	.LASF36
ARM GAS  /tmp/cckJEaq5.s 			page 18


 957 01b8 06       		.byte	0x6
 958 01b9 D0       		.byte	0xd0
 959 01ba 30040000 		.4byte	0x430
 960 01be 2C       		.byte	0x2c
 961 01bf 06       		.uleb128 0x6
 962 01c0 08040000 		.4byte	.LASF37
 963 01c4 06       		.byte	0x6
 964 01c5 D4       		.byte	0xd4
 965 01c6 D5000000 		.4byte	0xd5
 966 01ca 30       		.byte	0x30
 967 01cb 00       		.byte	0
 968 01cc 08       		.uleb128 0x8
 969 01cd 08       		.byte	0x8
 970 01ce 05       		.byte	0x5
 971 01cf 61       		.byte	0x61
 972 01d0 ED010000 		.4byte	0x1ed
 973 01d4 06       		.uleb128 0x6
 974 01d5 79030000 		.4byte	.LASF25
 975 01d9 05       		.byte	0x5
 976 01da 62       		.byte	0x62
 977 01db ED010000 		.4byte	0x1ed
 978 01df 00       		.byte	0
 979 01e0 06       		.uleb128 0x6
 980 01e1 4C020000 		.4byte	.LASF26
 981 01e5 05       		.byte	0x5
 982 01e6 64       		.byte	0x64
 983 01e7 ED010000 		.4byte	0x1ed
 984 01eb 04       		.byte	0x4
 985 01ec 00       		.byte	0
 986 01ed 09       		.uleb128 0x9
 987 01ee 04       		.byte	0x4
 988 01ef 0C010000 		.4byte	0x10c
 989 01f3 04       		.uleb128 0x4
 990 01f4 30020000 		.4byte	.LASF38
 991 01f8 05       		.byte	0x5
 992 01f9 66       		.byte	0x66
 993 01fa CC010000 		.4byte	0x1cc
 994 01fe 08       		.uleb128 0x8
 995 01ff 04       		.byte	0x4
 996 0200 05       		.byte	0x5
 997 0201 6B       		.byte	0x6b
 998 0202 13020000 		.4byte	0x213
 999 0206 06       		.uleb128 0x6
 1000 0207 79030000 		.4byte	.LASF25
 1001 020b 05       		.byte	0x5
 1002 020c 6D       		.byte	0x6d
 1003 020d ED010000 		.4byte	0x1ed
 1004 0211 00       		.byte	0
 1005 0212 00       		.byte	0
 1006 0213 04       		.uleb128 0x4
 1007 0214 BE010000 		.4byte	.LASF39
 1008 0218 05       		.byte	0x5
 1009 0219 70       		.byte	0x70
 1010 021a FE010000 		.4byte	0x1fe
 1011 021e 04       		.uleb128 0x4
 1012 021f C7000000 		.4byte	.LASF40
 1013 0223 07       		.byte	0x7
ARM GAS  /tmp/cckJEaq5.s 			page 19


 1014 0224 E5       		.byte	0xe5
 1015 0225 29020000 		.4byte	0x229
 1016 0229 0A       		.uleb128 0xa
 1017 022a 04       		.byte	0x4
 1018 022b 0B       		.uleb128 0xb
 1019 022c 25040000 		.4byte	.LASF41
 1020 0230 24       		.byte	0x24
 1021 0231 07       		.byte	0x7
 1022 0232 0C01     		.2byte	0x10c
 1023 0234 A7020000 		.4byte	0x2a7
 1024 0238 0C       		.uleb128 0xc
 1025 0239 723400   		.ascii	"r4\000"
 1026 023c 07       		.byte	0x7
 1027 023d 1F01     		.2byte	0x11f
 1028 023f 1E020000 		.4byte	0x21e
 1029 0243 00       		.byte	0
 1030 0244 0C       		.uleb128 0xc
 1031 0245 723500   		.ascii	"r5\000"
 1032 0248 07       		.byte	0x7
 1033 0249 2001     		.2byte	0x120
 1034 024b 1E020000 		.4byte	0x21e
 1035 024f 04       		.byte	0x4
 1036 0250 0C       		.uleb128 0xc
 1037 0251 723600   		.ascii	"r6\000"
 1038 0254 07       		.byte	0x7
 1039 0255 2101     		.2byte	0x121
 1040 0257 1E020000 		.4byte	0x21e
 1041 025b 08       		.byte	0x8
 1042 025c 0C       		.uleb128 0xc
 1043 025d 723700   		.ascii	"r7\000"
 1044 0260 07       		.byte	0x7
 1045 0261 2201     		.2byte	0x122
 1046 0263 1E020000 		.4byte	0x21e
 1047 0267 0C       		.byte	0xc
 1048 0268 0C       		.uleb128 0xc
 1049 0269 723800   		.ascii	"r8\000"
 1050 026c 07       		.byte	0x7
 1051 026d 2301     		.2byte	0x123
 1052 026f 1E020000 		.4byte	0x21e
 1053 0273 10       		.byte	0x10
 1054 0274 0C       		.uleb128 0xc
 1055 0275 723900   		.ascii	"r9\000"
 1056 0278 07       		.byte	0x7
 1057 0279 2401     		.2byte	0x124
 1058 027b 1E020000 		.4byte	0x21e
 1059 027f 14       		.byte	0x14
 1060 0280 0C       		.uleb128 0xc
 1061 0281 72313000 		.ascii	"r10\000"
 1062 0285 07       		.byte	0x7
 1063 0286 2501     		.2byte	0x125
 1064 0288 1E020000 		.4byte	0x21e
 1065 028c 18       		.byte	0x18
 1066 028d 0C       		.uleb128 0xc
 1067 028e 72313100 		.ascii	"r11\000"
 1068 0292 07       		.byte	0x7
 1069 0293 2601     		.2byte	0x126
 1070 0295 1E020000 		.4byte	0x21e
ARM GAS  /tmp/cckJEaq5.s 			page 20


 1071 0299 1C       		.byte	0x1c
 1072 029a 0C       		.uleb128 0xc
 1073 029b 6C7200   		.ascii	"lr\000"
 1074 029e 07       		.byte	0x7
 1075 029f 2701     		.2byte	0x127
 1076 02a1 1E020000 		.4byte	0x21e
 1077 02a5 20       		.byte	0x20
 1078 02a6 00       		.byte	0
 1079 02a7 0B       		.uleb128 0xb
 1080 02a8 1D040000 		.4byte	.LASF42
 1081 02ac 04       		.byte	0x4
 1082 02ad 07       		.byte	0x7
 1083 02ae 3101     		.2byte	0x131
 1084 02b0 C2020000 		.4byte	0x2c2
 1085 02b4 0C       		.uleb128 0xc
 1086 02b5 72313300 		.ascii	"r13\000"
 1087 02b9 07       		.byte	0x7
 1088 02ba 3201     		.2byte	0x132
 1089 02bc C2020000 		.4byte	0x2c2
 1090 02c0 00       		.byte	0
 1091 02c1 00       		.byte	0
 1092 02c2 09       		.uleb128 0x9
 1093 02c3 04       		.byte	0x4
 1094 02c4 2B020000 		.4byte	0x22b
 1095 02c8 03       		.uleb128 0x3
 1096 02c9 04       		.byte	0x4
 1097 02ca 07       		.byte	0x7
 1098 02cb E4010000 		.4byte	.LASF43
 1099 02cf 04       		.uleb128 0x4
 1100 02d0 81010000 		.4byte	.LASF44
 1101 02d4 08       		.byte	0x8
 1102 02d5 58       		.byte	0x58
 1103 02d6 DA020000 		.4byte	0x2da
 1104 02da 09       		.uleb128 0x9
 1105 02db 04       		.byte	0x4
 1106 02dc E0020000 		.4byte	0x2e0
 1107 02e0 0D       		.uleb128 0xd
 1108 02e1 EB020000 		.4byte	0x2eb
 1109 02e5 0E       		.uleb128 0xe
 1110 02e6 29020000 		.4byte	0x229
 1111 02ea 00       		.byte	0
 1112 02eb 04       		.uleb128 0x4
 1113 02ec DE030000 		.4byte	.LASF45
 1114 02f0 08       		.byte	0x8
 1115 02f1 5D       		.byte	0x5d
 1116 02f2 F6020000 		.4byte	0x2f6
 1117 02f6 05       		.uleb128 0x5
 1118 02f7 DE030000 		.4byte	.LASF45
 1119 02fb 14       		.byte	0x14
 1120 02fc 08       		.byte	0x8
 1121 02fd 64       		.byte	0x64
 1122 02fe 3F030000 		.4byte	0x33f
 1123 0302 06       		.uleb128 0x6
 1124 0303 04010000 		.4byte	.LASF46
 1125 0307 08       		.byte	0x8
 1126 0308 65       		.byte	0x65
 1127 0309 3F030000 		.4byte	0x33f
ARM GAS  /tmp/cckJEaq5.s 			page 21


 1128 030d 00       		.byte	0
 1129 030e 06       		.uleb128 0x6
 1130 030f D0000000 		.4byte	.LASF47
 1131 0313 08       		.byte	0x8
 1132 0314 67       		.byte	0x67
 1133 0315 3F030000 		.4byte	0x33f
 1134 0319 04       		.byte	0x4
 1135 031a 06       		.uleb128 0x6
 1136 031b DC010000 		.4byte	.LASF48
 1137 031f 08       		.byte	0x8
 1138 0320 69       		.byte	0x69
 1139 0321 F6000000 		.4byte	0xf6
 1140 0325 08       		.byte	0x8
 1141 0326 06       		.uleb128 0x6
 1142 0327 ED010000 		.4byte	.LASF49
 1143 032b 08       		.byte	0x8
 1144 032c 6A       		.byte	0x6a
 1145 032d CF020000 		.4byte	0x2cf
 1146 0331 0C       		.byte	0xc
 1147 0332 06       		.uleb128 0x6
 1148 0333 37040000 		.4byte	.LASF50
 1149 0337 08       		.byte	0x8
 1150 0338 6C       		.byte	0x6c
 1151 0339 29020000 		.4byte	0x229
 1152 033d 10       		.byte	0x10
 1153 033e 00       		.byte	0
 1154 033f 09       		.uleb128 0x9
 1155 0340 04       		.byte	0x4
 1156 0341 EB020000 		.4byte	0x2eb
 1157 0345 08       		.uleb128 0x8
 1158 0346 14       		.byte	0x14
 1159 0347 09       		.byte	0x9
 1160 0348 5E       		.byte	0x5e
 1161 0349 7E030000 		.4byte	0x37e
 1162 034d 06       		.uleb128 0x6
 1163 034e D6030000 		.4byte	.LASF51
 1164 0352 09       		.byte	0x9
 1165 0353 5F       		.byte	0x5f
 1166 0354 F3010000 		.4byte	0x1f3
 1167 0358 00       		.byte	0
 1168 0359 06       		.uleb128 0x6
 1169 035a 6B030000 		.4byte	.LASF52
 1170 035e 09       		.byte	0x9
 1171 035f 60       		.byte	0x60
 1172 0360 D5000000 		.4byte	0xd5
 1173 0364 08       		.byte	0x8
 1174 0365 06       		.uleb128 0x6
 1175 0366 2A020000 		.4byte	.LASF53
 1176 036a 09       		.byte	0x9
 1177 036b 62       		.byte	0x62
 1178 036c A7020000 		.4byte	0x2a7
 1179 0370 0C       		.byte	0xc
 1180 0371 06       		.uleb128 0x6
 1181 0372 42020000 		.4byte	.LASF54
 1182 0376 09       		.byte	0x9
 1183 0377 69       		.byte	0x69
 1184 0378 ED010000 		.4byte	0x1ed
ARM GAS  /tmp/cckJEaq5.s 			page 22


 1185 037c 10       		.byte	0x10
 1186 037d 00       		.byte	0
 1187 037e 04       		.uleb128 0x4
 1188 037f 48040000 		.4byte	.LASF55
 1189 0383 09       		.byte	0x9
 1190 0384 6B       		.byte	0x6b
 1191 0385 45030000 		.4byte	0x345
 1192 0389 05       		.uleb128 0x5
 1193 038a 3E040000 		.4byte	.LASF56
 1194 038e 0C       		.byte	0xc
 1195 038f 0A       		.byte	0xa
 1196 0390 2C       		.byte	0x2c
 1197 0391 AE030000 		.4byte	0x3ae
 1198 0395 06       		.uleb128 0x6
 1199 0396 A3000000 		.4byte	.LASF57
 1200 039a 0A       		.byte	0xa
 1201 039b 2D       		.byte	0x2d
 1202 039c F3010000 		.4byte	0x1f3
 1203 03a0 00       		.byte	0
 1204 03a1 06       		.uleb128 0x6
 1205 03a2 8A010000 		.4byte	.LASF58
 1206 03a6 0A       		.byte	0xa
 1207 03a7 2F       		.byte	0x2f
 1208 03a8 01010000 		.4byte	0x101
 1209 03ac 08       		.byte	0x8
 1210 03ad 00       		.byte	0
 1211 03ae 04       		.uleb128 0x4
 1212 03af 3E040000 		.4byte	.LASF56
 1213 03b3 0A       		.byte	0xa
 1214 03b4 30       		.byte	0x30
 1215 03b5 89030000 		.4byte	0x389
 1216 03b9 05       		.uleb128 0x5
 1217 03ba D6010000 		.4byte	.LASF59
 1218 03be 10       		.byte	0x10
 1219 03bf 0B       		.byte	0xb
 1220 03c0 2C       		.byte	0x2c
 1221 03c1 EA030000 		.4byte	0x3ea
 1222 03c5 06       		.uleb128 0x6
 1223 03c6 7F000000 		.4byte	.LASF60
 1224 03ca 0B       		.byte	0xb
 1225 03cb 2D       		.byte	0x2d
 1226 03cc F3010000 		.4byte	0x1f3
 1227 03d0 00       		.byte	0
 1228 03d1 06       		.uleb128 0x6
 1229 03d2 7C040000 		.4byte	.LASF61
 1230 03d6 0B       		.byte	0xb
 1231 03d7 2F       		.byte	0x2f
 1232 03d8 ED010000 		.4byte	0x1ed
 1233 03dc 08       		.byte	0x8
 1234 03dd 06       		.uleb128 0x6
 1235 03de F7030000 		.4byte	.LASF62
 1236 03e2 0B       		.byte	0xb
 1237 03e3 31       		.byte	0x31
 1238 03e4 EA030000 		.4byte	0x3ea
 1239 03e8 0C       		.byte	0xc
 1240 03e9 00       		.byte	0
 1241 03ea 09       		.uleb128 0x9
ARM GAS  /tmp/cckJEaq5.s 			page 23


 1242 03eb 04       		.byte	0x4
 1243 03ec B9030000 		.4byte	0x3b9
 1244 03f0 04       		.uleb128 0x4
 1245 03f1 D6010000 		.4byte	.LASF59
 1246 03f5 0B       		.byte	0xb
 1247 03f6 33       		.byte	0x33
 1248 03f7 B9030000 		.4byte	0x3b9
 1249 03fb 0F       		.uleb128 0xf
 1250 03fc 04       		.byte	0x4
 1251 03fd 06       		.byte	0x6
 1252 03fe 96       		.byte	0x96
 1253 03ff 30040000 		.4byte	0x430
 1254 0403 10       		.uleb128 0x10
 1255 0404 06000000 		.4byte	.LASF63
 1256 0408 06       		.byte	0x6
 1257 0409 9D       		.byte	0x9d
 1258 040a E0000000 		.4byte	0xe0
 1259 040e 10       		.uleb128 0x10
 1260 040f 45000000 		.4byte	.LASF64
 1261 0413 06       		.byte	0x6
 1262 0414 A4       		.byte	0xa4
 1263 0415 E0000000 		.4byte	0xe0
 1264 0419 10       		.uleb128 0x10
 1265 041a 60040000 		.4byte	.LASF65
 1266 041e 06       		.byte	0x6
 1267 041f AB       		.byte	0xab
 1268 0420 29020000 		.4byte	0x229
 1269 0424 10       		.uleb128 0x10
 1270 0425 72030000 		.4byte	.LASF66
 1271 0429 06       		.byte	0x6
 1272 042a B2       		.byte	0xb2
 1273 042b EB000000 		.4byte	0xeb
 1274 042f 00       		.byte	0
 1275 0430 09       		.uleb128 0x9
 1276 0431 04       		.byte	0x4
 1277 0432 F0030000 		.4byte	0x3f0
 1278 0436 11       		.uleb128 0x11
 1279 0437 EB030000 		.4byte	.LASF75
 1280 043b 01       		.byte	0x1
 1281 043c 51       		.byte	0x51
 1282 043d ED010000 		.4byte	0x1ed
 1283 0441 01       		.byte	0x1
 1284 0442 5B040000 		.4byte	0x45b
 1285 0446 12       		.uleb128 0x12
 1286 0447 747000   		.ascii	"tp\000"
 1287 044a 01       		.byte	0x1
 1288 044b 51       		.byte	0x51
 1289 044c ED010000 		.4byte	0x1ed
 1290 0450 13       		.uleb128 0x13
 1291 0451 637000   		.ascii	"cp\000"
 1292 0454 01       		.byte	0x1
 1293 0455 52       		.byte	0x52
 1294 0456 ED010000 		.4byte	0x1ed
 1295 045a 00       		.byte	0
 1296 045b 14       		.uleb128 0x14
 1297 045c FD000000 		.4byte	.LASF83
 1298 0460 01       		.byte	0x1
ARM GAS  /tmp/cckJEaq5.s 			page 24


 1299 0461 88       		.byte	0x88
 1300 0462 00000000 		.4byte	.LFB3
 1301 0466 58000000 		.4byte	.LFE3-.LFB3
 1302 046a 01       		.uleb128 0x1
 1303 046b 9C       		.byte	0x9c
 1304 046c C8040000 		.4byte	0x4c8
 1305 0470 15       		.uleb128 0x15
 1306 0471 7000     		.ascii	"p\000"
 1307 0473 01       		.byte	0x1
 1308 0474 88       		.byte	0x88
 1309 0475 29020000 		.4byte	0x229
 1310 0479 00000000 		.4byte	.LLST0
 1311 047d 16       		.uleb128 0x16
 1312 047e 747000   		.ascii	"tp\000"
 1313 0481 01       		.byte	0x1
 1314 0482 89       		.byte	0x89
 1315 0483 ED010000 		.4byte	0x1ed
 1316 0487 2C000000 		.4byte	.LLST1
 1317 048b 17       		.uleb128 0x17
 1318 048c 36040000 		.4byte	0x436
 1319 0490 32000000 		.4byte	.LBB11
 1320 0494 00000000 		.4byte	.Ldebug_ranges0+0
 1321 0498 01       		.byte	0x1
 1322 0499 A4       		.byte	0xa4
 1323 049a B7040000 		.4byte	0x4b7
 1324 049e 18       		.uleb128 0x18
 1325 049f 46040000 		.4byte	0x446
 1326 04a3 58000000 		.4byte	.LLST2
 1327 04a7 19       		.uleb128 0x19
 1328 04a8 00000000 		.4byte	.Ldebug_ranges0+0
 1329 04ac 1A       		.uleb128 0x1a
 1330 04ad 50040000 		.4byte	0x450
 1331 04b1 6B000000 		.4byte	.LLST3
 1332 04b5 00       		.byte	0
 1333 04b6 00       		.byte	0
 1334 04b7 1B       		.uleb128 0x1b
 1335 04b8 2E000000 		.4byte	.LVL3
 1336 04bc C1070000 		.4byte	0x7c1
 1337 04c0 1C       		.uleb128 0x1c
 1338 04c1 01       		.uleb128 0x1
 1339 04c2 50       		.byte	0x50
 1340 04c3 02       		.uleb128 0x2
 1341 04c4 74       		.byte	0x74
 1342 04c5 00       		.sleb128 0
 1343 04c6 00       		.byte	0
 1344 04c7 00       		.byte	0
 1345 04c8 1D       		.uleb128 0x1d
 1346 04c9 55000000 		.4byte	.LASF84
 1347 04cd 01       		.byte	0x1
 1348 04ce 37       		.byte	0x37
 1349 04cf 00000000 		.4byte	.LFB0
 1350 04d3 10000000 		.4byte	.LFE0-.LFB0
 1351 04d7 01       		.uleb128 0x1
 1352 04d8 9C       		.byte	0x9c
 1353 04d9 1E       		.uleb128 0x1e
 1354 04da 36040000 		.4byte	0x436
 1355 04de 00000000 		.4byte	.LFB1
ARM GAS  /tmp/cckJEaq5.s 			page 25


 1356 04e2 2C000000 		.4byte	.LFE1-.LFB1
 1357 04e6 01       		.uleb128 0x1
 1358 04e7 9C       		.byte	0x9c
 1359 04e8 FD040000 		.4byte	0x4fd
 1360 04ec 18       		.uleb128 0x18
 1361 04ed 46040000 		.4byte	0x446
 1362 04f1 7E000000 		.4byte	.LLST4
 1363 04f5 1F       		.uleb128 0x1f
 1364 04f6 50040000 		.4byte	0x450
 1365 04fa 01       		.uleb128 0x1
 1366 04fb 53       		.byte	0x53
 1367 04fc 00       		.byte	0
 1368 04fd 20       		.uleb128 0x20
 1369 04fe B4030000 		.4byte	.LASF69
 1370 0502 01       		.byte	0x1
 1371 0503 73       		.byte	0x73
 1372 0504 00000000 		.4byte	.LFB2
 1373 0508 28000000 		.4byte	.LFE2-.LFB2
 1374 050c 01       		.uleb128 0x1
 1375 050d 9C       		.byte	0x9c
 1376 050e 4E050000 		.4byte	0x54e
 1377 0512 21       		.uleb128 0x21
 1378 0513 3C030000 		.4byte	.LASF67
 1379 0517 01       		.byte	0x1
 1380 0518 73       		.byte	0x73
 1381 0519 BF000000 		.4byte	0xbf
 1382 051d A7000000 		.4byte	.LLST5
 1383 0521 16       		.uleb128 0x16
 1384 0522 6F747000 		.ascii	"otp\000"
 1385 0526 01       		.byte	0x1
 1386 0527 74       		.byte	0x74
 1387 0528 ED010000 		.4byte	0x1ed
 1388 052c D4000000 		.4byte	.LLST6
 1389 0530 22       		.uleb128 0x22
 1390 0531 12000000 		.4byte	.LVL17
 1391 0535 D6070000 		.4byte	0x7d6
 1392 0539 44050000 		.4byte	0x544
 1393 053d 1C       		.uleb128 0x1c
 1394 053e 01       		.uleb128 0x1
 1395 053f 50       		.byte	0x50
 1396 0540 02       		.uleb128 0x2
 1397 0541 74       		.byte	0x74
 1398 0542 00       		.sleb128 0
 1399 0543 00       		.byte	0
 1400 0544 23       		.uleb128 0x23
 1401 0545 24000000 		.4byte	.LVL19
 1402 0549 F1070000 		.4byte	0x7f1
 1403 054d 00       		.byte	0
 1404 054e 24       		.uleb128 0x24
 1405 054f 67040000 		.4byte	.LASF85
 1406 0553 01       		.byte	0x1
 1407 0554 BD       		.byte	0xbd
 1408 0555 E0000000 		.4byte	0xe0
 1409 0559 00000000 		.4byte	.LFB4
 1410 055d 44000000 		.4byte	.LFE4-.LFB4
 1411 0561 01       		.uleb128 0x1
 1412 0562 9C       		.byte	0x9c
ARM GAS  /tmp/cckJEaq5.s 			page 26


 1413 0563 F2050000 		.4byte	0x5f2
 1414 0567 21       		.uleb128 0x21
 1415 0568 3C030000 		.4byte	.LASF67
 1416 056c 01       		.byte	0x1
 1417 056d BD       		.byte	0xbd
 1418 056e BF000000 		.4byte	0xbf
 1419 0572 F2000000 		.4byte	.LLST7
 1420 0576 21       		.uleb128 0x21
 1421 0577 3D020000 		.4byte	.LASF68
 1422 057b 01       		.byte	0x1
 1423 057c BD       		.byte	0xbd
 1424 057d F6000000 		.4byte	0xf6
 1425 0581 2C010000 		.4byte	.LLST8
 1426 0585 25       		.uleb128 0x25
 1427 0586 0A000000 		.4byte	.LBB15
 1428 058a 1C000000 		.4byte	.LBE15-.LBB15
 1429 058e E8050000 		.4byte	0x5e8
 1430 0592 26       		.uleb128 0x26
 1431 0593 767400   		.ascii	"vt\000"
 1432 0596 01       		.byte	0x1
 1433 0597 C2       		.byte	0xc2
 1434 0598 EB020000 		.4byte	0x2eb
 1435 059c 02       		.uleb128 0x2
 1436 059d 91       		.byte	0x91
 1437 059e 5C       		.sleb128 -36
 1438 059f 22       		.uleb128 0x22
 1439 05a0 16000000 		.4byte	.LVL22
 1440 05a4 08080000 		.4byte	0x808
 1441 05a8 C3050000 		.4byte	0x5c3
 1442 05ac 1C       		.uleb128 0x1c
 1443 05ad 01       		.uleb128 0x1
 1444 05ae 52       		.byte	0x52
 1445 05af 05       		.uleb128 0x5
 1446 05b0 03       		.byte	0x3
 1447 05b1 00000000 		.4byte	wakeup
 1448 05b5 1C       		.uleb128 0x1c
 1449 05b6 01       		.uleb128 0x1
 1450 05b7 51       		.byte	0x51
 1451 05b8 03       		.uleb128 0x3
 1452 05b9 F3       		.byte	0xf3
 1453 05ba 01       		.uleb128 0x1
 1454 05bb 51       		.byte	0x51
 1455 05bc 1C       		.uleb128 0x1c
 1456 05bd 01       		.uleb128 0x1
 1457 05be 50       		.byte	0x50
 1458 05bf 02       		.uleb128 0x2
 1459 05c0 91       		.byte	0x91
 1460 05c1 5C       		.sleb128 -36
 1461 05c2 00       		.byte	0
 1462 05c3 22       		.uleb128 0x22
 1463 05c4 1C000000 		.4byte	.LVL23
 1464 05c8 FD040000 		.4byte	0x4fd
 1465 05cc D7050000 		.4byte	0x5d7
 1466 05d0 1C       		.uleb128 0x1c
 1467 05d1 01       		.uleb128 0x1
 1468 05d2 50       		.byte	0x50
 1469 05d3 02       		.uleb128 0x2
ARM GAS  /tmp/cckJEaq5.s 			page 27


 1470 05d4 75       		.byte	0x75
 1471 05d5 00       		.sleb128 0
 1472 05d6 00       		.byte	0
 1473 05d7 1B       		.uleb128 0x1b
 1474 05d8 26000000 		.4byte	.LVL24
 1475 05dc 28080000 		.4byte	0x828
 1476 05e0 1C       		.uleb128 0x1c
 1477 05e1 01       		.uleb128 0x1
 1478 05e2 50       		.byte	0x50
 1479 05e3 02       		.uleb128 0x2
 1480 05e4 91       		.byte	0x91
 1481 05e5 5C       		.sleb128 -36
 1482 05e6 00       		.byte	0
 1483 05e7 00       		.byte	0
 1484 05e8 27       		.uleb128 0x27
 1485 05e9 32000000 		.4byte	.LVL26
 1486 05ed FD040000 		.4byte	0x4fd
 1487 05f1 00       		.byte	0
 1488 05f2 20       		.uleb128 0x20
 1489 05f3 A3010000 		.4byte	.LASF70
 1490 05f7 01       		.byte	0x1
 1491 05f8 E1       		.byte	0xe1
 1492 05f9 00000000 		.4byte	.LFB5
 1493 05fd 60000000 		.4byte	.LFE5-.LFB5
 1494 0601 01       		.uleb128 0x1
 1495 0602 9C       		.byte	0x9c
 1496 0603 A4060000 		.4byte	0x6a4
 1497 0607 15       		.uleb128 0x15
 1498 0608 6E747000 		.ascii	"ntp\000"
 1499 060c 01       		.byte	0x1
 1500 060d E1       		.byte	0xe1
 1501 060e ED010000 		.4byte	0x1ed
 1502 0612 66010000 		.4byte	.LLST9
 1503 0616 15       		.uleb128 0x15
 1504 0617 6D736700 		.ascii	"msg\000"
 1505 061b 01       		.byte	0x1
 1506 061c E1       		.byte	0xe1
 1507 061d E0000000 		.4byte	0xe0
 1508 0621 9D010000 		.4byte	.LLST10
 1509 0625 28       		.uleb128 0x28
 1510 0626 36040000 		.4byte	0x436
 1511 062a 16000000 		.4byte	.LBB16
 1512 062e 18000000 		.4byte	.LBE16-.LBB16
 1513 0632 01       		.byte	0x1
 1514 0633 EB       		.byte	0xeb
 1515 0634 55060000 		.4byte	0x655
 1516 0638 18       		.uleb128 0x18
 1517 0639 46040000 		.4byte	0x446
 1518 063d BE010000 		.4byte	.LLST11
 1519 0641 29       		.uleb128 0x29
 1520 0642 16000000 		.4byte	.LBB17
 1521 0646 18000000 		.4byte	.LBE17-.LBB17
 1522 064a 1A       		.uleb128 0x1a
 1523 064b 50040000 		.4byte	0x450
 1524 064f D1010000 		.4byte	.LLST12
 1525 0653 00       		.byte	0
 1526 0654 00       		.byte	0
ARM GAS  /tmp/cckJEaq5.s 			page 28


 1527 0655 19       		.uleb128 0x19
 1528 0656 18000000 		.4byte	.Ldebug_ranges0+0x18
 1529 065a 13       		.uleb128 0x13
 1530 065b 6F747000 		.ascii	"otp\000"
 1531 065f 01       		.byte	0x1
 1532 0660 ED       		.byte	0xed
 1533 0661 ED010000 		.4byte	0x1ed
 1534 0665 17       		.uleb128 0x17
 1535 0666 36040000 		.4byte	0x436
 1536 066a 32000000 		.4byte	.LBB19
 1537 066e 30000000 		.4byte	.Ldebug_ranges0+0x30
 1538 0672 01       		.byte	0x1
 1539 0673 ED       		.byte	0xed
 1540 0674 91060000 		.4byte	0x691
 1541 0678 18       		.uleb128 0x18
 1542 0679 46040000 		.4byte	0x446
 1543 067d E4010000 		.4byte	.LLST13
 1544 0681 19       		.uleb128 0x19
 1545 0682 30000000 		.4byte	.Ldebug_ranges0+0x30
 1546 0686 1A       		.uleb128 0x1a
 1547 0687 50040000 		.4byte	0x450
 1548 068b 02020000 		.4byte	.LLST14
 1549 068f 00       		.byte	0
 1550 0690 00       		.byte	0
 1551 0691 2A       		.uleb128 0x2a
 1552 0692 5C000000 		.4byte	.LVL38
 1553 0696 F1070000 		.4byte	0x7f1
 1554 069a 1C       		.uleb128 0x1c
 1555 069b 01       		.uleb128 0x1
 1556 069c 50       		.byte	0x50
 1557 069d 03       		.uleb128 0x3
 1558 069e F3       		.byte	0xf3
 1559 069f 01       		.uleb128 0x1
 1560 06a0 50       		.byte	0x50
 1561 06a1 00       		.byte	0
 1562 06a2 00       		.byte	0
 1563 06a3 00       		.byte	0
 1564 06a4 2B       		.uleb128 0x2b
 1565 06a5 FD010000 		.4byte	.LASF71
 1566 06a9 01       		.byte	0x1
 1567 06aa 3001     		.2byte	0x130
 1568 06ac 00000000 		.4byte	.LFB7
 1569 06b0 44000000 		.4byte	.LFE7-.LFB7
 1570 06b4 01       		.uleb128 0x1
 1571 06b5 9C       		.byte	0x9c
 1572 06b6 15070000 		.4byte	0x715
 1573 06ba 2C       		.uleb128 0x2c
 1574 06bb 6F747000 		.ascii	"otp\000"
 1575 06bf 01       		.byte	0x1
 1576 06c0 3101     		.2byte	0x131
 1577 06c2 ED010000 		.4byte	0x1ed
 1578 06c6 25020000 		.4byte	.LLST15
 1579 06ca 2D       		.uleb128 0x2d
 1580 06cb 36040000 		.4byte	0x436
 1581 06cf 14000000 		.4byte	.LBB24
 1582 06d3 48000000 		.4byte	.Ldebug_ranges0+0x48
 1583 06d7 01       		.byte	0x1
ARM GAS  /tmp/cckJEaq5.s 			page 29


 1584 06d8 3A01     		.2byte	0x13a
 1585 06da F7060000 		.4byte	0x6f7
 1586 06de 18       		.uleb128 0x18
 1587 06df 46040000 		.4byte	0x446
 1588 06e3 43020000 		.4byte	.LLST16
 1589 06e7 19       		.uleb128 0x19
 1590 06e8 48000000 		.4byte	.Ldebug_ranges0+0x48
 1591 06ec 1A       		.uleb128 0x1a
 1592 06ed 50040000 		.4byte	0x450
 1593 06f1 61020000 		.4byte	.LLST17
 1594 06f5 00       		.byte	0
 1595 06f6 00       		.byte	0
 1596 06f7 22       		.uleb128 0x22
 1597 06f8 0C000000 		.4byte	.LVL40
 1598 06fc D6070000 		.4byte	0x7d6
 1599 0700 0B070000 		.4byte	0x70b
 1600 0704 1C       		.uleb128 0x1c
 1601 0705 01       		.uleb128 0x1
 1602 0706 50       		.byte	0x50
 1603 0707 02       		.uleb128 0x2
 1604 0708 74       		.byte	0x74
 1605 0709 00       		.sleb128 0
 1606 070a 00       		.byte	0
 1607 070b 23       		.uleb128 0x23
 1608 070c 3E000000 		.4byte	.LVL45
 1609 0710 F1070000 		.4byte	0x7f1
 1610 0714 00       		.byte	0
 1611 0715 2B       		.uleb128 0x2b
 1612 0716 0D000000 		.4byte	.LASF72
 1613 071a 01       		.byte	0x1
 1614 071b 4901     		.2byte	0x149
 1615 071d 00000000 		.4byte	.LFB8
 1616 0721 40000000 		.4byte	.LFE8-.LFB8
 1617 0725 01       		.uleb128 0x1
 1618 0726 9C       		.byte	0x9c
 1619 0727 68070000 		.4byte	0x768
 1620 072b 2C       		.uleb128 0x2c
 1621 072c 6F747000 		.ascii	"otp\000"
 1622 0730 01       		.byte	0x1
 1623 0731 4A01     		.2byte	0x14a
 1624 0733 ED010000 		.4byte	0x1ed
 1625 0737 84020000 		.4byte	.LLST18
 1626 073b 2C       		.uleb128 0x2c
 1627 073c 637000   		.ascii	"cp\000"
 1628 073f 01       		.byte	0x1
 1629 0740 4A01     		.2byte	0x14a
 1630 0742 ED010000 		.4byte	0x1ed
 1631 0746 A2020000 		.4byte	.LLST19
 1632 074a 22       		.uleb128 0x22
 1633 074b 0C000000 		.4byte	.LVL47
 1634 074f D6070000 		.4byte	0x7d6
 1635 0753 5E070000 		.4byte	0x75e
 1636 0757 1C       		.uleb128 0x1c
 1637 0758 01       		.uleb128 0x1
 1638 0759 50       		.byte	0x50
 1639 075a 02       		.uleb128 0x2
 1640 075b 74       		.byte	0x74
ARM GAS  /tmp/cckJEaq5.s 			page 30


 1641 075c 00       		.sleb128 0
 1642 075d 00       		.byte	0
 1643 075e 23       		.uleb128 0x23
 1644 075f 3A000000 		.4byte	.LVL52
 1645 0763 F1070000 		.4byte	0x7f1
 1646 0767 00       		.byte	0
 1647 0768 20       		.uleb128 0x20
 1648 0769 AB000000 		.4byte	.LASF73
 1649 076d 01       		.byte	0x1
 1650 076e FD       		.byte	0xfd
 1651 076f 00000000 		.4byte	.LFB6
 1652 0773 18000000 		.4byte	.LFE6-.LFB6
 1653 0777 01       		.uleb128 0x1
 1654 0778 9C       		.byte	0x9c
 1655 0779 87070000 		.4byte	0x787
 1656 077d 23       		.uleb128 0x23
 1657 077e 14000000 		.4byte	.LVL53
 1658 0782 15070000 		.4byte	0x715
 1659 0786 00       		.byte	0
 1660 0787 2B       		.uleb128 0x2b
 1661 0788 D8000000 		.4byte	.LASF74
 1662 078c 01       		.byte	0x1
 1663 078d 6A01     		.2byte	0x16a
 1664 078f 00000000 		.4byte	.LFB9
 1665 0793 14000000 		.4byte	.LFE9-.LFB9
 1666 0797 01       		.uleb128 0x1
 1667 0798 9C       		.byte	0x9c
 1668 0799 B0070000 		.4byte	0x7b0
 1669 079d 23       		.uleb128 0x23
 1670 079e 0C000000 		.4byte	.LVL54
 1671 07a2 15070000 		.4byte	0x715
 1672 07a6 23       		.uleb128 0x23
 1673 07a7 10000000 		.4byte	.LVL55
 1674 07ab A4060000 		.4byte	0x6a4
 1675 07af 00       		.byte	0
 1676 07b0 2E       		.uleb128 0x2e
 1677 07b1 52040000 		.4byte	.LASF86
 1678 07b5 01       		.byte	0x1
 1679 07b6 2F       		.byte	0x2f
 1680 07b7 7E030000 		.4byte	0x37e
 1681 07bb 05       		.uleb128 0x5
 1682 07bc 03       		.byte	0x3
 1683 07bd 00000000 		.4byte	rlist
 1684 07c1 2F       		.uleb128 0x2f
 1685 07c2 F5010000 		.4byte	.LASF76
 1686 07c6 05       		.byte	0x5
 1687 07c7 7B       		.byte	0x7b
 1688 07c8 ED010000 		.4byte	0x1ed
 1689 07cc D6070000 		.4byte	0x7d6
 1690 07d0 0E       		.uleb128 0xe
 1691 07d1 ED010000 		.4byte	0x1ed
 1692 07d5 00       		.byte	0
 1693 07d6 2F       		.uleb128 0x2f
 1694 07d7 1E020000 		.4byte	.LASF77
 1695 07db 05       		.byte	0x5
 1696 07dc 79       		.byte	0x79
 1697 07dd ED010000 		.4byte	0x1ed
ARM GAS  /tmp/cckJEaq5.s 			page 31


 1698 07e1 EB070000 		.4byte	0x7eb
 1699 07e5 0E       		.uleb128 0xe
 1700 07e6 EB070000 		.4byte	0x7eb
 1701 07ea 00       		.byte	0
 1702 07eb 09       		.uleb128 0x9
 1703 07ec 04       		.byte	0x4
 1704 07ed F3010000 		.4byte	0x1f3
 1705 07f1 30       		.uleb128 0x30
 1706 07f2 62010000 		.4byte	.LASF78
 1707 07f6 07       		.byte	0x7
 1708 07f7 0602     		.2byte	0x206
 1709 07f9 08080000 		.4byte	0x808
 1710 07fd 0E       		.uleb128 0xe
 1711 07fe ED010000 		.4byte	0x1ed
 1712 0802 0E       		.uleb128 0xe
 1713 0803 ED010000 		.4byte	0x1ed
 1714 0807 00       		.byte	0
 1715 0808 31       		.uleb128 0x31
 1716 0809 15020000 		.4byte	.LASF79
 1717 080d 08       		.byte	0x8
 1718 080e FE       		.byte	0xfe
 1719 080f 28080000 		.4byte	0x828
 1720 0813 0E       		.uleb128 0xe
 1721 0814 3F030000 		.4byte	0x33f
 1722 0818 0E       		.uleb128 0xe
 1723 0819 F6000000 		.4byte	0xf6
 1724 081d 0E       		.uleb128 0xe
 1725 081e CF020000 		.4byte	0x2cf
 1726 0822 0E       		.uleb128 0xe
 1727 0823 29020000 		.4byte	0x229
 1728 0827 00       		.byte	0
 1729 0828 32       		.uleb128 0x32
 1730 0829 8F030000 		.4byte	.LASF87
 1731 082d 08       		.byte	0x8
 1732 082e FF       		.byte	0xff
 1733 082f 0E       		.uleb128 0xe
 1734 0830 3F030000 		.4byte	0x33f
 1735 0834 00       		.byte	0
 1736 0835 00       		.byte	0
 1737              		.section	.debug_abbrev,"",%progbits
 1738              	.Ldebug_abbrev0:
 1739 0000 01       		.uleb128 0x1
 1740 0001 11       		.uleb128 0x11
 1741 0002 01       		.byte	0x1
 1742 0003 25       		.uleb128 0x25
 1743 0004 0E       		.uleb128 0xe
 1744 0005 13       		.uleb128 0x13
 1745 0006 0B       		.uleb128 0xb
 1746 0007 03       		.uleb128 0x3
 1747 0008 0E       		.uleb128 0xe
 1748 0009 1B       		.uleb128 0x1b
 1749 000a 0E       		.uleb128 0xe
 1750 000b 55       		.uleb128 0x55
 1751 000c 17       		.uleb128 0x17
 1752 000d 11       		.uleb128 0x11
 1753 000e 01       		.uleb128 0x1
 1754 000f 10       		.uleb128 0x10
ARM GAS  /tmp/cckJEaq5.s 			page 32


 1755 0010 17       		.uleb128 0x17
 1756 0011 00       		.byte	0
 1757 0012 00       		.byte	0
 1758 0013 02       		.uleb128 0x2
 1759 0014 24       		.uleb128 0x24
 1760 0015 00       		.byte	0
 1761 0016 0B       		.uleb128 0xb
 1762 0017 0B       		.uleb128 0xb
 1763 0018 3E       		.uleb128 0x3e
 1764 0019 0B       		.uleb128 0xb
 1765 001a 03       		.uleb128 0x3
 1766 001b 08       		.uleb128 0x8
 1767 001c 00       		.byte	0
 1768 001d 00       		.byte	0
 1769 001e 03       		.uleb128 0x3
 1770 001f 24       		.uleb128 0x24
 1771 0020 00       		.byte	0
 1772 0021 0B       		.uleb128 0xb
 1773 0022 0B       		.uleb128 0xb
 1774 0023 3E       		.uleb128 0x3e
 1775 0024 0B       		.uleb128 0xb
 1776 0025 03       		.uleb128 0x3
 1777 0026 0E       		.uleb128 0xe
 1778 0027 00       		.byte	0
 1779 0028 00       		.byte	0
 1780 0029 04       		.uleb128 0x4
 1781 002a 16       		.uleb128 0x16
 1782 002b 00       		.byte	0
 1783 002c 03       		.uleb128 0x3
 1784 002d 0E       		.uleb128 0xe
 1785 002e 3A       		.uleb128 0x3a
 1786 002f 0B       		.uleb128 0xb
 1787 0030 3B       		.uleb128 0x3b
 1788 0031 0B       		.uleb128 0xb
 1789 0032 49       		.uleb128 0x49
 1790 0033 13       		.uleb128 0x13
 1791 0034 00       		.byte	0
 1792 0035 00       		.byte	0
 1793 0036 05       		.uleb128 0x5
 1794 0037 13       		.uleb128 0x13
 1795 0038 01       		.byte	0x1
 1796 0039 03       		.uleb128 0x3
 1797 003a 0E       		.uleb128 0xe
 1798 003b 0B       		.uleb128 0xb
 1799 003c 0B       		.uleb128 0xb
 1800 003d 3A       		.uleb128 0x3a
 1801 003e 0B       		.uleb128 0xb
 1802 003f 3B       		.uleb128 0x3b
 1803 0040 0B       		.uleb128 0xb
 1804 0041 01       		.uleb128 0x1
 1805 0042 13       		.uleb128 0x13
 1806 0043 00       		.byte	0
 1807 0044 00       		.byte	0
 1808 0045 06       		.uleb128 0x6
 1809 0046 0D       		.uleb128 0xd
 1810 0047 00       		.byte	0
 1811 0048 03       		.uleb128 0x3
ARM GAS  /tmp/cckJEaq5.s 			page 33


 1812 0049 0E       		.uleb128 0xe
 1813 004a 3A       		.uleb128 0x3a
 1814 004b 0B       		.uleb128 0xb
 1815 004c 3B       		.uleb128 0x3b
 1816 004d 0B       		.uleb128 0xb
 1817 004e 49       		.uleb128 0x49
 1818 004f 13       		.uleb128 0x13
 1819 0050 38       		.uleb128 0x38
 1820 0051 0B       		.uleb128 0xb
 1821 0052 00       		.byte	0
 1822 0053 00       		.byte	0
 1823 0054 07       		.uleb128 0x7
 1824 0055 0D       		.uleb128 0xd
 1825 0056 00       		.byte	0
 1826 0057 03       		.uleb128 0x3
 1827 0058 08       		.uleb128 0x8
 1828 0059 3A       		.uleb128 0x3a
 1829 005a 0B       		.uleb128 0xb
 1830 005b 3B       		.uleb128 0x3b
 1831 005c 0B       		.uleb128 0xb
 1832 005d 49       		.uleb128 0x49
 1833 005e 13       		.uleb128 0x13
 1834 005f 38       		.uleb128 0x38
 1835 0060 0B       		.uleb128 0xb
 1836 0061 00       		.byte	0
 1837 0062 00       		.byte	0
 1838 0063 08       		.uleb128 0x8
 1839 0064 13       		.uleb128 0x13
 1840 0065 01       		.byte	0x1
 1841 0066 0B       		.uleb128 0xb
 1842 0067 0B       		.uleb128 0xb
 1843 0068 3A       		.uleb128 0x3a
 1844 0069 0B       		.uleb128 0xb
 1845 006a 3B       		.uleb128 0x3b
 1846 006b 0B       		.uleb128 0xb
 1847 006c 01       		.uleb128 0x1
 1848 006d 13       		.uleb128 0x13
 1849 006e 00       		.byte	0
 1850 006f 00       		.byte	0
 1851 0070 09       		.uleb128 0x9
 1852 0071 0F       		.uleb128 0xf
 1853 0072 00       		.byte	0
 1854 0073 0B       		.uleb128 0xb
 1855 0074 0B       		.uleb128 0xb
 1856 0075 49       		.uleb128 0x49
 1857 0076 13       		.uleb128 0x13
 1858 0077 00       		.byte	0
 1859 0078 00       		.byte	0
 1860 0079 0A       		.uleb128 0xa
 1861 007a 0F       		.uleb128 0xf
 1862 007b 00       		.byte	0
 1863 007c 0B       		.uleb128 0xb
 1864 007d 0B       		.uleb128 0xb
 1865 007e 00       		.byte	0
 1866 007f 00       		.byte	0
 1867 0080 0B       		.uleb128 0xb
 1868 0081 13       		.uleb128 0x13
ARM GAS  /tmp/cckJEaq5.s 			page 34


 1869 0082 01       		.byte	0x1
 1870 0083 03       		.uleb128 0x3
 1871 0084 0E       		.uleb128 0xe
 1872 0085 0B       		.uleb128 0xb
 1873 0086 0B       		.uleb128 0xb
 1874 0087 3A       		.uleb128 0x3a
 1875 0088 0B       		.uleb128 0xb
 1876 0089 3B       		.uleb128 0x3b
 1877 008a 05       		.uleb128 0x5
 1878 008b 01       		.uleb128 0x1
 1879 008c 13       		.uleb128 0x13
 1880 008d 00       		.byte	0
 1881 008e 00       		.byte	0
 1882 008f 0C       		.uleb128 0xc
 1883 0090 0D       		.uleb128 0xd
 1884 0091 00       		.byte	0
 1885 0092 03       		.uleb128 0x3
 1886 0093 08       		.uleb128 0x8
 1887 0094 3A       		.uleb128 0x3a
 1888 0095 0B       		.uleb128 0xb
 1889 0096 3B       		.uleb128 0x3b
 1890 0097 05       		.uleb128 0x5
 1891 0098 49       		.uleb128 0x49
 1892 0099 13       		.uleb128 0x13
 1893 009a 38       		.uleb128 0x38
 1894 009b 0B       		.uleb128 0xb
 1895 009c 00       		.byte	0
 1896 009d 00       		.byte	0
 1897 009e 0D       		.uleb128 0xd
 1898 009f 15       		.uleb128 0x15
 1899 00a0 01       		.byte	0x1
 1900 00a1 27       		.uleb128 0x27
 1901 00a2 19       		.uleb128 0x19
 1902 00a3 01       		.uleb128 0x1
 1903 00a4 13       		.uleb128 0x13
 1904 00a5 00       		.byte	0
 1905 00a6 00       		.byte	0
 1906 00a7 0E       		.uleb128 0xe
 1907 00a8 05       		.uleb128 0x5
 1908 00a9 00       		.byte	0
 1909 00aa 49       		.uleb128 0x49
 1910 00ab 13       		.uleb128 0x13
 1911 00ac 00       		.byte	0
 1912 00ad 00       		.byte	0
 1913 00ae 0F       		.uleb128 0xf
 1914 00af 17       		.uleb128 0x17
 1915 00b0 01       		.byte	0x1
 1916 00b1 0B       		.uleb128 0xb
 1917 00b2 0B       		.uleb128 0xb
 1918 00b3 3A       		.uleb128 0x3a
 1919 00b4 0B       		.uleb128 0xb
 1920 00b5 3B       		.uleb128 0x3b
 1921 00b6 0B       		.uleb128 0xb
 1922 00b7 01       		.uleb128 0x1
 1923 00b8 13       		.uleb128 0x13
 1924 00b9 00       		.byte	0
 1925 00ba 00       		.byte	0
ARM GAS  /tmp/cckJEaq5.s 			page 35


 1926 00bb 10       		.uleb128 0x10
 1927 00bc 0D       		.uleb128 0xd
 1928 00bd 00       		.byte	0
 1929 00be 03       		.uleb128 0x3
 1930 00bf 0E       		.uleb128 0xe
 1931 00c0 3A       		.uleb128 0x3a
 1932 00c1 0B       		.uleb128 0xb
 1933 00c2 3B       		.uleb128 0x3b
 1934 00c3 0B       		.uleb128 0xb
 1935 00c4 49       		.uleb128 0x49
 1936 00c5 13       		.uleb128 0x13
 1937 00c6 00       		.byte	0
 1938 00c7 00       		.byte	0
 1939 00c8 11       		.uleb128 0x11
 1940 00c9 2E       		.uleb128 0x2e
 1941 00ca 01       		.byte	0x1
 1942 00cb 3F       		.uleb128 0x3f
 1943 00cc 19       		.uleb128 0x19
 1944 00cd 03       		.uleb128 0x3
 1945 00ce 0E       		.uleb128 0xe
 1946 00cf 3A       		.uleb128 0x3a
 1947 00d0 0B       		.uleb128 0xb
 1948 00d1 3B       		.uleb128 0x3b
 1949 00d2 0B       		.uleb128 0xb
 1950 00d3 27       		.uleb128 0x27
 1951 00d4 19       		.uleb128 0x19
 1952 00d5 49       		.uleb128 0x49
 1953 00d6 13       		.uleb128 0x13
 1954 00d7 20       		.uleb128 0x20
 1955 00d8 0B       		.uleb128 0xb
 1956 00d9 01       		.uleb128 0x1
 1957 00da 13       		.uleb128 0x13
 1958 00db 00       		.byte	0
 1959 00dc 00       		.byte	0
 1960 00dd 12       		.uleb128 0x12
 1961 00de 05       		.uleb128 0x5
 1962 00df 00       		.byte	0
 1963 00e0 03       		.uleb128 0x3
 1964 00e1 08       		.uleb128 0x8
 1965 00e2 3A       		.uleb128 0x3a
 1966 00e3 0B       		.uleb128 0xb
 1967 00e4 3B       		.uleb128 0x3b
 1968 00e5 0B       		.uleb128 0xb
 1969 00e6 49       		.uleb128 0x49
 1970 00e7 13       		.uleb128 0x13
 1971 00e8 00       		.byte	0
 1972 00e9 00       		.byte	0
 1973 00ea 13       		.uleb128 0x13
 1974 00eb 34       		.uleb128 0x34
 1975 00ec 00       		.byte	0
 1976 00ed 03       		.uleb128 0x3
 1977 00ee 08       		.uleb128 0x8
 1978 00ef 3A       		.uleb128 0x3a
 1979 00f0 0B       		.uleb128 0xb
 1980 00f1 3B       		.uleb128 0x3b
 1981 00f2 0B       		.uleb128 0xb
 1982 00f3 49       		.uleb128 0x49
ARM GAS  /tmp/cckJEaq5.s 			page 36


 1983 00f4 13       		.uleb128 0x13
 1984 00f5 00       		.byte	0
 1985 00f6 00       		.byte	0
 1986 00f7 14       		.uleb128 0x14
 1987 00f8 2E       		.uleb128 0x2e
 1988 00f9 01       		.byte	0x1
 1989 00fa 03       		.uleb128 0x3
 1990 00fb 0E       		.uleb128 0xe
 1991 00fc 3A       		.uleb128 0x3a
 1992 00fd 0B       		.uleb128 0xb
 1993 00fe 3B       		.uleb128 0x3b
 1994 00ff 0B       		.uleb128 0xb
 1995 0100 27       		.uleb128 0x27
 1996 0101 19       		.uleb128 0x19
 1997 0102 11       		.uleb128 0x11
 1998 0103 01       		.uleb128 0x1
 1999 0104 12       		.uleb128 0x12
 2000 0105 06       		.uleb128 0x6
 2001 0106 40       		.uleb128 0x40
 2002 0107 18       		.uleb128 0x18
 2003 0108 9742     		.uleb128 0x2117
 2004 010a 19       		.uleb128 0x19
 2005 010b 01       		.uleb128 0x1
 2006 010c 13       		.uleb128 0x13
 2007 010d 00       		.byte	0
 2008 010e 00       		.byte	0
 2009 010f 15       		.uleb128 0x15
 2010 0110 05       		.uleb128 0x5
 2011 0111 00       		.byte	0
 2012 0112 03       		.uleb128 0x3
 2013 0113 08       		.uleb128 0x8
 2014 0114 3A       		.uleb128 0x3a
 2015 0115 0B       		.uleb128 0xb
 2016 0116 3B       		.uleb128 0x3b
 2017 0117 0B       		.uleb128 0xb
 2018 0118 49       		.uleb128 0x49
 2019 0119 13       		.uleb128 0x13
 2020 011a 02       		.uleb128 0x2
 2021 011b 17       		.uleb128 0x17
 2022 011c 00       		.byte	0
 2023 011d 00       		.byte	0
 2024 011e 16       		.uleb128 0x16
 2025 011f 34       		.uleb128 0x34
 2026 0120 00       		.byte	0
 2027 0121 03       		.uleb128 0x3
 2028 0122 08       		.uleb128 0x8
 2029 0123 3A       		.uleb128 0x3a
 2030 0124 0B       		.uleb128 0xb
 2031 0125 3B       		.uleb128 0x3b
 2032 0126 0B       		.uleb128 0xb
 2033 0127 49       		.uleb128 0x49
 2034 0128 13       		.uleb128 0x13
 2035 0129 02       		.uleb128 0x2
 2036 012a 17       		.uleb128 0x17
 2037 012b 00       		.byte	0
 2038 012c 00       		.byte	0
 2039 012d 17       		.uleb128 0x17
ARM GAS  /tmp/cckJEaq5.s 			page 37


 2040 012e 1D       		.uleb128 0x1d
 2041 012f 01       		.byte	0x1
 2042 0130 31       		.uleb128 0x31
 2043 0131 13       		.uleb128 0x13
 2044 0132 52       		.uleb128 0x52
 2045 0133 01       		.uleb128 0x1
 2046 0134 55       		.uleb128 0x55
 2047 0135 17       		.uleb128 0x17
 2048 0136 58       		.uleb128 0x58
 2049 0137 0B       		.uleb128 0xb
 2050 0138 59       		.uleb128 0x59
 2051 0139 0B       		.uleb128 0xb
 2052 013a 01       		.uleb128 0x1
 2053 013b 13       		.uleb128 0x13
 2054 013c 00       		.byte	0
 2055 013d 00       		.byte	0
 2056 013e 18       		.uleb128 0x18
 2057 013f 05       		.uleb128 0x5
 2058 0140 00       		.byte	0
 2059 0141 31       		.uleb128 0x31
 2060 0142 13       		.uleb128 0x13
 2061 0143 02       		.uleb128 0x2
 2062 0144 17       		.uleb128 0x17
 2063 0145 00       		.byte	0
 2064 0146 00       		.byte	0
 2065 0147 19       		.uleb128 0x19
 2066 0148 0B       		.uleb128 0xb
 2067 0149 01       		.byte	0x1
 2068 014a 55       		.uleb128 0x55
 2069 014b 17       		.uleb128 0x17
 2070 014c 00       		.byte	0
 2071 014d 00       		.byte	0
 2072 014e 1A       		.uleb128 0x1a
 2073 014f 34       		.uleb128 0x34
 2074 0150 00       		.byte	0
 2075 0151 31       		.uleb128 0x31
 2076 0152 13       		.uleb128 0x13
 2077 0153 02       		.uleb128 0x2
 2078 0154 17       		.uleb128 0x17
 2079 0155 00       		.byte	0
 2080 0156 00       		.byte	0
 2081 0157 1B       		.uleb128 0x1b
 2082 0158 898201   		.uleb128 0x4109
 2083 015b 01       		.byte	0x1
 2084 015c 11       		.uleb128 0x11
 2085 015d 01       		.uleb128 0x1
 2086 015e 31       		.uleb128 0x31
 2087 015f 13       		.uleb128 0x13
 2088 0160 00       		.byte	0
 2089 0161 00       		.byte	0
 2090 0162 1C       		.uleb128 0x1c
 2091 0163 8A8201   		.uleb128 0x410a
 2092 0166 00       		.byte	0
 2093 0167 02       		.uleb128 0x2
 2094 0168 18       		.uleb128 0x18
 2095 0169 9142     		.uleb128 0x2111
 2096 016b 18       		.uleb128 0x18
ARM GAS  /tmp/cckJEaq5.s 			page 38


 2097 016c 00       		.byte	0
 2098 016d 00       		.byte	0
 2099 016e 1D       		.uleb128 0x1d
 2100 016f 2E       		.uleb128 0x2e
 2101 0170 00       		.byte	0
 2102 0171 3F       		.uleb128 0x3f
 2103 0172 19       		.uleb128 0x19
 2104 0173 03       		.uleb128 0x3
 2105 0174 0E       		.uleb128 0xe
 2106 0175 3A       		.uleb128 0x3a
 2107 0176 0B       		.uleb128 0xb
 2108 0177 3B       		.uleb128 0x3b
 2109 0178 0B       		.uleb128 0xb
 2110 0179 27       		.uleb128 0x27
 2111 017a 19       		.uleb128 0x19
 2112 017b 11       		.uleb128 0x11
 2113 017c 01       		.uleb128 0x1
 2114 017d 12       		.uleb128 0x12
 2115 017e 06       		.uleb128 0x6
 2116 017f 40       		.uleb128 0x40
 2117 0180 18       		.uleb128 0x18
 2118 0181 9742     		.uleb128 0x2117
 2119 0183 19       		.uleb128 0x19
 2120 0184 00       		.byte	0
 2121 0185 00       		.byte	0
 2122 0186 1E       		.uleb128 0x1e
 2123 0187 2E       		.uleb128 0x2e
 2124 0188 01       		.byte	0x1
 2125 0189 31       		.uleb128 0x31
 2126 018a 13       		.uleb128 0x13
 2127 018b 11       		.uleb128 0x11
 2128 018c 01       		.uleb128 0x1
 2129 018d 12       		.uleb128 0x12
 2130 018e 06       		.uleb128 0x6
 2131 018f 40       		.uleb128 0x40
 2132 0190 18       		.uleb128 0x18
 2133 0191 9742     		.uleb128 0x2117
 2134 0193 19       		.uleb128 0x19
 2135 0194 01       		.uleb128 0x1
 2136 0195 13       		.uleb128 0x13
 2137 0196 00       		.byte	0
 2138 0197 00       		.byte	0
 2139 0198 1F       		.uleb128 0x1f
 2140 0199 34       		.uleb128 0x34
 2141 019a 00       		.byte	0
 2142 019b 31       		.uleb128 0x31
 2143 019c 13       		.uleb128 0x13
 2144 019d 02       		.uleb128 0x2
 2145 019e 18       		.uleb128 0x18
 2146 019f 00       		.byte	0
 2147 01a0 00       		.byte	0
 2148 01a1 20       		.uleb128 0x20
 2149 01a2 2E       		.uleb128 0x2e
 2150 01a3 01       		.byte	0x1
 2151 01a4 3F       		.uleb128 0x3f
 2152 01a5 19       		.uleb128 0x19
 2153 01a6 03       		.uleb128 0x3
ARM GAS  /tmp/cckJEaq5.s 			page 39


 2154 01a7 0E       		.uleb128 0xe
 2155 01a8 3A       		.uleb128 0x3a
 2156 01a9 0B       		.uleb128 0xb
 2157 01aa 3B       		.uleb128 0x3b
 2158 01ab 0B       		.uleb128 0xb
 2159 01ac 27       		.uleb128 0x27
 2160 01ad 19       		.uleb128 0x19
 2161 01ae 11       		.uleb128 0x11
 2162 01af 01       		.uleb128 0x1
 2163 01b0 12       		.uleb128 0x12
 2164 01b1 06       		.uleb128 0x6
 2165 01b2 40       		.uleb128 0x40
 2166 01b3 18       		.uleb128 0x18
 2167 01b4 9742     		.uleb128 0x2117
 2168 01b6 19       		.uleb128 0x19
 2169 01b7 01       		.uleb128 0x1
 2170 01b8 13       		.uleb128 0x13
 2171 01b9 00       		.byte	0
 2172 01ba 00       		.byte	0
 2173 01bb 21       		.uleb128 0x21
 2174 01bc 05       		.uleb128 0x5
 2175 01bd 00       		.byte	0
 2176 01be 03       		.uleb128 0x3
 2177 01bf 0E       		.uleb128 0xe
 2178 01c0 3A       		.uleb128 0x3a
 2179 01c1 0B       		.uleb128 0xb
 2180 01c2 3B       		.uleb128 0x3b
 2181 01c3 0B       		.uleb128 0xb
 2182 01c4 49       		.uleb128 0x49
 2183 01c5 13       		.uleb128 0x13
 2184 01c6 02       		.uleb128 0x2
 2185 01c7 17       		.uleb128 0x17
 2186 01c8 00       		.byte	0
 2187 01c9 00       		.byte	0
 2188 01ca 22       		.uleb128 0x22
 2189 01cb 898201   		.uleb128 0x4109
 2190 01ce 01       		.byte	0x1
 2191 01cf 11       		.uleb128 0x11
 2192 01d0 01       		.uleb128 0x1
 2193 01d1 31       		.uleb128 0x31
 2194 01d2 13       		.uleb128 0x13
 2195 01d3 01       		.uleb128 0x1
 2196 01d4 13       		.uleb128 0x13
 2197 01d5 00       		.byte	0
 2198 01d6 00       		.byte	0
 2199 01d7 23       		.uleb128 0x23
 2200 01d8 898201   		.uleb128 0x4109
 2201 01db 00       		.byte	0
 2202 01dc 11       		.uleb128 0x11
 2203 01dd 01       		.uleb128 0x1
 2204 01de 9542     		.uleb128 0x2115
 2205 01e0 19       		.uleb128 0x19
 2206 01e1 31       		.uleb128 0x31
 2207 01e2 13       		.uleb128 0x13
 2208 01e3 00       		.byte	0
 2209 01e4 00       		.byte	0
 2210 01e5 24       		.uleb128 0x24
ARM GAS  /tmp/cckJEaq5.s 			page 40


 2211 01e6 2E       		.uleb128 0x2e
 2212 01e7 01       		.byte	0x1
 2213 01e8 3F       		.uleb128 0x3f
 2214 01e9 19       		.uleb128 0x19
 2215 01ea 03       		.uleb128 0x3
 2216 01eb 0E       		.uleb128 0xe
 2217 01ec 3A       		.uleb128 0x3a
 2218 01ed 0B       		.uleb128 0xb
 2219 01ee 3B       		.uleb128 0x3b
 2220 01ef 0B       		.uleb128 0xb
 2221 01f0 27       		.uleb128 0x27
 2222 01f1 19       		.uleb128 0x19
 2223 01f2 49       		.uleb128 0x49
 2224 01f3 13       		.uleb128 0x13
 2225 01f4 11       		.uleb128 0x11
 2226 01f5 01       		.uleb128 0x1
 2227 01f6 12       		.uleb128 0x12
 2228 01f7 06       		.uleb128 0x6
 2229 01f8 40       		.uleb128 0x40
 2230 01f9 18       		.uleb128 0x18
 2231 01fa 9742     		.uleb128 0x2117
 2232 01fc 19       		.uleb128 0x19
 2233 01fd 01       		.uleb128 0x1
 2234 01fe 13       		.uleb128 0x13
 2235 01ff 00       		.byte	0
 2236 0200 00       		.byte	0
 2237 0201 25       		.uleb128 0x25
 2238 0202 0B       		.uleb128 0xb
 2239 0203 01       		.byte	0x1
 2240 0204 11       		.uleb128 0x11
 2241 0205 01       		.uleb128 0x1
 2242 0206 12       		.uleb128 0x12
 2243 0207 06       		.uleb128 0x6
 2244 0208 01       		.uleb128 0x1
 2245 0209 13       		.uleb128 0x13
 2246 020a 00       		.byte	0
 2247 020b 00       		.byte	0
 2248 020c 26       		.uleb128 0x26
 2249 020d 34       		.uleb128 0x34
 2250 020e 00       		.byte	0
 2251 020f 03       		.uleb128 0x3
 2252 0210 08       		.uleb128 0x8
 2253 0211 3A       		.uleb128 0x3a
 2254 0212 0B       		.uleb128 0xb
 2255 0213 3B       		.uleb128 0x3b
 2256 0214 0B       		.uleb128 0xb
 2257 0215 49       		.uleb128 0x49
 2258 0216 13       		.uleb128 0x13
 2259 0217 02       		.uleb128 0x2
 2260 0218 18       		.uleb128 0x18
 2261 0219 00       		.byte	0
 2262 021a 00       		.byte	0
 2263 021b 27       		.uleb128 0x27
 2264 021c 898201   		.uleb128 0x4109
 2265 021f 00       		.byte	0
 2266 0220 11       		.uleb128 0x11
 2267 0221 01       		.uleb128 0x1
ARM GAS  /tmp/cckJEaq5.s 			page 41


 2268 0222 31       		.uleb128 0x31
 2269 0223 13       		.uleb128 0x13
 2270 0224 00       		.byte	0
 2271 0225 00       		.byte	0
 2272 0226 28       		.uleb128 0x28
 2273 0227 1D       		.uleb128 0x1d
 2274 0228 01       		.byte	0x1
 2275 0229 31       		.uleb128 0x31
 2276 022a 13       		.uleb128 0x13
 2277 022b 11       		.uleb128 0x11
 2278 022c 01       		.uleb128 0x1
 2279 022d 12       		.uleb128 0x12
 2280 022e 06       		.uleb128 0x6
 2281 022f 58       		.uleb128 0x58
 2282 0230 0B       		.uleb128 0xb
 2283 0231 59       		.uleb128 0x59
 2284 0232 0B       		.uleb128 0xb
 2285 0233 01       		.uleb128 0x1
 2286 0234 13       		.uleb128 0x13
 2287 0235 00       		.byte	0
 2288 0236 00       		.byte	0
 2289 0237 29       		.uleb128 0x29
 2290 0238 0B       		.uleb128 0xb
 2291 0239 01       		.byte	0x1
 2292 023a 11       		.uleb128 0x11
 2293 023b 01       		.uleb128 0x1
 2294 023c 12       		.uleb128 0x12
 2295 023d 06       		.uleb128 0x6
 2296 023e 00       		.byte	0
 2297 023f 00       		.byte	0
 2298 0240 2A       		.uleb128 0x2a
 2299 0241 898201   		.uleb128 0x4109
 2300 0244 01       		.byte	0x1
 2301 0245 11       		.uleb128 0x11
 2302 0246 01       		.uleb128 0x1
 2303 0247 9542     		.uleb128 0x2115
 2304 0249 19       		.uleb128 0x19
 2305 024a 31       		.uleb128 0x31
 2306 024b 13       		.uleb128 0x13
 2307 024c 00       		.byte	0
 2308 024d 00       		.byte	0
 2309 024e 2B       		.uleb128 0x2b
 2310 024f 2E       		.uleb128 0x2e
 2311 0250 01       		.byte	0x1
 2312 0251 3F       		.uleb128 0x3f
 2313 0252 19       		.uleb128 0x19
 2314 0253 03       		.uleb128 0x3
 2315 0254 0E       		.uleb128 0xe
 2316 0255 3A       		.uleb128 0x3a
 2317 0256 0B       		.uleb128 0xb
 2318 0257 3B       		.uleb128 0x3b
 2319 0258 05       		.uleb128 0x5
 2320 0259 27       		.uleb128 0x27
 2321 025a 19       		.uleb128 0x19
 2322 025b 11       		.uleb128 0x11
 2323 025c 01       		.uleb128 0x1
 2324 025d 12       		.uleb128 0x12
ARM GAS  /tmp/cckJEaq5.s 			page 42


 2325 025e 06       		.uleb128 0x6
 2326 025f 40       		.uleb128 0x40
 2327 0260 18       		.uleb128 0x18
 2328 0261 9742     		.uleb128 0x2117
 2329 0263 19       		.uleb128 0x19
 2330 0264 01       		.uleb128 0x1
 2331 0265 13       		.uleb128 0x13
 2332 0266 00       		.byte	0
 2333 0267 00       		.byte	0
 2334 0268 2C       		.uleb128 0x2c
 2335 0269 34       		.uleb128 0x34
 2336 026a 00       		.byte	0
 2337 026b 03       		.uleb128 0x3
 2338 026c 08       		.uleb128 0x8
 2339 026d 3A       		.uleb128 0x3a
 2340 026e 0B       		.uleb128 0xb
 2341 026f 3B       		.uleb128 0x3b
 2342 0270 05       		.uleb128 0x5
 2343 0271 49       		.uleb128 0x49
 2344 0272 13       		.uleb128 0x13
 2345 0273 02       		.uleb128 0x2
 2346 0274 17       		.uleb128 0x17
 2347 0275 00       		.byte	0
 2348 0276 00       		.byte	0
 2349 0277 2D       		.uleb128 0x2d
 2350 0278 1D       		.uleb128 0x1d
 2351 0279 01       		.byte	0x1
 2352 027a 31       		.uleb128 0x31
 2353 027b 13       		.uleb128 0x13
 2354 027c 52       		.uleb128 0x52
 2355 027d 01       		.uleb128 0x1
 2356 027e 55       		.uleb128 0x55
 2357 027f 17       		.uleb128 0x17
 2358 0280 58       		.uleb128 0x58
 2359 0281 0B       		.uleb128 0xb
 2360 0282 59       		.uleb128 0x59
 2361 0283 05       		.uleb128 0x5
 2362 0284 01       		.uleb128 0x1
 2363 0285 13       		.uleb128 0x13
 2364 0286 00       		.byte	0
 2365 0287 00       		.byte	0
 2366 0288 2E       		.uleb128 0x2e
 2367 0289 34       		.uleb128 0x34
 2368 028a 00       		.byte	0
 2369 028b 03       		.uleb128 0x3
 2370 028c 0E       		.uleb128 0xe
 2371 028d 3A       		.uleb128 0x3a
 2372 028e 0B       		.uleb128 0xb
 2373 028f 3B       		.uleb128 0x3b
 2374 0290 0B       		.uleb128 0xb
 2375 0291 49       		.uleb128 0x49
 2376 0292 13       		.uleb128 0x13
 2377 0293 3F       		.uleb128 0x3f
 2378 0294 19       		.uleb128 0x19
 2379 0295 02       		.uleb128 0x2
 2380 0296 18       		.uleb128 0x18
 2381 0297 00       		.byte	0
ARM GAS  /tmp/cckJEaq5.s 			page 43


 2382 0298 00       		.byte	0
 2383 0299 2F       		.uleb128 0x2f
 2384 029a 2E       		.uleb128 0x2e
 2385 029b 01       		.byte	0x1
 2386 029c 3F       		.uleb128 0x3f
 2387 029d 19       		.uleb128 0x19
 2388 029e 03       		.uleb128 0x3
 2389 029f 0E       		.uleb128 0xe
 2390 02a0 3A       		.uleb128 0x3a
 2391 02a1 0B       		.uleb128 0xb
 2392 02a2 3B       		.uleb128 0x3b
 2393 02a3 0B       		.uleb128 0xb
 2394 02a4 27       		.uleb128 0x27
 2395 02a5 19       		.uleb128 0x19
 2396 02a6 49       		.uleb128 0x49
 2397 02a7 13       		.uleb128 0x13
 2398 02a8 3C       		.uleb128 0x3c
 2399 02a9 19       		.uleb128 0x19
 2400 02aa 01       		.uleb128 0x1
 2401 02ab 13       		.uleb128 0x13
 2402 02ac 00       		.byte	0
 2403 02ad 00       		.byte	0
 2404 02ae 30       		.uleb128 0x30
 2405 02af 2E       		.uleb128 0x2e
 2406 02b0 01       		.byte	0x1
 2407 02b1 3F       		.uleb128 0x3f
 2408 02b2 19       		.uleb128 0x19
 2409 02b3 03       		.uleb128 0x3
 2410 02b4 0E       		.uleb128 0xe
 2411 02b5 3A       		.uleb128 0x3a
 2412 02b6 0B       		.uleb128 0xb
 2413 02b7 3B       		.uleb128 0x3b
 2414 02b8 05       		.uleb128 0x5
 2415 02b9 27       		.uleb128 0x27
 2416 02ba 19       		.uleb128 0x19
 2417 02bb 3C       		.uleb128 0x3c
 2418 02bc 19       		.uleb128 0x19
 2419 02bd 01       		.uleb128 0x1
 2420 02be 13       		.uleb128 0x13
 2421 02bf 00       		.byte	0
 2422 02c0 00       		.byte	0
 2423 02c1 31       		.uleb128 0x31
 2424 02c2 2E       		.uleb128 0x2e
 2425 02c3 01       		.byte	0x1
 2426 02c4 3F       		.uleb128 0x3f
 2427 02c5 19       		.uleb128 0x19
 2428 02c6 03       		.uleb128 0x3
 2429 02c7 0E       		.uleb128 0xe
 2430 02c8 3A       		.uleb128 0x3a
 2431 02c9 0B       		.uleb128 0xb
 2432 02ca 3B       		.uleb128 0x3b
 2433 02cb 0B       		.uleb128 0xb
 2434 02cc 27       		.uleb128 0x27
 2435 02cd 19       		.uleb128 0x19
 2436 02ce 3C       		.uleb128 0x3c
 2437 02cf 19       		.uleb128 0x19
 2438 02d0 01       		.uleb128 0x1
ARM GAS  /tmp/cckJEaq5.s 			page 44


 2439 02d1 13       		.uleb128 0x13
 2440 02d2 00       		.byte	0
 2441 02d3 00       		.byte	0
 2442 02d4 32       		.uleb128 0x32
 2443 02d5 2E       		.uleb128 0x2e
 2444 02d6 01       		.byte	0x1
 2445 02d7 3F       		.uleb128 0x3f
 2446 02d8 19       		.uleb128 0x19
 2447 02d9 03       		.uleb128 0x3
 2448 02da 0E       		.uleb128 0xe
 2449 02db 3A       		.uleb128 0x3a
 2450 02dc 0B       		.uleb128 0xb
 2451 02dd 3B       		.uleb128 0x3b
 2452 02de 0B       		.uleb128 0xb
 2453 02df 27       		.uleb128 0x27
 2454 02e0 19       		.uleb128 0x19
 2455 02e1 3C       		.uleb128 0x3c
 2456 02e2 19       		.uleb128 0x19
 2457 02e3 00       		.byte	0
 2458 02e4 00       		.byte	0
 2459 02e5 00       		.byte	0
 2460              		.section	.debug_loc,"",%progbits
 2461              	.Ldebug_loc0:
 2462              	.LLST0:
 2463 0000 00000000 		.4byte	.LVL0
 2464 0004 2A000000 		.4byte	.LVL2
 2465 0008 0100     		.2byte	0x1
 2466 000a 50       		.byte	0x50
 2467 000b 2A000000 		.4byte	.LVL2
 2468 000f 54000000 		.4byte	.LVL8
 2469 0013 0100     		.2byte	0x1
 2470 0015 54       		.byte	0x54
 2471 0016 54000000 		.4byte	.LVL8
 2472 001a 58000000 		.4byte	.LFE3
 2473 001e 0400     		.2byte	0x4
 2474 0020 F3       		.byte	0xf3
 2475 0021 01       		.uleb128 0x1
 2476 0022 50       		.byte	0x50
 2477 0023 9F       		.byte	0x9f
 2478 0024 00000000 		.4byte	0
 2479 0028 00000000 		.4byte	0
 2480              	.LLST1:
 2481 002c 04000000 		.4byte	.LVL1
 2482 0030 2A000000 		.4byte	.LVL2
 2483 0034 0100     		.2byte	0x1
 2484 0036 50       		.byte	0x50
 2485 0037 2A000000 		.4byte	.LVL2
 2486 003b 54000000 		.4byte	.LVL8
 2487 003f 0100     		.2byte	0x1
 2488 0041 54       		.byte	0x54
 2489 0042 54000000 		.4byte	.LVL8
 2490 0046 58000000 		.4byte	.LFE3
 2491 004a 0400     		.2byte	0x4
 2492 004c F3       		.byte	0xf3
 2493 004d 01       		.uleb128 0x1
 2494 004e 50       		.byte	0x50
 2495 004f 9F       		.byte	0x9f
ARM GAS  /tmp/cckJEaq5.s 			page 45


 2496 0050 00000000 		.4byte	0
 2497 0054 00000000 		.4byte	0
 2498              	.LLST2:
 2499 0058 3A000000 		.4byte	.LVL4
 2500 005c 4E000000 		.4byte	.LVL7
 2501 0060 0100     		.2byte	0x1
 2502 0062 54       		.byte	0x54
 2503 0063 00000000 		.4byte	0
 2504 0067 00000000 		.4byte	0
 2505              	.LLST3:
 2506 006b 3C000000 		.4byte	.LVL5
 2507 006f 4E000000 		.4byte	.LVL7
 2508 0073 0100     		.2byte	0x1
 2509 0075 53       		.byte	0x53
 2510 0076 00000000 		.4byte	0
 2511 007a 00000000 		.4byte	0
 2512              	.LLST4:
 2513 007e 00000000 		.4byte	.LVL9
 2514 0082 1A000000 		.4byte	.LVL12
 2515 0086 0100     		.2byte	0x1
 2516 0088 50       		.byte	0x50
 2517 0089 1A000000 		.4byte	.LVL12
 2518 008d 24000000 		.4byte	.LVL13
 2519 0091 0100     		.2byte	0x1
 2520 0093 54       		.byte	0x54
 2521 0094 24000000 		.4byte	.LVL13
 2522 0098 2C000000 		.4byte	.LFE1
 2523 009c 0100     		.2byte	0x1
 2524 009e 50       		.byte	0x50
 2525 009f 00000000 		.4byte	0
 2526 00a3 00000000 		.4byte	0
 2527              	.LLST5:
 2528 00a7 00000000 		.4byte	.LVL14
 2529 00ab 0E000000 		.4byte	.LVL16
 2530 00af 0100     		.2byte	0x1
 2531 00b1 50       		.byte	0x50
 2532 00b2 0E000000 		.4byte	.LVL16
 2533 00b6 11000000 		.4byte	.LVL17-1
 2534 00ba 0200     		.2byte	0x2
 2535 00bc 75       		.byte	0x75
 2536 00bd 10       		.sleb128 16
 2537 00be 11000000 		.4byte	.LVL17-1
 2538 00c2 28000000 		.4byte	.LFE2
 2539 00c6 0400     		.2byte	0x4
 2540 00c8 F3       		.byte	0xf3
 2541 00c9 01       		.uleb128 0x1
 2542 00ca 50       		.byte	0x50
 2543 00cb 9F       		.byte	0x9f
 2544 00cc 00000000 		.4byte	0
 2545 00d0 00000000 		.4byte	0
 2546              	.LLST6:
 2547 00d4 08000000 		.4byte	.LVL15
 2548 00d8 20000000 		.4byte	.LVL18
 2549 00dc 0100     		.2byte	0x1
 2550 00de 55       		.byte	0x55
 2551 00df 20000000 		.4byte	.LVL18
 2552 00e3 23000000 		.4byte	.LVL19-1
ARM GAS  /tmp/cckJEaq5.s 			page 46


 2553 00e7 0100     		.2byte	0x1
 2554 00e9 51       		.byte	0x51
 2555 00ea 00000000 		.4byte	0
 2556 00ee 00000000 		.4byte	0
 2557              	.LLST7:
 2558 00f2 00000000 		.4byte	.LVL20
 2559 00f6 0E000000 		.4byte	.LVL21
 2560 00fa 0100     		.2byte	0x1
 2561 00fc 50       		.byte	0x50
 2562 00fd 0E000000 		.4byte	.LVL21
 2563 0101 2E000000 		.4byte	.LVL25
 2564 0105 0400     		.2byte	0x4
 2565 0107 F3       		.byte	0xf3
 2566 0108 01       		.uleb128 0x1
 2567 0109 50       		.byte	0x50
 2568 010a 9F       		.byte	0x9f
 2569 010b 2E000000 		.4byte	.LVL25
 2570 010f 31000000 		.4byte	.LVL26-1
 2571 0113 0100     		.2byte	0x1
 2572 0115 50       		.byte	0x50
 2573 0116 31000000 		.4byte	.LVL26-1
 2574 011a 44000000 		.4byte	.LFE4
 2575 011e 0400     		.2byte	0x4
 2576 0120 F3       		.byte	0xf3
 2577 0121 01       		.uleb128 0x1
 2578 0122 50       		.byte	0x50
 2579 0123 9F       		.byte	0x9f
 2580 0124 00000000 		.4byte	0
 2581 0128 00000000 		.4byte	0
 2582              	.LLST8:
 2583 012c 00000000 		.4byte	.LVL20
 2584 0130 15000000 		.4byte	.LVL22-1
 2585 0134 0100     		.2byte	0x1
 2586 0136 51       		.byte	0x51
 2587 0137 15000000 		.4byte	.LVL22-1
 2588 013b 2E000000 		.4byte	.LVL25
 2589 013f 0400     		.2byte	0x4
 2590 0141 F3       		.byte	0xf3
 2591 0142 01       		.uleb128 0x1
 2592 0143 51       		.byte	0x51
 2593 0144 9F       		.byte	0x9f
 2594 0145 2E000000 		.4byte	.LVL25
 2595 0149 31000000 		.4byte	.LVL26-1
 2596 014d 0100     		.2byte	0x1
 2597 014f 51       		.byte	0x51
 2598 0150 31000000 		.4byte	.LVL26-1
 2599 0154 44000000 		.4byte	.LFE4
 2600 0158 0400     		.2byte	0x4
 2601 015a F3       		.byte	0xf3
 2602 015b 01       		.uleb128 0x1
 2603 015c 51       		.byte	0x51
 2604 015d 9F       		.byte	0x9f
 2605 015e 00000000 		.4byte	0
 2606 0162 00000000 		.4byte	0
 2607              	.LLST9:
 2608 0166 00000000 		.4byte	.LVL27
 2609 016a 56000000 		.4byte	.LVL36
ARM GAS  /tmp/cckJEaq5.s 			page 47


 2610 016e 0100     		.2byte	0x1
 2611 0170 50       		.byte	0x50
 2612 0171 56000000 		.4byte	.LVL36
 2613 0175 58000000 		.4byte	.LVL37
 2614 0179 0100     		.2byte	0x1
 2615 017b 56       		.byte	0x56
 2616 017c 58000000 		.4byte	.LVL37
 2617 0180 5B000000 		.4byte	.LVL38-1
 2618 0184 0100     		.2byte	0x1
 2619 0186 50       		.byte	0x50
 2620 0187 5B000000 		.4byte	.LVL38-1
 2621 018b 60000000 		.4byte	.LFE5
 2622 018f 0400     		.2byte	0x4
 2623 0191 F3       		.byte	0xf3
 2624 0192 01       		.uleb128 0x1
 2625 0193 50       		.byte	0x50
 2626 0194 9F       		.byte	0x9f
 2627 0195 00000000 		.4byte	0
 2628 0199 00000000 		.4byte	0
 2629              	.LLST10:
 2630 019d 00000000 		.4byte	.LVL27
 2631 01a1 54000000 		.4byte	.LVL35
 2632 01a5 0100     		.2byte	0x1
 2633 01a7 51       		.byte	0x51
 2634 01a8 54000000 		.4byte	.LVL35
 2635 01ac 60000000 		.4byte	.LFE5
 2636 01b0 0400     		.2byte	0x4
 2637 01b2 F3       		.byte	0xf3
 2638 01b3 01       		.uleb128 0x1
 2639 01b4 51       		.byte	0x51
 2640 01b5 9F       		.byte	0x9f
 2641 01b6 00000000 		.4byte	0
 2642 01ba 00000000 		.4byte	0
 2643              	.LLST11:
 2644 01be 16000000 		.4byte	.LVL28
 2645 01c2 32000000 		.4byte	.LVL31
 2646 01c6 0100     		.2byte	0x1
 2647 01c8 50       		.byte	0x50
 2648 01c9 00000000 		.4byte	0
 2649 01cd 00000000 		.4byte	0
 2650              	.LLST12:
 2651 01d1 1C000000 		.4byte	.LVL29
 2652 01d5 32000000 		.4byte	.LVL31
 2653 01d9 0100     		.2byte	0x1
 2654 01db 53       		.byte	0x53
 2655 01dc 00000000 		.4byte	0
 2656 01e0 00000000 		.4byte	0
 2657              	.LLST13:
 2658 01e4 32000000 		.4byte	.LVL31
 2659 01e8 58000000 		.4byte	.LVL37
 2660 01ec 0100     		.2byte	0x1
 2661 01ee 57       		.byte	0x57
 2662 01ef 58000000 		.4byte	.LVL37
 2663 01f3 5B000000 		.4byte	.LVL38-1
 2664 01f7 0100     		.2byte	0x1
 2665 01f9 51       		.byte	0x51
 2666 01fa 00000000 		.4byte	0
ARM GAS  /tmp/cckJEaq5.s 			page 48


 2667 01fe 00000000 		.4byte	0
 2668              	.LLST14:
 2669 0202 36000000 		.4byte	.LVL32
 2670 0206 38000000 		.4byte	.LVL33
 2671 020a 0600     		.2byte	0x6
 2672 020c 03       		.byte	0x3
 2673 020d 00000000 		.4byte	rlist
 2674 0211 9F       		.byte	0x9f
 2675 0212 38000000 		.4byte	.LVL33
 2676 0216 5B000000 		.4byte	.LVL38-1
 2677 021a 0100     		.2byte	0x1
 2678 021c 53       		.byte	0x53
 2679 021d 00000000 		.4byte	0
 2680 0221 00000000 		.4byte	0
 2681              	.LLST15:
 2682 0225 08000000 		.4byte	.LVL39
 2683 0229 3A000000 		.4byte	.LVL44
 2684 022d 0100     		.2byte	0x1
 2685 022f 55       		.byte	0x55
 2686 0230 3A000000 		.4byte	.LVL44
 2687 0234 3D000000 		.4byte	.LVL45-1
 2688 0238 0100     		.2byte	0x1
 2689 023a 51       		.byte	0x51
 2690 023b 00000000 		.4byte	0
 2691 023f 00000000 		.4byte	0
 2692              	.LLST16:
 2693 0243 1E000000 		.4byte	.LVL41
 2694 0247 3A000000 		.4byte	.LVL44
 2695 024b 0100     		.2byte	0x1
 2696 024d 55       		.byte	0x55
 2697 024e 3A000000 		.4byte	.LVL44
 2698 0252 3D000000 		.4byte	.LVL45-1
 2699 0256 0100     		.2byte	0x1
 2700 0258 51       		.byte	0x51
 2701 0259 00000000 		.4byte	0
 2702 025d 00000000 		.4byte	0
 2703              	.LLST17:
 2704 0261 1E000000 		.4byte	.LVL41
 2705 0265 20000000 		.4byte	.LVL42
 2706 0269 0600     		.2byte	0x6
 2707 026b 03       		.byte	0x3
 2708 026c 00000000 		.4byte	rlist
 2709 0270 9F       		.byte	0x9f
 2710 0271 20000000 		.4byte	.LVL42
 2711 0275 3A000000 		.4byte	.LVL44
 2712 0279 0100     		.2byte	0x1
 2713 027b 53       		.byte	0x53
 2714 027c 00000000 		.4byte	0
 2715 0280 00000000 		.4byte	0
 2716              	.LLST18:
 2717 0284 08000000 		.4byte	.LVL46
 2718 0288 36000000 		.4byte	.LVL51
 2719 028c 0100     		.2byte	0x1
 2720 028e 55       		.byte	0x55
 2721 028f 36000000 		.4byte	.LVL51
 2722 0293 39000000 		.4byte	.LVL52-1
 2723 0297 0100     		.2byte	0x1
ARM GAS  /tmp/cckJEaq5.s 			page 49


 2724 0299 51       		.byte	0x51
 2725 029a 00000000 		.4byte	0
 2726 029e 00000000 		.4byte	0
 2727              	.LLST19:
 2728 02a2 1A000000 		.4byte	.LVL48
 2729 02a6 1C000000 		.4byte	.LVL49
 2730 02aa 0600     		.2byte	0x6
 2731 02ac 03       		.byte	0x3
 2732 02ad 00000000 		.4byte	rlist
 2733 02b1 9F       		.byte	0x9f
 2734 02b2 1C000000 		.4byte	.LVL49
 2735 02b6 36000000 		.4byte	.LVL51
 2736 02ba 0100     		.2byte	0x1
 2737 02bc 53       		.byte	0x53
 2738 02bd 00000000 		.4byte	0
 2739 02c1 00000000 		.4byte	0
 2740              		.section	.debug_aranges,"",%progbits
 2741 0000 64000000 		.4byte	0x64
 2742 0004 0200     		.2byte	0x2
 2743 0006 00000000 		.4byte	.Ldebug_info0
 2744 000a 04       		.byte	0x4
 2745 000b 00       		.byte	0
 2746 000c 0000     		.2byte	0
 2747 000e 0000     		.2byte	0
 2748 0010 00000000 		.4byte	.LFB3
 2749 0014 58000000 		.4byte	.LFE3-.LFB3
 2750 0018 00000000 		.4byte	.LFB0
 2751 001c 10000000 		.4byte	.LFE0-.LFB0
 2752 0020 00000000 		.4byte	.LFB1
 2753 0024 2C000000 		.4byte	.LFE1-.LFB1
 2754 0028 00000000 		.4byte	.LFB2
 2755 002c 28000000 		.4byte	.LFE2-.LFB2
 2756 0030 00000000 		.4byte	.LFB4
 2757 0034 44000000 		.4byte	.LFE4-.LFB4
 2758 0038 00000000 		.4byte	.LFB5
 2759 003c 60000000 		.4byte	.LFE5-.LFB5
 2760 0040 00000000 		.4byte	.LFB7
 2761 0044 44000000 		.4byte	.LFE7-.LFB7
 2762 0048 00000000 		.4byte	.LFB8
 2763 004c 40000000 		.4byte	.LFE8-.LFB8
 2764 0050 00000000 		.4byte	.LFB6
 2765 0054 18000000 		.4byte	.LFE6-.LFB6
 2766 0058 00000000 		.4byte	.LFB9
 2767 005c 14000000 		.4byte	.LFE9-.LFB9
 2768 0060 00000000 		.4byte	0
 2769 0064 00000000 		.4byte	0
 2770              		.section	.debug_ranges,"",%progbits
 2771              	.Ldebug_ranges0:
 2772 0000 32000000 		.4byte	.LBB11
 2773 0004 38000000 		.4byte	.LBE11
 2774 0008 3A000000 		.4byte	.LBB14
 2775 000c 4E000000 		.4byte	.LBE14
 2776 0010 00000000 		.4byte	0
 2777 0014 00000000 		.4byte	0
 2778 0018 32000000 		.4byte	.LBB18
 2779 001c 56000000 		.4byte	.LBE18
 2780 0020 58000000 		.4byte	.LBB23
ARM GAS  /tmp/cckJEaq5.s 			page 50


 2781 0024 60000000 		.4byte	.LBE23
 2782 0028 00000000 		.4byte	0
 2783 002c 00000000 		.4byte	0
 2784 0030 32000000 		.4byte	.LBB19
 2785 0034 44000000 		.4byte	.LBE19
 2786 0038 46000000 		.4byte	.LBB22
 2787 003c 4C000000 		.4byte	.LBE22
 2788 0040 00000000 		.4byte	0
 2789 0044 00000000 		.4byte	0
 2790 0048 14000000 		.4byte	.LBB24
 2791 004c 1C000000 		.4byte	.LBE24
 2792 0050 1E000000 		.4byte	.LBB28
 2793 0054 2C000000 		.4byte	.LBE28
 2794 0058 2E000000 		.4byte	.LBB29
 2795 005c 34000000 		.4byte	.LBE29
 2796 0060 00000000 		.4byte	0
 2797 0064 00000000 		.4byte	0
 2798 0068 00000000 		.4byte	.LFB3
 2799 006c 58000000 		.4byte	.LFE3
 2800 0070 00000000 		.4byte	.LFB0
 2801 0074 10000000 		.4byte	.LFE0
 2802 0078 00000000 		.4byte	.LFB1
 2803 007c 2C000000 		.4byte	.LFE1
 2804 0080 00000000 		.4byte	.LFB2
 2805 0084 28000000 		.4byte	.LFE2
 2806 0088 00000000 		.4byte	.LFB4
 2807 008c 44000000 		.4byte	.LFE4
 2808 0090 00000000 		.4byte	.LFB5
 2809 0094 60000000 		.4byte	.LFE5
 2810 0098 00000000 		.4byte	.LFB7
 2811 009c 44000000 		.4byte	.LFE7
 2812 00a0 00000000 		.4byte	.LFB8
 2813 00a4 40000000 		.4byte	.LFE8
 2814 00a8 00000000 		.4byte	.LFB6
 2815 00ac 18000000 		.4byte	.LFE6
 2816 00b0 00000000 		.4byte	.LFB9
 2817 00b4 14000000 		.4byte	.LFE9
 2818 00b8 00000000 		.4byte	0
 2819 00bc 00000000 		.4byte	0
 2820              		.section	.debug_line,"",%progbits
 2821              	.Ldebug_line0:
 2822 0000 89020000 		.section	.debug_str,"MS",%progbits,1
 2822      02001101 
 2822      00000201 
 2822      FB0E0D00 
 2822      01010101 
 2823              	.LASF34:
 2824 0000 705F6D73 		.ascii	"p_msg\000"
 2824      6700
 2825              	.LASF63:
 2826 0006 7264796D 		.ascii	"rdymsg\000"
 2826      736700
 2827              	.LASF72:
 2828 000d 63685363 		.ascii	"chSchDoRescheduleAhead\000"
 2828      68446F52 
 2828      65736368 
 2828      6564756C 
ARM GAS  /tmp/cckJEaq5.s 			page 51


 2828      65416865 
 2829              	.LASF5:
 2830 0024 5F5F7569 		.ascii	"__uint8_t\000"
 2830      6E74385F 
 2830      7400
 2831              	.LASF11:
 2832 002e 6C6F6E67 		.ascii	"long long unsigned int\000"
 2832      206C6F6E 
 2832      6720756E 
 2832      7369676E 
 2832      65642069 
 2833              	.LASF64:
 2834 0045 65786974 		.ascii	"exitcode\000"
 2834      636F6465 
 2834      00
 2835              	.LASF27:
 2836 004e 705F7072 		.ascii	"p_prio\000"
 2836      696F00
 2837              	.LASF84:
 2838 0055 5F736368 		.ascii	"_scheduler_init\000"
 2838      6564756C 
 2838      65725F69 
 2838      6E697400 
 2839              	.LASF10:
 2840 0065 6C6F6E67 		.ascii	"long long int\000"
 2840      206C6F6E 
 2840      6720696E 
 2840      7400
 2841              	.LASF1:
 2842 0073 7369676E 		.ascii	"signed char\000"
 2842      65642063 
 2842      68617200 
 2843              	.LASF60:
 2844 007f 6D5F7175 		.ascii	"m_queue\000"
 2844      65756500 
 2845              	.LASF18:
 2846 0087 74736C69 		.ascii	"tslices_t\000"
 2846      6365735F 
 2846      7400
 2847              	.LASF7:
 2848 0091 6C6F6E67 		.ascii	"long int\000"
 2848      20696E74 
 2848      00
 2849              	.LASF17:
 2850 009a 74737461 		.ascii	"tstate_t\000"
 2850      74655F74 
 2850      00
 2851              	.LASF57:
 2852 00a3 735F7175 		.ascii	"s_queue\000"
 2852      65756500 
 2853              	.LASF73:
 2854 00ab 63685363 		.ascii	"chSchRescheduleS\000"
 2854      68526573 
 2854      63686564 
 2854      756C6553 
 2854      00
 2855              	.LASF8:
ARM GAS  /tmp/cckJEaq5.s 			page 52


 2856 00bc 5F5F7569 		.ascii	"__uint32_t\000"
 2856      6E743332 
 2856      5F7400
 2857              	.LASF40:
 2858 00c7 72656761 		.ascii	"regarm_t\000"
 2858      726D5F74 
 2858      00
 2859              	.LASF47:
 2860 00d0 76745F70 		.ascii	"vt_prev\000"
 2860      72657600 
 2861              	.LASF74:
 2862 00d8 63685363 		.ascii	"chSchDoReschedule\000"
 2862      68446F52 
 2862      65736368 
 2862      6564756C 
 2862      6500
 2863              	.LASF23:
 2864 00ea 636E745F 		.ascii	"cnt_t\000"
 2864      7400
 2865              	.LASF0:
 2866 00f0 756E7369 		.ascii	"unsigned int\000"
 2866      676E6564 
 2866      20696E74 
 2866      00
 2867              	.LASF83:
 2868 00fd 77616B65 		.ascii	"wakeup\000"
 2868      757000
 2869              	.LASF46:
 2870 0104 76745F6E 		.ascii	"vt_next\000"
 2870      65787400 
 2871              	.LASF82:
 2872 010c 2F686F6D 		.ascii	"/home/dltech-deb/gdrive/Projects/RFM_to_Modbus_TCP/"
 2872      652F646C 
 2872      74656368 
 2872      2D646562 
 2872      2F676472 
 2873 013f 43686962 		.ascii	"ChibiOS/F103_ChibiOS_ENC60J28/main\000"
 2873      694F532F 
 2873      46313033 
 2873      5F436869 
 2873      62694F53 
 2874              	.LASF78:
 2875 0162 5F706F72 		.ascii	"_port_switch\000"
 2875      745F7377 
 2875      69746368 
 2875      00
 2876              	.LASF9:
 2877 016f 6C6F6E67 		.ascii	"long unsigned int\000"
 2877      20756E73 
 2877      69676E65 
 2877      6420696E 
 2877      7400
 2878              	.LASF44:
 2879 0181 76746675 		.ascii	"vtfunc_t\000"
 2879      6E635F74 
 2879      00
 2880              	.LASF58:
ARM GAS  /tmp/cckJEaq5.s 			page 53


 2881 018a 735F636E 		.ascii	"s_cnt\000"
 2881      7400
 2882              	.LASF4:
 2883 0190 73686F72 		.ascii	"short unsigned int\000"
 2883      7420756E 
 2883      7369676E 
 2883      65642069 
 2883      6E7400
 2884              	.LASF70:
 2885 01a3 63685363 		.ascii	"chSchWakeupS\000"
 2885      6857616B 
 2885      65757053 
 2885      00
 2886              	.LASF20:
 2887 01b0 6D73675F 		.ascii	"msg_t\000"
 2887      7400
 2888              	.LASF16:
 2889 01b6 746D6F64 		.ascii	"tmode_t\000"
 2889      655F7400 
 2890              	.LASF39:
 2891 01be 54687265 		.ascii	"ThreadsList\000"
 2891      6164734C 
 2891      69737400 
 2892              	.LASF21:
 2893 01ca 6576656E 		.ascii	"eventmask_t\000"
 2893      746D6173 
 2893      6B5F7400 
 2894              	.LASF59:
 2895 01d6 4D757465 		.ascii	"Mutex\000"
 2895      7800
 2896              	.LASF48:
 2897 01dc 76745F74 		.ascii	"vt_time\000"
 2897      696D6500 
 2898              	.LASF43:
 2899 01e4 73697A65 		.ascii	"sizetype\000"
 2899      74797065 
 2899      00
 2900              	.LASF49:
 2901 01ed 76745F66 		.ascii	"vt_func\000"
 2901      756E6300 
 2902              	.LASF76:
 2903 01f5 64657175 		.ascii	"dequeue\000"
 2903      65756500 
 2904              	.LASF71:
 2905 01fd 63685363 		.ascii	"chSchDoRescheduleBehind\000"
 2905      68446F52 
 2905      65736368 
 2905      6564756C 
 2905      65426568 
 2906              	.LASF79:
 2907 0215 63685654 		.ascii	"chVTSetI\000"
 2907      53657449 
 2907      00
 2908              	.LASF77:
 2909 021e 6669666F 		.ascii	"fifo_remove\000"
 2909      5F72656D 
 2909      6F766500 
ARM GAS  /tmp/cckJEaq5.s 			page 54


 2910              	.LASF53:
 2911 022a 725F6374 		.ascii	"r_ctx\000"
 2911      7800
 2912              	.LASF38:
 2913 0230 54687265 		.ascii	"ThreadsQueue\000"
 2913      61647351 
 2913      75657565 
 2913      00
 2914              	.LASF68:
 2915 023d 74696D65 		.ascii	"time\000"
 2915      00
 2916              	.LASF54:
 2917 0242 725F6375 		.ascii	"r_current\000"
 2917      7272656E 
 2917      7400
 2918              	.LASF26:
 2919 024c 705F7072 		.ascii	"p_prev\000"
 2919      657600
 2920              	.LASF19:
 2921 0253 74707269 		.ascii	"tprio_t\000"
 2921      6F5F7400 
 2922              	.LASF80:
 2923 025b 474E5520 		.ascii	"GNU C 4.8.4 20141219 (release) -mcpu=cortex-m3 -mno"
 2923      4320342E 
 2923      382E3420 
 2923      32303134 
 2923      31323139 
 2924 028e 2D746875 		.ascii	"-thumb-interwork -mthumb -ggdb -O2 -fomit-frame-poi"
 2924      6D622D69 
 2924      6E746572 
 2924      776F726B 
 2924      202D6D74 
 2925 02c1 6E746572 		.ascii	"nter -falign-functions=16 -ffunction-sections -fdat"
 2925      202D6661 
 2925      6C69676E 
 2925      2D66756E 
 2925      6374696F 
 2926 02f4 612D7365 		.ascii	"a-sections -fno-common -fno-strict-aliasing\000"
 2926      6374696F 
 2926      6E73202D 
 2926      666E6F2D 
 2926      636F6D6D 
 2927              	.LASF15:
 2928 0320 5F426F6F 		.ascii	"_Bool\000"
 2928      6C00
 2929              	.LASF13:
 2930 0326 696E7433 		.ascii	"int32_t\000"
 2930      325F7400 
 2931              	.LASF2:
 2932 032e 756E7369 		.ascii	"unsigned char\000"
 2932      676E6564 
 2932      20636861 
 2932      7200
 2933              	.LASF67:
 2934 033c 6E657773 		.ascii	"newstate\000"
 2934      74617465 
 2934      00
ARM GAS  /tmp/cckJEaq5.s 			page 55


 2935              	.LASF36:
 2936 0345 705F6D74 		.ascii	"p_mtxlist\000"
 2936      786C6973 
 2936      7400
 2937              	.LASF3:
 2938 034f 73686F72 		.ascii	"short int\000"
 2938      7420696E 
 2938      7400
 2939              	.LASF29:
 2940 0359 705F7374 		.ascii	"p_state\000"
 2940      61746500 
 2941              	.LASF31:
 2942 0361 705F7072 		.ascii	"p_preempt\000"
 2942      65656D70 
 2942      7400
 2943              	.LASF52:
 2944 036b 725F7072 		.ascii	"r_prio\000"
 2944      696F00
 2945              	.LASF66:
 2946 0372 65776D61 		.ascii	"ewmask\000"
 2946      736B00
 2947              	.LASF25:
 2948 0379 705F6E65 		.ascii	"p_next\000"
 2948      787400
 2949              	.LASF30:
 2950 0380 705F666C 		.ascii	"p_flags\000"
 2950      61677300 
 2951              	.LASF24:
 2952 0388 54687265 		.ascii	"Thread\000"
 2952      616400
 2953              	.LASF87:
 2954 038f 63685654 		.ascii	"chVTResetI\000"
 2954      52657365 
 2954      744900
 2955              	.LASF81:
 2956 039a 2E2E2F6F 		.ascii	"../os/kernel/src/chschd.c\000"
 2956      732F6B65 
 2956      726E656C 
 2956      2F737263 
 2956      2F636873 
 2957              	.LASF69:
 2958 03b4 63685363 		.ascii	"chSchGoSleepS\000"
 2958      68476F53 
 2958      6C656570 
 2958      5300
 2959              	.LASF35:
 2960 03c2 705F6570 		.ascii	"p_epending\000"
 2960      656E6469 
 2960      6E6700
 2961              	.LASF14:
 2962 03cd 75696E74 		.ascii	"uint32_t\000"
 2962      33325F74 
 2962      00
 2963              	.LASF51:
 2964 03d6 725F7175 		.ascii	"r_queue\000"
 2964      65756500 
 2965              	.LASF45:
ARM GAS  /tmp/cckJEaq5.s 			page 56


 2966 03de 56697274 		.ascii	"VirtualTimer\000"
 2966      75616C54 
 2966      696D6572 
 2966      00
 2967              	.LASF75:
 2968 03eb 63685363 		.ascii	"chSchReadyI\000"
 2968      68526561 
 2968      64794900 
 2969              	.LASF62:
 2970 03f7 6D5F6E65 		.ascii	"m_next\000"
 2970      787400
 2971              	.LASF22:
 2972 03fe 73797374 		.ascii	"systime_t\000"
 2972      696D655F 
 2972      7400
 2973              	.LASF37:
 2974 0408 705F7265 		.ascii	"p_realprio\000"
 2974      616C7072 
 2974      696F00
 2975              	.LASF6:
 2976 0413 5F5F696E 		.ascii	"__int32_t\000"
 2976      7433325F 
 2976      7400
 2977              	.LASF42:
 2978 041d 636F6E74 		.ascii	"context\000"
 2978      65787400 
 2979              	.LASF41:
 2980 0425 696E7463 		.ascii	"intctx\000"
 2980      747800
 2981              	.LASF33:
 2982 042c 705F6D73 		.ascii	"p_msgqueue\000"
 2982      67717565 
 2982      756500
 2983              	.LASF50:
 2984 0437 76745F70 		.ascii	"vt_par\000"
 2984      617200
 2985              	.LASF56:
 2986 043e 53656D61 		.ascii	"Semaphore\000"
 2986      70686F72 
 2986      6500
 2987              	.LASF55:
 2988 0448 52656164 		.ascii	"ReadyList\000"
 2988      794C6973 
 2988      7400
 2989              	.LASF86:
 2990 0452 726C6973 		.ascii	"rlist\000"
 2990      7400
 2991              	.LASF12:
 2992 0458 75696E74 		.ascii	"uint8_t\000"
 2992      385F7400 
 2993              	.LASF65:
 2994 0460 77746F62 		.ascii	"wtobjp\000"
 2994      6A7000
 2995              	.LASF85:
 2996 0467 63685363 		.ascii	"chSchGoSleepTimeoutS\000"
 2996      68476F53 
 2996      6C656570 
ARM GAS  /tmp/cckJEaq5.s 			page 57


 2996      54696D65 
 2996      6F757453 
 2997              	.LASF61:
 2998 047c 6D5F6F77 		.ascii	"m_owner\000"
 2998      6E657200 
 2999              	.LASF28:
 3000 0484 705F6374 		.ascii	"p_ctx\000"
 3000      7800
 3001              	.LASF32:
 3002 048a 705F7761 		.ascii	"p_waiting\000"
 3002      6974696E 
 3002      6700
 3003              		.ident	"GCC: (4.8.4-1+11-1) 4.8.4 20141219 (release)"
ARM GAS  /tmp/cckJEaq5.s 			page 58


DEFINED SYMBOLS
                            *ABS*:0000000000000000 chschd.c
     /tmp/cckJEaq5.s:19     .text.wakeup:0000000000000000 $t
     /tmp/cckJEaq5.s:24     .text.wakeup:0000000000000000 wakeup
     /tmp/cckJEaq5.s:50     .text.wakeup:0000000000000012 $d
     /tmp/cckJEaq5.s:64     .text.wakeup:0000000000000020 $t
     /tmp/cckJEaq5.s:127    .text.wakeup:0000000000000054 $d
     /tmp/cckJEaq5.s:132    .text._scheduler_init:0000000000000000 $t
     /tmp/cckJEaq5.s:138    .text._scheduler_init:0000000000000000 _scheduler_init
     /tmp/cckJEaq5.s:158    .text._scheduler_init:000000000000000c $d
     /tmp/cckJEaq5.s:163    .text.chSchReadyI:0000000000000000 $t
     /tmp/cckJEaq5.s:169    .text.chSchReadyI:0000000000000000 chSchReadyI
     /tmp/cckJEaq5.s:217    .text.chSchReadyI:0000000000000028 $d
     /tmp/cckJEaq5.s:222    .text.chSchGoSleepS:0000000000000000 $t
     /tmp/cckJEaq5.s:228    .text.chSchGoSleepS:0000000000000000 chSchGoSleepS
     /tmp/cckJEaq5.s:274    .text.chSchGoSleepS:0000000000000024 $d
     /tmp/cckJEaq5.s:279    .text.chSchGoSleepTimeoutS:0000000000000000 $t
     /tmp/cckJEaq5.s:285    .text.chSchGoSleepTimeoutS:0000000000000000 chSchGoSleepTimeoutS
     /tmp/cckJEaq5.s:351    .text.chSchGoSleepTimeoutS:000000000000003c $d
     /tmp/cckJEaq5.s:357    .text.chSchWakeupS:0000000000000000 $t
     /tmp/cckJEaq5.s:363    .text.chSchWakeupS:0000000000000000 chSchWakeupS
     /tmp/cckJEaq5.s:478    .text.chSchWakeupS:000000000000005c $d
     /tmp/cckJEaq5.s:484    .text.chSchDoRescheduleBehind:0000000000000000 $t
     /tmp/cckJEaq5.s:490    .text.chSchDoRescheduleBehind:0000000000000000 chSchDoRescheduleBehind
     /tmp/cckJEaq5.s:574    .text.chSchDoRescheduleBehind:0000000000000040 $d
     /tmp/cckJEaq5.s:579    .text.chSchDoRescheduleAhead:0000000000000000 $t
     /tmp/cckJEaq5.s:585    .text.chSchDoRescheduleAhead:0000000000000000 chSchDoRescheduleAhead
     /tmp/cckJEaq5.s:653    .text.chSchDoRescheduleAhead:000000000000003c $d
     /tmp/cckJEaq5.s:658    .text.chSchRescheduleS:0000000000000000 $t
     /tmp/cckJEaq5.s:664    .text.chSchRescheduleS:0000000000000000 chSchRescheduleS
     /tmp/cckJEaq5.s:687    .text.chSchRescheduleS:0000000000000014 $d
     /tmp/cckJEaq5.s:692    .text.chSchDoReschedule:0000000000000000 $t
     /tmp/cckJEaq5.s:698    .text.chSchDoReschedule:0000000000000000 chSchDoReschedule
     /tmp/cckJEaq5.s:720    .text.chSchDoReschedule:0000000000000010 $d
     /tmp/cckJEaq5.s:730    .bss.rlist:0000000000000000 rlist
     /tmp/cckJEaq5.s:726    .bss.rlist:0000000000000000 $d
                     .debug_frame:0000000000000010 $d
     /tmp/cckJEaq5.s:131    .text.wakeup:0000000000000058 $t
     /tmp/cckJEaq5.s:221    .text.chSchReadyI:000000000000002c $t
     /tmp/cckJEaq5.s:278    .text.chSchGoSleepS:0000000000000028 $t
     /tmp/cckJEaq5.s:356    .text.chSchGoSleepTimeoutS:0000000000000044 $t
     /tmp/cckJEaq5.s:578    .text.chSchDoRescheduleBehind:0000000000000044 $t
     /tmp/cckJEaq5.s:691    .text.chSchRescheduleS:0000000000000018 $t
     /tmp/cckJEaq5.s:725    .text.chSchDoReschedule:0000000000000014 $t

UNDEFINED SYMBOLS
_port_lock
dequeue
_port_unlock
fifo_remove
_port_switch
chVTSetI
chVTResetI
