ARM GAS  /tmp/cckJEaq5.s 			page 1


   1              		.syntax unified
   2              		.cpu cortex-m3
   3              		.fpu softvfp
   4              		.eabi_attribute 20, 1
   5              		.eabi_attribute 21, 1
   6              		.eabi_attribute 23, 3
   7              		.eabi_attribute 24, 1
   8              		.eabi_attribute 25, 1
   9              		.eabi_attribute 26, 1
  10              		.eabi_attribute 30, 2
  11              		.eabi_attribute 34, 1
  12              		.eabi_attribute 18, 4
  13              		.thumb
  14              		.file	"chschd.c"
  15              		.text
  16              	.Ltext0:
  17              		.cfi_sections	.debug_frame
  18              		.section	.text.wakeup,"ax",%progbits
  19              		.align	2
  20              		.p2align 4,,15
  21              		.thumb
  22              		.thumb_func
  23              		.type	wakeup, %function
  24              	wakeup:
  25              	.LFB3:
  26              		.file 1 "../os/kernel/src/chschd.c"
  27              		.loc 1 136 0
  28              		.cfi_startproc
  29              		@ args = 0, pretend = 0, frame = 0
  30              		@ frame_needed = 0, uses_anonymous_args = 0
  31              	.LVL0:
  32 0000 10B5     		push	{r4, lr}
  33              		.cfi_def_cfa_offset 8
  34              		.cfi_offset 4, -8
  35              		.cfi_offset 14, -4
  36              		.loc 1 136 0
  37 0002 0446     		mov	r4, r0
  38              	.LVL1:
  39              		.loc 1 139 0
  40              	@ 139 "../os/kernel/src/chschd.c" 1
  41 0004 FFF7FEFF 		bl      _port_lock
  42              	@ 0 "" 2
  43              		.loc 1 140 0
  44              		.thumb
  45 0008 037C     		ldrb	r3, [r0, #16]	@ zero_extendqisi2
  46 000a 0D2B     		cmp	r3, #13
  47 000c 0FD8     		bhi	.L2
  48 000e DFE803F0 		tbb	[pc, r3]
  49              	.L4:
  50 0012 1E       		.byte	(.L10-.L4)/2
  51 0013 0E       		.byte	(.L2-.L4)/2
  52 0014 0E       		.byte	(.L2-.L4)/2
  53 0015 07       		.byte	(.L5-.L4)/2
  54 0016 0E       		.byte	(.L2-.L4)/2
  55 0017 0B       		.byte	(.L6-.L4)/2
  56 0018 0E       		.byte	(.L2-.L4)/2
  57 0019 0E       		.byte	(.L2-.L4)/2
ARM GAS  /tmp/cckJEaq5.s 			page 2


  58 001a 0E       		.byte	(.L2-.L4)/2
  59 001b 0E       		.byte	(.L2-.L4)/2
  60 001c 0E       		.byte	(.L2-.L4)/2
  61 001d 0E       		.byte	(.L2-.L4)/2
  62 001e 0E       		.byte	(.L2-.L4)/2
  63 001f 0B       		.byte	(.L6-.L4)/2
  64              		.p2align 1
  65              	.L5:
  66              		.loc 1 150 0
  67 0020 4369     		ldr	r3, [r0, #20]
  68 0022 9A68     		ldr	r2, [r3, #8]
  69 0024 0132     		adds	r2, r2, #1
  70 0026 9A60     		str	r2, [r3, #8]
  71              	.L6:
  72              		.loc 1 160 0
  73 0028 2046     		mov	r0, r4
  74              	.LVL2:
  75 002a FFF7FEFF 		bl	dequeue
  76              	.LVL3:
  77              	.L2:
  78              		.loc 1 163 0
  79 002e 4FF0FF30 		mov	r0, #-1
  80              	.LBB11:
  81              	.LBB12:
  82              		.loc 1 92 0
  83 0032 0022     		movs	r2, #0
  84 0034 A168     		ldr	r1, [r4, #8]
  85              		.loc 1 93 0
  86 0036 074B     		ldr	r3, .L12
  87              	.LBE12:
  88              	.LBE11:
  89              		.loc 1 163 0
  90 0038 6061     		str	r0, [r4, #20]
  91              	.LVL4:
  92              	.LBB14:
  93              	.LBB13:
  94              		.loc 1 92 0
  95 003a 2274     		strb	r2, [r4, #16]
  96              	.LVL5:
  97              	.L9:
  98              		.loc 1 95 0
  99 003c 1B68     		ldr	r3, [r3]
 100              	.LVL6:
 101              		.loc 1 96 0
 102 003e 9A68     		ldr	r2, [r3, #8]
 103 0040 8A42     		cmp	r2, r1
 104 0042 FBD2     		bcs	.L9
 105              		.loc 1 98 0
 106 0044 2360     		str	r3, [r4]
 107              		.loc 1 99 0
 108 0046 5A68     		ldr	r2, [r3, #4]
 109 0048 6260     		str	r2, [r4, #4]
 110              		.loc 1 100 0
 111 004a 5C60     		str	r4, [r3, #4]
 112 004c 1460     		str	r4, [r2]
 113              	.LVL7:
 114              	.L10:
ARM GAS  /tmp/cckJEaq5.s 			page 3


 115              	.LBE13:
 116              	.LBE14:
 117              		.loc 1 165 0
 118              	@ 165 "../os/kernel/src/chschd.c" 1
 119 004e FFF7FEFF 		bl      _port_unlock
 120              	@ 0 "" 2
 121              		.thumb
 122 0052 10BD     		pop	{r4, pc}
 123              	.LVL8:
 124              	.L13:
 125              		.align	2
 126              	.L12:
 127 0054 00000000 		.word	.LANCHOR0
 128              		.cfi_endproc
 129              	.LFE3:
 130              		.size	wakeup, .-wakeup
 131 0058 AFF30080 		.section	.text._scheduler_init,"ax",%progbits
 131      AFF30080 
 132              		.align	2
 133              		.p2align 4,,15
 134              		.global	_scheduler_init
 135              		.thumb
 136              		.thumb_func
 137              		.type	_scheduler_init, %function
 138              	_scheduler_init:
 139              	.LFB0:
 140              		.loc 1 55 0
 141              		.cfi_startproc
 142              		@ args = 0, pretend = 0, frame = 0
 143              		@ frame_needed = 0, uses_anonymous_args = 0
 144              		@ link register save eliminated.
 145              		.loc 1 57 0
 146 0000 024B     		ldr	r3, .L15
 147              		.loc 1 58 0
 148 0002 0022     		movs	r2, #0
 149              		.loc 1 57 0
 150 0004 5B60     		str	r3, [r3, #4]
 151 0006 1B60     		str	r3, [r3]
 152              		.loc 1 58 0
 153 0008 9A60     		str	r2, [r3, #8]
 154 000a 7047     		bx	lr
 155              	.L16:
 156              		.align	2
 157              	.L15:
 158 000c 00000000 		.word	.LANCHOR0
 159              		.cfi_endproc
 160              	.LFE0:
 161              		.size	_scheduler_init, .-_scheduler_init
 162              		.section	.text.chSchReadyI,"ax",%progbits
 163              		.align	2
 164              		.p2align 4,,15
 165              		.global	chSchReadyI
 166              		.thumb
 167              		.thumb_func
 168              		.type	chSchReadyI, %function
 169              	chSchReadyI:
 170              	.LFB1:
ARM GAS  /tmp/cckJEaq5.s 			page 4


 171              		.loc 1 81 0
 172              		.cfi_startproc
 173              		@ args = 0, pretend = 0, frame = 0
 174              		@ frame_needed = 0, uses_anonymous_args = 0
 175              		@ link register save eliminated.
 176              	.LVL9:
 177 0000 10B4     		push	{r4}
 178              		.cfi_def_cfa_offset 4
 179              		.cfi_offset 4, -4
 180              		.loc 1 92 0
 181 0002 0022     		movs	r2, #0
 182 0004 8168     		ldr	r1, [r0, #8]
 183              		.loc 1 93 0
 184 0006 084B     		ldr	r3, .L20
 185              		.loc 1 81 0
 186 0008 0446     		mov	r4, r0
 187              		.loc 1 92 0
 188 000a 0274     		strb	r2, [r0, #16]
 189              	.LVL10:
 190              	.L19:
 191              		.loc 1 95 0 discriminator 1
 192 000c 1B68     		ldr	r3, [r3]
 193              	.LVL11:
 194              		.loc 1 96 0 discriminator 1
 195 000e 9A68     		ldr	r2, [r3, #8]
 196 0010 8A42     		cmp	r2, r1
 197 0012 FBD2     		bcs	.L19
 198              		.loc 1 98 0
 199 0014 2360     		str	r3, [r4]
 200              		.loc 1 99 0
 201 0016 5A68     		ldr	r2, [r3, #4]
 202              		.loc 1 102 0
 203 0018 2046     		mov	r0, r4
 204              	.LVL12:
 205              		.loc 1 99 0
 206 001a 6260     		str	r2, [r4, #4]
 207              		.loc 1 100 0
 208 001c 5C60     		str	r4, [r3, #4]
 209 001e 1460     		str	r4, [r2]
 210              		.loc 1 102 0
 211 0020 5DF8044B 		ldr	r4, [sp], #4
 212              	.LVL13:
 213 0024 7047     		bx	lr
 214              	.L21:
 215 0026 00BF     		.align	2
 216              	.L20:
 217 0028 00000000 		.word	.LANCHOR0
 218              		.cfi_endproc
 219              	.LFE1:
 220              		.size	chSchReadyI, .-chSchReadyI
 221 002c AFF30080 		.section	.text.chSchGoSleepS,"ax",%progbits
 222              		.align	2
 223              		.p2align 4,,15
 224              		.global	chSchGoSleepS
 225              		.thumb
 226              		.thumb_func
 227              		.type	chSchGoSleepS, %function
ARM GAS  /tmp/cckJEaq5.s 			page 5


 228              	chSchGoSleepS:
 229              	.LFB2:
 230              		.loc 1 115 0
 231              		.cfi_startproc
 232              		@ args = 0, pretend = 0, frame = 0
 233              		@ frame_needed = 0, uses_anonymous_args = 0
 234              	.LVL14:
 235 0000 38B5     		push	{r3, r4, r5, lr}
 236              		.cfi_def_cfa_offset 16
 237              		.cfi_offset 3, -16
 238              		.cfi_offset 4, -12
 239              		.cfi_offset 5, -8
 240              		.cfi_offset 14, -4
 241              		.loc 1 120 0
 242 0002 084C     		ldr	r4, .L23
 243              		.loc 1 124 0
 244 0004 1423     		movs	r3, #20
 245              		.loc 1 120 0
 246 0006 2569     		ldr	r5, [r4, #16]
 247              	.LVL15:
 248 0008 2874     		strb	r0, [r5, #16]
 249              		.loc 1 124 0
 250 000a AB74     		strb	r3, [r5, #18]
 251              		.loc 1 126 0
 252 000c 2046     		mov	r0, r4
 253              	.LVL16:
 254 000e FFF7FEFF 		bl	fifo_remove
 255              	.LVL17:
 256              		.loc 1 127 0
 257 0012 0123     		movs	r3, #1
 258              		.loc 1 126 0
 259 0014 2061     		str	r0, [r4, #16]
 260              		.loc 1 127 0
 261 0016 0374     		strb	r3, [r0, #16]
 262              		.loc 1 128 0
 263 0018 2946     		mov	r1, r5
 264 001a 2069     		ldr	r0, [r4, #16]
 265              		.loc 1 129 0
 266 001c BDE83840 		pop	{r3, r4, r5, lr}
 267              	.LVL18:
 268              		.loc 1 128 0
 269 0020 FFF7FEBF 		b	_port_switch
 270              	.LVL19:
 271              	.L24:
 272              		.align	2
 273              	.L23:
 274 0024 00000000 		.word	.LANCHOR0
 275              		.cfi_endproc
 276              	.LFE2:
 277              		.size	chSchGoSleepS, .-chSchGoSleepS
 278 0028 AFF30080 		.section	.text.chSchGoSleepTimeoutS,"ax",%progbits
 278      AFF30080 
 279              		.align	2
 280              		.p2align 4,,15
 281              		.global	chSchGoSleepTimeoutS
 282              		.thumb
 283              		.thumb_func
ARM GAS  /tmp/cckJEaq5.s 			page 6


 284              		.type	chSchGoSleepTimeoutS, %function
 285              	chSchGoSleepTimeoutS:
 286              	.LFB4:
 287              		.loc 1 189 0
 288              		.cfi_startproc
 289              		@ args = 0, pretend = 0, frame = 24
 290              		@ frame_needed = 0, uses_anonymous_args = 0
 291              	.LVL20:
 292 0000 30B5     		push	{r4, r5, lr}
 293              		.cfi_def_cfa_offset 12
 294              		.cfi_offset 4, -12
 295              		.cfi_offset 5, -8
 296              		.cfi_offset 14, -4
 297              		.loc 1 193 0
 298 0002 4B1C     		adds	r3, r1, #1
 299              		.loc 1 189 0
 300 0004 87B0     		sub	sp, sp, #28
 301              		.cfi_def_cfa_offset 40
 302              		.loc 1 189 0
 303 0006 0546     		mov	r5, r0
 304              		.loc 1 193 0
 305 0008 11D0     		beq	.L26
 306              	.LBB15:
 307              		.loc 1 196 0
 308 000a 0C4C     		ldr	r4, .L32
 309 000c 01A8     		add	r0, sp, #4
 310              	.LVL21:
 311 000e 2369     		ldr	r3, [r4, #16]
 312 0010 0B4A     		ldr	r2, .L32+4
 313 0012 FFF7FEFF 		bl	chVTSetI
 314              	.LVL22:
 315              		.loc 1 197 0
 316 0016 2846     		mov	r0, r5
 317 0018 FFF7FEFF 		bl	chSchGoSleepS
 318              	.LVL23:
 319              		.loc 1 198 0
 320 001c 049B     		ldr	r3, [sp, #16]
 321 001e 13B1     		cbz	r3, .L28
 322              		.loc 1 199 0
 323 0020 01A8     		add	r0, sp, #4
 324 0022 FFF7FEFF 		bl	chVTResetI
 325              	.LVL24:
 326              	.L28:
 327              	.LBE15:
 328              		.loc 1 203 0
 329 0026 2369     		ldr	r3, [r4, #16]
 330              		.loc 1 204 0
 331 0028 5869     		ldr	r0, [r3, #20]
 332 002a 07B0     		add	sp, sp, #28
 333              		@ sp needed
 334 002c 30BD     		pop	{r4, r5, pc}
 335              	.LVL25:
 336              	.L26:
 337              		.loc 1 202 0
 338 002e FFF7FEFF 		bl	chSchGoSleepS
 339              	.LVL26:
 340 0032 024C     		ldr	r4, .L32
ARM GAS  /tmp/cckJEaq5.s 			page 7


 341              		.loc 1 203 0
 342 0034 2369     		ldr	r3, [r4, #16]
 343              		.loc 1 204 0
 344 0036 5869     		ldr	r0, [r3, #20]
 345 0038 07B0     		add	sp, sp, #28
 346              		@ sp needed
 347 003a 30BD     		pop	{r4, r5, pc}
 348              	.L33:
 349              		.align	2
 350              	.L32:
 351 003c 00000000 		.word	.LANCHOR0
 352 0040 00000000 		.word	wakeup
 353              		.cfi_endproc
 354              	.LFE4:
 355              		.size	chSchGoSleepTimeoutS, .-chSchGoSleepTimeoutS
 356 0044 AFF30080 		.section	.text.chSchWakeupS,"ax",%progbits
 356      AFF30080 
 356      AFF30080 
 357              		.align	2
 358              		.p2align 4,,15
 359              		.global	chSchWakeupS
 360              		.thumb
 361              		.thumb_func
 362              		.type	chSchWakeupS, %function
 363              	chSchWakeupS:
 364              	.LFB5:
 365              		.loc 1 225 0
 366              		.cfi_startproc
 367              		@ args = 0, pretend = 0, frame = 0
 368              		@ frame_needed = 0, uses_anonymous_args = 0
 369              		@ link register save eliminated.
 370              	.LVL27:
 371 0000 F0B4     		push	{r4, r5, r6, r7}
 372              		.cfi_def_cfa_offset 16
 373              		.cfi_offset 4, -16
 374              		.cfi_offset 5, -12
 375              		.cfi_offset 6, -8
 376              		.cfi_offset 7, -4
 377              		.loc 1 234 0
 378 0002 DFF858C0 		ldr	ip, .L42
 379              		.loc 1 229 0
 380 0006 4161     		str	r1, [r0, #20]
 381              		.loc 1 234 0
 382 0008 DCF81070 		ldr	r7, [ip, #16]
 383 000c 8568     		ldr	r5, [r0, #8]
 384 000e BC68     		ldr	r4, [r7, #8]
 385              		.loc 1 225 0
 386 0010 0646     		mov	r6, r0
 387              		.loc 1 234 0
 388 0012 A542     		cmp	r5, r4
 389 0014 0DD8     		bhi	.L35
 390              	.LVL28:
 391              	.LBB16:
 392              	.LBB17:
 393              		.loc 1 92 0
 394 0016 0022     		movs	r2, #0
 395              		.loc 1 93 0
ARM GAS  /tmp/cckJEaq5.s 			page 8


 396 0018 6346     		mov	r3, ip
 397              		.loc 1 92 0
 398 001a 0274     		strb	r2, [r0, #16]
 399              	.LVL29:
 400              	.L37:
 401              		.loc 1 95 0
 402 001c 1B68     		ldr	r3, [r3]
 403              	.LVL30:
 404              		.loc 1 96 0
 405 001e 9A68     		ldr	r2, [r3, #8]
 406 0020 9542     		cmp	r5, r2
 407 0022 FBD9     		bls	.L37
 408              		.loc 1 98 0
 409 0024 3360     		str	r3, [r6]
 410              		.loc 1 99 0
 411 0026 5A68     		ldr	r2, [r3, #4]
 412 0028 7260     		str	r2, [r6, #4]
 413              		.loc 1 100 0
 414 002a 5E60     		str	r6, [r3, #4]
 415 002c 1660     		str	r6, [r2]
 416              	.LBE17:
 417              	.LBE16:
 418              		.loc 1 242 0
 419 002e F0BC     		pop	{r4, r5, r6, r7}
 420 0030 7047     		bx	lr
 421              	.LVL31:
 422              	.L35:
 423              	.LBB18:
 424              	.LBB19:
 425              	.LBB20:
 426              		.loc 1 92 0
 427 0032 0023     		movs	r3, #0
 428 0034 3B74     		strb	r3, [r7, #16]
 429              	.LVL32:
 430              		.loc 1 93 0
 431 0036 6346     		mov	r3, ip
 432              	.LVL33:
 433              	.L40:
 434              		.loc 1 95 0
 435 0038 1B68     		ldr	r3, [r3]
 436              	.LVL34:
 437              		.loc 1 96 0
 438 003a 9A68     		ldr	r2, [r3, #8]
 439 003c 9442     		cmp	r4, r2
 440 003e FBD9     		bls	.L40
 441              		.loc 1 98 0
 442 0040 3B60     		str	r3, [r7]
 443              		.loc 1 99 0
 444 0042 5A68     		ldr	r2, [r3, #4]
 445              	.LBE20:
 446              	.LBE19:
 447              		.loc 1 239 0
 448 0044 0124     		movs	r4, #1
 449              	.LBB22:
 450              	.LBB21:
 451              		.loc 1 99 0
 452 0046 7A60     		str	r2, [r7, #4]
ARM GAS  /tmp/cckJEaq5.s 			page 9


 453              		.loc 1 100 0
 454 0048 5F60     		str	r7, [r3, #4]
 455 004a 1760     		str	r7, [r2]
 456              	.LBE21:
 457              	.LBE22:
 458              		.loc 1 238 0
 459 004c CCF81060 		str	r6, [ip, #16]
 460              		.loc 1 239 0
 461 0050 3474     		strb	r4, [r6, #16]
 462              		.loc 1 240 0
 463 0052 3946     		mov	r1, r7
 464              	.LVL35:
 465 0054 3046     		mov	r0, r6
 466              	.LVL36:
 467              	.LBE18:
 468              		.loc 1 242 0
 469 0056 F0BC     		pop	{r4, r5, r6, r7}
 470              	.LVL37:
 471              	.LBB23:
 472              		.loc 1 240 0
 473 0058 FFF7FEBF 		b	_port_switch
 474              	.LVL38:
 475              	.L43:
 476              		.align	2
 477              	.L42:
 478 005c 00000000 		.word	.LANCHOR0
 479              	.LBE23:
 480              		.cfi_endproc
 481              	.LFE5:
 482              		.size	chSchWakeupS, .-chSchWakeupS
 483              		.section	.text.chSchDoRescheduleBehind,"ax",%progbits
 484              		.align	2
 485              		.p2align 4,,15
 486              		.global	chSchDoRescheduleBehind
 487              		.thumb
 488              		.thumb_func
 489              		.type	chSchDoRescheduleBehind, %function
 490              	chSchDoRescheduleBehind:
 491              	.LFB7:
 492              		.loc 1 304 0
 493              		.cfi_startproc
 494              		@ args = 0, pretend = 0, frame = 0
 495              		@ frame_needed = 0, uses_anonymous_args = 0
 496 0000 38B5     		push	{r3, r4, r5, lr}
 497              		.cfi_def_cfa_offset 16
 498              		.cfi_offset 3, -16
 499              		.cfi_offset 4, -12
 500              		.cfi_offset 5, -8
 501              		.cfi_offset 14, -4
 502              		.loc 1 307 0
 503 0002 0F4C     		ldr	r4, .L47
 504              		.loc 1 309 0
 505 0004 2046     		mov	r0, r4
 506              		.loc 1 307 0
 507 0006 2569     		ldr	r5, [r4, #16]
 508              	.LVL39:
 509              		.loc 1 309 0
ARM GAS  /tmp/cckJEaq5.s 			page 10


 510 0008 FFF7FEFF 		bl	fifo_remove
 511              	.LVL40:
 512              		.loc 1 310 0
 513 000c 0123     		movs	r3, #1
 514              		.loc 1 309 0
 515 000e 2061     		str	r0, [r4, #16]
 516              		.loc 1 310 0
 517 0010 0374     		strb	r3, [r0, #16]
 518              		.loc 1 312 0
 519 0012 1422     		movs	r2, #20
 520              	.LBB24:
 521              	.LBB25:
 522              		.loc 1 93 0
 523 0014 2046     		mov	r0, r4
 524              		.loc 1 92 0
 525 0016 0023     		movs	r3, #0
 526 0018 AC68     		ldr	r4, [r5, #8]
 527 001a 2B74     		strb	r3, [r5, #16]
 528              	.LBE25:
 529              	.LBE24:
 530              		.loc 1 312 0
 531 001c AA74     		strb	r2, [r5, #18]
 532              	.LVL41:
 533              	.LBB28:
 534              	.LBB26:
 535              		.loc 1 93 0
 536 001e 0346     		mov	r3, r0
 537              	.LVL42:
 538              	.L46:
 539              		.loc 1 95 0
 540 0020 1B68     		ldr	r3, [r3]
 541              	.LVL43:
 542              		.loc 1 96 0
 543 0022 9A68     		ldr	r2, [r3, #8]
 544 0024 A242     		cmp	r2, r4
 545 0026 FBD2     		bcs	.L46
 546              		.loc 1 98 0
 547 0028 2B60     		str	r3, [r5]
 548              		.loc 1 99 0
 549 002a 5A68     		ldr	r2, [r3, #4]
 550              	.LBE26:
 551              	.LBE28:
 552              		.loc 1 315 0
 553 002c 2946     		mov	r1, r5
 554              	.LBB29:
 555              	.LBB27:
 556              		.loc 1 99 0
 557 002e 6A60     		str	r2, [r5, #4]
 558              		.loc 1 100 0
 559 0030 5D60     		str	r5, [r3, #4]
 560 0032 1560     		str	r5, [r2]
 561              	.LBE27:
 562              	.LBE29:
 563              		.loc 1 315 0
 564 0034 0069     		ldr	r0, [r0, #16]
 565              		.loc 1 316 0
 566 0036 BDE83840 		pop	{r3, r4, r5, lr}
ARM GAS  /tmp/cckJEaq5.s 			page 11


 567              	.LVL44:
 568              		.loc 1 315 0
 569 003a FFF7FEBF 		b	_port_switch
 570              	.LVL45:
 571              	.L48:
 572 003e 00BF     		.align	2
 573              	.L47:
 574 0040 00000000 		.word	.LANCHOR0
 575              		.cfi_endproc
 576              	.LFE7:
 577              		.size	chSchDoRescheduleBehind, .-chSchDoRescheduleBehind
 578 0044 AFF30080 		.section	.text.chSchDoRescheduleAhead,"ax",%progbits
 578      AFF30080 
 578      AFF30080 
 579              		.align	2
 580              		.p2align 4,,15
 581              		.global	chSchDoRescheduleAhead
 582              		.thumb
 583              		.thumb_func
 584              		.type	chSchDoRescheduleAhead, %function
 585              	chSchDoRescheduleAhead:
 586              	.LFB8:
 587              		.loc 1 329 0
 588              		.cfi_startproc
 589              		@ args = 0, pretend = 0, frame = 0
 590              		@ frame_needed = 0, uses_anonymous_args = 0
 591 0000 38B5     		push	{r3, r4, r5, lr}
 592              		.cfi_def_cfa_offset 16
 593              		.cfi_offset 3, -16
 594              		.cfi_offset 4, -12
 595              		.cfi_offset 5, -8
 596              		.cfi_offset 14, -4
 597              		.loc 1 332 0
 598 0002 0E4C     		ldr	r4, .L52
 599              		.loc 1 334 0
 600 0004 2046     		mov	r0, r4
 601              		.loc 1 332 0
 602 0006 2569     		ldr	r5, [r4, #16]
 603              	.LVL46:
 604              		.loc 1 334 0
 605 0008 FFF7FEFF 		bl	fifo_remove
 606              	.LVL47:
 607              		.loc 1 335 0
 608 000c 0123     		movs	r3, #1
 609              		.loc 1 334 0
 610 000e 2061     		str	r0, [r4, #16]
 611              		.loc 1 335 0
 612 0010 0374     		strb	r3, [r0, #16]
 613              		.loc 1 338 0
 614 0012 2046     		mov	r0, r4
 615              		.loc 1 337 0
 616 0014 0023     		movs	r3, #0
 617 0016 AC68     		ldr	r4, [r5, #8]
 618 0018 2B74     		strb	r3, [r5, #16]
 619              	.LVL48:
 620              		.loc 1 338 0
 621 001a 0346     		mov	r3, r0
ARM GAS  /tmp/cckJEaq5.s 			page 12


 622              	.LVL49:
 623              	.L51:
 624              		.loc 1 340 0 discriminator 1
 625 001c 1B68     		ldr	r3, [r3]
 626              	.LVL50:
 627              		.loc 1 341 0 discriminator 1
 628 001e 9A68     		ldr	r2, [r3, #8]
 629 0020 A242     		cmp	r2, r4
 630 0022 FBD8     		bhi	.L51
 631              		.loc 1 343 0
 632 0024 2B60     		str	r3, [r5]
 633              		.loc 1 344 0
 634 0026 5A68     		ldr	r2, [r3, #4]
 635              		.loc 1 347 0
 636 0028 2946     		mov	r1, r5
 637              		.loc 1 344 0
 638 002a 6A60     		str	r2, [r5, #4]
 639              		.loc 1 345 0
 640 002c 5D60     		str	r5, [r3, #4]
 641 002e 1560     		str	r5, [r2]
 642              		.loc 1 347 0
 643 0030 0069     		ldr	r0, [r0, #16]
 644              		.loc 1 348 0
 645 0032 BDE83840 		pop	{r3, r4, r5, lr}
 646              	.LVL51:
 647              		.loc 1 347 0
 648 0036 FFF7FEBF 		b	_port_switch
 649              	.LVL52:
 650              	.L53:
 651 003a 00BF     		.align	2
 652              	.L52:
 653 003c 00000000 		.word	.LANCHOR0
 654              		.cfi_endproc
 655              	.LFE8:
 656              		.size	chSchDoRescheduleAhead, .-chSchDoRescheduleAhead
 657              		.section	.text.chSchRescheduleS,"ax",%progbits
 658              		.align	2
 659              		.p2align 4,,15
 660              		.global	chSchRescheduleS
 661              		.thumb
 662              		.thumb_func
 663              		.type	chSchRescheduleS, %function
 664              	chSchRescheduleS:
 665              	.LFB6:
 666              		.loc 1 253 0
 667              		.cfi_startproc
 668              		@ args = 0, pretend = 0, frame = 0
 669              		@ frame_needed = 0, uses_anonymous_args = 0
 670              		@ link register save eliminated.
 671              		.loc 1 257 0
 672 0000 044B     		ldr	r3, .L57
 673 0002 1A68     		ldr	r2, [r3]
 674 0004 1B69     		ldr	r3, [r3, #16]
 675 0006 9268     		ldr	r2, [r2, #8]
 676 0008 9B68     		ldr	r3, [r3, #8]
 677 000a 9A42     		cmp	r2, r3
 678 000c 00D8     		bhi	.L56
ARM GAS  /tmp/cckJEaq5.s 			page 13


 679 000e 7047     		bx	lr
 680              	.L56:
 681              		.loc 1 258 0
 682 0010 FFF7FEBF 		b	chSchDoRescheduleAhead
 683              	.LVL53:
 684              	.L58:
 685              		.align	2
 686              	.L57:
 687 0014 00000000 		.word	.LANCHOR0
 688              		.cfi_endproc
 689              	.LFE6:
 690              		.size	chSchRescheduleS, .-chSchRescheduleS
 691 0018 AFF30080 		.section	.text.chSchDoReschedule,"ax",%progbits
 691      AFF30080 
 692              		.align	2
 693              		.p2align 4,,15
 694              		.global	chSchDoReschedule
 695              		.thumb
 696              		.thumb_func
 697              		.type	chSchDoReschedule, %function
 698              	chSchDoReschedule:
 699              	.LFB9:
 700              		.loc 1 362 0
 701              		.cfi_startproc
 702              		@ args = 0, pretend = 0, frame = 0
 703              		@ frame_needed = 0, uses_anonymous_args = 0
 704              		@ link register save eliminated.
 705              		.loc 1 367 0
 706 0000 034B     		ldr	r3, .L62
 707 0002 1B69     		ldr	r3, [r3, #16]
 708 0004 9B7C     		ldrb	r3, [r3, #18]	@ zero_extendqisi2
 709 0006 0BB1     		cbz	r3, .L61
 710              		.loc 1 375 0
 711 0008 FFF7FEBF 		b	chSchDoRescheduleAhead
 712              	.LVL54:
 713              	.L61:
 714              		.loc 1 370 0
 715 000c FFF7FEBF 		b	chSchDoRescheduleBehind
 716              	.LVL55:
 717              	.L63:
 718              		.align	2
 719              	.L62:
 720 0010 00000000 		.word	.LANCHOR0
 721              		.cfi_endproc
 722              	.LFE9:
 723              		.size	chSchDoReschedule, .-chSchDoReschedule
 724              		.global	rlist
 725 0014 AFF30080 		.section	.bss.rlist,"aw",%nobits
 725      AFF30080 
 725      AFF30080 
 726              		.align	2
 727              		.set	.LANCHOR0,. + 0
 728              		.type	rlist, %object
 729              		.size	rlist, 20
 730              	rlist:
 731 0000 00000000 		.space	20
 731      00000000 
ARM GAS  /tmp/cckJEaq5.s 			page 14


 731      00000000 
 731      00000000 
 731      00000000 
 732              		.text
 733              	.Letext0:
 734              		.file 2 "/usr/include/newlib/machine/_default_types.h"
 735              		.file 3 "/usr/include/newlib/stdint.h"
 736              		.file 4 "../os/ports/GCC/ARMCMx/chtypes.h"
 737              		.file 5 "../os/kernel/include/chlists.h"
 738              		.file 6 "../os/kernel/include/chthreads.h"
 739              		.file 7 "../os/ports/GCC/ARMCMx/chcore_v7m.h"
 740              		.file 8 "../os/kernel/include/chvt.h"
 741              		.file 9 "../os/kernel/include/chschd.h"
 742              		.file 10 "../os/kernel/include/chsem.h"
 743              		.file 11 "../os/kernel/include/chmtx.h"