ARM GAS  /tmp/ccttyInn.s 			page 1


   1              		.syntax unified
   2              		.cpu cortex-m3
   3              		.fpu softvfp
   4              		.eabi_attribute 20, 1
   5              		.eabi_attribute 21, 1
   6              		.eabi_attribute 23, 3
   7              		.eabi_attribute 24, 1
   8              		.eabi_attribute 25, 1
   9              		.eabi_attribute 26, 1
  10              		.eabi_attribute 30, 2
  11              		.eabi_attribute 34, 1
  12              		.eabi_attribute 18, 4
  13              		.thumb
  14              		.file	"chsem.c"
  15              		.text
  16              	.Ltext0:
  17              		.cfi_sections	.debug_frame
  18              		.section	.text.chSemInit,"ax",%progbits
  19              		.align	2
  20              		.p2align 4,,15
  21              		.global	chSemInit
  22              		.thumb
  23              		.thumb_func
  24              		.type	chSemInit, %function
  25              	chSemInit:
  26              	.LFB0:
  27              		.file 1 "../os/kernel/src/chsem.c"
  28              		.loc 1 86 0
  29              		.cfi_startproc
  30              		@ args = 0, pretend = 0, frame = 0
  31              		@ frame_needed = 0, uses_anonymous_args = 0
  32              		@ link register save eliminated.
  33              	.LVL0:
  34              		.loc 1 90 0
  35 0000 4060     		str	r0, [r0, #4]
  36 0002 0060     		str	r0, [r0]
  37              		.loc 1 91 0
  38 0004 8160     		str	r1, [r0, #8]
  39 0006 7047     		bx	lr
  40              		.cfi_endproc
  41              	.LFE0:
  42              		.size	chSemInit, .-chSemInit
  43 0008 AFF30080 		.section	.text.chSemResetI,"ax",%progbits
  43      AFF30080 
  44              		.align	2
  45              		.p2align 4,,15
  46              		.global	chSemResetI
  47              		.thumb
  48              		.thumb_func
  49              		.type	chSemResetI, %function
  50              	chSemResetI:
  51              	.LFB2:
  52              		.loc 1 136 0
  53              		.cfi_startproc
  54              		@ args = 0, pretend = 0, frame = 0
  55              		@ frame_needed = 0, uses_anonymous_args = 0
  56              	.LVL1:
ARM GAS  /tmp/ccttyInn.s 			page 2


  57 0000 70B5     		push	{r4, r5, r6, lr}
  58              		.cfi_def_cfa_offset 16
  59              		.cfi_offset 4, -16
  60              		.cfi_offset 5, -12
  61              		.cfi_offset 6, -8
  62              		.cfi_offset 14, -4
  63              		.loc 1 141 0
  64 0002 8468     		ldr	r4, [r0, #8]
  65              	.LVL2:
  66              		.loc 1 136 0
  67 0004 0546     		mov	r5, r0
  68              		.loc 1 148 0
  69 0006 0134     		adds	r4, r4, #1
  70              	.LVL3:
  71 0008 002C     		cmp	r4, #0
  72              		.loc 1 147 0
  73 000a 8160     		str	r1, [r0, #8]
  74              	.LVL4:
  75              		.loc 1 148 0
  76 000c 0ADC     		bgt	.L2
  77              		.loc 1 149 0
  78 000e 6FF00106 		mvn	r6, #1
  79              	.LVL5:
  80              	.L5:
  81 0012 2846     		mov	r0, r5
  82 0014 FFF7FEFF 		bl	lifo_remove
  83              	.LVL6:
  84 0018 FFF7FEFF 		bl	chSchReadyI
  85              	.LVL7:
  86              		.loc 1 148 0
  87 001c 0134     		adds	r4, r4, #1
  88              	.LVL8:
  89 001e 012C     		cmp	r4, #1
  90              		.loc 1 149 0
  91 0020 4661     		str	r6, [r0, #20]
  92              	.LVL9:
  93              		.loc 1 148 0
  94 0022 F6D1     		bne	.L5
  95              	.L2:
  96 0024 70BD     		pop	{r4, r5, r6, pc}
  97              		.cfi_endproc
  98              	.LFE2:
  99              		.size	chSemResetI, .-chSemResetI
 100 0026 00BFAFF3 		.section	.text.chSemReset,"ax",%progbits
 100      0080AFF3 
 100      0080
 101              		.align	2
 102              		.p2align 4,,15
 103              		.global	chSemReset
 104              		.thumb
 105              		.thumb_func
 106              		.type	chSemReset, %function
 107              	chSemReset:
 108              	.LFB1:
 109              		.loc 1 109 0
 110              		.cfi_startproc
 111              		@ args = 0, pretend = 0, frame = 0
ARM GAS  /tmp/ccttyInn.s 			page 3


 112              		@ frame_needed = 0, uses_anonymous_args = 0
 113              	.LVL10:
 114 0000 08B5     		push	{r3, lr}
 115              		.cfi_def_cfa_offset 8
 116              		.cfi_offset 3, -8
 117              		.cfi_offset 14, -4
 118              		.loc 1 111 0
 119              	@ 111 "../os/kernel/src/chsem.c" 1
 120 0002 FFF7FEFF 		bl      _port_lock
 121              	@ 0 "" 2
 122              		.loc 1 112 0
 123              		.thumb
 124 0006 FFF7FEFF 		bl	chSemResetI
 125              	.LVL11:
 126              		.loc 1 113 0
 127 000a FFF7FEFF 		bl	chSchRescheduleS
 128              	.LVL12:
 129              		.loc 1 114 0
 130              	@ 114 "../os/kernel/src/chsem.c" 1
 131 000e FFF7FEFF 		bl      _port_unlock
 132              	@ 0 "" 2
 133              		.thumb
 134 0012 08BD     		pop	{r3, pc}
 135              		.cfi_endproc
 136              	.LFE1:
 137              		.size	chSemReset, .-chSemReset
 138 0014 AFF30080 		.section	.text.chSemWaitS,"ax",%progbits
 138      AFF30080 
 138      AFF30080 
 139              		.align	2
 140              		.p2align 4,,15
 141              		.global	chSemWaitS
 142              		.thumb
 143              		.thumb_func
 144              		.type	chSemWaitS, %function
 145              	chSemWaitS:
 146              	.LFB4:
 147              		.loc 1 185 0
 148              		.cfi_startproc
 149              		@ args = 0, pretend = 0, frame = 0
 150              		@ frame_needed = 0, uses_anonymous_args = 0
 151              	.LVL13:
 152 0000 10B5     		push	{r4, lr}
 153              		.cfi_def_cfa_offset 8
 154              		.cfi_offset 4, -8
 155              		.cfi_offset 14, -4
 156              		.loc 1 194 0
 157 0002 8368     		ldr	r3, [r0, #8]
 158 0004 013B     		subs	r3, r3, #1
 159 0006 002B     		cmp	r3, #0
 160 0008 8360     		str	r3, [r0, #8]
 161 000a 01DB     		blt	.L14
 162              		.loc 1 200 0
 163 000c 0020     		movs	r0, #0
 164              	.LVL14:
 165              		.loc 1 201 0
 166 000e 10BD     		pop	{r4, pc}
ARM GAS  /tmp/ccttyInn.s 			page 4


 167              	.LVL15:
 168              	.L14:
 169              		.loc 1 195 0
 170 0010 064C     		ldr	r4, .L15
 171              		.loc 1 196 0
 172 0012 0146     		mov	r1, r0
 173              		.loc 1 195 0
 174 0014 2369     		ldr	r3, [r4, #16]
 175 0016 5861     		str	r0, [r3, #20]
 176              		.loc 1 196 0
 177 0018 1846     		mov	r0, r3
 178              	.LVL16:
 179 001a FFF7FEFF 		bl	queue_insert
 180              	.LVL17:
 181              		.loc 1 197 0
 182 001e 0320     		movs	r0, #3
 183 0020 FFF7FEFF 		bl	chSchGoSleepS
 184              	.LVL18:
 185              		.loc 1 198 0
 186 0024 2369     		ldr	r3, [r4, #16]
 187 0026 5869     		ldr	r0, [r3, #20]
 188 0028 10BD     		pop	{r4, pc}
 189              	.L16:
 190 002a 00BF     		.align	2
 191              	.L15:
 192 002c 00000000 		.word	rlist
 193              		.cfi_endproc
 194              	.LFE4:
 195              		.size	chSemWaitS, .-chSemWaitS
 196              		.section	.text.chSemWait,"ax",%progbits
 197              		.align	2
 198              		.p2align 4,,15
 199              		.global	chSemWait
 200              		.thumb
 201              		.thumb_func
 202              		.type	chSemWait, %function
 203              	chSemWait:
 204              	.LFB3:
 205              		.loc 1 164 0
 206              		.cfi_startproc
 207              		@ args = 0, pretend = 0, frame = 0
 208              		@ frame_needed = 0, uses_anonymous_args = 0
 209              	.LVL19:
 210 0000 08B5     		push	{r3, lr}
 211              		.cfi_def_cfa_offset 8
 212              		.cfi_offset 3, -8
 213              		.cfi_offset 14, -4
 214              		.loc 1 167 0
 215              	@ 167 "../os/kernel/src/chsem.c" 1
 216 0002 FFF7FEFF 		bl      _port_lock
 217              	@ 0 "" 2
 218              		.loc 1 168 0
 219              		.thumb
 220 0006 FFF7FEFF 		bl	chSemWaitS
 221              	.LVL20:
 222              		.loc 1 169 0
 223              	@ 169 "../os/kernel/src/chsem.c" 1
ARM GAS  /tmp/ccttyInn.s 			page 5


 224 000a FFF7FEFF 		bl      _port_unlock
 225              	@ 0 "" 2
 226              		.loc 1 171 0
 227              		.thumb
 228 000e 08BD     		pop	{r3, pc}
 229              		.cfi_endproc
 230              	.LFE3:
 231              		.size	chSemWait, .-chSemWait
 232              		.section	.text.chSemWaitTimeoutS,"ax",%progbits
 233              		.align	2
 234              		.p2align 4,,15
 235              		.global	chSemWaitTimeoutS
 236              		.thumb
 237              		.thumb_func
 238              		.type	chSemWaitTimeoutS, %function
 239              	chSemWaitTimeoutS:
 240              	.LFB6:
 241              		.loc 1 250 0
 242              		.cfi_startproc
 243              		@ args = 0, pretend = 0, frame = 0
 244              		@ frame_needed = 0, uses_anonymous_args = 0
 245              	.LVL21:
 246 0000 10B5     		push	{r4, lr}
 247              		.cfi_def_cfa_offset 8
 248              		.cfi_offset 4, -8
 249              		.cfi_offset 14, -4
 250              		.loc 1 254 0
 251 0002 8268     		ldr	r2, [r0, #8]
 252              		.loc 1 250 0
 253 0004 0C46     		mov	r4, r1
 254              		.loc 1 259 0
 255 0006 531E     		subs	r3, r2, #1
 256 0008 002B     		cmp	r3, #0
 257 000a 8360     		str	r3, [r0, #8]
 258 000c 01DB     		blt	.L22
 259              		.loc 1 268 0
 260 000e 0020     		movs	r0, #0
 261              	.LVL22:
 262              		.loc 1 269 0
 263 0010 10BD     		pop	{r4, pc}
 264              	.LVL23:
 265              	.L22:
 266              		.loc 1 260 0
 267 0012 61B1     		cbz	r1, .L23
 268              		.loc 1 264 0
 269 0014 084B     		ldr	r3, .L24
 270              		.loc 1 265 0
 271 0016 0146     		mov	r1, r0
 272              	.LVL24:
 273              		.loc 1 264 0
 274 0018 1B69     		ldr	r3, [r3, #16]
 275 001a 5861     		str	r0, [r3, #20]
 276              		.loc 1 265 0
 277 001c 1846     		mov	r0, r3
 278              	.LVL25:
 279 001e FFF7FEFF 		bl	queue_insert
 280              	.LVL26:
ARM GAS  /tmp/ccttyInn.s 			page 6


 281              		.loc 1 266 0
 282 0022 2146     		mov	r1, r4
 283 0024 0320     		movs	r0, #3
 284              		.loc 1 269 0
 285 0026 BDE81040 		pop	{r4, lr}
 286              	.LVL27:
 287              		.loc 1 266 0
 288 002a FFF7FEBF 		b	chSchGoSleepTimeoutS
 289              	.LVL28:
 290              	.L23:
 291              		.loc 1 261 0
 292 002e 8260     		str	r2, [r0, #8]
 293              		.loc 1 262 0
 294 0030 4FF0FF30 		mov	r0, #-1
 295              	.LVL29:
 296 0034 10BD     		pop	{r4, pc}
 297              	.L25:
 298 0036 00BF     		.align	2
 299              	.L24:
 300 0038 00000000 		.word	rlist
 301              		.cfi_endproc
 302              	.LFE6:
 303              		.size	chSemWaitTimeoutS, .-chSemWaitTimeoutS
 304 003c AFF30080 		.section	.text.chSemWaitTimeout,"ax",%progbits
 305              		.align	2
 306              		.p2align 4,,15
 307              		.global	chSemWaitTimeout
 308              		.thumb
 309              		.thumb_func
 310              		.type	chSemWaitTimeout, %function
 311              	chSemWaitTimeout:
 312              	.LFB5:
 313              		.loc 1 222 0
 314              		.cfi_startproc
 315              		@ args = 0, pretend = 0, frame = 0
 316              		@ frame_needed = 0, uses_anonymous_args = 0
 317              	.LVL30:
 318 0000 08B5     		push	{r3, lr}
 319              		.cfi_def_cfa_offset 8
 320              		.cfi_offset 3, -8
 321              		.cfi_offset 14, -4
 322              		.loc 1 225 0
 323              	@ 225 "../os/kernel/src/chsem.c" 1
 324 0002 FFF7FEFF 		bl      _port_lock
 325              	@ 0 "" 2
 326              		.loc 1 226 0
 327              		.thumb
 328 0006 FFF7FEFF 		bl	chSemWaitTimeoutS
 329              	.LVL31:
 330              		.loc 1 227 0
 331              	@ 227 "../os/kernel/src/chsem.c" 1
 332 000a FFF7FEFF 		bl      _port_unlock
 333              	@ 0 "" 2
 334              		.loc 1 229 0
 335              		.thumb
 336 000e 08BD     		pop	{r3, pc}
 337              		.cfi_endproc
ARM GAS  /tmp/ccttyInn.s 			page 7


 338              	.LFE5:
 339              		.size	chSemWaitTimeout, .-chSemWaitTimeout
 340              		.section	.text.chSemSignal,"ax",%progbits
 341              		.align	2
 342              		.p2align 4,,15
 343              		.global	chSemSignal
 344              		.thumb
 345              		.thumb_func
 346              		.type	chSemSignal, %function
 347              	chSemSignal:
 348              	.LFB7:
 349              		.loc 1 278 0
 350              		.cfi_startproc
 351              		@ args = 0, pretend = 0, frame = 0
 352              		@ frame_needed = 0, uses_anonymous_args = 0
 353              	.LVL32:
 354 0000 08B5     		push	{r3, lr}
 355              		.cfi_def_cfa_offset 8
 356              		.cfi_offset 3, -8
 357              		.cfi_offset 14, -4
 358              		.loc 1 286 0
 359              	@ 286 "../os/kernel/src/chsem.c" 1
 360 0002 FFF7FEFF 		bl      _port_lock
 361              	@ 0 "" 2
 362              		.loc 1 287 0
 363              		.thumb
 364 0006 8368     		ldr	r3, [r0, #8]
 365 0008 0133     		adds	r3, r3, #1
 366 000a 002B     		cmp	r3, #0
 367 000c 8360     		str	r3, [r0, #8]
 368 000e 02DD     		ble	.L29
 369              		.loc 1 289 0
 370              	@ 289 "../os/kernel/src/chsem.c" 1
 371 0010 FFF7FEFF 		bl      _port_unlock
 372              	@ 0 "" 2
 373              		.thumb
 374 0014 08BD     		pop	{r3, pc}
 375              	.L29:
 376              		.loc 1 288 0
 377 0016 FFF7FEFF 		bl	fifo_remove
 378              	.LVL33:
 379 001a 0021     		movs	r1, #0
 380 001c FFF7FEFF 		bl	chSchWakeupS
 381              	.LVL34:
 382              		.loc 1 289 0
 383              	@ 289 "../os/kernel/src/chsem.c" 1
 384 0020 FFF7FEFF 		bl      _port_unlock
 385              	@ 0 "" 2
 386              		.thumb
 387 0024 08BD     		pop	{r3, pc}
 388              		.cfi_endproc
 389              	.LFE7:
 390              		.size	chSemSignal, .-chSemSignal
 391              		.section	.text.chSemSignalI,"ax",%progbits
 392              		.align	2
 393              		.p2align 4,,15
 394              		.global	chSemSignalI
ARM GAS  /tmp/ccttyInn.s 			page 8


 395              		.thumb
 396              		.thumb_func
 397              		.type	chSemSignalI, %function
 398              	chSemSignalI:
 399              	.LFB8:
 400              		.loc 1 303 0
 401              		.cfi_startproc
 402              		@ args = 0, pretend = 0, frame = 0
 403              		@ frame_needed = 0, uses_anonymous_args = 0
 404              	.LVL35:
 405 0000 08B5     		push	{r3, lr}
 406              		.cfi_def_cfa_offset 8
 407              		.cfi_offset 3, -8
 408              		.cfi_offset 14, -4
 409              		.loc 1 312 0
 410 0002 8368     		ldr	r3, [r0, #8]
 411 0004 0133     		adds	r3, r3, #1
 412 0006 002B     		cmp	r3, #0
 413 0008 8360     		str	r3, [r0, #8]
 414 000a 00DD     		ble	.L32
 415 000c 08BD     		pop	{r3, pc}
 416              	.L32:
 417              	.LBB2:
 418              		.loc 1 315 0
 419 000e FFF7FEFF 		bl	fifo_remove
 420              	.LVL36:
 421              		.loc 1 316 0
 422 0012 0022     		movs	r2, #0
 423 0014 4261     		str	r2, [r0, #20]
 424              	.LBE2:
 425              		.loc 1 319 0
 426 0016 BDE80840 		pop	{r3, lr}
 427              	.LBB3:
 428              		.loc 1 317 0
 429 001a FFF7FEBF 		b	chSchReadyI
 430              	.LVL37:
 431              	.LBE3:
 432              		.cfi_endproc
 433              	.LFE8:
 434              		.size	chSemSignalI, .-chSemSignalI
 435 001e 00BF     		.section	.text.chSemAddCounterI,"ax",%progbits
 436              		.align	2
 437              		.p2align 4,,15
 438              		.global	chSemAddCounterI
 439              		.thumb
 440              		.thumb_func
 441              		.type	chSemAddCounterI, %function
 442              	chSemAddCounterI:
 443              	.LFB9:
 444              		.loc 1 334 0
 445              		.cfi_startproc
 446              		@ args = 0, pretend = 0, frame = 0
 447              		@ frame_needed = 0, uses_anonymous_args = 0
 448              	.LVL38:
 449 0000 70B5     		push	{r4, r5, r6, lr}
 450              		.cfi_def_cfa_offset 16
 451              		.cfi_offset 4, -16
ARM GAS  /tmp/ccttyInn.s 			page 9


 452              		.cfi_offset 5, -12
 453              		.cfi_offset 6, -8
 454              		.cfi_offset 14, -4
 455              		.loc 1 343 0
 456 0002 0C1E     		subs	r4, r1, #0
 457              		.loc 1 334 0
 458 0004 0546     		mov	r5, r0
 459              		.loc 1 343 0
 460 0006 10DD     		ble	.L33
 461              		.loc 1 345 0
 462 0008 0026     		movs	r6, #0
 463 000a 01E0     		b	.L37
 464              	.LVL39:
 465              	.L35:
 466              		.loc 1 343 0
 467 000c 013C     		subs	r4, r4, #1
 468              	.LVL40:
 469 000e 0CD0     		beq	.L33
 470              	.LVL41:
 471              	.L37:
 472              		.loc 1 344 0
 473 0010 AB68     		ldr	r3, [r5, #8]
 474 0012 0133     		adds	r3, r3, #1
 475 0014 002B     		cmp	r3, #0
 476 0016 AB60     		str	r3, [r5, #8]
 477 0018 F8DC     		bgt	.L35
 478              		.loc 1 345 0
 479 001a 2846     		mov	r0, r5
 480 001c FFF7FEFF 		bl	fifo_remove
 481              	.LVL42:
 482 0020 FFF7FEFF 		bl	chSchReadyI
 483              	.LVL43:
 484              		.loc 1 343 0
 485 0024 013C     		subs	r4, r4, #1
 486              	.LVL44:
 487              		.loc 1 345 0
 488 0026 4661     		str	r6, [r0, #20]
 489              	.LVL45:
 490              		.loc 1 343 0
 491 0028 F2D1     		bne	.L37
 492              	.L33:
 493 002a 70BD     		pop	{r4, r5, r6, pc}
 494              		.cfi_endproc
 495              	.LFE9:
 496              		.size	chSemAddCounterI, .-chSemAddCounterI
 497 002c AFF30080 		.section	.text.chSemSignalWait,"ax",%progbits
 498              		.align	2
 499              		.p2align 4,,15
 500              		.global	chSemSignalWait
 501              		.thumb
 502              		.thumb_func
 503              		.type	chSemSignalWait, %function
 504              	chSemSignalWait:
 505              	.LFB10:
 506              		.loc 1 366 0
 507              		.cfi_startproc
 508              		@ args = 0, pretend = 0, frame = 0
ARM GAS  /tmp/ccttyInn.s 			page 10


 509              		@ frame_needed = 0, uses_anonymous_args = 0
 510              	.LVL46:
 511 0000 38B5     		push	{r3, r4, r5, lr}
 512              		.cfi_def_cfa_offset 16
 513              		.cfi_offset 3, -16
 514              		.cfi_offset 4, -12
 515              		.cfi_offset 5, -8
 516              		.cfi_offset 14, -4
 517              		.loc 1 366 0
 518 0002 0C46     		mov	r4, r1
 519              		.loc 1 379 0
 520              	@ 379 "../os/kernel/src/chsem.c" 1
 521 0004 FFF7FEFF 		bl      _port_lock
 522              	@ 0 "" 2
 523              		.loc 1 380 0
 524              		.thumb
 525 0008 8368     		ldr	r3, [r0, #8]
 526 000a 0133     		adds	r3, r3, #1
 527 000c 002B     		cmp	r3, #0
 528 000e 8360     		str	r3, [r0, #8]
 529 0010 18DD     		ble	.L45
 530              	.LVL47:
 531              	.L42:
 532              		.loc 1 382 0
 533 0012 A368     		ldr	r3, [r4, #8]
 534 0014 013B     		subs	r3, r3, #1
 535 0016 002B     		cmp	r3, #0
 536 0018 A360     		str	r3, [r4, #8]
 537 001a 05DB     		blt	.L46
 538              		.loc 1 390 0
 539 001c FFF7FEFF 		bl	chSchRescheduleS
 540              	.LVL48:
 541              		.loc 1 391 0
 542 0020 0020     		movs	r0, #0
 543              	.LVL49:
 544              		.loc 1 393 0
 545              	@ 393 "../os/kernel/src/chsem.c" 1
 546 0022 FFF7FEFF 		bl      _port_unlock
 547              	@ 0 "" 2
 548              		.loc 1 395 0
 549              		.thumb
 550 0026 38BD     		pop	{r3, r4, r5, pc}
 551              	.LVL50:
 552              	.L46:
 553              	.LBB4:
 554              		.loc 1 383 0
 555 0028 0A4B     		ldr	r3, .L47
 556              		.loc 1 384 0
 557 002a 2146     		mov	r1, r4
 558              		.loc 1 383 0
 559 002c 1D69     		ldr	r5, [r3, #16]
 560              	.LVL51:
 561              		.loc 1 384 0
 562 002e 2846     		mov	r0, r5
 563 0030 FFF7FEFF 		bl	queue_insert
 564              	.LVL52:
 565              		.loc 1 385 0
ARM GAS  /tmp/ccttyInn.s 			page 11


 566 0034 6C61     		str	r4, [r5, #20]
 567              		.loc 1 386 0
 568 0036 0320     		movs	r0, #3
 569 0038 FFF7FEFF 		bl	chSchGoSleepS
 570              	.LVL53:
 571              		.loc 1 387 0
 572 003c 6869     		ldr	r0, [r5, #20]
 573              	.LVL54:
 574              	.LBE4:
 575              		.loc 1 393 0
 576              	@ 393 "../os/kernel/src/chsem.c" 1
 577 003e FFF7FEFF 		bl      _port_unlock
 578              	@ 0 "" 2
 579              		.loc 1 395 0
 580              		.thumb
 581 0042 38BD     		pop	{r3, r4, r5, pc}
 582              	.LVL55:
 583              	.L45:
 584              		.loc 1 381 0
 585 0044 FFF7FEFF 		bl	fifo_remove
 586              	.LVL56:
 587 0048 FFF7FEFF 		bl	chSchReadyI
 588              	.LVL57:
 589 004c 0023     		movs	r3, #0
 590 004e 4361     		str	r3, [r0, #20]
 591 0050 DFE7     		b	.L42
 592              	.L48:
 593 0052 00BF     		.align	2
 594              	.L47:
 595 0054 00000000 		.word	rlist
 596              		.cfi_endproc
 597              	.LFE10:
 598              		.size	chSemSignalWait, .-chSemSignalWait
 599 0058 AFF30080 		.text
 599      AFF30080 
 600              	.Letext0:
 601              		.file 2 "/usr/include/newlib/machine/_default_types.h"
 602              		.file 3 "/usr/include/newlib/stdint.h"
 603              		.file 4 "../os/ports/GCC/ARMCMx/chtypes.h"
 604              		.file 5 "../os/kernel/include/chlists.h"
 605              		.file 6 "../os/kernel/include/chthreads.h"
 606              		.file 7 "../os/ports/GCC/ARMCMx/chcore_v7m.h"
 607              		.file 8 "../os/kernel/include/chschd.h"
 608              		.file 9 "../os/kernel/include/chsem.h"
 609              		.file 10 "../os/kernel/include/chmtx.h"