ARM GAS  /tmp/cc8axw0R.s 			page 1


   1              		.syntax unified
   2              		.cpu cortex-m3
   3              		.fpu softvfp
   4              		.eabi_attribute 20, 1
   5              		.eabi_attribute 21, 1
   6              		.eabi_attribute 23, 3
   7              		.eabi_attribute 24, 1
   8              		.eabi_attribute 25, 1
   9              		.eabi_attribute 26, 1
  10              		.eabi_attribute 30, 2
  11              		.eabi_attribute 34, 1
  12              		.eabi_attribute 18, 4
  13              		.thumb
  14              		.file	"chsys.c"
  15              		.text
  16              	.Ltext0:
  17              		.cfi_sections	.debug_frame
  18              		.section	.text._idle_thread,"ax",%progbits
  19              		.align	2
  20              		.p2align 4,,15
  21              		.global	_idle_thread
  22              		.thumb
  23              		.thumb_func
  24              		.type	_idle_thread, %function
  25              	_idle_thread:
  26              	.LFB0:
  27              		.file 1 "../os/kernel/src/chsys.c"
  28              		.loc 1 61 0
  29              		.cfi_startproc
  30              		@ Volatile: function does not return.
  31              		@ args = 0, pretend = 0, frame = 0
  32              		@ frame_needed = 0, uses_anonymous_args = 0
  33              		@ link register save eliminated.
  34              	.LVL0:
  35              	.L2:
  36 0000 FEE7     		b	.L2
  37              		.cfi_endproc
  38              	.LFE0:
  39              		.size	_idle_thread, .-_idle_thread
  40 0002 00BFAFF3 		.section	.text.chSysInit,"ax",%progbits
  40      0080AFF3 
  40      0080AFF3 
  40      0080
  41              		.align	2
  42              		.p2align 4,,15
  43              		.global	chSysInit
  44              		.thumb
  45              		.thumb_func
  46              		.type	chSysInit, %function
  47              	chSysInit:
  48              	.LFB1:
  49              		.loc 1 84 0
  50              		.cfi_startproc
  51              		@ args = 0, pretend = 0, frame = 0
  52              		@ frame_needed = 0, uses_anonymous_args = 0
  53              		.loc 1 84 0
  54 0000 00B5     		push	{lr}
ARM GAS  /tmp/cc8axw0R.s 			page 2


  55              		.cfi_def_cfa_offset 4
  56              		.cfi_offset 14, -4
  57 0002 83B0     		sub	sp, sp, #12
  58              		.cfi_def_cfa_offset 16
  59              		.loc 1 90 0
  60 0004 FFF7FEFF 		bl	_port_init
  61              	.LVL1:
  62              		.loc 1 91 0
  63 0008 FFF7FEFF 		bl	_scheduler_init
  64              	.LVL2:
  65              		.loc 1 92 0
  66 000c FFF7FEFF 		bl	_vt_init
  67              	.LVL3:
  68              		.loc 1 104 0
  69 0010 4021     		movs	r1, #64
  70 0012 0A48     		ldr	r0, .L4
  71 0014 FFF7FEFF 		bl	_thread_init
  72              	.LVL4:
  73 0018 094B     		ldr	r3, .L4+4
  74              		.loc 1 105 0
  75 001a 0122     		movs	r2, #1
  76              		.loc 1 104 0
  77 001c 1861     		str	r0, [r3, #16]
  78              	.LBB2:
  79              		.loc 1 111 0
  80 001e 0023     		movs	r3, #0
  81              	.LBE2:
  82              		.loc 1 105 0
  83 0020 0274     		strb	r2, [r0, #16]
  84              	.LBB3:
  85              		.loc 1 111 0
  86              	@ 111 "../os/kernel/src/chsys.c" 1
  87 0022 83F31188 		msr     BASEPRI, r3                    
  88 0026 62B6     		cpsie   i
  89              	@ 0 "" 2
  90              		.thumb
  91              	.LBE3:
  92              		.loc 1 121 0
  93 0028 C821     		movs	r1, #200
  94 002a 0093     		str	r3, [sp]
  95 002c 0548     		ldr	r0, .L4+8
  96 002e 064B     		ldr	r3, .L4+12
  97 0030 FFF7FEFF 		bl	chThdCreateStatic
  98              	.LVL5:
  99              		.loc 1 124 0
 100 0034 03B0     		add	sp, sp, #12
 101              		@ sp needed
 102 0036 5DF804FB 		ldr	pc, [sp], #4
 103              	.L5:
 104 003a 00BF     		.align	2
 105              	.L4:
 106 003c 00000000 		.word	.LANCHOR0
 107 0040 00000000 		.word	rlist
 108 0044 00000000 		.word	.LANCHOR1
 109 0048 00000000 		.word	_idle_thread
 110              		.cfi_endproc
 111              	.LFE1:
ARM GAS  /tmp/cc8axw0R.s 			page 3


 112              		.size	chSysInit, .-chSysInit
 113 004c AFF30080 		.section	.text.chSysTimerHandlerI,"ax",%progbits
 114              		.align	2
 115              		.p2align 4,,15
 116              		.global	chSysTimerHandlerI
 117              		.thumb
 118              		.thumb_func
 119              		.type	chSysTimerHandlerI, %function
 120              	chSysTimerHandlerI:
 121              	.LFB2:
 122              		.loc 1 137 0
 123              		.cfi_startproc
 124              		@ args = 0, pretend = 0, frame = 0
 125              		@ frame_needed = 0, uses_anonymous_args = 0
 126 0000 38B5     		push	{r3, r4, r5, lr}
 127              		.cfi_def_cfa_offset 16
 128              		.cfi_offset 3, -16
 129              		.cfi_offset 4, -12
 130              		.cfi_offset 5, -8
 131              		.cfi_offset 14, -4
 132              		.loc 1 143 0
 133 0002 114B     		ldr	r3, .L15
 134 0004 1B69     		ldr	r3, [r3, #16]
 135 0006 9A7C     		ldrb	r2, [r3, #18]	@ zero_extendqisi2
 136 0008 0AB1     		cbz	r2, .L7
 137              		.loc 1 145 0
 138 000a 013A     		subs	r2, r2, #1
 139 000c 9A74     		strb	r2, [r3, #18]
 140              	.L7:
 141              		.loc 1 150 0
 142 000e 0F4C     		ldr	r4, .L15+4
 143 0010 E368     		ldr	r3, [r4, #12]
 144 0012 2268     		ldr	r2, [r4]
 145 0014 0133     		adds	r3, r3, #1
 146 0016 A242     		cmp	r2, r4
 147 0018 E360     		str	r3, [r4, #12]
 148 001a 13D0     		beq	.L6
 149              	.LBB4:
 150              		.loc 1 150 0 is_stmt 0 discriminator 1
 151 001c 9568     		ldr	r5, [r2, #8]
 152 001e 013D     		subs	r5, r5, #1
 153 0020 9560     		str	r5, [r2, #8]
 154              	.LVL6:
 155 0022 7DB9     		cbnz	r5, .L6
 156              	.L10:
 157              	.LBB5:
 158              		.loc 1 150 0 discriminator 2
 159 0024 1368     		ldr	r3, [r2]
 160 0026 D168     		ldr	r1, [r2, #12]
 161              	.LVL7:
 162 0028 D560     		str	r5, [r2, #12]
 163 002a 5C60     		str	r4, [r3, #4]
 164 002c 1368     		ldr	r3, [r2]
 165 002e 2360     		str	r3, [r4]
 166              	@ 150 "../os/kernel/src/chsys.c" 1
 167 0030 FFF7FEFF 		bl      _port_unlock
 168              	@ 0 "" 2
ARM GAS  /tmp/cc8axw0R.s 			page 4


 169              		.thumb
 170 0034 1069     		ldr	r0, [r2, #16]
 171 0036 8847     		blx	r1
 172              	.LVL8:
 173              	@ 150 "../os/kernel/src/chsys.c" 1
 174 0038 FFF7FEFF 		bl      _port_lock
 175              	@ 0 "" 2
 176              		.thumb
 177              	.LBE5:
 178 003c 2268     		ldr	r2, [r4]
 179              	.LVL9:
 180 003e 9368     		ldr	r3, [r2, #8]
 181 0040 002B     		cmp	r3, #0
 182 0042 EFD0     		beq	.L10
 183              	.LVL10:
 184              	.L6:
 185 0044 38BD     		pop	{r3, r4, r5, pc}
 186              	.L16:
 187 0046 00BF     		.align	2
 188              	.L15:
 189 0048 00000000 		.word	rlist
 190 004c 00000000 		.word	vtlist
 191              	.LBE4:
 192              		.cfi_endproc
 193              	.LFE2:
 194              		.size	chSysTimerHandlerI, .-chSysTimerHandlerI
 195              		.global	_idle_thread_wa
 196              		.section	.bss.mainthread.4673,"aw",%nobits
 197              		.align	2
 198              		.set	.LANCHOR0,. + 0
 199              		.type	mainthread.4673, %object
 200              		.size	mainthread.4673, 52
 201              	mainthread.4673:
 202 0000 00000000 		.space	52
 202      00000000 
 202      00000000 
 202      00000000 
 202      00000000 
 203              		.section	.bss._idle_thread_wa,"aw",%nobits
 204              		.align	3
 205              		.set	.LANCHOR1,. + 0
 206              		.type	_idle_thread_wa, %object
 207              		.size	_idle_thread_wa, 200
 208              	_idle_thread_wa:
 209 0000 00000000 		.space	200
 209      00000000 
 209      00000000 
 209      00000000 
 209      00000000 
 210              		.text
 211              	.Letext0:
 212              		.file 2 "/usr/lib/gcc/arm-none-eabi/4.8/include/stddef.h"
 213              		.file 3 "/usr/include/newlib/machine/_default_types.h"
 214              		.file 4 "/usr/include/newlib/stdint.h"
 215              		.file 5 "../os/ports/GCC/ARMCMx/chtypes.h"
 216              		.file 6 "../os/kernel/include/chlists.h"
 217              		.file 7 "../os/kernel/include/chthreads.h"
ARM GAS  /tmp/cc8axw0R.s 			page 5


 218              		.file 8 "../os/ports/GCC/ARMCMx/chcore_v7m.h"
 219              		.file 9 "../os/kernel/include/chvt.h"
 220              		.file 10 "../os/kernel/include/chschd.h"
 221              		.file 11 "../os/kernel/include/chmtx.h"