ARM GAS  /tmp/cc8axw0R.s 			page 1


   1              		.syntax unified
   2              		.cpu cortex-m3
   3              		.fpu softvfp
   4              		.eabi_attribute 20, 1
   5              		.eabi_attribute 21, 1
   6              		.eabi_attribute 23, 3
   7              		.eabi_attribute 24, 1
   8              		.eabi_attribute 25, 1
   9              		.eabi_attribute 26, 1
  10              		.eabi_attribute 30, 2
  11              		.eabi_attribute 34, 1
  12              		.eabi_attribute 18, 4
  13              		.thumb
  14              		.file	"chsys.c"
  15              		.text
  16              	.Ltext0:
  17              		.cfi_sections	.debug_frame
  18              		.section	.text._idle_thread,"ax",%progbits
  19              		.align	2
  20              		.p2align 4,,15
  21              		.global	_idle_thread
  22              		.thumb
  23              		.thumb_func
  24              		.type	_idle_thread, %function
  25              	_idle_thread:
  26              	.LFB0:
  27              		.file 1 "../os/kernel/src/chsys.c"
  28              		.loc 1 61 0
  29              		.cfi_startproc
  30              		@ Volatile: function does not return.
  31              		@ args = 0, pretend = 0, frame = 0
  32              		@ frame_needed = 0, uses_anonymous_args = 0
  33              		@ link register save eliminated.
  34              	.LVL0:
  35              	.L2:
  36 0000 FEE7     		b	.L2
  37              		.cfi_endproc
  38              	.LFE0:
  39              		.size	_idle_thread, .-_idle_thread
  40 0002 00BFAFF3 		.section	.text.chSysInit,"ax",%progbits
  40      0080AFF3 
  40      0080AFF3 
  40      0080
  41              		.align	2
  42              		.p2align 4,,15
  43              		.global	chSysInit
  44              		.thumb
  45              		.thumb_func
  46              		.type	chSysInit, %function
  47              	chSysInit:
  48              	.LFB1:
  49              		.loc 1 84 0
  50              		.cfi_startproc
  51              		@ args = 0, pretend = 0, frame = 0
  52              		@ frame_needed = 0, uses_anonymous_args = 0
  53              		.loc 1 84 0
  54 0000 00B5     		push	{lr}
ARM GAS  /tmp/cc8axw0R.s 			page 2


  55              		.cfi_def_cfa_offset 4
  56              		.cfi_offset 14, -4
  57 0002 83B0     		sub	sp, sp, #12
  58              		.cfi_def_cfa_offset 16
  59              		.loc 1 90 0
  60 0004 FFF7FEFF 		bl	_port_init
  61              	.LVL1:
  62              		.loc 1 91 0
  63 0008 FFF7FEFF 		bl	_scheduler_init
  64              	.LVL2:
  65              		.loc 1 92 0
  66 000c FFF7FEFF 		bl	_vt_init
  67              	.LVL3:
  68              		.loc 1 104 0
  69 0010 4021     		movs	r1, #64
  70 0012 0A48     		ldr	r0, .L4
  71 0014 FFF7FEFF 		bl	_thread_init
  72              	.LVL4:
  73 0018 094B     		ldr	r3, .L4+4
  74              		.loc 1 105 0
  75 001a 0122     		movs	r2, #1
  76              		.loc 1 104 0
  77 001c 1861     		str	r0, [r3, #16]
  78              	.LBB2:
  79              		.loc 1 111 0
  80 001e 0023     		movs	r3, #0
  81              	.LBE2:
  82              		.loc 1 105 0
  83 0020 0274     		strb	r2, [r0, #16]
  84              	.LBB3:
  85              		.loc 1 111 0
  86              	@ 111 "../os/kernel/src/chsys.c" 1
  87 0022 83F31188 		msr     BASEPRI, r3                    
  88 0026 62B6     		cpsie   i
  89              	@ 0 "" 2
  90              		.thumb
  91              	.LBE3:
  92              		.loc 1 121 0
  93 0028 C821     		movs	r1, #200
  94 002a 0093     		str	r3, [sp]
  95 002c 0548     		ldr	r0, .L4+8
  96 002e 064B     		ldr	r3, .L4+12
  97 0030 FFF7FEFF 		bl	chThdCreateStatic
  98              	.LVL5:
  99              		.loc 1 124 0
 100 0034 03B0     		add	sp, sp, #12
 101              		@ sp needed
 102 0036 5DF804FB 		ldr	pc, [sp], #4
 103              	.L5:
 104 003a 00BF     		.align	2
 105              	.L4:
 106 003c 00000000 		.word	.LANCHOR0
 107 0040 00000000 		.word	rlist
 108 0044 00000000 		.word	.LANCHOR1
 109 0048 00000000 		.word	_idle_thread
 110              		.cfi_endproc
 111              	.LFE1:
ARM GAS  /tmp/cc8axw0R.s 			page 3


 112              		.size	chSysInit, .-chSysInit
 113 004c AFF30080 		.section	.text.chSysTimerHandlerI,"ax",%progbits
 114              		.align	2
 115              		.p2align 4,,15
 116              		.global	chSysTimerHandlerI
 117              		.thumb
 118              		.thumb_func
 119              		.type	chSysTimerHandlerI, %function
 120              	chSysTimerHandlerI:
 121              	.LFB2:
 122              		.loc 1 137 0
 123              		.cfi_startproc
 124              		@ args = 0, pretend = 0, frame = 0
 125              		@ frame_needed = 0, uses_anonymous_args = 0
 126 0000 38B5     		push	{r3, r4, r5, lr}
 127              		.cfi_def_cfa_offset 16
 128              		.cfi_offset 3, -16
 129              		.cfi_offset 4, -12
 130              		.cfi_offset 5, -8
 131              		.cfi_offset 14, -4
 132              		.loc 1 143 0
 133 0002 114B     		ldr	r3, .L15
 134 0004 1B69     		ldr	r3, [r3, #16]
 135 0006 9A7C     		ldrb	r2, [r3, #18]	@ zero_extendqisi2
 136 0008 0AB1     		cbz	r2, .L7
 137              		.loc 1 145 0
 138 000a 013A     		subs	r2, r2, #1
 139 000c 9A74     		strb	r2, [r3, #18]
 140              	.L7:
 141              		.loc 1 150 0
 142 000e 0F4C     		ldr	r4, .L15+4
 143 0010 E368     		ldr	r3, [r4, #12]
 144 0012 2268     		ldr	r2, [r4]
 145 0014 0133     		adds	r3, r3, #1
 146 0016 A242     		cmp	r2, r4
 147 0018 E360     		str	r3, [r4, #12]
 148 001a 13D0     		beq	.L6
 149              	.LBB4:
 150              		.loc 1 150 0 is_stmt 0 discriminator 1
 151 001c 9568     		ldr	r5, [r2, #8]
 152 001e 013D     		subs	r5, r5, #1
 153 0020 9560     		str	r5, [r2, #8]
 154              	.LVL6:
 155 0022 7DB9     		cbnz	r5, .L6
 156              	.L10:
 157              	.LBB5:
 158              		.loc 1 150 0 discriminator 2
 159 0024 1368     		ldr	r3, [r2]
 160 0026 D168     		ldr	r1, [r2, #12]
 161              	.LVL7:
 162 0028 D560     		str	r5, [r2, #12]
 163 002a 5C60     		str	r4, [r3, #4]
 164 002c 1368     		ldr	r3, [r2]
 165 002e 2360     		str	r3, [r4]
 166              	@ 150 "../os/kernel/src/chsys.c" 1
 167 0030 FFF7FEFF 		bl      _port_unlock
 168              	@ 0 "" 2
ARM GAS  /tmp/cc8axw0R.s 			page 4


 169              		.thumb
 170 0034 1069     		ldr	r0, [r2, #16]
 171 0036 8847     		blx	r1
 172              	.LVL8:
 173              	@ 150 "../os/kernel/src/chsys.c" 1
 174 0038 FFF7FEFF 		bl      _port_lock
 175              	@ 0 "" 2
 176              		.thumb
 177              	.LBE5:
 178 003c 2268     		ldr	r2, [r4]
 179              	.LVL9:
 180 003e 9368     		ldr	r3, [r2, #8]
 181 0040 002B     		cmp	r3, #0
 182 0042 EFD0     		beq	.L10
 183              	.LVL10:
 184              	.L6:
 185 0044 38BD     		pop	{r3, r4, r5, pc}
 186              	.L16:
 187 0046 00BF     		.align	2
 188              	.L15:
 189 0048 00000000 		.word	rlist
 190 004c 00000000 		.word	vtlist
 191              	.LBE4:
 192              		.cfi_endproc
 193              	.LFE2:
 194              		.size	chSysTimerHandlerI, .-chSysTimerHandlerI
 195              		.global	_idle_thread_wa
 196              		.section	.bss.mainthread.4673,"aw",%nobits
 197              		.align	2
 198              		.set	.LANCHOR0,. + 0
 199              		.type	mainthread.4673, %object
 200              		.size	mainthread.4673, 52
 201              	mainthread.4673:
 202 0000 00000000 		.space	52
 202      00000000 
 202      00000000 
 202      00000000 
 202      00000000 
 203              		.section	.bss._idle_thread_wa,"aw",%nobits
 204              		.align	3
 205              		.set	.LANCHOR1,. + 0
 206              		.type	_idle_thread_wa, %object
 207              		.size	_idle_thread_wa, 200
 208              	_idle_thread_wa:
 209 0000 00000000 		.space	200
 209      00000000 
 209      00000000 
 209      00000000 
 209      00000000 
 210              		.text
 211              	.Letext0:
 212              		.file 2 "/usr/lib/gcc/arm-none-eabi/4.8/include/stddef.h"
 213              		.file 3 "/usr/include/newlib/machine/_default_types.h"
 214              		.file 4 "/usr/include/newlib/stdint.h"
 215              		.file 5 "../os/ports/GCC/ARMCMx/chtypes.h"
 216              		.file 6 "../os/kernel/include/chlists.h"
 217              		.file 7 "../os/kernel/include/chthreads.h"
ARM GAS  /tmp/cc8axw0R.s 			page 5


 218              		.file 8 "../os/ports/GCC/ARMCMx/chcore_v7m.h"
 219              		.file 9 "../os/kernel/include/chvt.h"
 220              		.file 10 "../os/kernel/include/chschd.h"
 221              		.file 11 "../os/kernel/include/chmtx.h"
 222              		.section	.debug_info,"",%progbits
 223              	.Ldebug_info0:
 224 0000 26060000 		.4byte	0x626
 225 0004 0400     		.2byte	0x4
 226 0006 00000000 		.4byte	.Ldebug_abbrev0
 227 000a 04       		.byte	0x4
 228 000b 01       		.uleb128 0x1
 229 000c 45020000 		.4byte	.LASF80
 230 0010 01       		.byte	0x1
 231 0011 2B040000 		.4byte	.LASF81
 232 0015 14010000 		.4byte	.LASF82
 233 0019 18000000 		.4byte	.Ldebug_ranges0+0x18
 234 001d 00000000 		.4byte	0
 235 0021 00000000 		.4byte	.Ldebug_line0
 236 0025 02       		.uleb128 0x2
 237 0026 04       		.byte	0x4
 238 0027 05       		.byte	0x5
 239 0028 696E7400 		.ascii	"int\000"
 240 002c 03       		.uleb128 0x3
 241 002d 0E000000 		.4byte	.LASF2
 242 0031 02       		.byte	0x2
 243 0032 D4       		.byte	0xd4
 244 0033 37000000 		.4byte	0x37
 245 0037 04       		.uleb128 0x4
 246 0038 04       		.byte	0x4
 247 0039 07       		.byte	0x7
 248 003a FF000000 		.4byte	.LASF0
 249 003e 04       		.uleb128 0x4
 250 003f 01       		.byte	0x1
 251 0040 06       		.byte	0x6
 252 0041 99000000 		.4byte	.LASF1
 253 0045 03       		.uleb128 0x3
 254 0046 25000000 		.4byte	.LASF3
 255 004a 03       		.byte	0x3
 256 004b 1D       		.byte	0x1d
 257 004c 50000000 		.4byte	0x50
 258 0050 04       		.uleb128 0x4
 259 0051 01       		.byte	0x1
 260 0052 08       		.byte	0x8
 261 0053 18030000 		.4byte	.LASF4
 262 0057 04       		.uleb128 0x4
 263 0058 02       		.byte	0x2
 264 0059 05       		.byte	0x5
 265 005a 30030000 		.4byte	.LASF5
 266 005e 04       		.uleb128 0x4
 267 005f 02       		.byte	0x2
 268 0060 07       		.byte	0x7
 269 0061 85010000 		.4byte	.LASF6
 270 0065 03       		.uleb128 0x3
 271 0066 C2030000 		.4byte	.LASF7
 272 006a 03       		.byte	0x3
 273 006b 3F       		.byte	0x3f
 274 006c 70000000 		.4byte	0x70
ARM GAS  /tmp/cc8axw0R.s 			page 6


 275 0070 04       		.uleb128 0x4
 276 0071 04       		.byte	0x4
 277 0072 05       		.byte	0x5
 278 0073 C1000000 		.4byte	.LASF8
 279 0077 03       		.uleb128 0x3
 280 0078 E3000000 		.4byte	.LASF9
 281 007c 03       		.byte	0x3
 282 007d 41       		.byte	0x41
 283 007e 82000000 		.4byte	0x82
 284 0082 04       		.uleb128 0x4
 285 0083 04       		.byte	0x4
 286 0084 07       		.byte	0x7
 287 0085 6A010000 		.4byte	.LASF10
 288 0089 04       		.uleb128 0x4
 289 008a 08       		.byte	0x8
 290 008b 05       		.byte	0x5
 291 008c 8B000000 		.4byte	.LASF11
 292 0090 03       		.uleb128 0x3
 293 0091 2B020000 		.4byte	.LASF12
 294 0095 03       		.byte	0x3
 295 0096 5B       		.byte	0x5b
 296 0097 9B000000 		.4byte	0x9b
 297 009b 04       		.uleb128 0x4
 298 009c 08       		.byte	0x8
 299 009d 07       		.byte	0x7
 300 009e 49000000 		.4byte	.LASF13
 301 00a2 03       		.uleb128 0x3
 302 00a3 06040000 		.4byte	.LASF14
 303 00a7 04       		.byte	0x4
 304 00a8 2A       		.byte	0x2a
 305 00a9 45000000 		.4byte	0x45
 306 00ad 03       		.uleb128 0x3
 307 00ae 10030000 		.4byte	.LASF15
 308 00b2 04       		.byte	0x4
 309 00b3 41       		.byte	0x41
 310 00b4 65000000 		.4byte	0x65
 311 00b8 03       		.uleb128 0x3
 312 00b9 7B030000 		.4byte	.LASF16
 313 00bd 04       		.byte	0x4
 314 00be 42       		.byte	0x42
 315 00bf 77000000 		.4byte	0x77
 316 00c3 03       		.uleb128 0x3
 317 00c4 1C000000 		.4byte	.LASF17
 318 00c8 04       		.byte	0x4
 319 00c9 4E       		.byte	0x4e
 320 00ca 90000000 		.4byte	0x90
 321 00ce 04       		.uleb128 0x4
 322 00cf 01       		.byte	0x1
 323 00d0 02       		.byte	0x2
 324 00d1 0A030000 		.4byte	.LASF18
 325 00d5 03       		.uleb128 0x3
 326 00d6 9E010000 		.4byte	.LASF19
 327 00da 05       		.byte	0x5
 328 00db 2C       		.byte	0x2c
 329 00dc A2000000 		.4byte	0xa2
 330 00e0 03       		.uleb128 0x3
 331 00e1 CA000000 		.4byte	.LASF20
ARM GAS  /tmp/cc8axw0R.s 			page 7


 332 00e5 05       		.byte	0x5
 333 00e6 2D       		.byte	0x2d
 334 00e7 A2000000 		.4byte	0xa2
 335 00eb 03       		.uleb128 0x3
 336 00ec B7000000 		.4byte	.LASF21
 337 00f0 05       		.byte	0x5
 338 00f1 2F       		.byte	0x2f
 339 00f2 A2000000 		.4byte	0xa2
 340 00f6 03       		.uleb128 0x3
 341 00f7 3D020000 		.4byte	.LASF22
 342 00fb 05       		.byte	0x5
 343 00fc 30       		.byte	0x30
 344 00fd B8000000 		.4byte	0xb8
 345 0101 03       		.uleb128 0x3
 346 0102 98010000 		.4byte	.LASF23
 347 0106 05       		.byte	0x5
 348 0107 31       		.byte	0x31
 349 0108 AD000000 		.4byte	0xad
 350 010c 03       		.uleb128 0x3
 351 010d B2010000 		.4byte	.LASF24
 352 0111 05       		.byte	0x5
 353 0112 33       		.byte	0x33
 354 0113 B8000000 		.4byte	0xb8
 355 0117 03       		.uleb128 0x3
 356 0118 AD030000 		.4byte	.LASF25
 357 011c 05       		.byte	0x5
 358 011d 35       		.byte	0x35
 359 011e B8000000 		.4byte	0xb8
 360 0122 03       		.uleb128 0x3
 361 0123 69030000 		.4byte	.LASF26
 362 0127 06       		.byte	0x6
 363 0128 2A       		.byte	0x2a
 364 0129 2D010000 		.4byte	0x12d
 365 012d 05       		.uleb128 0x5
 366 012e 69030000 		.4byte	.LASF26
 367 0132 34       		.byte	0x34
 368 0133 07       		.byte	0x7
 369 0134 5E       		.byte	0x5e
 370 0135 E2010000 		.4byte	0x1e2
 371 0139 06       		.uleb128 0x6
 372 013a 5A030000 		.4byte	.LASF27
 373 013e 07       		.byte	0x7
 374 013f 5F       		.byte	0x5f
 375 0140 03020000 		.4byte	0x203
 376 0144 00       		.byte	0
 377 0145 06       		.uleb128 0x6
 378 0146 36020000 		.4byte	.LASF28
 379 014a 07       		.byte	0x7
 380 014b 61       		.byte	0x61
 381 014c 03020000 		.4byte	0x203
 382 0150 04       		.byte	0x4
 383 0151 06       		.uleb128 0x6
 384 0152 74000000 		.4byte	.LASF29
 385 0156 07       		.byte	0x7
 386 0157 63       		.byte	0x63
 387 0158 F6000000 		.4byte	0xf6
 388 015c 08       		.byte	0x8
ARM GAS  /tmp/cc8axw0R.s 			page 8


 389 015d 06       		.uleb128 0x6
 390 015e 4C040000 		.4byte	.LASF30
 391 0162 07       		.byte	0x7
 392 0163 64       		.byte	0x64
 393 0164 C8020000 		.4byte	0x2c8
 394 0168 0C       		.byte	0xc
 395 0169 06       		.uleb128 0x6
 396 016a 3A030000 		.4byte	.LASF31
 397 016e 07       		.byte	0x7
 398 016f 79       		.byte	0x79
 399 0170 E0000000 		.4byte	0xe0
 400 0174 10       		.byte	0x10
 401 0175 06       		.uleb128 0x6
 402 0176 61030000 		.4byte	.LASF32
 403 017a 07       		.byte	0x7
 404 017b 7D       		.byte	0x7d
 405 017c D5000000 		.4byte	0xd5
 406 0180 11       		.byte	0x11
 407 0181 06       		.uleb128 0x6
 408 0182 42030000 		.4byte	.LASF33
 409 0186 07       		.byte	0x7
 410 0187 88       		.byte	0x88
 411 0188 EB000000 		.4byte	0xeb
 412 018c 12       		.byte	0x12
 413 018d 07       		.uleb128 0x7
 414 018e 705F7500 		.ascii	"p_u\000"
 415 0192 07       		.byte	0x7
 416 0193 B4       		.byte	0xb4
 417 0194 35040000 		.4byte	0x435
 418 0198 14       		.byte	0x14
 419 0199 06       		.uleb128 0x6
 420 019a 52040000 		.4byte	.LASF34
 421 019e 07       		.byte	0x7
 422 019f B9       		.byte	0xb9
 423 01a0 29020000 		.4byte	0x229
 424 01a4 18       		.byte	0x18
 425 01a5 06       		.uleb128 0x6
 426 01a6 E4030000 		.4byte	.LASF35
 427 01aa 07       		.byte	0x7
 428 01ab BF       		.byte	0xbf
 429 01ac 09020000 		.4byte	0x209
 430 01b0 1C       		.byte	0x1c
 431 01b1 06       		.uleb128 0x6
 432 01b2 08000000 		.4byte	.LASF36
 433 01b6 07       		.byte	0x7
 434 01b7 C3       		.byte	0xc3
 435 01b8 01010000 		.4byte	0x101
 436 01bc 24       		.byte	0x24
 437 01bd 06       		.uleb128 0x6
 438 01be 70030000 		.4byte	.LASF37
 439 01c2 07       		.byte	0x7
 440 01c3 C9       		.byte	0xc9
 441 01c4 0C010000 		.4byte	0x10c
 442 01c8 28       		.byte	0x28
 443 01c9 06       		.uleb128 0x6
 444 01ca 26030000 		.4byte	.LASF38
 445 01ce 07       		.byte	0x7
ARM GAS  /tmp/cc8axw0R.s 			page 9


 446 01cf D0       		.byte	0xd0
 447 01d0 6A040000 		.4byte	0x46a
 448 01d4 2C       		.byte	0x2c
 449 01d5 06       		.uleb128 0x6
 450 01d6 B7030000 		.4byte	.LASF39
 451 01da 07       		.byte	0x7
 452 01db D4       		.byte	0xd4
 453 01dc F6000000 		.4byte	0xf6
 454 01e0 30       		.byte	0x30
 455 01e1 00       		.byte	0
 456 01e2 08       		.uleb128 0x8
 457 01e3 08       		.byte	0x8
 458 01e4 06       		.byte	0x6
 459 01e5 61       		.byte	0x61
 460 01e6 03020000 		.4byte	0x203
 461 01ea 06       		.uleb128 0x6
 462 01eb 5A030000 		.4byte	.LASF27
 463 01ef 06       		.byte	0x6
 464 01f0 62       		.byte	0x62
 465 01f1 03020000 		.4byte	0x203
 466 01f5 00       		.byte	0
 467 01f6 06       		.uleb128 0x6
 468 01f7 36020000 		.4byte	.LASF28
 469 01fb 06       		.byte	0x6
 470 01fc 64       		.byte	0x64
 471 01fd 03020000 		.4byte	0x203
 472 0201 04       		.byte	0x4
 473 0202 00       		.byte	0
 474 0203 09       		.uleb128 0x9
 475 0204 04       		.byte	0x4
 476 0205 22010000 		.4byte	0x122
 477 0209 03       		.uleb128 0x3
 478 020a 07020000 		.4byte	.LASF40
 479 020e 06       		.byte	0x6
 480 020f 66       		.byte	0x66
 481 0210 E2010000 		.4byte	0x1e2
 482 0214 08       		.uleb128 0x8
 483 0215 04       		.byte	0x4
 484 0216 06       		.byte	0x6
 485 0217 6B       		.byte	0x6b
 486 0218 29020000 		.4byte	0x229
 487 021c 06       		.uleb128 0x6
 488 021d 5A030000 		.4byte	.LASF27
 489 0221 06       		.byte	0x6
 490 0222 6D       		.byte	0x6d
 491 0223 03020000 		.4byte	0x203
 492 0227 00       		.byte	0
 493 0228 00       		.byte	0
 494 0229 03       		.uleb128 0x3
 495 022a A6010000 		.4byte	.LASF41
 496 022e 06       		.byte	0x6
 497 022f 70       		.byte	0x70
 498 0230 14020000 		.4byte	0x214
 499 0234 03       		.uleb128 0x3
 500 0235 EE000000 		.4byte	.LASF42
 501 0239 08       		.byte	0x8
 502 023a E5       		.byte	0xe5
ARM GAS  /tmp/cc8axw0R.s 			page 10


 503 023b 3F020000 		.4byte	0x23f
 504 023f 0A       		.uleb128 0xa
 505 0240 04       		.byte	0x4
 506 0241 03       		.uleb128 0x3
 507 0242 C4010000 		.4byte	.LASF43
 508 0246 08       		.byte	0x8
 509 0247 EB       		.byte	0xeb
 510 0248 C3000000 		.4byte	0xc3
 511 024c 0B       		.uleb128 0xb
 512 024d DD030000 		.4byte	.LASF44
 513 0251 24       		.byte	0x24
 514 0252 08       		.byte	0x8
 515 0253 0C01     		.2byte	0x10c
 516 0255 C8020000 		.4byte	0x2c8
 517 0259 0C       		.uleb128 0xc
 518 025a 723400   		.ascii	"r4\000"
 519 025d 08       		.byte	0x8
 520 025e 1F01     		.2byte	0x11f
 521 0260 34020000 		.4byte	0x234
 522 0264 00       		.byte	0
 523 0265 0C       		.uleb128 0xc
 524 0266 723500   		.ascii	"r5\000"
 525 0269 08       		.byte	0x8
 526 026a 2001     		.2byte	0x120
 527 026c 34020000 		.4byte	0x234
 528 0270 04       		.byte	0x4
 529 0271 0C       		.uleb128 0xc
 530 0272 723600   		.ascii	"r6\000"
 531 0275 08       		.byte	0x8
 532 0276 2101     		.2byte	0x121
 533 0278 34020000 		.4byte	0x234
 534 027c 08       		.byte	0x8
 535 027d 0C       		.uleb128 0xc
 536 027e 723700   		.ascii	"r7\000"
 537 0281 08       		.byte	0x8
 538 0282 2201     		.2byte	0x122
 539 0284 34020000 		.4byte	0x234
 540 0288 0C       		.byte	0xc
 541 0289 0C       		.uleb128 0xc
 542 028a 723800   		.ascii	"r8\000"
 543 028d 08       		.byte	0x8
 544 028e 2301     		.2byte	0x123
 545 0290 34020000 		.4byte	0x234
 546 0294 10       		.byte	0x10
 547 0295 0C       		.uleb128 0xc
 548 0296 723900   		.ascii	"r9\000"
 549 0299 08       		.byte	0x8
 550 029a 2401     		.2byte	0x124
 551 029c 34020000 		.4byte	0x234
 552 02a0 14       		.byte	0x14
 553 02a1 0C       		.uleb128 0xc
 554 02a2 72313000 		.ascii	"r10\000"
 555 02a6 08       		.byte	0x8
 556 02a7 2501     		.2byte	0x125
 557 02a9 34020000 		.4byte	0x234
 558 02ad 18       		.byte	0x18
 559 02ae 0C       		.uleb128 0xc
ARM GAS  /tmp/cc8axw0R.s 			page 11


 560 02af 72313100 		.ascii	"r11\000"
 561 02b3 08       		.byte	0x8
 562 02b4 2601     		.2byte	0x126
 563 02b6 34020000 		.4byte	0x234
 564 02ba 1C       		.byte	0x1c
 565 02bb 0C       		.uleb128 0xc
 566 02bc 6C7200   		.ascii	"lr\000"
 567 02bf 08       		.byte	0x8
 568 02c0 2701     		.2byte	0x127
 569 02c2 34020000 		.4byte	0x234
 570 02c6 20       		.byte	0x20
 571 02c7 00       		.byte	0
 572 02c8 0B       		.uleb128 0xb
 573 02c9 D5030000 		.4byte	.LASF45
 574 02cd 04       		.byte	0x4
 575 02ce 08       		.byte	0x8
 576 02cf 3101     		.2byte	0x131
 577 02d1 E3020000 		.4byte	0x2e3
 578 02d5 0C       		.uleb128 0xc
 579 02d6 72313300 		.ascii	"r13\000"
 580 02da 08       		.byte	0x8
 581 02db 3201     		.2byte	0x132
 582 02dd E3020000 		.4byte	0x2e3
 583 02e1 00       		.byte	0
 584 02e2 00       		.byte	0
 585 02e3 09       		.uleb128 0x9
 586 02e4 04       		.byte	0x4
 587 02e5 4C020000 		.4byte	0x24c
 588 02e9 04       		.uleb128 0x4
 589 02ea 04       		.byte	0x4
 590 02eb 07       		.byte	0x7
 591 02ec E9010000 		.4byte	.LASF46
 592 02f0 03       		.uleb128 0x3
 593 02f1 7C010000 		.4byte	.LASF47
 594 02f5 09       		.byte	0x9
 595 02f6 58       		.byte	0x58
 596 02f7 FB020000 		.4byte	0x2fb
 597 02fb 09       		.uleb128 0x9
 598 02fc 04       		.byte	0x4
 599 02fd 01030000 		.4byte	0x301
 600 0301 0D       		.uleb128 0xd
 601 0302 0C030000 		.4byte	0x30c
 602 0306 0E       		.uleb128 0xe
 603 0307 3F020000 		.4byte	0x23f
 604 030b 00       		.byte	0
 605 030c 03       		.uleb128 0x3
 606 030d 99030000 		.4byte	.LASF48
 607 0311 09       		.byte	0x9
 608 0312 5D       		.byte	0x5d
 609 0313 17030000 		.4byte	0x317
 610 0317 05       		.uleb128 0x5
 611 0318 99030000 		.4byte	.LASF48
 612 031c 14       		.byte	0x14
 613 031d 09       		.byte	0x9
 614 031e 64       		.byte	0x64
 615 031f 60030000 		.4byte	0x360
 616 0323 06       		.uleb128 0x6
ARM GAS  /tmp/cc8axw0R.s 			page 12


 617 0324 0C010000 		.4byte	.LASF49
 618 0328 09       		.byte	0x9
 619 0329 65       		.byte	0x65
 620 032a 60030000 		.4byte	0x360
 621 032e 00       		.byte	0
 622 032f 06       		.uleb128 0x6
 623 0330 F7000000 		.4byte	.LASF50
 624 0334 09       		.byte	0x9
 625 0335 67       		.byte	0x67
 626 0336 60030000 		.4byte	0x360
 627 033a 04       		.byte	0x4
 628 033b 06       		.uleb128 0x6
 629 033c E1010000 		.4byte	.LASF51
 630 0340 09       		.byte	0x9
 631 0341 69       		.byte	0x69
 632 0342 17010000 		.4byte	0x117
 633 0346 08       		.byte	0x8
 634 0347 06       		.uleb128 0x6
 635 0348 F2010000 		.4byte	.LASF52
 636 034c 09       		.byte	0x9
 637 034d 6A       		.byte	0x6a
 638 034e F0020000 		.4byte	0x2f0
 639 0352 0C       		.byte	0xc
 640 0353 06       		.uleb128 0x6
 641 0354 EF030000 		.4byte	.LASF53
 642 0358 09       		.byte	0x9
 643 0359 6C       		.byte	0x6c
 644 035a 3F020000 		.4byte	0x23f
 645 035e 10       		.byte	0x10
 646 035f 00       		.byte	0
 647 0360 09       		.uleb128 0x9
 648 0361 04       		.byte	0x4
 649 0362 0C030000 		.4byte	0x30c
 650 0366 08       		.uleb128 0x8
 651 0367 10       		.byte	0x10
 652 0368 09       		.byte	0x9
 653 0369 76       		.byte	0x76
 654 036a 9F030000 		.4byte	0x39f
 655 036e 06       		.uleb128 0x6
 656 036f 0C010000 		.4byte	.LASF49
 657 0373 09       		.byte	0x9
 658 0374 77       		.byte	0x77
 659 0375 60030000 		.4byte	0x360
 660 0379 00       		.byte	0
 661 037a 06       		.uleb128 0x6
 662 037b F7000000 		.4byte	.LASF50
 663 037f 09       		.byte	0x9
 664 0380 79       		.byte	0x79
 665 0381 60030000 		.4byte	0x360
 666 0385 04       		.byte	0x4
 667 0386 06       		.uleb128 0x6
 668 0387 E1010000 		.4byte	.LASF51
 669 038b 09       		.byte	0x9
 670 038c 7B       		.byte	0x7b
 671 038d 17010000 		.4byte	0x117
 672 0391 08       		.byte	0x8
 673 0392 06       		.uleb128 0x6
ARM GAS  /tmp/cc8axw0R.s 			page 13


 674 0393 20040000 		.4byte	.LASF54
 675 0397 09       		.byte	0x9
 676 0398 7C       		.byte	0x7c
 677 0399 9F030000 		.4byte	0x39f
 678 039d 0C       		.byte	0xc
 679 039e 00       		.byte	0
 680 039f 0F       		.uleb128 0xf
 681 03a0 17010000 		.4byte	0x117
 682 03a4 03       		.uleb128 0x3
 683 03a5 FA010000 		.4byte	.LASF55
 684 03a9 09       		.byte	0x9
 685 03aa 7D       		.byte	0x7d
 686 03ab 66030000 		.4byte	0x366
 687 03af 08       		.uleb128 0x8
 688 03b0 14       		.byte	0x14
 689 03b1 0A       		.byte	0xa
 690 03b2 5E       		.byte	0x5e
 691 03b3 E8030000 		.4byte	0x3e8
 692 03b7 06       		.uleb128 0x6
 693 03b8 91030000 		.4byte	.LASF56
 694 03bc 0A       		.byte	0xa
 695 03bd 5F       		.byte	0x5f
 696 03be 09020000 		.4byte	0x209
 697 03c2 00       		.byte	0
 698 03c3 06       		.uleb128 0x6
 699 03c4 4C030000 		.4byte	.LASF57
 700 03c8 0A       		.byte	0xa
 701 03c9 60       		.byte	0x60
 702 03ca F6000000 		.4byte	0xf6
 703 03ce 08       		.byte	0x8
 704 03cf 06       		.uleb128 0x6
 705 03d0 01020000 		.4byte	.LASF58
 706 03d4 0A       		.byte	0xa
 707 03d5 62       		.byte	0x62
 708 03d6 C8020000 		.4byte	0x2c8
 709 03da 0C       		.byte	0xc
 710 03db 06       		.uleb128 0x6
 711 03dc 14020000 		.4byte	.LASF59
 712 03e0 0A       		.byte	0xa
 713 03e1 69       		.byte	0x69
 714 03e2 03020000 		.4byte	0x203
 715 03e6 10       		.byte	0x10
 716 03e7 00       		.byte	0
 717 03e8 03       		.uleb128 0x3
 718 03e9 F6030000 		.4byte	.LASF60
 719 03ed 0A       		.byte	0xa
 720 03ee 6B       		.byte	0x6b
 721 03ef AF030000 		.4byte	0x3af
 722 03f3 05       		.uleb128 0x5
 723 03f4 BE010000 		.4byte	.LASF61
 724 03f8 10       		.byte	0x10
 725 03f9 0B       		.byte	0xb
 726 03fa 2C       		.byte	0x2c
 727 03fb 24040000 		.4byte	0x424
 728 03ff 06       		.uleb128 0x6
 729 0400 AF000000 		.4byte	.LASF62
 730 0404 0B       		.byte	0xb
ARM GAS  /tmp/cc8axw0R.s 			page 14


 731 0405 2D       		.byte	0x2d
 732 0406 09020000 		.4byte	0x209
 733 040a 00       		.byte	0
 734 040b 06       		.uleb128 0x6
 735 040c 44040000 		.4byte	.LASF63
 736 0410 0B       		.byte	0xb
 737 0411 2F       		.byte	0x2f
 738 0412 03020000 		.4byte	0x203
 739 0416 08       		.byte	0x8
 740 0417 06       		.uleb128 0x6
 741 0418 A6030000 		.4byte	.LASF64
 742 041c 0B       		.byte	0xb
 743 041d 31       		.byte	0x31
 744 041e 24040000 		.4byte	0x424
 745 0422 0C       		.byte	0xc
 746 0423 00       		.byte	0
 747 0424 09       		.uleb128 0x9
 748 0425 04       		.byte	0x4
 749 0426 F3030000 		.4byte	0x3f3
 750 042a 03       		.uleb128 0x3
 751 042b BE010000 		.4byte	.LASF61
 752 042f 0B       		.byte	0xb
 753 0430 33       		.byte	0x33
 754 0431 F3030000 		.4byte	0x3f3
 755 0435 10       		.uleb128 0x10
 756 0436 04       		.byte	0x4
 757 0437 07       		.byte	0x7
 758 0438 96       		.byte	0x96
 759 0439 6A040000 		.4byte	0x46a
 760 043d 11       		.uleb128 0x11
 761 043e 15000000 		.4byte	.LASF65
 762 0442 07       		.byte	0x7
 763 0443 9D       		.byte	0x9d
 764 0444 01010000 		.4byte	0x101
 765 0448 11       		.uleb128 0x11
 766 0449 60000000 		.4byte	.LASF66
 767 044d 07       		.byte	0x7
 768 044e A4       		.byte	0xa4
 769 044f 01010000 		.4byte	0x101
 770 0453 11       		.uleb128 0x11
 771 0454 19040000 		.4byte	.LASF67
 772 0458 07       		.byte	0x7
 773 0459 AB       		.byte	0xab
 774 045a 3F020000 		.4byte	0x23f
 775 045e 11       		.uleb128 0x11
 776 045f 53030000 		.4byte	.LASF68
 777 0463 07       		.byte	0x7
 778 0464 B2       		.byte	0xb2
 779 0465 0C010000 		.4byte	0x10c
 780 0469 00       		.byte	0
 781 046a 09       		.uleb128 0x9
 782 046b 04       		.byte	0x4
 783 046c 2A040000 		.4byte	0x42a
 784 0470 03       		.uleb128 0x3
 785 0471 00000000 		.4byte	.LASF69
 786 0475 07       		.byte	0x7
 787 0476 E5       		.byte	0xe5
ARM GAS  /tmp/cc8axw0R.s 			page 15


 788 0477 7B040000 		.4byte	0x47b
 789 047b 09       		.uleb128 0x9
 790 047c 04       		.byte	0x4
 791 047d 81040000 		.4byte	0x481
 792 0481 12       		.uleb128 0x12
 793 0482 01010000 		.4byte	0x101
 794 0486 90040000 		.4byte	0x490
 795 048a 0E       		.uleb128 0xe
 796 048b 3F020000 		.4byte	0x23f
 797 048f 00       		.byte	0
 798 0490 13       		.uleb128 0x13
 799 0491 1E020000 		.4byte	.LASF70
 800 0495 01       		.byte	0x1
 801 0496 3D       		.byte	0x3d
 802 0497 00000000 		.4byte	.LFB0
 803 049b 02000000 		.4byte	.LFE0-.LFB0
 804 049f 01       		.uleb128 0x1
 805 04a0 9C       		.byte	0x9c
 806 04a1 B1040000 		.4byte	0x4b1
 807 04a5 14       		.uleb128 0x14
 808 04a6 7000     		.ascii	"p\000"
 809 04a8 01       		.byte	0x1
 810 04a9 3D       		.byte	0x3d
 811 04aa 3F020000 		.4byte	0x23f
 812 04ae 01       		.uleb128 0x1
 813 04af 50       		.byte	0x50
 814 04b0 00       		.byte	0
 815 04b1 13       		.uleb128 0x13
 816 04b2 A5000000 		.4byte	.LASF71
 817 04b6 01       		.byte	0x1
 818 04b7 54       		.byte	0x54
 819 04b8 00000000 		.4byte	.LFB1
 820 04bc 4C000000 		.4byte	.LFE1-.LFB1
 821 04c0 01       		.uleb128 0x1
 822 04c1 9C       		.byte	0x9c
 823 04c2 54050000 		.4byte	0x554
 824 04c6 15       		.uleb128 0x15
 825 04c7 69000000 		.4byte	.LASF72
 826 04cb 01       		.byte	0x1
 827 04cc 55       		.byte	0x55
 828 04cd 22010000 		.4byte	0x122
 829 04d1 05       		.uleb128 0x5
 830 04d2 03       		.byte	0x3
 831 04d3 00000000 		.4byte	mainthread.4673
 832 04d7 16       		.uleb128 0x16
 833 04d8 00000000 		.4byte	.Ldebug_ranges0+0
 834 04dc EE040000 		.4byte	0x4ee
 835 04e0 17       		.uleb128 0x17
 836 04e1 746D7000 		.ascii	"tmp\000"
 837 04e5 01       		.byte	0x1
 838 04e6 6F       		.byte	0x6f
 839 04e7 B8000000 		.4byte	0xb8
 840 04eb 01       		.uleb128 0x1
 841 04ec 53       		.byte	0x53
 842 04ed 00       		.byte	0
 843 04ee 18       		.uleb128 0x18
 844 04ef 08000000 		.4byte	.LVL1
ARM GAS  /tmp/cc8axw0R.s 			page 16


 845 04f3 D2050000 		.4byte	0x5d2
 846 04f7 18       		.uleb128 0x18
 847 04f8 0C000000 		.4byte	.LVL2
 848 04fc DA050000 		.4byte	0x5da
 849 0500 18       		.uleb128 0x18
 850 0501 10000000 		.4byte	.LVL3
 851 0505 E1050000 		.4byte	0x5e1
 852 0509 19       		.uleb128 0x19
 853 050a 18000000 		.4byte	.LVL4
 854 050e E8050000 		.4byte	0x5e8
 855 0512 26050000 		.4byte	0x526
 856 0516 1A       		.uleb128 0x1a
 857 0517 01       		.uleb128 0x1
 858 0518 51       		.byte	0x51
 859 0519 02       		.uleb128 0x2
 860 051a 08       		.byte	0x8
 861 051b 40       		.byte	0x40
 862 051c 1A       		.uleb128 0x1a
 863 051d 01       		.uleb128 0x1
 864 051e 50       		.byte	0x50
 865 051f 05       		.uleb128 0x5
 866 0520 03       		.byte	0x3
 867 0521 00000000 		.4byte	.LANCHOR0
 868 0525 00       		.byte	0
 869 0526 1B       		.uleb128 0x1b
 870 0527 34000000 		.4byte	.LVL5
 871 052b 03060000 		.4byte	0x603
 872 052f 1A       		.uleb128 0x1a
 873 0530 01       		.uleb128 0x1
 874 0531 53       		.byte	0x53
 875 0532 05       		.uleb128 0x5
 876 0533 03       		.byte	0x3
 877 0534 00000000 		.4byte	_idle_thread
 878 0538 1A       		.uleb128 0x1a
 879 0539 01       		.uleb128 0x1
 880 053a 52       		.byte	0x52
 881 053b 01       		.uleb128 0x1
 882 053c 31       		.byte	0x31
 883 053d 1A       		.uleb128 0x1a
 884 053e 01       		.uleb128 0x1
 885 053f 51       		.byte	0x51
 886 0540 02       		.uleb128 0x2
 887 0541 08       		.byte	0x8
 888 0542 C8       		.byte	0xc8
 889 0543 1A       		.uleb128 0x1a
 890 0544 01       		.uleb128 0x1
 891 0545 50       		.byte	0x50
 892 0546 05       		.uleb128 0x5
 893 0547 03       		.byte	0x3
 894 0548 00000000 		.4byte	.LANCHOR1
 895 054c 1A       		.uleb128 0x1a
 896 054d 02       		.uleb128 0x2
 897 054e 7D       		.byte	0x7d
 898 054f 00       		.sleb128 0
 899 0550 01       		.uleb128 0x1
 900 0551 30       		.byte	0x30
 901 0552 00       		.byte	0
ARM GAS  /tmp/cc8axw0R.s 			page 17


 902 0553 00       		.byte	0
 903 0554 1C       		.uleb128 0x1c
 904 0555 36000000 		.4byte	.LASF73
 905 0559 01       		.byte	0x1
 906 055a 89       		.byte	0x89
 907 055b 00000000 		.4byte	.LFB2
 908 055f 50000000 		.4byte	.LFE2-.LFB2
 909 0563 01       		.uleb128 0x1
 910 0564 9C       		.byte	0x9c
 911 0565 9B050000 		.4byte	0x59b
 912 0569 1D       		.uleb128 0x1d
 913 056a 1C000000 		.4byte	.LBB4
 914 056e 34000000 		.4byte	.LBE4-.LBB4
 915 0572 1E       		.uleb128 0x1e
 916 0573 76747000 		.ascii	"vtp\000"
 917 0577 01       		.byte	0x1
 918 0578 96       		.byte	0x96
 919 0579 60030000 		.4byte	0x360
 920 057d 00000000 		.4byte	.LLST0
 921 0581 1D       		.uleb128 0x1d
 922 0582 24000000 		.4byte	.LBB5
 923 0586 18000000 		.4byte	.LBE5-.LBB5
 924 058a 1E       		.uleb128 0x1e
 925 058b 666E00   		.ascii	"fn\000"
 926 058e 01       		.byte	0x1
 927 058f 96       		.byte	0x96
 928 0590 F0020000 		.4byte	0x2f0
 929 0594 1E000000 		.4byte	.LLST1
 930 0598 00       		.byte	0
 931 0599 00       		.byte	0
 932 059a 00       		.byte	0
 933 059b 1F       		.uleb128 0x1f
 934 059c 2F000000 		.4byte	.LASF74
 935 05a0 09       		.byte	0x9
 936 05a1 F5       		.byte	0xf5
 937 05a2 A4030000 		.4byte	0x3a4
 938 05a6 1F       		.uleb128 0x1f
 939 05a7 00040000 		.4byte	.LASF75
 940 05ab 0A       		.byte	0xa
 941 05ac 6F       		.byte	0x6f
 942 05ad E8030000 		.4byte	0x3e8
 943 05b1 20       		.uleb128 0x20
 944 05b2 41020000 		.4byte	0x241
 945 05b6 C1050000 		.4byte	0x5c1
 946 05ba 21       		.uleb128 0x21
 947 05bb E9020000 		.4byte	0x2e9
 948 05bf 18       		.byte	0x18
 949 05c0 00       		.byte	0
 950 05c1 22       		.uleb128 0x22
 951 05c2 D3000000 		.4byte	.LASF76
 952 05c6 01       		.byte	0x1
 953 05c7 31       		.byte	0x31
 954 05c8 B1050000 		.4byte	0x5b1
 955 05cc 05       		.uleb128 0x5
 956 05cd 03       		.byte	0x3
 957 05ce 00000000 		.4byte	_idle_thread_wa
 958 05d2 23       		.uleb128 0x23
ARM GAS  /tmp/cc8axw0R.s 			page 18


 959 05d3 0E040000 		.4byte	.LASF77
 960 05d7 08       		.byte	0x8
 961 05d8 0202     		.2byte	0x202
 962 05da 24       		.uleb128 0x24
 963 05db 7B000000 		.4byte	.LASF78
 964 05df 0A       		.byte	0xa
 965 05e0 8E       		.byte	0x8e
 966 05e1 24       		.uleb128 0x24
 967 05e2 CC030000 		.4byte	.LASF79
 968 05e6 09       		.byte	0x9
 969 05e7 FD       		.byte	0xfd
 970 05e8 25       		.uleb128 0x25
 971 05e9 84030000 		.4byte	.LASF83
 972 05ed 07       		.byte	0x7
 973 05ee 6A01     		.2byte	0x16a
 974 05f0 03020000 		.4byte	0x203
 975 05f4 03060000 		.4byte	0x603
 976 05f8 0E       		.uleb128 0xe
 977 05f9 03020000 		.4byte	0x203
 978 05fd 0E       		.uleb128 0xe
 979 05fe F6000000 		.4byte	0xf6
 980 0602 00       		.byte	0
 981 0603 26       		.uleb128 0x26
 982 0604 CF010000 		.4byte	.LASF84
 983 0608 07       		.byte	0x7
 984 0609 7001     		.2byte	0x170
 985 060b 03020000 		.4byte	0x203
 986 060f 0E       		.uleb128 0xe
 987 0610 3F020000 		.4byte	0x23f
 988 0614 0E       		.uleb128 0xe
 989 0615 2C000000 		.4byte	0x2c
 990 0619 0E       		.uleb128 0xe
 991 061a F6000000 		.4byte	0xf6
 992 061e 0E       		.uleb128 0xe
 993 061f 70040000 		.4byte	0x470
 994 0623 0E       		.uleb128 0xe
 995 0624 3F020000 		.4byte	0x23f
 996 0628 00       		.byte	0
 997 0629 00       		.byte	0
 998              		.section	.debug_abbrev,"",%progbits
 999              	.Ldebug_abbrev0:
 1000 0000 01       		.uleb128 0x1
 1001 0001 11       		.uleb128 0x11
 1002 0002 01       		.byte	0x1
 1003 0003 25       		.uleb128 0x25
 1004 0004 0E       		.uleb128 0xe
 1005 0005 13       		.uleb128 0x13
 1006 0006 0B       		.uleb128 0xb
 1007 0007 03       		.uleb128 0x3
 1008 0008 0E       		.uleb128 0xe
 1009 0009 1B       		.uleb128 0x1b
 1010 000a 0E       		.uleb128 0xe
 1011 000b 55       		.uleb128 0x55
 1012 000c 17       		.uleb128 0x17
 1013 000d 11       		.uleb128 0x11
 1014 000e 01       		.uleb128 0x1
 1015 000f 10       		.uleb128 0x10
ARM GAS  /tmp/cc8axw0R.s 			page 19


 1016 0010 17       		.uleb128 0x17
 1017 0011 00       		.byte	0
 1018 0012 00       		.byte	0
 1019 0013 02       		.uleb128 0x2
 1020 0014 24       		.uleb128 0x24
 1021 0015 00       		.byte	0
 1022 0016 0B       		.uleb128 0xb
 1023 0017 0B       		.uleb128 0xb
 1024 0018 3E       		.uleb128 0x3e
 1025 0019 0B       		.uleb128 0xb
 1026 001a 03       		.uleb128 0x3
 1027 001b 08       		.uleb128 0x8
 1028 001c 00       		.byte	0
 1029 001d 00       		.byte	0
 1030 001e 03       		.uleb128 0x3
 1031 001f 16       		.uleb128 0x16
 1032 0020 00       		.byte	0
 1033 0021 03       		.uleb128 0x3
 1034 0022 0E       		.uleb128 0xe
 1035 0023 3A       		.uleb128 0x3a
 1036 0024 0B       		.uleb128 0xb
 1037 0025 3B       		.uleb128 0x3b
 1038 0026 0B       		.uleb128 0xb
 1039 0027 49       		.uleb128 0x49
 1040 0028 13       		.uleb128 0x13
 1041 0029 00       		.byte	0
 1042 002a 00       		.byte	0
 1043 002b 04       		.uleb128 0x4
 1044 002c 24       		.uleb128 0x24
 1045 002d 00       		.byte	0
 1046 002e 0B       		.uleb128 0xb
 1047 002f 0B       		.uleb128 0xb
 1048 0030 3E       		.uleb128 0x3e
 1049 0031 0B       		.uleb128 0xb
 1050 0032 03       		.uleb128 0x3
 1051 0033 0E       		.uleb128 0xe
 1052 0034 00       		.byte	0
 1053 0035 00       		.byte	0
 1054 0036 05       		.uleb128 0x5
 1055 0037 13       		.uleb128 0x13
 1056 0038 01       		.byte	0x1
 1057 0039 03       		.uleb128 0x3
 1058 003a 0E       		.uleb128 0xe
 1059 003b 0B       		.uleb128 0xb
 1060 003c 0B       		.uleb128 0xb
 1061 003d 3A       		.uleb128 0x3a
 1062 003e 0B       		.uleb128 0xb
 1063 003f 3B       		.uleb128 0x3b
 1064 0040 0B       		.uleb128 0xb
 1065 0041 01       		.uleb128 0x1
 1066 0042 13       		.uleb128 0x13
 1067 0043 00       		.byte	0
 1068 0044 00       		.byte	0
 1069 0045 06       		.uleb128 0x6
 1070 0046 0D       		.uleb128 0xd
 1071 0047 00       		.byte	0
 1072 0048 03       		.uleb128 0x3
ARM GAS  /tmp/cc8axw0R.s 			page 20


 1073 0049 0E       		.uleb128 0xe
 1074 004a 3A       		.uleb128 0x3a
 1075 004b 0B       		.uleb128 0xb
 1076 004c 3B       		.uleb128 0x3b
 1077 004d 0B       		.uleb128 0xb
 1078 004e 49       		.uleb128 0x49
 1079 004f 13       		.uleb128 0x13
 1080 0050 38       		.uleb128 0x38
 1081 0051 0B       		.uleb128 0xb
 1082 0052 00       		.byte	0
 1083 0053 00       		.byte	0
 1084 0054 07       		.uleb128 0x7
 1085 0055 0D       		.uleb128 0xd
 1086 0056 00       		.byte	0
 1087 0057 03       		.uleb128 0x3
 1088 0058 08       		.uleb128 0x8
 1089 0059 3A       		.uleb128 0x3a
 1090 005a 0B       		.uleb128 0xb
 1091 005b 3B       		.uleb128 0x3b
 1092 005c 0B       		.uleb128 0xb
 1093 005d 49       		.uleb128 0x49
 1094 005e 13       		.uleb128 0x13
 1095 005f 38       		.uleb128 0x38
 1096 0060 0B       		.uleb128 0xb
 1097 0061 00       		.byte	0
 1098 0062 00       		.byte	0
 1099 0063 08       		.uleb128 0x8
 1100 0064 13       		.uleb128 0x13
 1101 0065 01       		.byte	0x1
 1102 0066 0B       		.uleb128 0xb
 1103 0067 0B       		.uleb128 0xb
 1104 0068 3A       		.uleb128 0x3a
 1105 0069 0B       		.uleb128 0xb
 1106 006a 3B       		.uleb128 0x3b
 1107 006b 0B       		.uleb128 0xb
 1108 006c 01       		.uleb128 0x1
 1109 006d 13       		.uleb128 0x13
 1110 006e 00       		.byte	0
 1111 006f 00       		.byte	0
 1112 0070 09       		.uleb128 0x9
 1113 0071 0F       		.uleb128 0xf
 1114 0072 00       		.byte	0
 1115 0073 0B       		.uleb128 0xb
 1116 0074 0B       		.uleb128 0xb
 1117 0075 49       		.uleb128 0x49
 1118 0076 13       		.uleb128 0x13
 1119 0077 00       		.byte	0
 1120 0078 00       		.byte	0
 1121 0079 0A       		.uleb128 0xa
 1122 007a 0F       		.uleb128 0xf
 1123 007b 00       		.byte	0
 1124 007c 0B       		.uleb128 0xb
 1125 007d 0B       		.uleb128 0xb
 1126 007e 00       		.byte	0
 1127 007f 00       		.byte	0
 1128 0080 0B       		.uleb128 0xb
 1129 0081 13       		.uleb128 0x13
ARM GAS  /tmp/cc8axw0R.s 			page 21


 1130 0082 01       		.byte	0x1
 1131 0083 03       		.uleb128 0x3
 1132 0084 0E       		.uleb128 0xe
 1133 0085 0B       		.uleb128 0xb
 1134 0086 0B       		.uleb128 0xb
 1135 0087 3A       		.uleb128 0x3a
 1136 0088 0B       		.uleb128 0xb
 1137 0089 3B       		.uleb128 0x3b
 1138 008a 05       		.uleb128 0x5
 1139 008b 01       		.uleb128 0x1
 1140 008c 13       		.uleb128 0x13
 1141 008d 00       		.byte	0
 1142 008e 00       		.byte	0
 1143 008f 0C       		.uleb128 0xc
 1144 0090 0D       		.uleb128 0xd
 1145 0091 00       		.byte	0
 1146 0092 03       		.uleb128 0x3
 1147 0093 08       		.uleb128 0x8
 1148 0094 3A       		.uleb128 0x3a
 1149 0095 0B       		.uleb128 0xb
 1150 0096 3B       		.uleb128 0x3b
 1151 0097 05       		.uleb128 0x5
 1152 0098 49       		.uleb128 0x49
 1153 0099 13       		.uleb128 0x13
 1154 009a 38       		.uleb128 0x38
 1155 009b 0B       		.uleb128 0xb
 1156 009c 00       		.byte	0
 1157 009d 00       		.byte	0
 1158 009e 0D       		.uleb128 0xd
 1159 009f 15       		.uleb128 0x15
 1160 00a0 01       		.byte	0x1
 1161 00a1 27       		.uleb128 0x27
 1162 00a2 19       		.uleb128 0x19
 1163 00a3 01       		.uleb128 0x1
 1164 00a4 13       		.uleb128 0x13
 1165 00a5 00       		.byte	0
 1166 00a6 00       		.byte	0
 1167 00a7 0E       		.uleb128 0xe
 1168 00a8 05       		.uleb128 0x5
 1169 00a9 00       		.byte	0
 1170 00aa 49       		.uleb128 0x49
 1171 00ab 13       		.uleb128 0x13
 1172 00ac 00       		.byte	0
 1173 00ad 00       		.byte	0
 1174 00ae 0F       		.uleb128 0xf
 1175 00af 35       		.uleb128 0x35
 1176 00b0 00       		.byte	0
 1177 00b1 49       		.uleb128 0x49
 1178 00b2 13       		.uleb128 0x13
 1179 00b3 00       		.byte	0
 1180 00b4 00       		.byte	0
 1181 00b5 10       		.uleb128 0x10
 1182 00b6 17       		.uleb128 0x17
 1183 00b7 01       		.byte	0x1
 1184 00b8 0B       		.uleb128 0xb
 1185 00b9 0B       		.uleb128 0xb
 1186 00ba 3A       		.uleb128 0x3a
ARM GAS  /tmp/cc8axw0R.s 			page 22


 1187 00bb 0B       		.uleb128 0xb
 1188 00bc 3B       		.uleb128 0x3b
 1189 00bd 0B       		.uleb128 0xb
 1190 00be 01       		.uleb128 0x1
 1191 00bf 13       		.uleb128 0x13
 1192 00c0 00       		.byte	0
 1193 00c1 00       		.byte	0
 1194 00c2 11       		.uleb128 0x11
 1195 00c3 0D       		.uleb128 0xd
 1196 00c4 00       		.byte	0
 1197 00c5 03       		.uleb128 0x3
 1198 00c6 0E       		.uleb128 0xe
 1199 00c7 3A       		.uleb128 0x3a
 1200 00c8 0B       		.uleb128 0xb
 1201 00c9 3B       		.uleb128 0x3b
 1202 00ca 0B       		.uleb128 0xb
 1203 00cb 49       		.uleb128 0x49
 1204 00cc 13       		.uleb128 0x13
 1205 00cd 00       		.byte	0
 1206 00ce 00       		.byte	0
 1207 00cf 12       		.uleb128 0x12
 1208 00d0 15       		.uleb128 0x15
 1209 00d1 01       		.byte	0x1
 1210 00d2 27       		.uleb128 0x27
 1211 00d3 19       		.uleb128 0x19
 1212 00d4 49       		.uleb128 0x49
 1213 00d5 13       		.uleb128 0x13
 1214 00d6 01       		.uleb128 0x1
 1215 00d7 13       		.uleb128 0x13
 1216 00d8 00       		.byte	0
 1217 00d9 00       		.byte	0
 1218 00da 13       		.uleb128 0x13
 1219 00db 2E       		.uleb128 0x2e
 1220 00dc 01       		.byte	0x1
 1221 00dd 3F       		.uleb128 0x3f
 1222 00de 19       		.uleb128 0x19
 1223 00df 03       		.uleb128 0x3
 1224 00e0 0E       		.uleb128 0xe
 1225 00e1 3A       		.uleb128 0x3a
 1226 00e2 0B       		.uleb128 0xb
 1227 00e3 3B       		.uleb128 0x3b
 1228 00e4 0B       		.uleb128 0xb
 1229 00e5 27       		.uleb128 0x27
 1230 00e6 19       		.uleb128 0x19
 1231 00e7 11       		.uleb128 0x11
 1232 00e8 01       		.uleb128 0x1
 1233 00e9 12       		.uleb128 0x12
 1234 00ea 06       		.uleb128 0x6
 1235 00eb 40       		.uleb128 0x40
 1236 00ec 18       		.uleb128 0x18
 1237 00ed 9742     		.uleb128 0x2117
 1238 00ef 19       		.uleb128 0x19
 1239 00f0 01       		.uleb128 0x1
 1240 00f1 13       		.uleb128 0x13
 1241 00f2 00       		.byte	0
 1242 00f3 00       		.byte	0
 1243 00f4 14       		.uleb128 0x14
ARM GAS  /tmp/cc8axw0R.s 			page 23


 1244 00f5 05       		.uleb128 0x5
 1245 00f6 00       		.byte	0
 1246 00f7 03       		.uleb128 0x3
 1247 00f8 08       		.uleb128 0x8
 1248 00f9 3A       		.uleb128 0x3a
 1249 00fa 0B       		.uleb128 0xb
 1250 00fb 3B       		.uleb128 0x3b
 1251 00fc 0B       		.uleb128 0xb
 1252 00fd 49       		.uleb128 0x49
 1253 00fe 13       		.uleb128 0x13
 1254 00ff 02       		.uleb128 0x2
 1255 0100 18       		.uleb128 0x18
 1256 0101 00       		.byte	0
 1257 0102 00       		.byte	0
 1258 0103 15       		.uleb128 0x15
 1259 0104 34       		.uleb128 0x34
 1260 0105 00       		.byte	0
 1261 0106 03       		.uleb128 0x3
 1262 0107 0E       		.uleb128 0xe
 1263 0108 3A       		.uleb128 0x3a
 1264 0109 0B       		.uleb128 0xb
 1265 010a 3B       		.uleb128 0x3b
 1266 010b 0B       		.uleb128 0xb
 1267 010c 49       		.uleb128 0x49
 1268 010d 13       		.uleb128 0x13
 1269 010e 02       		.uleb128 0x2
 1270 010f 18       		.uleb128 0x18
 1271 0110 00       		.byte	0
 1272 0111 00       		.byte	0
 1273 0112 16       		.uleb128 0x16
 1274 0113 0B       		.uleb128 0xb
 1275 0114 01       		.byte	0x1
 1276 0115 55       		.uleb128 0x55
 1277 0116 17       		.uleb128 0x17
 1278 0117 01       		.uleb128 0x1
 1279 0118 13       		.uleb128 0x13
 1280 0119 00       		.byte	0
 1281 011a 00       		.byte	0
 1282 011b 17       		.uleb128 0x17
 1283 011c 34       		.uleb128 0x34
 1284 011d 00       		.byte	0
 1285 011e 03       		.uleb128 0x3
 1286 011f 08       		.uleb128 0x8
 1287 0120 3A       		.uleb128 0x3a
 1288 0121 0B       		.uleb128 0xb
 1289 0122 3B       		.uleb128 0x3b
 1290 0123 0B       		.uleb128 0xb
 1291 0124 49       		.uleb128 0x49
 1292 0125 13       		.uleb128 0x13
 1293 0126 02       		.uleb128 0x2
 1294 0127 18       		.uleb128 0x18
 1295 0128 00       		.byte	0
 1296 0129 00       		.byte	0
 1297 012a 18       		.uleb128 0x18
 1298 012b 898201   		.uleb128 0x4109
 1299 012e 00       		.byte	0
 1300 012f 11       		.uleb128 0x11
ARM GAS  /tmp/cc8axw0R.s 			page 24


 1301 0130 01       		.uleb128 0x1
 1302 0131 31       		.uleb128 0x31
 1303 0132 13       		.uleb128 0x13
 1304 0133 00       		.byte	0
 1305 0134 00       		.byte	0
 1306 0135 19       		.uleb128 0x19
 1307 0136 898201   		.uleb128 0x4109
 1308 0139 01       		.byte	0x1
 1309 013a 11       		.uleb128 0x11
 1310 013b 01       		.uleb128 0x1
 1311 013c 31       		.uleb128 0x31
 1312 013d 13       		.uleb128 0x13
 1313 013e 01       		.uleb128 0x1
 1314 013f 13       		.uleb128 0x13
 1315 0140 00       		.byte	0
 1316 0141 00       		.byte	0
 1317 0142 1A       		.uleb128 0x1a
 1318 0143 8A8201   		.uleb128 0x410a
 1319 0146 00       		.byte	0
 1320 0147 02       		.uleb128 0x2
 1321 0148 18       		.uleb128 0x18
 1322 0149 9142     		.uleb128 0x2111
 1323 014b 18       		.uleb128 0x18
 1324 014c 00       		.byte	0
 1325 014d 00       		.byte	0
 1326 014e 1B       		.uleb128 0x1b
 1327 014f 898201   		.uleb128 0x4109
 1328 0152 01       		.byte	0x1
 1329 0153 11       		.uleb128 0x11
 1330 0154 01       		.uleb128 0x1
 1331 0155 31       		.uleb128 0x31
 1332 0156 13       		.uleb128 0x13
 1333 0157 00       		.byte	0
 1334 0158 00       		.byte	0
 1335 0159 1C       		.uleb128 0x1c
 1336 015a 2E       		.uleb128 0x2e
 1337 015b 01       		.byte	0x1
 1338 015c 3F       		.uleb128 0x3f
 1339 015d 19       		.uleb128 0x19
 1340 015e 03       		.uleb128 0x3
 1341 015f 0E       		.uleb128 0xe
 1342 0160 3A       		.uleb128 0x3a
 1343 0161 0B       		.uleb128 0xb
 1344 0162 3B       		.uleb128 0x3b
 1345 0163 0B       		.uleb128 0xb
 1346 0164 27       		.uleb128 0x27
 1347 0165 19       		.uleb128 0x19
 1348 0166 11       		.uleb128 0x11
 1349 0167 01       		.uleb128 0x1
 1350 0168 12       		.uleb128 0x12
 1351 0169 06       		.uleb128 0x6
 1352 016a 40       		.uleb128 0x40
 1353 016b 18       		.uleb128 0x18
 1354 016c 9642     		.uleb128 0x2116
 1355 016e 19       		.uleb128 0x19
 1356 016f 01       		.uleb128 0x1
 1357 0170 13       		.uleb128 0x13
ARM GAS  /tmp/cc8axw0R.s 			page 25


 1358 0171 00       		.byte	0
 1359 0172 00       		.byte	0
 1360 0173 1D       		.uleb128 0x1d
 1361 0174 0B       		.uleb128 0xb
 1362 0175 01       		.byte	0x1
 1363 0176 11       		.uleb128 0x11
 1364 0177 01       		.uleb128 0x1
 1365 0178 12       		.uleb128 0x12
 1366 0179 06       		.uleb128 0x6
 1367 017a 00       		.byte	0
 1368 017b 00       		.byte	0
 1369 017c 1E       		.uleb128 0x1e
 1370 017d 34       		.uleb128 0x34
 1371 017e 00       		.byte	0
 1372 017f 03       		.uleb128 0x3
 1373 0180 08       		.uleb128 0x8
 1374 0181 3A       		.uleb128 0x3a
 1375 0182 0B       		.uleb128 0xb
 1376 0183 3B       		.uleb128 0x3b
 1377 0184 0B       		.uleb128 0xb
 1378 0185 49       		.uleb128 0x49
 1379 0186 13       		.uleb128 0x13
 1380 0187 02       		.uleb128 0x2
 1381 0188 17       		.uleb128 0x17
 1382 0189 00       		.byte	0
 1383 018a 00       		.byte	0
 1384 018b 1F       		.uleb128 0x1f
 1385 018c 34       		.uleb128 0x34
 1386 018d 00       		.byte	0
 1387 018e 03       		.uleb128 0x3
 1388 018f 0E       		.uleb128 0xe
 1389 0190 3A       		.uleb128 0x3a
 1390 0191 0B       		.uleb128 0xb
 1391 0192 3B       		.uleb128 0x3b
 1392 0193 0B       		.uleb128 0xb
 1393 0194 49       		.uleb128 0x49
 1394 0195 13       		.uleb128 0x13
 1395 0196 3F       		.uleb128 0x3f
 1396 0197 19       		.uleb128 0x19
 1397 0198 3C       		.uleb128 0x3c
 1398 0199 19       		.uleb128 0x19
 1399 019a 00       		.byte	0
 1400 019b 00       		.byte	0
 1401 019c 20       		.uleb128 0x20
 1402 019d 01       		.uleb128 0x1
 1403 019e 01       		.byte	0x1
 1404 019f 49       		.uleb128 0x49
 1405 01a0 13       		.uleb128 0x13
 1406 01a1 01       		.uleb128 0x1
 1407 01a2 13       		.uleb128 0x13
 1408 01a3 00       		.byte	0
 1409 01a4 00       		.byte	0
 1410 01a5 21       		.uleb128 0x21
 1411 01a6 21       		.uleb128 0x21
 1412 01a7 00       		.byte	0
 1413 01a8 49       		.uleb128 0x49
 1414 01a9 13       		.uleb128 0x13
ARM GAS  /tmp/cc8axw0R.s 			page 26


 1415 01aa 2F       		.uleb128 0x2f
 1416 01ab 0B       		.uleb128 0xb
 1417 01ac 00       		.byte	0
 1418 01ad 00       		.byte	0
 1419 01ae 22       		.uleb128 0x22
 1420 01af 34       		.uleb128 0x34
 1421 01b0 00       		.byte	0
 1422 01b1 03       		.uleb128 0x3
 1423 01b2 0E       		.uleb128 0xe
 1424 01b3 3A       		.uleb128 0x3a
 1425 01b4 0B       		.uleb128 0xb
 1426 01b5 3B       		.uleb128 0x3b
 1427 01b6 0B       		.uleb128 0xb
 1428 01b7 49       		.uleb128 0x49
 1429 01b8 13       		.uleb128 0x13
 1430 01b9 3F       		.uleb128 0x3f
 1431 01ba 19       		.uleb128 0x19
 1432 01bb 02       		.uleb128 0x2
 1433 01bc 18       		.uleb128 0x18
 1434 01bd 00       		.byte	0
 1435 01be 00       		.byte	0
 1436 01bf 23       		.uleb128 0x23
 1437 01c0 2E       		.uleb128 0x2e
 1438 01c1 00       		.byte	0
 1439 01c2 3F       		.uleb128 0x3f
 1440 01c3 19       		.uleb128 0x19
 1441 01c4 03       		.uleb128 0x3
 1442 01c5 0E       		.uleb128 0xe
 1443 01c6 3A       		.uleb128 0x3a
 1444 01c7 0B       		.uleb128 0xb
 1445 01c8 3B       		.uleb128 0x3b
 1446 01c9 05       		.uleb128 0x5
 1447 01ca 27       		.uleb128 0x27
 1448 01cb 19       		.uleb128 0x19
 1449 01cc 3C       		.uleb128 0x3c
 1450 01cd 19       		.uleb128 0x19
 1451 01ce 00       		.byte	0
 1452 01cf 00       		.byte	0
 1453 01d0 24       		.uleb128 0x24
 1454 01d1 2E       		.uleb128 0x2e
 1455 01d2 00       		.byte	0
 1456 01d3 3F       		.uleb128 0x3f
 1457 01d4 19       		.uleb128 0x19
 1458 01d5 03       		.uleb128 0x3
 1459 01d6 0E       		.uleb128 0xe
 1460 01d7 3A       		.uleb128 0x3a
 1461 01d8 0B       		.uleb128 0xb
 1462 01d9 3B       		.uleb128 0x3b
 1463 01da 0B       		.uleb128 0xb
 1464 01db 27       		.uleb128 0x27
 1465 01dc 19       		.uleb128 0x19
 1466 01dd 3C       		.uleb128 0x3c
 1467 01de 19       		.uleb128 0x19
 1468 01df 00       		.byte	0
 1469 01e0 00       		.byte	0
 1470 01e1 25       		.uleb128 0x25
 1471 01e2 2E       		.uleb128 0x2e
ARM GAS  /tmp/cc8axw0R.s 			page 27


 1472 01e3 01       		.byte	0x1
 1473 01e4 3F       		.uleb128 0x3f
 1474 01e5 19       		.uleb128 0x19
 1475 01e6 03       		.uleb128 0x3
 1476 01e7 0E       		.uleb128 0xe
 1477 01e8 3A       		.uleb128 0x3a
 1478 01e9 0B       		.uleb128 0xb
 1479 01ea 3B       		.uleb128 0x3b
 1480 01eb 05       		.uleb128 0x5
 1481 01ec 27       		.uleb128 0x27
 1482 01ed 19       		.uleb128 0x19
 1483 01ee 49       		.uleb128 0x49
 1484 01ef 13       		.uleb128 0x13
 1485 01f0 3C       		.uleb128 0x3c
 1486 01f1 19       		.uleb128 0x19
 1487 01f2 01       		.uleb128 0x1
 1488 01f3 13       		.uleb128 0x13
 1489 01f4 00       		.byte	0
 1490 01f5 00       		.byte	0
 1491 01f6 26       		.uleb128 0x26
 1492 01f7 2E       		.uleb128 0x2e
 1493 01f8 01       		.byte	0x1
 1494 01f9 3F       		.uleb128 0x3f
 1495 01fa 19       		.uleb128 0x19
 1496 01fb 03       		.uleb128 0x3
 1497 01fc 0E       		.uleb128 0xe
 1498 01fd 3A       		.uleb128 0x3a
 1499 01fe 0B       		.uleb128 0xb
 1500 01ff 3B       		.uleb128 0x3b
 1501 0200 05       		.uleb128 0x5
 1502 0201 27       		.uleb128 0x27
 1503 0202 19       		.uleb128 0x19
 1504 0203 49       		.uleb128 0x49
 1505 0204 13       		.uleb128 0x13
 1506 0205 3C       		.uleb128 0x3c
 1507 0206 19       		.uleb128 0x19
 1508 0207 00       		.byte	0
 1509 0208 00       		.byte	0
 1510 0209 00       		.byte	0
 1511              		.section	.debug_loc,"",%progbits
 1512              	.Ldebug_loc0:
 1513              	.LLST0:
 1514 0000 22000000 		.4byte	.LVL6
 1515 0004 37000000 		.4byte	.LVL8-1
 1516 0008 0100     		.2byte	0x1
 1517 000a 52       		.byte	0x52
 1518 000b 3E000000 		.4byte	.LVL9
 1519 000f 44000000 		.4byte	.LVL10
 1520 0013 0100     		.2byte	0x1
 1521 0015 52       		.byte	0x52
 1522 0016 00000000 		.4byte	0
 1523 001a 00000000 		.4byte	0
 1524              	.LLST1:
 1525 001e 28000000 		.4byte	.LVL7
 1526 0022 37000000 		.4byte	.LVL8-1
 1527 0026 0100     		.2byte	0x1
 1528 0028 51       		.byte	0x51
ARM GAS  /tmp/cc8axw0R.s 			page 28


 1529 0029 00000000 		.4byte	0
 1530 002d 00000000 		.4byte	0
 1531              		.section	.debug_aranges,"",%progbits
 1532 0000 2C000000 		.4byte	0x2c
 1533 0004 0200     		.2byte	0x2
 1534 0006 00000000 		.4byte	.Ldebug_info0
 1535 000a 04       		.byte	0x4
 1536 000b 00       		.byte	0
 1537 000c 0000     		.2byte	0
 1538 000e 0000     		.2byte	0
 1539 0010 00000000 		.4byte	.LFB0
 1540 0014 02000000 		.4byte	.LFE0-.LFB0
 1541 0018 00000000 		.4byte	.LFB1
 1542 001c 4C000000 		.4byte	.LFE1-.LFB1
 1543 0020 00000000 		.4byte	.LFB2
 1544 0024 50000000 		.4byte	.LFE2-.LFB2
 1545 0028 00000000 		.4byte	0
 1546 002c 00000000 		.4byte	0
 1547              		.section	.debug_ranges,"",%progbits
 1548              	.Ldebug_ranges0:
 1549 0000 1E000000 		.4byte	.LBB2
 1550 0004 20000000 		.4byte	.LBE2
 1551 0008 22000000 		.4byte	.LBB3
 1552 000c 28000000 		.4byte	.LBE3
 1553 0010 00000000 		.4byte	0
 1554 0014 00000000 		.4byte	0
 1555 0018 00000000 		.4byte	.LFB0
 1556 001c 02000000 		.4byte	.LFE0
 1557 0020 00000000 		.4byte	.LFB1
 1558 0024 4C000000 		.4byte	.LFE1
 1559 0028 00000000 		.4byte	.LFB2
 1560 002c 50000000 		.4byte	.LFE2
 1561 0030 00000000 		.4byte	0
 1562 0034 00000000 		.4byte	0
 1563              		.section	.debug_line,"",%progbits
 1564              	.Ldebug_line0:
 1565 0000 8D010000 		.section	.debug_str,"MS",%progbits,1
 1565      02003801 
 1565      00000201 
 1565      FB0E0D00 
 1565      01010101 
 1566              	.LASF69:
 1567 0000 7466756E 		.ascii	"tfunc_t\000"
 1567      635F7400 
 1568              	.LASF36:
 1569 0008 705F6D73 		.ascii	"p_msg\000"
 1569      6700
 1570              	.LASF2:
 1571 000e 73697A65 		.ascii	"size_t\000"
 1571      5F7400
 1572              	.LASF65:
 1573 0015 7264796D 		.ascii	"rdymsg\000"
 1573      736700
 1574              	.LASF17:
 1575 001c 75696E74 		.ascii	"uint64_t\000"
 1575      36345F74 
 1575      00
ARM GAS  /tmp/cc8axw0R.s 			page 29


 1576              	.LASF3:
 1577 0025 5F5F7569 		.ascii	"__uint8_t\000"
 1577      6E74385F 
 1577      7400
 1578              	.LASF74:
 1579 002f 76746C69 		.ascii	"vtlist\000"
 1579      737400
 1580              	.LASF73:
 1581 0036 63685379 		.ascii	"chSysTimerHandlerI\000"
 1581      7354696D 
 1581      65724861 
 1581      6E646C65 
 1581      724900
 1582              	.LASF13:
 1583 0049 6C6F6E67 		.ascii	"long long unsigned int\000"
 1583      206C6F6E 
 1583      6720756E 
 1583      7369676E 
 1583      65642069 
 1584              	.LASF66:
 1585 0060 65786974 		.ascii	"exitcode\000"
 1585      636F6465 
 1585      00
 1586              	.LASF72:
 1587 0069 6D61696E 		.ascii	"mainthread\000"
 1587      74687265 
 1587      616400
 1588              	.LASF29:
 1589 0074 705F7072 		.ascii	"p_prio\000"
 1589      696F00
 1590              	.LASF78:
 1591 007b 5F736368 		.ascii	"_scheduler_init\000"
 1591      6564756C 
 1591      65725F69 
 1591      6E697400 
 1592              	.LASF11:
 1593 008b 6C6F6E67 		.ascii	"long long int\000"
 1593      206C6F6E 
 1593      6720696E 
 1593      7400
 1594              	.LASF1:
 1595 0099 7369676E 		.ascii	"signed char\000"
 1595      65642063 
 1595      68617200 
 1596              	.LASF71:
 1597 00a5 63685379 		.ascii	"chSysInit\000"
 1597      73496E69 
 1597      7400
 1598              	.LASF62:
 1599 00af 6D5F7175 		.ascii	"m_queue\000"
 1599      65756500 
 1600              	.LASF21:
 1601 00b7 74736C69 		.ascii	"tslices_t\000"
 1601      6365735F 
 1601      7400
 1602              	.LASF8:
 1603 00c1 6C6F6E67 		.ascii	"long int\000"
ARM GAS  /tmp/cc8axw0R.s 			page 30


 1603      20696E74 
 1603      00
 1604              	.LASF20:
 1605 00ca 74737461 		.ascii	"tstate_t\000"
 1605      74655F74 
 1605      00
 1606              	.LASF76:
 1607 00d3 5F69646C 		.ascii	"_idle_thread_wa\000"
 1607      655F7468 
 1607      72656164 
 1607      5F776100 
 1608              	.LASF9:
 1609 00e3 5F5F7569 		.ascii	"__uint32_t\000"
 1609      6E743332 
 1609      5F7400
 1610              	.LASF42:
 1611 00ee 72656761 		.ascii	"regarm_t\000"
 1611      726D5F74 
 1611      00
 1612              	.LASF50:
 1613 00f7 76745F70 		.ascii	"vt_prev\000"
 1613      72657600 
 1614              	.LASF0:
 1615 00ff 756E7369 		.ascii	"unsigned int\000"
 1615      676E6564 
 1615      20696E74 
 1615      00
 1616              	.LASF49:
 1617 010c 76745F6E 		.ascii	"vt_next\000"
 1617      65787400 
 1618              	.LASF82:
 1619 0114 2F686F6D 		.ascii	"/home/dltech-deb/gdrive/Projects/RFM_to_Modbus_TCP/"
 1619      652F646C 
 1619      74656368 
 1619      2D646562 
 1619      2F676472 
 1620 0147 43686962 		.ascii	"ChibiOS/F103_ChibiOS_ENC60J28/main\000"
 1620      694F532F 
 1620      46313033 
 1620      5F436869 
 1620      62694F53 
 1621              	.LASF10:
 1622 016a 6C6F6E67 		.ascii	"long unsigned int\000"
 1622      20756E73 
 1622      69676E65 
 1622      6420696E 
 1622      7400
 1623              	.LASF47:
 1624 017c 76746675 		.ascii	"vtfunc_t\000"
 1624      6E635F74 
 1624      00
 1625              	.LASF6:
 1626 0185 73686F72 		.ascii	"short unsigned int\000"
 1626      7420756E 
 1626      7369676E 
 1626      65642069 
 1626      6E7400
ARM GAS  /tmp/cc8axw0R.s 			page 31


 1627              	.LASF23:
 1628 0198 6D73675F 		.ascii	"msg_t\000"
 1628      7400
 1629              	.LASF19:
 1630 019e 746D6F64 		.ascii	"tmode_t\000"
 1630      655F7400 
 1631              	.LASF41:
 1632 01a6 54687265 		.ascii	"ThreadsList\000"
 1632      6164734C 
 1632      69737400 
 1633              	.LASF24:
 1634 01b2 6576656E 		.ascii	"eventmask_t\000"
 1634      746D6173 
 1634      6B5F7400 
 1635              	.LASF61:
 1636 01be 4D757465 		.ascii	"Mutex\000"
 1636      7800
 1637              	.LASF43:
 1638 01c4 73746B61 		.ascii	"stkalign_t\000"
 1638      6C69676E 
 1638      5F7400
 1639              	.LASF84:
 1640 01cf 63685468 		.ascii	"chThdCreateStatic\000"
 1640      64437265 
 1640      61746553 
 1640      74617469 
 1640      6300
 1641              	.LASF51:
 1642 01e1 76745F74 		.ascii	"vt_time\000"
 1642      696D6500 
 1643              	.LASF46:
 1644 01e9 73697A65 		.ascii	"sizetype\000"
 1644      74797065 
 1644      00
 1645              	.LASF52:
 1646 01f2 76745F66 		.ascii	"vt_func\000"
 1646      756E6300 
 1647              	.LASF55:
 1648 01fa 56544C69 		.ascii	"VTList\000"
 1648      737400
 1649              	.LASF58:
 1650 0201 725F6374 		.ascii	"r_ctx\000"
 1650      7800
 1651              	.LASF40:
 1652 0207 54687265 		.ascii	"ThreadsQueue\000"
 1652      61647351 
 1652      75657565 
 1652      00
 1653              	.LASF59:
 1654 0214 725F6375 		.ascii	"r_current\000"
 1654      7272656E 
 1654      7400
 1655              	.LASF70:
 1656 021e 5F69646C 		.ascii	"_idle_thread\000"
 1656      655F7468 
 1656      72656164 
 1656      00
ARM GAS  /tmp/cc8axw0R.s 			page 32


 1657              	.LASF12:
 1658 022b 5F5F7569 		.ascii	"__uint64_t\000"
 1658      6E743634 
 1658      5F7400
 1659              	.LASF28:
 1660 0236 705F7072 		.ascii	"p_prev\000"
 1660      657600
 1661              	.LASF22:
 1662 023d 74707269 		.ascii	"tprio_t\000"
 1662      6F5F7400 
 1663              	.LASF80:
 1664 0245 474E5520 		.ascii	"GNU C 4.8.4 20141219 (release) -mcpu=cortex-m3 -mno"
 1664      4320342E 
 1664      382E3420 
 1664      32303134 
 1664      31323139 
 1665 0278 2D746875 		.ascii	"-thumb-interwork -mthumb -ggdb -O2 -fomit-frame-poi"
 1665      6D622D69 
 1665      6E746572 
 1665      776F726B 
 1665      202D6D74 
 1666 02ab 6E746572 		.ascii	"nter -falign-functions=16 -ffunction-sections -fdat"
 1666      202D6661 
 1666      6C69676E 
 1666      2D66756E 
 1666      6374696F 
 1667 02de 612D7365 		.ascii	"a-sections -fno-common -fno-strict-aliasing\000"
 1667      6374696F 
 1667      6E73202D 
 1667      666E6F2D 
 1667      636F6D6D 
 1668              	.LASF18:
 1669 030a 5F426F6F 		.ascii	"_Bool\000"
 1669      6C00
 1670              	.LASF15:
 1671 0310 696E7433 		.ascii	"int32_t\000"
 1671      325F7400 
 1672              	.LASF4:
 1673 0318 756E7369 		.ascii	"unsigned char\000"
 1673      676E6564 
 1673      20636861 
 1673      7200
 1674              	.LASF38:
 1675 0326 705F6D74 		.ascii	"p_mtxlist\000"
 1675      786C6973 
 1675      7400
 1676              	.LASF5:
 1677 0330 73686F72 		.ascii	"short int\000"
 1677      7420696E 
 1677      7400
 1678              	.LASF31:
 1679 033a 705F7374 		.ascii	"p_state\000"
 1679      61746500 
 1680              	.LASF33:
 1681 0342 705F7072 		.ascii	"p_preempt\000"
 1681      65656D70 
 1681      7400
ARM GAS  /tmp/cc8axw0R.s 			page 33


 1682              	.LASF57:
 1683 034c 725F7072 		.ascii	"r_prio\000"
 1683      696F00
 1684              	.LASF68:
 1685 0353 65776D61 		.ascii	"ewmask\000"
 1685      736B00
 1686              	.LASF27:
 1687 035a 705F6E65 		.ascii	"p_next\000"
 1687      787400
 1688              	.LASF32:
 1689 0361 705F666C 		.ascii	"p_flags\000"
 1689      61677300 
 1690              	.LASF26:
 1691 0369 54687265 		.ascii	"Thread\000"
 1691      616400
 1692              	.LASF37:
 1693 0370 705F6570 		.ascii	"p_epending\000"
 1693      656E6469 
 1693      6E6700
 1694              	.LASF16:
 1695 037b 75696E74 		.ascii	"uint32_t\000"
 1695      33325F74 
 1695      00
 1696              	.LASF83:
 1697 0384 5F746872 		.ascii	"_thread_init\000"
 1697      6561645F 
 1697      696E6974 
 1697      00
 1698              	.LASF56:
 1699 0391 725F7175 		.ascii	"r_queue\000"
 1699      65756500 
 1700              	.LASF48:
 1701 0399 56697274 		.ascii	"VirtualTimer\000"
 1701      75616C54 
 1701      696D6572 
 1701      00
 1702              	.LASF64:
 1703 03a6 6D5F6E65 		.ascii	"m_next\000"
 1703      787400
 1704              	.LASF25:
 1705 03ad 73797374 		.ascii	"systime_t\000"
 1705      696D655F 
 1705      7400
 1706              	.LASF39:
 1707 03b7 705F7265 		.ascii	"p_realprio\000"
 1707      616C7072 
 1707      696F00
 1708              	.LASF7:
 1709 03c2 5F5F696E 		.ascii	"__int32_t\000"
 1709      7433325F 
 1709      7400
 1710              	.LASF79:
 1711 03cc 5F76745F 		.ascii	"_vt_init\000"
 1711      696E6974 
 1711      00
 1712              	.LASF45:
 1713 03d5 636F6E74 		.ascii	"context\000"
ARM GAS  /tmp/cc8axw0R.s 			page 34


 1713      65787400 
 1714              	.LASF44:
 1715 03dd 696E7463 		.ascii	"intctx\000"
 1715      747800
 1716              	.LASF35:
 1717 03e4 705F6D73 		.ascii	"p_msgqueue\000"
 1717      67717565 
 1717      756500
 1718              	.LASF53:
 1719 03ef 76745F70 		.ascii	"vt_par\000"
 1719      617200
 1720              	.LASF60:
 1721 03f6 52656164 		.ascii	"ReadyList\000"
 1721      794C6973 
 1721      7400
 1722              	.LASF75:
 1723 0400 726C6973 		.ascii	"rlist\000"
 1723      7400
 1724              	.LASF14:
 1725 0406 75696E74 		.ascii	"uint8_t\000"
 1725      385F7400 
 1726              	.LASF77:
 1727 040e 5F706F72 		.ascii	"_port_init\000"
 1727      745F696E 
 1727      697400
 1728              	.LASF67:
 1729 0419 77746F62 		.ascii	"wtobjp\000"
 1729      6A7000
 1730              	.LASF54:
 1731 0420 76745F73 		.ascii	"vt_systime\000"
 1731      79737469 
 1731      6D6500
 1732              	.LASF81:
 1733 042b 2E2E2F6F 		.ascii	"../os/kernel/src/chsys.c\000"
 1733      732F6B65 
 1733      726E656C 
 1733      2F737263 
 1733      2F636873 
 1734              	.LASF63:
 1735 0444 6D5F6F77 		.ascii	"m_owner\000"
 1735      6E657200 
 1736              	.LASF30:
 1737 044c 705F6374 		.ascii	"p_ctx\000"
 1737      7800
 1738              	.LASF34:
 1739 0452 705F7761 		.ascii	"p_waiting\000"
 1739      6974696E 
 1739      6700
 1740              		.ident	"GCC: (4.8.4-1+11-1) 4.8.4 20141219 (release)"
ARM GAS  /tmp/cc8axw0R.s 			page 35


DEFINED SYMBOLS
                            *ABS*:0000000000000000 chsys.c
     /tmp/cc8axw0R.s:19     .text._idle_thread:0000000000000000 $t
     /tmp/cc8axw0R.s:25     .text._idle_thread:0000000000000000 _idle_thread
     /tmp/cc8axw0R.s:41     .text.chSysInit:0000000000000000 $t
     /tmp/cc8axw0R.s:47     .text.chSysInit:0000000000000000 chSysInit
     /tmp/cc8axw0R.s:106    .text.chSysInit:000000000000003c $d
     /tmp/cc8axw0R.s:114    .text.chSysTimerHandlerI:0000000000000000 $t
     /tmp/cc8axw0R.s:120    .text.chSysTimerHandlerI:0000000000000000 chSysTimerHandlerI
     /tmp/cc8axw0R.s:189    .text.chSysTimerHandlerI:0000000000000048 $d
     /tmp/cc8axw0R.s:208    .bss._idle_thread_wa:0000000000000000 _idle_thread_wa
     /tmp/cc8axw0R.s:197    .bss.mainthread.4673:0000000000000000 $d
     /tmp/cc8axw0R.s:201    .bss.mainthread.4673:0000000000000000 mainthread.4673
     /tmp/cc8axw0R.s:204    .bss._idle_thread_wa:0000000000000000 $d
                     .debug_frame:0000000000000010 $d
     /tmp/cc8axw0R.s:113    .text.chSysInit:000000000000004c $t

UNDEFINED SYMBOLS
_port_init
_scheduler_init
_vt_init
_thread_init
chThdCreateStatic
rlist
_port_unlock
_port_lock
vtlist
