ARM GAS  /tmp/ccM1PnCe.s 			page 1


   1              		.syntax unified
   2              		.cpu cortex-m3
   3              		.fpu softvfp
   4              		.eabi_attribute 20, 1
   5              		.eabi_attribute 21, 1
   6              		.eabi_attribute 23, 3
   7              		.eabi_attribute 24, 1
   8              		.eabi_attribute 25, 1
   9              		.eabi_attribute 26, 1
  10              		.eabi_attribute 30, 2
  11              		.eabi_attribute 34, 1
  12              		.eabi_attribute 18, 4
  13              		.thumb
  14              		.file	"chthreads.c"
  15              		.text
  16              	.Ltext0:
  17              		.cfi_sections	.debug_frame
  18              		.section	.text._thread_init,"ax",%progbits
  19              		.align	2
  20              		.p2align 4,,15
  21              		.global	_thread_init
  22              		.thumb
  23              		.thumb_func
  24              		.type	_thread_init, %function
  25              	_thread_init:
  26              	.LFB0:
  27              		.file 1 "../os/kernel/src/chthreads.c"
  28              		.loc 1 76 0
  29              		.cfi_startproc
  30              		@ args = 0, pretend = 0, frame = 0
  31              		@ frame_needed = 0, uses_anonymous_args = 0
  32              		@ link register save eliminated.
  33              	.LVL0:
  34 0000 F0B4     		push	{r4, r5, r6, r7}
  35              		.cfi_def_cfa_offset 16
  36              		.cfi_offset 4, -16
  37              		.cfi_offset 5, -12
  38              		.cfi_offset 6, -8
  39              		.cfi_offset 7, -4
  40              		.loc 1 105 0
  41 0002 00F11C04 		add	r4, r0, #28
  42              		.loc 1 80 0
  43 0006 0022     		movs	r2, #0
  44              		.loc 1 79 0
  45 0008 0227     		movs	r7, #2
  46              		.loc 1 82 0
  47 000a 1426     		movs	r6, #20
  48              		.loc 1 102 0
  49 000c 00F11805 		add	r5, r0, #24
  50              		.loc 1 79 0
  51 0010 0774     		strb	r7, [r0, #16]
  52              		.loc 1 82 0
  53 0012 8674     		strb	r6, [r0, #18]
  54              		.loc 1 102 0
  55 0014 8561     		str	r5, [r0, #24]
  56              		.loc 1 105 0
  57 0016 0462     		str	r4, [r0, #32]
ARM GAS  /tmp/ccM1PnCe.s 			page 2


  58 0018 C461     		str	r4, [r0, #28]
  59              		.loc 1 78 0
  60 001a 8160     		str	r1, [r0, #8]
  61              		.loc 1 85 0
  62 001c 0163     		str	r1, [r0, #48]
  63              		.loc 1 80 0
  64 001e 4274     		strb	r2, [r0, #17]
  65              		.loc 1 86 0
  66 0020 C262     		str	r2, [r0, #44]
  67              		.loc 1 89 0
  68 0022 8262     		str	r2, [r0, #40]
  69              		.loc 1 114 0
  70 0024 F0BC     		pop	{r4, r5, r6, r7}
  71 0026 7047     		bx	lr
  72              		.cfi_endproc
  73              	.LFE0:
  74              		.size	_thread_init, .-_thread_init
  75 0028 AFF30080 		.section	.text.chThdCreateI,"ax",%progbits
  75      AFF30080 
  76              		.align	2
  77              		.p2align 4,,15
  78              		.global	chThdCreateI
  79              		.thumb
  80              		.thumb_func
  81              		.type	chThdCreateI, %function
  82              	chThdCreateI:
  83              	.LFB1:
  84              		.loc 1 158 0
  85              		.cfi_startproc
  86              		@ args = 4, pretend = 0, frame = 0
  87              		@ frame_needed = 0, uses_anonymous_args = 0
  88              		@ link register save eliminated.
  89              	.LVL1:
  90              		.loc 1 167 0
  91 0000 2439     		subs	r1, r1, #36
  92              	.LVL2:
  93              		.loc 1 158 0
  94 0002 2DE9F001 		push	{r4, r5, r6, r7, r8}
  95              		.cfi_def_cfa_offset 20
  96              		.cfi_offset 4, -20
  97              		.cfi_offset 5, -16
  98              		.cfi_offset 6, -12
  99              		.cfi_offset 7, -8
 100              		.cfi_offset 8, -4
 101              		.loc 1 167 0
 102 0006 4518     		adds	r5, r0, r1
 103 0008 C560     		str	r5, [r0, #12]
 104 000a 4350     		str	r3, [r0, r1]
 105 000c C368     		ldr	r3, [r0, #12]
 106              	.LVL3:
 107              		.loc 1 158 0
 108 000e 0599     		ldr	r1, [sp, #20]
 109              	.LVL4:
 110              		.loc 1 167 0
 111 0010 0D4E     		ldr	r6, .L3
 112 0012 5960     		str	r1, [r3, #4]
 113              	.LVL5:
ARM GAS  /tmp/ccM1PnCe.s 			page 3


 114 0014 C568     		ldr	r5, [r0, #12]
 115              	.LBB8:
 116              	.LBB9:
 117              		.loc 1 80 0
 118 0016 0023     		movs	r3, #0
 119              	.LBE9:
 120              	.LBE8:
 121              		.loc 1 167 0
 122 0018 2E62     		str	r6, [r5, #32]
 123              	.LVL6:
 124              	.LBB11:
 125              	.LBB10:
 126              		.loc 1 79 0
 127 001a 4FF00208 		mov	r8, #2
 128              		.loc 1 102 0
 129 001e 00F11807 		add	r7, r0, #24
 130              		.loc 1 105 0
 131 0022 00F11C01 		add	r1, r0, #28
 132              		.loc 1 82 0
 133 0026 4FF0140C 		mov	ip, #20
 134              		.loc 1 79 0
 135 002a 80F81080 		strb	r8, [r0, #16]
 136              		.loc 1 102 0
 137 002e 8761     		str	r7, [r0, #24]
 138              		.loc 1 78 0
 139 0030 8260     		str	r2, [r0, #8]
 140              		.loc 1 85 0
 141 0032 0263     		str	r2, [r0, #48]
 142              		.loc 1 82 0
 143 0034 80F812C0 		strb	ip, [r0, #18]
 144              		.loc 1 105 0
 145 0038 0162     		str	r1, [r0, #32]
 146 003a C161     		str	r1, [r0, #28]
 147              		.loc 1 80 0
 148 003c 4374     		strb	r3, [r0, #17]
 149              		.loc 1 86 0
 150 003e C362     		str	r3, [r0, #44]
 151              		.loc 1 89 0
 152 0040 8362     		str	r3, [r0, #40]
 153              	.LBE10:
 154              	.LBE11:
 155              		.loc 1 169 0
 156 0042 BDE8F001 		pop	{r4, r5, r6, r7, r8}
 157              	.LVL7:
 158 0046 7047     		bx	lr
 159              	.L4:
 160              		.align	2
 161              	.L3:
 162 0048 00000000 		.word	_port_thread_start
 163              		.cfi_endproc
 164              	.LFE1:
 165              		.size	chThdCreateI, .-chThdCreateI
 166 004c AFF30080 		.section	.text.chThdCreateStatic,"ax",%progbits
 167              		.align	2
 168              		.p2align 4,,15
 169              		.global	chThdCreateStatic
 170              		.thumb
ARM GAS  /tmp/ccM1PnCe.s 			page 4


 171              		.thumb_func
 172              		.type	chThdCreateStatic, %function
 173              	chThdCreateStatic:
 174              	.LFB2:
 175              		.loc 1 188 0
 176              		.cfi_startproc
 177              		@ args = 4, pretend = 0, frame = 0
 178              		@ frame_needed = 0, uses_anonymous_args = 0
 179              	.LVL8:
 180 0000 F8B5     		push	{r3, r4, r5, r6, r7, lr}
 181              		.cfi_def_cfa_offset 24
 182              		.cfi_offset 3, -24
 183              		.cfi_offset 4, -20
 184              		.cfi_offset 5, -16
 185              		.cfi_offset 6, -12
 186              		.cfi_offset 7, -8
 187              		.cfi_offset 14, -4
 188              		.loc 1 188 0
 189 0002 069D     		ldr	r5, [sp, #24]
 190 0004 1E46     		mov	r6, r3
 191 0006 0446     		mov	r4, r0
 192              		.loc 1 199 0
 193              	@ 199 "../os/kernel/src/chthreads.c" 1
 194 0008 FFF7FEFF 		bl      _port_lock
 195              	@ 0 "" 2
 196              	.LVL9:
 197              		.thumb
 198              	.LBB12:
 199              	.LBB13:
 200              		.loc 1 167 0
 201 000c 2439     		subs	r1, r1, #36
 202              	.LVL10:
 203 000e 4318     		adds	r3, r0, r1
 204 0010 C360     		str	r3, [r0, #12]
 205 0012 4650     		str	r6, [r0, r1]
 206 0014 C368     		ldr	r3, [r0, #12]
 207 0016 1049     		ldr	r1, .L6
 208              	.LVL11:
 209 0018 5D60     		str	r5, [r3, #4]
 210 001a D0F80CC0 		ldr	ip, [r0, #12]
 211              	.LBB14:
 212              	.LBB15:
 213              		.loc 1 80 0
 214 001e 0023     		movs	r3, #0
 215              		.loc 1 105 0
 216 0020 00F11C05 		add	r5, r0, #28
 217              	.LVL12:
 218              		.loc 1 79 0
 219 0024 4FF0020E 		mov	lr, #2
 220              		.loc 1 102 0
 221 0028 00F11806 		add	r6, r0, #24
 222              	.LVL13:
 223              		.loc 1 82 0
 224 002c 1427     		movs	r7, #20
 225              	.LBE15:
 226              	.LBE14:
 227              		.loc 1 167 0
ARM GAS  /tmp/ccM1PnCe.s 			page 5


 228 002e CCF82010 		str	r1, [ip, #32]
 229              	.LVL14:
 230              	.LBE13:
 231              	.LBE12:
 232              		.loc 1 200 0
 233 0032 1946     		mov	r1, r3
 234              	.LBB19:
 235              	.LBB18:
 236              	.LBB17:
 237              	.LBB16:
 238              		.loc 1 78 0
 239 0034 8260     		str	r2, [r0, #8]
 240              		.loc 1 85 0
 241 0036 0263     		str	r2, [r0, #48]
 242              		.loc 1 79 0
 243 0038 80F810E0 		strb	lr, [r0, #16]
 244              		.loc 1 82 0
 245 003c 8774     		strb	r7, [r0, #18]
 246              		.loc 1 102 0
 247 003e 8661     		str	r6, [r0, #24]
 248              		.loc 1 80 0
 249 0040 4374     		strb	r3, [r0, #17]
 250              		.loc 1 86 0
 251 0042 C362     		str	r3, [r0, #44]
 252              		.loc 1 89 0
 253 0044 8362     		str	r3, [r0, #40]
 254              		.loc 1 105 0
 255 0046 0562     		str	r5, [r0, #32]
 256 0048 C561     		str	r5, [r0, #28]
 257              	.LBE16:
 258              	.LBE17:
 259              	.LBE18:
 260              	.LBE19:
 261              		.loc 1 200 0
 262 004a FFF7FEFF 		bl	chSchWakeupS
 263              	.LVL15:
 264              		.loc 1 201 0
 265              	@ 201 "../os/kernel/src/chthreads.c" 1
 266 004e FFF7FEFF 		bl      _port_unlock
 267              	@ 0 "" 2
 268              		.loc 1 203 0
 269              		.thumb
 270 0052 2046     		mov	r0, r4
 271 0054 F8BD     		pop	{r3, r4, r5, r6, r7, pc}
 272              	.LVL16:
 273              	.L7:
 274 0056 00BF     		.align	2
 275              	.L6:
 276 0058 00000000 		.word	_port_thread_start
 277              		.cfi_endproc
 278              	.LFE2:
 279              		.size	chThdCreateStatic, .-chThdCreateStatic
 280 005c AFF30080 		.section	.text.chThdSetPriority,"ax",%progbits
 281              		.align	2
 282              		.p2align 4,,15
 283              		.global	chThdSetPriority
 284              		.thumb
ARM GAS  /tmp/ccM1PnCe.s 			page 6


 285              		.thumb_func
 286              		.type	chThdSetPriority, %function
 287              	chThdSetPriority:
 288              	.LFB3:
 289              		.loc 1 217 0
 290              		.cfi_startproc
 291              		@ args = 0, pretend = 0, frame = 0
 292              		@ frame_needed = 0, uses_anonymous_args = 0
 293              	.LVL17:
 294 0000 10B5     		push	{r4, lr}
 295              		.cfi_def_cfa_offset 8
 296              		.cfi_offset 4, -8
 297              		.cfi_offset 14, -4
 298              		.loc 1 217 0
 299 0002 0246     		mov	r2, r0
 300              		.loc 1 222 0
 301              	@ 222 "../os/kernel/src/chthreads.c" 1
 302 0004 FFF7FEFF 		bl      _port_lock
 303              	@ 0 "" 2
 304              		.loc 1 224 0
 305              		.thumb
 306 0008 0848     		ldr	r0, .L12
 307              	.LVL18:
 308 000a 0369     		ldr	r3, [r0, #16]
 309 000c 1C6B     		ldr	r4, [r3, #48]
 310              	.LVL19:
 311              		.loc 1 225 0
 312 000e 9968     		ldr	r1, [r3, #8]
 313 0010 8C42     		cmp	r4, r1
 314 0012 01D0     		beq	.L9
 315              		.loc 1 225 0 is_stmt 0 discriminator 1
 316 0014 9142     		cmp	r1, r2
 317 0016 01D2     		bcs	.L10
 318              	.L9:
 319              		.loc 1 226 0 is_stmt 1
 320 0018 9A60     		str	r2, [r3, #8]
 321 001a 0369     		ldr	r3, [r0, #16]
 322              	.L10:
 323              		.loc 1 227 0
 324 001c 1A63     		str	r2, [r3, #48]
 325              		.loc 1 232 0
 326 001e FFF7FEFF 		bl	chSchRescheduleS
 327              	.LVL20:
 328              		.loc 1 233 0
 329              	@ 233 "../os/kernel/src/chthreads.c" 1
 330 0022 FFF7FEFF 		bl      _port_unlock
 331              	@ 0 "" 2
 332              		.loc 1 235 0
 333              		.thumb
 334 0026 2046     		mov	r0, r4
 335 0028 10BD     		pop	{r4, pc}
 336              	.LVL21:
 337              	.L13:
 338 002a 00BF     		.align	2
 339              	.L12:
 340 002c 00000000 		.word	rlist
 341              		.cfi_endproc
ARM GAS  /tmp/ccM1PnCe.s 			page 7


 342              	.LFE3:
 343              		.size	chThdSetPriority, .-chThdSetPriority
 344              		.section	.text.chThdResume,"ax",%progbits
 345              		.align	2
 346              		.p2align 4,,15
 347              		.global	chThdResume
 348              		.thumb
 349              		.thumb_func
 350              		.type	chThdResume, %function
 351              	chThdResume:
 352              	.LFB4:
 353              		.loc 1 250 0
 354              		.cfi_startproc
 355              		@ args = 0, pretend = 0, frame = 0
 356              		@ frame_needed = 0, uses_anonymous_args = 0
 357              	.LVL22:
 358 0000 10B5     		push	{r4, lr}
 359              		.cfi_def_cfa_offset 8
 360              		.cfi_offset 4, -8
 361              		.cfi_offset 14, -4
 362              		.loc 1 250 0
 363 0002 0446     		mov	r4, r0
 364              		.loc 1 252 0
 365              	@ 252 "../os/kernel/src/chthreads.c" 1
 366 0004 FFF7FEFF 		bl      _port_lock
 367              	@ 0 "" 2
 368              		.loc 1 256 0
 369              		.thumb
 370 0008 0021     		movs	r1, #0
 371 000a FFF7FEFF 		bl	chSchWakeupS
 372              	.LVL23:
 373              		.loc 1 257 0
 374              	@ 257 "../os/kernel/src/chthreads.c" 1
 375 000e FFF7FEFF 		bl      _port_unlock
 376              	@ 0 "" 2
 377              		.loc 1 259 0
 378              		.thumb
 379 0012 2046     		mov	r0, r4
 380 0014 10BD     		pop	{r4, pc}
 381              		.cfi_endproc
 382              	.LFE4:
 383              		.size	chThdResume, .-chThdResume
 384 0016 00BFAFF3 		.section	.text.chThdTerminate,"ax",%progbits
 384      0080AFF3 
 384      0080
 385              		.align	2
 386              		.p2align 4,,15
 387              		.global	chThdTerminate
 388              		.thumb
 389              		.thumb_func
 390              		.type	chThdTerminate, %function
 391              	chThdTerminate:
 392              	.LFB5:
 393              		.loc 1 273 0
 394              		.cfi_startproc
 395              		@ args = 0, pretend = 0, frame = 0
 396              		@ frame_needed = 0, uses_anonymous_args = 0
ARM GAS  /tmp/ccM1PnCe.s 			page 8


 397              	.LVL24:
 398 0000 00B5     		push	{lr}
 399              		.cfi_def_cfa_offset 4
 400              		.cfi_offset 14, -4
 401              		.loc 1 275 0
 402              	@ 275 "../os/kernel/src/chthreads.c" 1
 403 0002 FFF7FEFF 		bl      _port_lock
 404              	@ 0 "" 2
 405              		.loc 1 276 0
 406              		.thumb
 407 0006 437C     		ldrb	r3, [r0, #17]	@ zero_extendqisi2
 408 0008 43F00403 		orr	r3, r3, #4
 409 000c 4374     		strb	r3, [r0, #17]
 410              		.loc 1 277 0
 411              	@ 277 "../os/kernel/src/chthreads.c" 1
 412 000e FFF7FEFF 		bl      _port_unlock
 413              	@ 0 "" 2
 414              		.thumb
 415 0012 5DF804FB 		ldr	pc, [sp], #4
 416              		.cfi_endproc
 417              	.LFE5:
 418              		.size	chThdTerminate, .-chThdTerminate
 419 0016 00BFAFF3 		.section	.text.chThdSleep,"ax",%progbits
 419      0080AFF3 
 419      0080
 420              		.align	2
 421              		.p2align 4,,15
 422              		.global	chThdSleep
 423              		.thumb
 424              		.thumb_func
 425              		.type	chThdSleep, %function
 426              	chThdSleep:
 427              	.LFB6:
 428              		.loc 1 292 0
 429              		.cfi_startproc
 430              		@ args = 0, pretend = 0, frame = 0
 431              		@ frame_needed = 0, uses_anonymous_args = 0
 432              	.LVL25:
 433 0000 08B5     		push	{r3, lr}
 434              		.cfi_def_cfa_offset 8
 435              		.cfi_offset 3, -8
 436              		.cfi_offset 14, -4
 437              		.loc 1 292 0
 438 0002 0146     		mov	r1, r0
 439              		.loc 1 296 0
 440              	@ 296 "../os/kernel/src/chthreads.c" 1
 441 0004 FFF7FEFF 		bl      _port_lock
 442              	@ 0 "" 2
 443              		.loc 1 297 0
 444              		.thumb
 445 0008 0620     		movs	r0, #6
 446              	.LVL26:
 447 000a FFF7FEFF 		bl	chSchGoSleepTimeoutS
 448              	.LVL27:
 449              		.loc 1 298 0
 450              	@ 298 "../os/kernel/src/chthreads.c" 1
 451 000e FFF7FEFF 		bl      _port_unlock
ARM GAS  /tmp/ccM1PnCe.s 			page 9


 452              	@ 0 "" 2
 453              		.thumb
 454 0012 08BD     		pop	{r3, pc}
 455              		.cfi_endproc
 456              	.LFE6:
 457              		.size	chThdSleep, .-chThdSleep
 458              		.section	.text.chThdSleepUntil,"ax",%progbits
 459              		.align	2
 460              		.p2align 4,,15
 461              		.global	chThdSleepUntil
 462              		.thumb
 463              		.thumb_func
 464              		.type	chThdSleepUntil, %function
 465              	chThdSleepUntil:
 466              	.LFB7:
 467              		.loc 1 309 0
 468              		.cfi_startproc
 469              		@ args = 0, pretend = 0, frame = 0
 470              		@ frame_needed = 0, uses_anonymous_args = 0
 471              	.LVL28:
 472 0000 08B5     		push	{r3, lr}
 473              		.cfi_def_cfa_offset 8
 474              		.cfi_offset 3, -8
 475              		.cfi_offset 14, -4
 476              		.loc 1 311 0
 477              	@ 311 "../os/kernel/src/chthreads.c" 1
 478 0002 FFF7FEFF 		bl      _port_lock
 479              	@ 0 "" 2
 480              		.loc 1 312 0
 481              		.thumb
 482 0006 054B     		ldr	r3, .L22
 483 0008 D968     		ldr	r1, [r3, #12]
 484              	.LVL29:
 485 000a 411A     		subs	r1, r0, r1
 486              	.LVL30:
 487 000c 02D0     		beq	.L18
 488              		.loc 1 313 0
 489 000e 0620     		movs	r0, #6
 490 0010 FFF7FEFF 		bl	chSchGoSleepTimeoutS
 491              	.LVL31:
 492              	.L18:
 493              		.loc 1 314 0
 494              	@ 314 "../os/kernel/src/chthreads.c" 1
 495 0014 FFF7FEFF 		bl      _port_unlock
 496              	@ 0 "" 2
 497              		.thumb
 498 0018 08BD     		pop	{r3, pc}
 499              	.L23:
 500 001a 00BF     		.align	2
 501              	.L22:
 502 001c 00000000 		.word	vtlist
 503              		.cfi_endproc
 504              	.LFE7:
 505              		.size	chThdSleepUntil, .-chThdSleepUntil
 506              		.section	.text.chThdYield,"ax",%progbits
 507              		.align	2
 508              		.p2align 4,,15
ARM GAS  /tmp/ccM1PnCe.s 			page 10


 509              		.global	chThdYield
 510              		.thumb
 511              		.thumb_func
 512              		.type	chThdYield, %function
 513              	chThdYield:
 514              	.LFB8:
 515              		.loc 1 324 0
 516              		.cfi_startproc
 517              		@ args = 0, pretend = 0, frame = 0
 518              		@ frame_needed = 0, uses_anonymous_args = 0
 519 0000 08B5     		push	{r3, lr}
 520              		.cfi_def_cfa_offset 8
 521              		.cfi_offset 3, -8
 522              		.cfi_offset 14, -4
 523              		.loc 1 326 0
 524              	@ 326 "../os/kernel/src/chthreads.c" 1
 525 0002 FFF7FEFF 		bl      _port_lock
 526              	@ 0 "" 2
 527              		.loc 1 327 0
 528              		.thumb
 529 0006 064B     		ldr	r3, .L26
 530 0008 1A68     		ldr	r2, [r3]
 531 000a 1B69     		ldr	r3, [r3, #16]
 532 000c 9268     		ldr	r2, [r2, #8]
 533 000e 9B68     		ldr	r3, [r3, #8]
 534 0010 9A42     		cmp	r2, r3
 535 0012 01D3     		bcc	.L25
 536              		.loc 1 327 0 is_stmt 0 discriminator 1
 537 0014 FFF7FEFF 		bl	chSchDoRescheduleBehind
 538              	.LVL32:
 539              	.L25:
 540              		.loc 1 328 0 is_stmt 1
 541              	@ 328 "../os/kernel/src/chthreads.c" 1
 542 0018 FFF7FEFF 		bl      _port_unlock
 543              	@ 0 "" 2
 544              		.thumb
 545 001c 08BD     		pop	{r3, pc}
 546              	.L27:
 547 001e 00BF     		.align	2
 548              	.L26:
 549 0020 00000000 		.word	rlist
 550              		.cfi_endproc
 551              	.LFE8:
 552              		.size	chThdYield, .-chThdYield
 553 0024 AFF30080 		.section	.text.chThdExitS,"ax",%progbits
 553      AFF30080 
 553      AFF30080 
 554              		.align	2
 555              		.p2align 4,,15
 556              		.global	chThdExitS
 557              		.thumb
 558              		.thumb_func
 559              		.type	chThdExitS, %function
 560              	chThdExitS:
 561              	.LFB10:
 562              		.loc 1 366 0
 563              		.cfi_startproc
ARM GAS  /tmp/ccM1PnCe.s 			page 11


 564              		@ args = 0, pretend = 0, frame = 0
 565              		@ frame_needed = 0, uses_anonymous_args = 0
 566              	.LVL33:
 567 0000 38B5     		push	{r3, r4, r5, lr}
 568              		.cfi_def_cfa_offset 16
 569              		.cfi_offset 3, -16
 570              		.cfi_offset 4, -12
 571              		.cfi_offset 5, -8
 572              		.cfi_offset 14, -4
 573              		.loc 1 367 0
 574 0002 0A4B     		ldr	r3, .L32
 575 0004 1D69     		ldr	r5, [r3, #16]
 576              	.LVL34:
 577              		.loc 1 374 0
 578 0006 AB69     		ldr	r3, [r5, #24]
 579 0008 05F11804 		add	r4, r5, #24
 580 000c A342     		cmp	r3, r4
 581              		.loc 1 369 0
 582 000e 6861     		str	r0, [r5, #20]
 583              		.loc 1 374 0
 584 0010 07D0     		beq	.L30
 585              	.LVL35:
 586              	.L31:
 587              		.loc 1 375 0
 588 0012 2046     		mov	r0, r4
 589 0014 FFF7FEFF 		bl	list_remove
 590              	.LVL36:
 591 0018 FFF7FEFF 		bl	chSchReadyI
 592              	.LVL37:
 593              		.loc 1 374 0
 594 001c AB69     		ldr	r3, [r5, #24]
 595 001e A342     		cmp	r3, r4
 596 0020 F7D1     		bne	.L31
 597              	.L30:
 598              		.loc 1 383 0
 599 0022 0E20     		movs	r0, #14
 600              		.loc 1 386 0
 601 0024 BDE83840 		pop	{r3, r4, r5, lr}
 602              	.LVL38:
 603              		.loc 1 383 0
 604 0028 FFF7FEBF 		b	chSchGoSleepS
 605              	.LVL39:
 606              	.L33:
 607              		.align	2
 608              	.L32:
 609 002c 00000000 		.word	rlist
 610              		.cfi_endproc
 611              	.LFE10:
 612              		.size	chThdExitS, .-chThdExitS
 613              		.section	.text.chThdExit,"ax",%progbits
 614              		.align	2
 615              		.p2align 4,,15
 616              		.global	chThdExit
 617              		.thumb
 618              		.thumb_func
 619              		.type	chThdExit, %function
 620              	chThdExit:
ARM GAS  /tmp/ccM1PnCe.s 			page 12


 621              	.LFB9:
 622              		.loc 1 345 0
 623              		.cfi_startproc
 624              		@ args = 0, pretend = 0, frame = 0
 625              		@ frame_needed = 0, uses_anonymous_args = 0
 626              	.LVL40:
 627 0000 00B5     		push	{lr}
 628              		.cfi_def_cfa_offset 4
 629              		.cfi_offset 14, -4
 630              		.loc 1 347 0
 631              	@ 347 "../os/kernel/src/chthreads.c" 1
 632 0002 FFF7FEFF 		bl      _port_lock
 633              	@ 0 "" 2
 634              		.loc 1 350 0
 635              		.thumb
 636 0006 5DF804EB 		ldr	lr, [sp], #4
 637              		.loc 1 348 0
 638 000a FFF7FEBF 		b	chThdExitS
 639              	.LVL41:
 640              		.cfi_endproc
 641              	.LFE9:
 642              		.size	chThdExit, .-chThdExit
 643 000e 00BF     		.section	.text.chThdWait,"ax",%progbits
 644              		.align	2
 645              		.p2align 4,,15
 646              		.global	chThdWait
 647              		.thumb
 648              		.thumb_func
 649              		.type	chThdWait, %function
 650              	chThdWait:
 651              	.LFB11:
 652              		.loc 1 420 0
 653              		.cfi_startproc
 654              		@ args = 0, pretend = 0, frame = 0
 655              		@ frame_needed = 0, uses_anonymous_args = 0
 656              	.LVL42:
 657 0000 10B5     		push	{r4, lr}
 658              		.cfi_def_cfa_offset 8
 659              		.cfi_offset 4, -8
 660              		.cfi_offset 14, -4
 661              		.loc 1 420 0
 662 0002 0446     		mov	r4, r0
 663              		.loc 1 425 0
 664              	@ 425 "../os/kernel/src/chthreads.c" 1
 665 0004 FFF7FEFF 		bl      _port_lock
 666              	@ 0 "" 2
 667              		.loc 1 430 0
 668              		.thumb
 669 0008 037C     		ldrb	r3, [r0, #16]	@ zero_extendqisi2
 670 000a 0E2B     		cmp	r3, #14
 671 000c 08D0     		beq	.L36
 672              		.loc 1 431 0
 673 000e 064B     		ldr	r3, .L40
 674 0010 00F11801 		add	r1, r0, #24
 675 0014 1869     		ldr	r0, [r3, #16]
 676              	.LVL43:
 677 0016 FFF7FEFF 		bl	list_insert
ARM GAS  /tmp/ccM1PnCe.s 			page 13


 678              	.LVL44:
 679              		.loc 1 432 0
 680 001a 0720     		movs	r0, #7
 681 001c FFF7FEFF 		bl	chSchGoSleepS
 682              	.LVL45:
 683              	.L36:
 684              		.loc 1 434 0
 685 0020 6069     		ldr	r0, [r4, #20]
 686              	.LVL46:
 687              		.loc 1 435 0
 688              	@ 435 "../os/kernel/src/chthreads.c" 1
 689 0022 FFF7FEFF 		bl      _port_unlock
 690              	@ 0 "" 2
 691              		.loc 1 440 0
 692              		.thumb
 693 0026 10BD     		pop	{r4, pc}
 694              	.LVL47:
 695              	.L41:
 696              		.align	2
 697              	.L40:
 698 0028 00000000 		.word	rlist
 699              		.cfi_endproc
 700              	.LFE11:
 701              		.size	chThdWait, .-chThdWait
 702 002c AFF30080 		.text
 703              	.Letext0:
 704              		.file 2 "/usr/lib/gcc/arm-none-eabi/4.8/include/stddef.h"
 705              		.file 3 "/usr/include/newlib/machine/_default_types.h"
 706              		.file 4 "/usr/include/newlib/stdint.h"
 707              		.file 5 "../os/ports/GCC/ARMCMx/chtypes.h"
 708              		.file 6 "../os/kernel/include/chlists.h"
 709              		.file 7 "../os/kernel/include/chthreads.h"
 710              		.file 8 "../os/ports/GCC/ARMCMx/chcore_v7m.h"
 711              		.file 9 "../os/kernel/include/chvt.h"
 712              		.file 10 "../os/kernel/include/chschd.h"
 713              		.file 11 "../os/kernel/include/chmtx.h"