ARM GAS  /tmp/ccM1PnCe.s 			page 1


   1              		.syntax unified
   2              		.cpu cortex-m3
   3              		.fpu softvfp
   4              		.eabi_attribute 20, 1
   5              		.eabi_attribute 21, 1
   6              		.eabi_attribute 23, 3
   7              		.eabi_attribute 24, 1
   8              		.eabi_attribute 25, 1
   9              		.eabi_attribute 26, 1
  10              		.eabi_attribute 30, 2
  11              		.eabi_attribute 34, 1
  12              		.eabi_attribute 18, 4
  13              		.thumb
  14              		.file	"chthreads.c"
  15              		.text
  16              	.Ltext0:
  17              		.cfi_sections	.debug_frame
  18              		.section	.text._thread_init,"ax",%progbits
  19              		.align	2
  20              		.p2align 4,,15
  21              		.global	_thread_init
  22              		.thumb
  23              		.thumb_func
  24              		.type	_thread_init, %function
  25              	_thread_init:
  26              	.LFB0:
  27              		.file 1 "../os/kernel/src/chthreads.c"
  28              		.loc 1 76 0
  29              		.cfi_startproc
  30              		@ args = 0, pretend = 0, frame = 0
  31              		@ frame_needed = 0, uses_anonymous_args = 0
  32              		@ link register save eliminated.
  33              	.LVL0:
  34 0000 F0B4     		push	{r4, r5, r6, r7}
  35              		.cfi_def_cfa_offset 16
  36              		.cfi_offset 4, -16
  37              		.cfi_offset 5, -12
  38              		.cfi_offset 6, -8
  39              		.cfi_offset 7, -4
  40              		.loc 1 105 0
  41 0002 00F11C04 		add	r4, r0, #28
  42              		.loc 1 80 0
  43 0006 0022     		movs	r2, #0
  44              		.loc 1 79 0
  45 0008 0227     		movs	r7, #2
  46              		.loc 1 82 0
  47 000a 1426     		movs	r6, #20
  48              		.loc 1 102 0
  49 000c 00F11805 		add	r5, r0, #24
  50              		.loc 1 79 0
  51 0010 0774     		strb	r7, [r0, #16]
  52              		.loc 1 82 0
  53 0012 8674     		strb	r6, [r0, #18]
  54              		.loc 1 102 0
  55 0014 8561     		str	r5, [r0, #24]
  56              		.loc 1 105 0
  57 0016 0462     		str	r4, [r0, #32]
ARM GAS  /tmp/ccM1PnCe.s 			page 2


  58 0018 C461     		str	r4, [r0, #28]
  59              		.loc 1 78 0
  60 001a 8160     		str	r1, [r0, #8]
  61              		.loc 1 85 0
  62 001c 0163     		str	r1, [r0, #48]
  63              		.loc 1 80 0
  64 001e 4274     		strb	r2, [r0, #17]
  65              		.loc 1 86 0
  66 0020 C262     		str	r2, [r0, #44]
  67              		.loc 1 89 0
  68 0022 8262     		str	r2, [r0, #40]
  69              		.loc 1 114 0
  70 0024 F0BC     		pop	{r4, r5, r6, r7}
  71 0026 7047     		bx	lr
  72              		.cfi_endproc
  73              	.LFE0:
  74              		.size	_thread_init, .-_thread_init
  75 0028 AFF30080 		.section	.text.chThdCreateI,"ax",%progbits
  75      AFF30080 
  76              		.align	2
  77              		.p2align 4,,15
  78              		.global	chThdCreateI
  79              		.thumb
  80              		.thumb_func
  81              		.type	chThdCreateI, %function
  82              	chThdCreateI:
  83              	.LFB1:
  84              		.loc 1 158 0
  85              		.cfi_startproc
  86              		@ args = 4, pretend = 0, frame = 0
  87              		@ frame_needed = 0, uses_anonymous_args = 0
  88              		@ link register save eliminated.
  89              	.LVL1:
  90              		.loc 1 167 0
  91 0000 2439     		subs	r1, r1, #36
  92              	.LVL2:
  93              		.loc 1 158 0
  94 0002 2DE9F001 		push	{r4, r5, r6, r7, r8}
  95              		.cfi_def_cfa_offset 20
  96              		.cfi_offset 4, -20
  97              		.cfi_offset 5, -16
  98              		.cfi_offset 6, -12
  99              		.cfi_offset 7, -8
 100              		.cfi_offset 8, -4
 101              		.loc 1 167 0
 102 0006 4518     		adds	r5, r0, r1
 103 0008 C560     		str	r5, [r0, #12]
 104 000a 4350     		str	r3, [r0, r1]
 105 000c C368     		ldr	r3, [r0, #12]
 106              	.LVL3:
 107              		.loc 1 158 0
 108 000e 0599     		ldr	r1, [sp, #20]
 109              	.LVL4:
 110              		.loc 1 167 0
 111 0010 0D4E     		ldr	r6, .L3
 112 0012 5960     		str	r1, [r3, #4]
 113              	.LVL5:
ARM GAS  /tmp/ccM1PnCe.s 			page 3


 114 0014 C568     		ldr	r5, [r0, #12]
 115              	.LBB8:
 116              	.LBB9:
 117              		.loc 1 80 0
 118 0016 0023     		movs	r3, #0
 119              	.LBE9:
 120              	.LBE8:
 121              		.loc 1 167 0
 122 0018 2E62     		str	r6, [r5, #32]
 123              	.LVL6:
 124              	.LBB11:
 125              	.LBB10:
 126              		.loc 1 79 0
 127 001a 4FF00208 		mov	r8, #2
 128              		.loc 1 102 0
 129 001e 00F11807 		add	r7, r0, #24
 130              		.loc 1 105 0
 131 0022 00F11C01 		add	r1, r0, #28
 132              		.loc 1 82 0
 133 0026 4FF0140C 		mov	ip, #20
 134              		.loc 1 79 0
 135 002a 80F81080 		strb	r8, [r0, #16]
 136              		.loc 1 102 0
 137 002e 8761     		str	r7, [r0, #24]
 138              		.loc 1 78 0
 139 0030 8260     		str	r2, [r0, #8]
 140              		.loc 1 85 0
 141 0032 0263     		str	r2, [r0, #48]
 142              		.loc 1 82 0
 143 0034 80F812C0 		strb	ip, [r0, #18]
 144              		.loc 1 105 0
 145 0038 0162     		str	r1, [r0, #32]
 146 003a C161     		str	r1, [r0, #28]
 147              		.loc 1 80 0
 148 003c 4374     		strb	r3, [r0, #17]
 149              		.loc 1 86 0
 150 003e C362     		str	r3, [r0, #44]
 151              		.loc 1 89 0
 152 0040 8362     		str	r3, [r0, #40]
 153              	.LBE10:
 154              	.LBE11:
 155              		.loc 1 169 0
 156 0042 BDE8F001 		pop	{r4, r5, r6, r7, r8}
 157              	.LVL7:
 158 0046 7047     		bx	lr
 159              	.L4:
 160              		.align	2
 161              	.L3:
 162 0048 00000000 		.word	_port_thread_start
 163              		.cfi_endproc
 164              	.LFE1:
 165              		.size	chThdCreateI, .-chThdCreateI
 166 004c AFF30080 		.section	.text.chThdCreateStatic,"ax",%progbits
 167              		.align	2
 168              		.p2align 4,,15
 169              		.global	chThdCreateStatic
 170              		.thumb
ARM GAS  /tmp/ccM1PnCe.s 			page 4


 171              		.thumb_func
 172              		.type	chThdCreateStatic, %function
 173              	chThdCreateStatic:
 174              	.LFB2:
 175              		.loc 1 188 0
 176              		.cfi_startproc
 177              		@ args = 4, pretend = 0, frame = 0
 178              		@ frame_needed = 0, uses_anonymous_args = 0
 179              	.LVL8:
 180 0000 F8B5     		push	{r3, r4, r5, r6, r7, lr}
 181              		.cfi_def_cfa_offset 24
 182              		.cfi_offset 3, -24
 183              		.cfi_offset 4, -20
 184              		.cfi_offset 5, -16
 185              		.cfi_offset 6, -12
 186              		.cfi_offset 7, -8
 187              		.cfi_offset 14, -4
 188              		.loc 1 188 0
 189 0002 069D     		ldr	r5, [sp, #24]
 190 0004 1E46     		mov	r6, r3
 191 0006 0446     		mov	r4, r0
 192              		.loc 1 199 0
 193              	@ 199 "../os/kernel/src/chthreads.c" 1
 194 0008 FFF7FEFF 		bl      _port_lock
 195              	@ 0 "" 2
 196              	.LVL9:
 197              		.thumb
 198              	.LBB12:
 199              	.LBB13:
 200              		.loc 1 167 0
 201 000c 2439     		subs	r1, r1, #36
 202              	.LVL10:
 203 000e 4318     		adds	r3, r0, r1
 204 0010 C360     		str	r3, [r0, #12]
 205 0012 4650     		str	r6, [r0, r1]
 206 0014 C368     		ldr	r3, [r0, #12]
 207 0016 1049     		ldr	r1, .L6
 208              	.LVL11:
 209 0018 5D60     		str	r5, [r3, #4]
 210 001a D0F80CC0 		ldr	ip, [r0, #12]
 211              	.LBB14:
 212              	.LBB15:
 213              		.loc 1 80 0
 214 001e 0023     		movs	r3, #0
 215              		.loc 1 105 0
 216 0020 00F11C05 		add	r5, r0, #28
 217              	.LVL12:
 218              		.loc 1 79 0
 219 0024 4FF0020E 		mov	lr, #2
 220              		.loc 1 102 0
 221 0028 00F11806 		add	r6, r0, #24
 222              	.LVL13:
 223              		.loc 1 82 0
 224 002c 1427     		movs	r7, #20
 225              	.LBE15:
 226              	.LBE14:
 227              		.loc 1 167 0
ARM GAS  /tmp/ccM1PnCe.s 			page 5


 228 002e CCF82010 		str	r1, [ip, #32]
 229              	.LVL14:
 230              	.LBE13:
 231              	.LBE12:
 232              		.loc 1 200 0
 233 0032 1946     		mov	r1, r3
 234              	.LBB19:
 235              	.LBB18:
 236              	.LBB17:
 237              	.LBB16:
 238              		.loc 1 78 0
 239 0034 8260     		str	r2, [r0, #8]
 240              		.loc 1 85 0
 241 0036 0263     		str	r2, [r0, #48]
 242              		.loc 1 79 0
 243 0038 80F810E0 		strb	lr, [r0, #16]
 244              		.loc 1 82 0
 245 003c 8774     		strb	r7, [r0, #18]
 246              		.loc 1 102 0
 247 003e 8661     		str	r6, [r0, #24]
 248              		.loc 1 80 0
 249 0040 4374     		strb	r3, [r0, #17]
 250              		.loc 1 86 0
 251 0042 C362     		str	r3, [r0, #44]
 252              		.loc 1 89 0
 253 0044 8362     		str	r3, [r0, #40]
 254              		.loc 1 105 0
 255 0046 0562     		str	r5, [r0, #32]
 256 0048 C561     		str	r5, [r0, #28]
 257              	.LBE16:
 258              	.LBE17:
 259              	.LBE18:
 260              	.LBE19:
 261              		.loc 1 200 0
 262 004a FFF7FEFF 		bl	chSchWakeupS
 263              	.LVL15:
 264              		.loc 1 201 0
 265              	@ 201 "../os/kernel/src/chthreads.c" 1
 266 004e FFF7FEFF 		bl      _port_unlock
 267              	@ 0 "" 2
 268              		.loc 1 203 0
 269              		.thumb
 270 0052 2046     		mov	r0, r4
 271 0054 F8BD     		pop	{r3, r4, r5, r6, r7, pc}
 272              	.LVL16:
 273              	.L7:
 274 0056 00BF     		.align	2
 275              	.L6:
 276 0058 00000000 		.word	_port_thread_start
 277              		.cfi_endproc
 278              	.LFE2:
 279              		.size	chThdCreateStatic, .-chThdCreateStatic
 280 005c AFF30080 		.section	.text.chThdSetPriority,"ax",%progbits
 281              		.align	2
 282              		.p2align 4,,15
 283              		.global	chThdSetPriority
 284              		.thumb
ARM GAS  /tmp/ccM1PnCe.s 			page 6


 285              		.thumb_func
 286              		.type	chThdSetPriority, %function
 287              	chThdSetPriority:
 288              	.LFB3:
 289              		.loc 1 217 0
 290              		.cfi_startproc
 291              		@ args = 0, pretend = 0, frame = 0
 292              		@ frame_needed = 0, uses_anonymous_args = 0
 293              	.LVL17:
 294 0000 10B5     		push	{r4, lr}
 295              		.cfi_def_cfa_offset 8
 296              		.cfi_offset 4, -8
 297              		.cfi_offset 14, -4
 298              		.loc 1 217 0
 299 0002 0246     		mov	r2, r0
 300              		.loc 1 222 0
 301              	@ 222 "../os/kernel/src/chthreads.c" 1
 302 0004 FFF7FEFF 		bl      _port_lock
 303              	@ 0 "" 2
 304              		.loc 1 224 0
 305              		.thumb
 306 0008 0848     		ldr	r0, .L12
 307              	.LVL18:
 308 000a 0369     		ldr	r3, [r0, #16]
 309 000c 1C6B     		ldr	r4, [r3, #48]
 310              	.LVL19:
 311              		.loc 1 225 0
 312 000e 9968     		ldr	r1, [r3, #8]
 313 0010 8C42     		cmp	r4, r1
 314 0012 01D0     		beq	.L9
 315              		.loc 1 225 0 is_stmt 0 discriminator 1
 316 0014 9142     		cmp	r1, r2
 317 0016 01D2     		bcs	.L10
 318              	.L9:
 319              		.loc 1 226 0 is_stmt 1
 320 0018 9A60     		str	r2, [r3, #8]
 321 001a 0369     		ldr	r3, [r0, #16]
 322              	.L10:
 323              		.loc 1 227 0
 324 001c 1A63     		str	r2, [r3, #48]
 325              		.loc 1 232 0
 326 001e FFF7FEFF 		bl	chSchRescheduleS
 327              	.LVL20:
 328              		.loc 1 233 0
 329              	@ 233 "../os/kernel/src/chthreads.c" 1
 330 0022 FFF7FEFF 		bl      _port_unlock
 331              	@ 0 "" 2
 332              		.loc 1 235 0
 333              		.thumb
 334 0026 2046     		mov	r0, r4
 335 0028 10BD     		pop	{r4, pc}
 336              	.LVL21:
 337              	.L13:
 338 002a 00BF     		.align	2
 339              	.L12:
 340 002c 00000000 		.word	rlist
 341              		.cfi_endproc
ARM GAS  /tmp/ccM1PnCe.s 			page 7


 342              	.LFE3:
 343              		.size	chThdSetPriority, .-chThdSetPriority
 344              		.section	.text.chThdResume,"ax",%progbits
 345              		.align	2
 346              		.p2align 4,,15
 347              		.global	chThdResume
 348              		.thumb
 349              		.thumb_func
 350              		.type	chThdResume, %function
 351              	chThdResume:
 352              	.LFB4:
 353              		.loc 1 250 0
 354              		.cfi_startproc
 355              		@ args = 0, pretend = 0, frame = 0
 356              		@ frame_needed = 0, uses_anonymous_args = 0
 357              	.LVL22:
 358 0000 10B5     		push	{r4, lr}
 359              		.cfi_def_cfa_offset 8
 360              		.cfi_offset 4, -8
 361              		.cfi_offset 14, -4
 362              		.loc 1 250 0
 363 0002 0446     		mov	r4, r0
 364              		.loc 1 252 0
 365              	@ 252 "../os/kernel/src/chthreads.c" 1
 366 0004 FFF7FEFF 		bl      _port_lock
 367              	@ 0 "" 2
 368              		.loc 1 256 0
 369              		.thumb
 370 0008 0021     		movs	r1, #0
 371 000a FFF7FEFF 		bl	chSchWakeupS
 372              	.LVL23:
 373              		.loc 1 257 0
 374              	@ 257 "../os/kernel/src/chthreads.c" 1
 375 000e FFF7FEFF 		bl      _port_unlock
 376              	@ 0 "" 2
 377              		.loc 1 259 0
 378              		.thumb
 379 0012 2046     		mov	r0, r4
 380 0014 10BD     		pop	{r4, pc}
 381              		.cfi_endproc
 382              	.LFE4:
 383              		.size	chThdResume, .-chThdResume
 384 0016 00BFAFF3 		.section	.text.chThdTerminate,"ax",%progbits
 384      0080AFF3 
 384      0080
 385              		.align	2
 386              		.p2align 4,,15
 387              		.global	chThdTerminate
 388              		.thumb
 389              		.thumb_func
 390              		.type	chThdTerminate, %function
 391              	chThdTerminate:
 392              	.LFB5:
 393              		.loc 1 273 0
 394              		.cfi_startproc
 395              		@ args = 0, pretend = 0, frame = 0
 396              		@ frame_needed = 0, uses_anonymous_args = 0
ARM GAS  /tmp/ccM1PnCe.s 			page 8


 397              	.LVL24:
 398 0000 00B5     		push	{lr}
 399              		.cfi_def_cfa_offset 4
 400              		.cfi_offset 14, -4
 401              		.loc 1 275 0
 402              	@ 275 "../os/kernel/src/chthreads.c" 1
 403 0002 FFF7FEFF 		bl      _port_lock
 404              	@ 0 "" 2
 405              		.loc 1 276 0
 406              		.thumb
 407 0006 437C     		ldrb	r3, [r0, #17]	@ zero_extendqisi2
 408 0008 43F00403 		orr	r3, r3, #4
 409 000c 4374     		strb	r3, [r0, #17]
 410              		.loc 1 277 0
 411              	@ 277 "../os/kernel/src/chthreads.c" 1
 412 000e FFF7FEFF 		bl      _port_unlock
 413              	@ 0 "" 2
 414              		.thumb
 415 0012 5DF804FB 		ldr	pc, [sp], #4
 416              		.cfi_endproc
 417              	.LFE5:
 418              		.size	chThdTerminate, .-chThdTerminate
 419 0016 00BFAFF3 		.section	.text.chThdSleep,"ax",%progbits
 419      0080AFF3 
 419      0080
 420              		.align	2
 421              		.p2align 4,,15
 422              		.global	chThdSleep
 423              		.thumb
 424              		.thumb_func
 425              		.type	chThdSleep, %function
 426              	chThdSleep:
 427              	.LFB6:
 428              		.loc 1 292 0
 429              		.cfi_startproc
 430              		@ args = 0, pretend = 0, frame = 0
 431              		@ frame_needed = 0, uses_anonymous_args = 0
 432              	.LVL25:
 433 0000 08B5     		push	{r3, lr}
 434              		.cfi_def_cfa_offset 8
 435              		.cfi_offset 3, -8
 436              		.cfi_offset 14, -4
 437              		.loc 1 292 0
 438 0002 0146     		mov	r1, r0
 439              		.loc 1 296 0
 440              	@ 296 "../os/kernel/src/chthreads.c" 1
 441 0004 FFF7FEFF 		bl      _port_lock
 442              	@ 0 "" 2
 443              		.loc 1 297 0
 444              		.thumb
 445 0008 0620     		movs	r0, #6
 446              	.LVL26:
 447 000a FFF7FEFF 		bl	chSchGoSleepTimeoutS
 448              	.LVL27:
 449              		.loc 1 298 0
 450              	@ 298 "../os/kernel/src/chthreads.c" 1
 451 000e FFF7FEFF 		bl      _port_unlock
ARM GAS  /tmp/ccM1PnCe.s 			page 9


 452              	@ 0 "" 2
 453              		.thumb
 454 0012 08BD     		pop	{r3, pc}
 455              		.cfi_endproc
 456              	.LFE6:
 457              		.size	chThdSleep, .-chThdSleep
 458              		.section	.text.chThdSleepUntil,"ax",%progbits
 459              		.align	2
 460              		.p2align 4,,15
 461              		.global	chThdSleepUntil
 462              		.thumb
 463              		.thumb_func
 464              		.type	chThdSleepUntil, %function
 465              	chThdSleepUntil:
 466              	.LFB7:
 467              		.loc 1 309 0
 468              		.cfi_startproc
 469              		@ args = 0, pretend = 0, frame = 0
 470              		@ frame_needed = 0, uses_anonymous_args = 0
 471              	.LVL28:
 472 0000 08B5     		push	{r3, lr}
 473              		.cfi_def_cfa_offset 8
 474              		.cfi_offset 3, -8
 475              		.cfi_offset 14, -4
 476              		.loc 1 311 0
 477              	@ 311 "../os/kernel/src/chthreads.c" 1
 478 0002 FFF7FEFF 		bl      _port_lock
 479              	@ 0 "" 2
 480              		.loc 1 312 0
 481              		.thumb
 482 0006 054B     		ldr	r3, .L22
 483 0008 D968     		ldr	r1, [r3, #12]
 484              	.LVL29:
 485 000a 411A     		subs	r1, r0, r1
 486              	.LVL30:
 487 000c 02D0     		beq	.L18
 488              		.loc 1 313 0
 489 000e 0620     		movs	r0, #6
 490 0010 FFF7FEFF 		bl	chSchGoSleepTimeoutS
 491              	.LVL31:
 492              	.L18:
 493              		.loc 1 314 0
 494              	@ 314 "../os/kernel/src/chthreads.c" 1
 495 0014 FFF7FEFF 		bl      _port_unlock
 496              	@ 0 "" 2
 497              		.thumb
 498 0018 08BD     		pop	{r3, pc}
 499              	.L23:
 500 001a 00BF     		.align	2
 501              	.L22:
 502 001c 00000000 		.word	vtlist
 503              		.cfi_endproc
 504              	.LFE7:
 505              		.size	chThdSleepUntil, .-chThdSleepUntil
 506              		.section	.text.chThdYield,"ax",%progbits
 507              		.align	2
 508              		.p2align 4,,15
ARM GAS  /tmp/ccM1PnCe.s 			page 10


 509              		.global	chThdYield
 510              		.thumb
 511              		.thumb_func
 512              		.type	chThdYield, %function
 513              	chThdYield:
 514              	.LFB8:
 515              		.loc 1 324 0
 516              		.cfi_startproc
 517              		@ args = 0, pretend = 0, frame = 0
 518              		@ frame_needed = 0, uses_anonymous_args = 0
 519 0000 08B5     		push	{r3, lr}
 520              		.cfi_def_cfa_offset 8
 521              		.cfi_offset 3, -8
 522              		.cfi_offset 14, -4
 523              		.loc 1 326 0
 524              	@ 326 "../os/kernel/src/chthreads.c" 1
 525 0002 FFF7FEFF 		bl      _port_lock
 526              	@ 0 "" 2
 527              		.loc 1 327 0
 528              		.thumb
 529 0006 064B     		ldr	r3, .L26
 530 0008 1A68     		ldr	r2, [r3]
 531 000a 1B69     		ldr	r3, [r3, #16]
 532 000c 9268     		ldr	r2, [r2, #8]
 533 000e 9B68     		ldr	r3, [r3, #8]
 534 0010 9A42     		cmp	r2, r3
 535 0012 01D3     		bcc	.L25
 536              		.loc 1 327 0 is_stmt 0 discriminator 1
 537 0014 FFF7FEFF 		bl	chSchDoRescheduleBehind
 538              	.LVL32:
 539              	.L25:
 540              		.loc 1 328 0 is_stmt 1
 541              	@ 328 "../os/kernel/src/chthreads.c" 1
 542 0018 FFF7FEFF 		bl      _port_unlock
 543              	@ 0 "" 2
 544              		.thumb
 545 001c 08BD     		pop	{r3, pc}
 546              	.L27:
 547 001e 00BF     		.align	2
 548              	.L26:
 549 0020 00000000 		.word	rlist
 550              		.cfi_endproc
 551              	.LFE8:
 552              		.size	chThdYield, .-chThdYield
 553 0024 AFF30080 		.section	.text.chThdExitS,"ax",%progbits
 553      AFF30080 
 553      AFF30080 
 554              		.align	2
 555              		.p2align 4,,15
 556              		.global	chThdExitS
 557              		.thumb
 558              		.thumb_func
 559              		.type	chThdExitS, %function
 560              	chThdExitS:
 561              	.LFB10:
 562              		.loc 1 366 0
 563              		.cfi_startproc
ARM GAS  /tmp/ccM1PnCe.s 			page 11


 564              		@ args = 0, pretend = 0, frame = 0
 565              		@ frame_needed = 0, uses_anonymous_args = 0
 566              	.LVL33:
 567 0000 38B5     		push	{r3, r4, r5, lr}
 568              		.cfi_def_cfa_offset 16
 569              		.cfi_offset 3, -16
 570              		.cfi_offset 4, -12
 571              		.cfi_offset 5, -8
 572              		.cfi_offset 14, -4
 573              		.loc 1 367 0
 574 0002 0A4B     		ldr	r3, .L32
 575 0004 1D69     		ldr	r5, [r3, #16]
 576              	.LVL34:
 577              		.loc 1 374 0
 578 0006 AB69     		ldr	r3, [r5, #24]
 579 0008 05F11804 		add	r4, r5, #24
 580 000c A342     		cmp	r3, r4
 581              		.loc 1 369 0
 582 000e 6861     		str	r0, [r5, #20]
 583              		.loc 1 374 0
 584 0010 07D0     		beq	.L30
 585              	.LVL35:
 586              	.L31:
 587              		.loc 1 375 0
 588 0012 2046     		mov	r0, r4
 589 0014 FFF7FEFF 		bl	list_remove
 590              	.LVL36:
 591 0018 FFF7FEFF 		bl	chSchReadyI
 592              	.LVL37:
 593              		.loc 1 374 0
 594 001c AB69     		ldr	r3, [r5, #24]
 595 001e A342     		cmp	r3, r4
 596 0020 F7D1     		bne	.L31
 597              	.L30:
 598              		.loc 1 383 0
 599 0022 0E20     		movs	r0, #14
 600              		.loc 1 386 0
 601 0024 BDE83840 		pop	{r3, r4, r5, lr}
 602              	.LVL38:
 603              		.loc 1 383 0
 604 0028 FFF7FEBF 		b	chSchGoSleepS
 605              	.LVL39:
 606              	.L33:
 607              		.align	2
 608              	.L32:
 609 002c 00000000 		.word	rlist
 610              		.cfi_endproc
 611              	.LFE10:
 612              		.size	chThdExitS, .-chThdExitS
 613              		.section	.text.chThdExit,"ax",%progbits
 614              		.align	2
 615              		.p2align 4,,15
 616              		.global	chThdExit
 617              		.thumb
 618              		.thumb_func
 619              		.type	chThdExit, %function
 620              	chThdExit:
ARM GAS  /tmp/ccM1PnCe.s 			page 12


 621              	.LFB9:
 622              		.loc 1 345 0
 623              		.cfi_startproc
 624              		@ args = 0, pretend = 0, frame = 0
 625              		@ frame_needed = 0, uses_anonymous_args = 0
 626              	.LVL40:
 627 0000 00B5     		push	{lr}
 628              		.cfi_def_cfa_offset 4
 629              		.cfi_offset 14, -4
 630              		.loc 1 347 0
 631              	@ 347 "../os/kernel/src/chthreads.c" 1
 632 0002 FFF7FEFF 		bl      _port_lock
 633              	@ 0 "" 2
 634              		.loc 1 350 0
 635              		.thumb
 636 0006 5DF804EB 		ldr	lr, [sp], #4
 637              		.loc 1 348 0
 638 000a FFF7FEBF 		b	chThdExitS
 639              	.LVL41:
 640              		.cfi_endproc
 641              	.LFE9:
 642              		.size	chThdExit, .-chThdExit
 643 000e 00BF     		.section	.text.chThdWait,"ax",%progbits
 644              		.align	2
 645              		.p2align 4,,15
 646              		.global	chThdWait
 647              		.thumb
 648              		.thumb_func
 649              		.type	chThdWait, %function
 650              	chThdWait:
 651              	.LFB11:
 652              		.loc 1 420 0
 653              		.cfi_startproc
 654              		@ args = 0, pretend = 0, frame = 0
 655              		@ frame_needed = 0, uses_anonymous_args = 0
 656              	.LVL42:
 657 0000 10B5     		push	{r4, lr}
 658              		.cfi_def_cfa_offset 8
 659              		.cfi_offset 4, -8
 660              		.cfi_offset 14, -4
 661              		.loc 1 420 0
 662 0002 0446     		mov	r4, r0
 663              		.loc 1 425 0
 664              	@ 425 "../os/kernel/src/chthreads.c" 1
 665 0004 FFF7FEFF 		bl      _port_lock
 666              	@ 0 "" 2
 667              		.loc 1 430 0
 668              		.thumb
 669 0008 037C     		ldrb	r3, [r0, #16]	@ zero_extendqisi2
 670 000a 0E2B     		cmp	r3, #14
 671 000c 08D0     		beq	.L36
 672              		.loc 1 431 0
 673 000e 064B     		ldr	r3, .L40
 674 0010 00F11801 		add	r1, r0, #24
 675 0014 1869     		ldr	r0, [r3, #16]
 676              	.LVL43:
 677 0016 FFF7FEFF 		bl	list_insert
ARM GAS  /tmp/ccM1PnCe.s 			page 13


 678              	.LVL44:
 679              		.loc 1 432 0
 680 001a 0720     		movs	r0, #7
 681 001c FFF7FEFF 		bl	chSchGoSleepS
 682              	.LVL45:
 683              	.L36:
 684              		.loc 1 434 0
 685 0020 6069     		ldr	r0, [r4, #20]
 686              	.LVL46:
 687              		.loc 1 435 0
 688              	@ 435 "../os/kernel/src/chthreads.c" 1
 689 0022 FFF7FEFF 		bl      _port_unlock
 690              	@ 0 "" 2
 691              		.loc 1 440 0
 692              		.thumb
 693 0026 10BD     		pop	{r4, pc}
 694              	.LVL47:
 695              	.L41:
 696              		.align	2
 697              	.L40:
 698 0028 00000000 		.word	rlist
 699              		.cfi_endproc
 700              	.LFE11:
 701              		.size	chThdWait, .-chThdWait
 702 002c AFF30080 		.text
 703              	.Letext0:
 704              		.file 2 "/usr/lib/gcc/arm-none-eabi/4.8/include/stddef.h"
 705              		.file 3 "/usr/include/newlib/machine/_default_types.h"
 706              		.file 4 "/usr/include/newlib/stdint.h"
 707              		.file 5 "../os/ports/GCC/ARMCMx/chtypes.h"
 708              		.file 6 "../os/kernel/include/chlists.h"
 709              		.file 7 "../os/kernel/include/chthreads.h"
 710              		.file 8 "../os/ports/GCC/ARMCMx/chcore_v7m.h"
 711              		.file 9 "../os/kernel/include/chvt.h"
 712              		.file 10 "../os/kernel/include/chschd.h"
 713              		.file 11 "../os/kernel/include/chmtx.h"
 714              		.section	.debug_info,"",%progbits
 715              	.Ldebug_info0:
 716 0000 2D090000 		.4byte	0x92d
 717 0004 0400     		.2byte	0x4
 718 0006 00000000 		.4byte	.Ldebug_abbrev0
 719 000a 04       		.byte	0x4
 720 000b 01       		.uleb128 0x1
 721 000c B9020000 		.4byte	.LASF93
 722 0010 01       		.byte	0x1
 723 0011 94020000 		.4byte	.LASF94
 724 0015 18010000 		.4byte	.LASF95
 725 0019 48000000 		.4byte	.Ldebug_ranges0+0x48
 726 001d 00000000 		.4byte	0
 727 0021 00000000 		.4byte	.Ldebug_line0
 728 0025 02       		.uleb128 0x2
 729 0026 04       		.byte	0x4
 730 0027 05       		.byte	0x5
 731 0028 696E7400 		.ascii	"int\000"
 732 002c 03       		.uleb128 0x3
 733 002d 0E000000 		.4byte	.LASF2
 734 0031 02       		.byte	0x2
ARM GAS  /tmp/ccM1PnCe.s 			page 14


 735 0032 D4       		.byte	0xd4
 736 0033 37000000 		.4byte	0x37
 737 0037 04       		.uleb128 0x4
 738 0038 04       		.byte	0x4
 739 0039 07       		.byte	0x7
 740 003a 03010000 		.4byte	.LASF0
 741 003e 04       		.uleb128 0x4
 742 003f 01       		.byte	0x1
 743 0040 06       		.byte	0x6
 744 0041 72000000 		.4byte	.LASF1
 745 0045 03       		.uleb128 0x3
 746 0046 21000000 		.4byte	.LASF3
 747 004a 03       		.byte	0x3
 748 004b 1D       		.byte	0x1d
 749 004c 50000000 		.4byte	0x50
 750 0050 04       		.uleb128 0x4
 751 0051 01       		.byte	0x1
 752 0052 08       		.byte	0x8
 753 0053 8C030000 		.4byte	.LASF4
 754 0057 04       		.uleb128 0x4
 755 0058 02       		.byte	0x2
 756 0059 05       		.byte	0x5
 757 005a A4030000 		.4byte	.LASF5
 758 005e 04       		.uleb128 0x4
 759 005f 02       		.byte	0x2
 760 0060 07       		.byte	0x7
 761 0061 8E010000 		.4byte	.LASF6
 762 0065 03       		.uleb128 0x3
 763 0066 50040000 		.4byte	.LASF7
 764 006a 03       		.byte	0x3
 765 006b 3F       		.byte	0x3f
 766 006c 70000000 		.4byte	0x70
 767 0070 04       		.uleb128 0x4
 768 0071 04       		.byte	0x4
 769 0072 05       		.byte	0x5
 770 0073 A7000000 		.4byte	.LASF8
 771 0077 03       		.uleb128 0x3
 772 0078 D6000000 		.4byte	.LASF9
 773 007c 03       		.byte	0x3
 774 007d 41       		.byte	0x41
 775 007e 82000000 		.4byte	0x82
 776 0082 04       		.uleb128 0x4
 777 0083 04       		.byte	0x4
 778 0084 07       		.byte	0x7
 779 0085 6E010000 		.4byte	.LASF10
 780 0089 04       		.uleb128 0x4
 781 008a 08       		.byte	0x8
 782 008b 05       		.byte	0x5
 783 008c 64000000 		.4byte	.LASF11
 784 0090 04       		.uleb128 0x4
 785 0091 08       		.byte	0x8
 786 0092 07       		.byte	0x7
 787 0093 3D000000 		.4byte	.LASF12
 788 0097 03       		.uleb128 0x3
 789 0098 A0040000 		.4byte	.LASF13
 790 009c 04       		.byte	0x4
 791 009d 2A       		.byte	0x2a
ARM GAS  /tmp/ccM1PnCe.s 			page 15


 792 009e 45000000 		.4byte	0x45
 793 00a2 03       		.uleb128 0x3
 794 00a3 84030000 		.4byte	.LASF14
 795 00a7 04       		.byte	0x4
 796 00a8 41       		.byte	0x41
 797 00a9 65000000 		.4byte	0x65
 798 00ad 03       		.uleb128 0x3
 799 00ae FD030000 		.4byte	.LASF15
 800 00b2 04       		.byte	0x4
 801 00b3 42       		.byte	0x42
 802 00b4 77000000 		.4byte	0x77
 803 00b8 04       		.uleb128 0x4
 804 00b9 01       		.byte	0x1
 805 00ba 02       		.byte	0x2
 806 00bb 7E030000 		.4byte	.LASF16
 807 00bf 03       		.uleb128 0x3
 808 00c0 BC010000 		.4byte	.LASF17
 809 00c4 05       		.byte	0x5
 810 00c5 2C       		.byte	0x2c
 811 00c6 97000000 		.4byte	0x97
 812 00ca 03       		.uleb128 0x3
 813 00cb B0000000 		.4byte	.LASF18
 814 00cf 05       		.byte	0x5
 815 00d0 2D       		.byte	0x2d
 816 00d1 97000000 		.4byte	0x97
 817 00d5 03       		.uleb128 0x3
 818 00d6 90000000 		.4byte	.LASF19
 819 00da 05       		.byte	0x5
 820 00db 2F       		.byte	0x2f
 821 00dc 97000000 		.4byte	0x97
 822 00e0 03       		.uleb128 0x3
 823 00e1 B1020000 		.4byte	.LASF20
 824 00e5 05       		.byte	0x5
 825 00e6 30       		.byte	0x30
 826 00e7 AD000000 		.4byte	0xad
 827 00eb 03       		.uleb128 0x3
 828 00ec AE010000 		.4byte	.LASF21
 829 00f0 05       		.byte	0x5
 830 00f1 31       		.byte	0x31
 831 00f2 A2000000 		.4byte	0xa2
 832 00f6 03       		.uleb128 0x3
 833 00f7 DF010000 		.4byte	.LASF22
 834 00fb 05       		.byte	0x5
 835 00fc 33       		.byte	0x33
 836 00fd AD000000 		.4byte	0xad
 837 0101 03       		.uleb128 0x3
 838 0102 3B040000 		.4byte	.LASF23
 839 0106 05       		.byte	0x5
 840 0107 35       		.byte	0x35
 841 0108 AD000000 		.4byte	0xad
 842 010c 03       		.uleb128 0x3
 843 010d DD030000 		.4byte	.LASF24
 844 0111 06       		.byte	0x6
 845 0112 2A       		.byte	0x2a
 846 0113 17010000 		.4byte	0x117
 847 0117 05       		.uleb128 0x5
 848 0118 DD030000 		.4byte	.LASF24
ARM GAS  /tmp/ccM1PnCe.s 			page 16


 849 011c 34       		.byte	0x34
 850 011d 07       		.byte	0x7
 851 011e 5E       		.byte	0x5e
 852 011f CC010000 		.4byte	0x1cc
 853 0123 06       		.uleb128 0x6
 854 0124 CE030000 		.4byte	.LASF25
 855 0128 07       		.byte	0x7
 856 0129 5F       		.byte	0x5f
 857 012a ED010000 		.4byte	0x1ed
 858 012e 00       		.byte	0
 859 012f 06       		.uleb128 0x6
 860 0130 8D020000 		.4byte	.LASF26
 861 0134 07       		.byte	0x7
 862 0135 61       		.byte	0x61
 863 0136 ED010000 		.4byte	0x1ed
 864 013a 04       		.byte	0x4
 865 013b 06       		.uleb128 0x6
 866 013c 5D000000 		.4byte	.LASF27
 867 0140 07       		.byte	0x7
 868 0141 63       		.byte	0x63
 869 0142 E0000000 		.4byte	0xe0
 870 0146 08       		.byte	0x8
 871 0147 06       		.uleb128 0x6
 872 0148 E2040000 		.4byte	.LASF28
 873 014c 07       		.byte	0x7
 874 014d 64       		.byte	0x64
 875 014e A7020000 		.4byte	0x2a7
 876 0152 0C       		.byte	0xc
 877 0153 06       		.uleb128 0x6
 878 0154 AE030000 		.4byte	.LASF29
 879 0158 07       		.byte	0x7
 880 0159 79       		.byte	0x79
 881 015a CA000000 		.4byte	0xca
 882 015e 10       		.byte	0x10
 883 015f 06       		.uleb128 0x6
 884 0160 D5030000 		.4byte	.LASF30
 885 0164 07       		.byte	0x7
 886 0165 7D       		.byte	0x7d
 887 0166 BF000000 		.4byte	0xbf
 888 016a 11       		.byte	0x11
 889 016b 06       		.uleb128 0x6
 890 016c B6030000 		.4byte	.LASF31
 891 0170 07       		.byte	0x7
 892 0171 88       		.byte	0x88
 893 0172 D5000000 		.4byte	0xd5
 894 0176 12       		.byte	0x12
 895 0177 07       		.uleb128 0x7
 896 0178 705F7500 		.ascii	"p_u\000"
 897 017c 07       		.byte	0x7
 898 017d B4       		.byte	0xb4
 899 017e 14040000 		.4byte	0x414
 900 0182 14       		.byte	0x14
 901 0183 06       		.uleb128 0x6
 902 0184 E8040000 		.4byte	.LASF32
 903 0188 07       		.byte	0x7
 904 0189 B9       		.byte	0xb9
 905 018a 13020000 		.4byte	0x213
ARM GAS  /tmp/ccM1PnCe.s 			page 17


 906 018e 18       		.byte	0x18
 907 018f 06       		.uleb128 0x6
 908 0190 69040000 		.4byte	.LASF33
 909 0194 07       		.byte	0x7
 910 0195 BF       		.byte	0xbf
 911 0196 F3010000 		.4byte	0x1f3
 912 019a 1C       		.byte	0x1c
 913 019b 06       		.uleb128 0x6
 914 019c 08000000 		.4byte	.LASF34
 915 01a0 07       		.byte	0x7
 916 01a1 C3       		.byte	0xc3
 917 01a2 EB000000 		.4byte	0xeb
 918 01a6 24       		.byte	0x24
 919 01a7 06       		.uleb128 0x6
 920 01a8 F2030000 		.4byte	.LASF35
 921 01ac 07       		.byte	0x7
 922 01ad C9       		.byte	0xc9
 923 01ae F6000000 		.4byte	0xf6
 924 01b2 28       		.byte	0x28
 925 01b3 06       		.uleb128 0x6
 926 01b4 9A030000 		.4byte	.LASF36
 927 01b8 07       		.byte	0x7
 928 01b9 D0       		.byte	0xd0
 929 01ba 49040000 		.4byte	0x449
 930 01be 2C       		.byte	0x2c
 931 01bf 06       		.uleb128 0x6
 932 01c0 45040000 		.4byte	.LASF37
 933 01c4 07       		.byte	0x7
 934 01c5 D4       		.byte	0xd4
 935 01c6 E0000000 		.4byte	0xe0
 936 01ca 30       		.byte	0x30
 937 01cb 00       		.byte	0
 938 01cc 08       		.uleb128 0x8
 939 01cd 08       		.byte	0x8
 940 01ce 06       		.byte	0x6
 941 01cf 61       		.byte	0x61
 942 01d0 ED010000 		.4byte	0x1ed
 943 01d4 06       		.uleb128 0x6
 944 01d5 CE030000 		.4byte	.LASF25
 945 01d9 06       		.byte	0x6
 946 01da 62       		.byte	0x62
 947 01db ED010000 		.4byte	0x1ed
 948 01df 00       		.byte	0
 949 01e0 06       		.uleb128 0x6
 950 01e1 8D020000 		.4byte	.LASF26
 951 01e5 06       		.byte	0x6
 952 01e6 64       		.byte	0x64
 953 01e7 ED010000 		.4byte	0x1ed
 954 01eb 04       		.byte	0x4
 955 01ec 00       		.byte	0
 956 01ed 09       		.uleb128 0x9
 957 01ee 04       		.byte	0x4
 958 01ef 0C010000 		.4byte	0x10c
 959 01f3 03       		.uleb128 0x3
 960 01f4 55020000 		.4byte	.LASF38
 961 01f8 06       		.byte	0x6
 962 01f9 66       		.byte	0x66
ARM GAS  /tmp/ccM1PnCe.s 			page 18


 963 01fa CC010000 		.4byte	0x1cc
 964 01fe 08       		.uleb128 0x8
 965 01ff 04       		.byte	0x4
 966 0200 06       		.byte	0x6
 967 0201 6B       		.byte	0x6b
 968 0202 13020000 		.4byte	0x213
 969 0206 06       		.uleb128 0x6
 970 0207 CE030000 		.4byte	.LASF25
 971 020b 06       		.byte	0x6
 972 020c 6D       		.byte	0x6d
 973 020d ED010000 		.4byte	0x1ed
 974 0211 00       		.byte	0
 975 0212 00       		.byte	0
 976 0213 03       		.uleb128 0x3
 977 0214 D3010000 		.4byte	.LASF39
 978 0218 06       		.byte	0x6
 979 0219 70       		.byte	0x70
 980 021a FE010000 		.4byte	0x1fe
 981 021e 03       		.uleb128 0x3
 982 021f E1000000 		.4byte	.LASF40
 983 0223 08       		.byte	0x8
 984 0224 E5       		.byte	0xe5
 985 0225 29020000 		.4byte	0x229
 986 0229 0A       		.uleb128 0xa
 987 022a 04       		.byte	0x4
 988 022b 0B       		.uleb128 0xb
 989 022c 62040000 		.4byte	.LASF41
 990 0230 24       		.byte	0x24
 991 0231 08       		.byte	0x8
 992 0232 0C01     		.2byte	0x10c
 993 0234 A7020000 		.4byte	0x2a7
 994 0238 0C       		.uleb128 0xc
 995 0239 723400   		.ascii	"r4\000"
 996 023c 08       		.byte	0x8
 997 023d 1F01     		.2byte	0x11f
 998 023f 1E020000 		.4byte	0x21e
 999 0243 00       		.byte	0
 1000 0244 0C       		.uleb128 0xc
 1001 0245 723500   		.ascii	"r5\000"
 1002 0248 08       		.byte	0x8
 1003 0249 2001     		.2byte	0x120
 1004 024b 1E020000 		.4byte	0x21e
 1005 024f 04       		.byte	0x4
 1006 0250 0C       		.uleb128 0xc
 1007 0251 723600   		.ascii	"r6\000"
 1008 0254 08       		.byte	0x8
 1009 0255 2101     		.2byte	0x121
 1010 0257 1E020000 		.4byte	0x21e
 1011 025b 08       		.byte	0x8
 1012 025c 0C       		.uleb128 0xc
 1013 025d 723700   		.ascii	"r7\000"
 1014 0260 08       		.byte	0x8
 1015 0261 2201     		.2byte	0x122
 1016 0263 1E020000 		.4byte	0x21e
 1017 0267 0C       		.byte	0xc
 1018 0268 0C       		.uleb128 0xc
 1019 0269 723800   		.ascii	"r8\000"
ARM GAS  /tmp/ccM1PnCe.s 			page 19


 1020 026c 08       		.byte	0x8
 1021 026d 2301     		.2byte	0x123
 1022 026f 1E020000 		.4byte	0x21e
 1023 0273 10       		.byte	0x10
 1024 0274 0C       		.uleb128 0xc
 1025 0275 723900   		.ascii	"r9\000"
 1026 0278 08       		.byte	0x8
 1027 0279 2401     		.2byte	0x124
 1028 027b 1E020000 		.4byte	0x21e
 1029 027f 14       		.byte	0x14
 1030 0280 0C       		.uleb128 0xc
 1031 0281 72313000 		.ascii	"r10\000"
 1032 0285 08       		.byte	0x8
 1033 0286 2501     		.2byte	0x125
 1034 0288 1E020000 		.4byte	0x21e
 1035 028c 18       		.byte	0x18
 1036 028d 0C       		.uleb128 0xc
 1037 028e 72313100 		.ascii	"r11\000"
 1038 0292 08       		.byte	0x8
 1039 0293 2601     		.2byte	0x126
 1040 0295 1E020000 		.4byte	0x21e
 1041 0299 1C       		.byte	0x1c
 1042 029a 0C       		.uleb128 0xc
 1043 029b 6C7200   		.ascii	"lr\000"
 1044 029e 08       		.byte	0x8
 1045 029f 2701     		.2byte	0x127
 1046 02a1 1E020000 		.4byte	0x21e
 1047 02a5 20       		.byte	0x20
 1048 02a6 00       		.byte	0
 1049 02a7 0B       		.uleb128 0xb
 1050 02a8 5A040000 		.4byte	.LASF42
 1051 02ac 04       		.byte	0x4
 1052 02ad 08       		.byte	0x8
 1053 02ae 3101     		.2byte	0x131
 1054 02b0 C2020000 		.4byte	0x2c2
 1055 02b4 0C       		.uleb128 0xc
 1056 02b5 72313300 		.ascii	"r13\000"
 1057 02b9 08       		.byte	0x8
 1058 02ba 3201     		.2byte	0x132
 1059 02bc C2020000 		.4byte	0x2c2
 1060 02c0 00       		.byte	0
 1061 02c1 00       		.byte	0
 1062 02c2 09       		.uleb128 0x9
 1063 02c3 04       		.byte	0x4
 1064 02c4 2B020000 		.4byte	0x22b
 1065 02c8 04       		.uleb128 0x4
 1066 02c9 04       		.byte	0x4
 1067 02ca 07       		.byte	0x7
 1068 02cb 13020000 		.4byte	.LASF43
 1069 02cf 03       		.uleb128 0x3
 1070 02d0 80010000 		.4byte	.LASF44
 1071 02d4 09       		.byte	0x9
 1072 02d5 58       		.byte	0x58
 1073 02d6 DA020000 		.4byte	0x2da
 1074 02da 09       		.uleb128 0x9
 1075 02db 04       		.byte	0x4
 1076 02dc E0020000 		.4byte	0x2e0
ARM GAS  /tmp/ccM1PnCe.s 			page 20


 1077 02e0 0D       		.uleb128 0xd
 1078 02e1 EB020000 		.4byte	0x2eb
 1079 02e5 0E       		.uleb128 0xe
 1080 02e6 29020000 		.4byte	0x229
 1081 02ea 00       		.byte	0
 1082 02eb 03       		.uleb128 0x3
 1083 02ec 1B040000 		.4byte	.LASF45
 1084 02f0 09       		.byte	0x9
 1085 02f1 5D       		.byte	0x5d
 1086 02f2 F6020000 		.4byte	0x2f6
 1087 02f6 05       		.uleb128 0x5
 1088 02f7 1B040000 		.4byte	.LASF45
 1089 02fb 14       		.byte	0x14
 1090 02fc 09       		.byte	0x9
 1091 02fd 64       		.byte	0x64
 1092 02fe 3F030000 		.4byte	0x33f
 1093 0302 06       		.uleb128 0x6
 1094 0303 10010000 		.4byte	.LASF46
 1095 0307 09       		.byte	0x9
 1096 0308 65       		.byte	0x65
 1097 0309 3F030000 		.4byte	0x33f
 1098 030d 00       		.byte	0
 1099 030e 06       		.uleb128 0x6
 1100 030f EA000000 		.4byte	.LASF47
 1101 0313 09       		.byte	0x9
 1102 0314 67       		.byte	0x67
 1103 0315 3F030000 		.4byte	0x33f
 1104 0319 04       		.byte	0x4
 1105 031a 06       		.uleb128 0x6
 1106 031b 0B020000 		.4byte	.LASF48
 1107 031f 09       		.byte	0x9
 1108 0320 69       		.byte	0x69
 1109 0321 01010000 		.4byte	0x101
 1110 0325 08       		.byte	0x8
 1111 0326 06       		.uleb128 0x6
 1112 0327 1C020000 		.4byte	.LASF49
 1113 032b 09       		.byte	0x9
 1114 032c 6A       		.byte	0x6a
 1115 032d CF020000 		.4byte	0x2cf
 1116 0331 0C       		.byte	0xc
 1117 0332 06       		.uleb128 0x6
 1118 0333 7E040000 		.4byte	.LASF50
 1119 0337 09       		.byte	0x9
 1120 0338 6C       		.byte	0x6c
 1121 0339 29020000 		.4byte	0x229
 1122 033d 10       		.byte	0x10
 1123 033e 00       		.byte	0
 1124 033f 09       		.uleb128 0x9
 1125 0340 04       		.byte	0x4
 1126 0341 EB020000 		.4byte	0x2eb
 1127 0345 08       		.uleb128 0x8
 1128 0346 10       		.byte	0x10
 1129 0347 09       		.byte	0x9
 1130 0348 76       		.byte	0x76
 1131 0349 7E030000 		.4byte	0x37e
 1132 034d 06       		.uleb128 0x6
 1133 034e 10010000 		.4byte	.LASF46
ARM GAS  /tmp/ccM1PnCe.s 			page 21


 1134 0352 09       		.byte	0x9
 1135 0353 77       		.byte	0x77
 1136 0354 3F030000 		.4byte	0x33f
 1137 0358 00       		.byte	0
 1138 0359 06       		.uleb128 0x6
 1139 035a EA000000 		.4byte	.LASF47
 1140 035e 09       		.byte	0x9
 1141 035f 79       		.byte	0x79
 1142 0360 3F030000 		.4byte	0x33f
 1143 0364 04       		.byte	0x4
 1144 0365 06       		.uleb128 0x6
 1145 0366 0B020000 		.4byte	.LASF48
 1146 036a 09       		.byte	0x9
 1147 036b 7B       		.byte	0x7b
 1148 036c 01010000 		.4byte	0x101
 1149 0370 08       		.byte	0x8
 1150 0371 06       		.uleb128 0x6
 1151 0372 BA040000 		.4byte	.LASF51
 1152 0376 09       		.byte	0x9
 1153 0377 7C       		.byte	0x7c
 1154 0378 7E030000 		.4byte	0x37e
 1155 037c 0C       		.byte	0xc
 1156 037d 00       		.byte	0
 1157 037e 0F       		.uleb128 0xf
 1158 037f 01010000 		.4byte	0x101
 1159 0383 03       		.uleb128 0x3
 1160 0384 48020000 		.4byte	.LASF52
 1161 0388 09       		.byte	0x9
 1162 0389 7D       		.byte	0x7d
 1163 038a 45030000 		.4byte	0x345
 1164 038e 08       		.uleb128 0x8
 1165 038f 14       		.byte	0x14
 1166 0390 0A       		.byte	0xa
 1167 0391 5E       		.byte	0x5e
 1168 0392 C7030000 		.4byte	0x3c7
 1169 0396 06       		.uleb128 0x6
 1170 0397 13040000 		.4byte	.LASF53
 1171 039b 0A       		.byte	0xa
 1172 039c 5F       		.byte	0x5f
 1173 039d F3010000 		.4byte	0x1f3
 1174 03a1 00       		.byte	0
 1175 03a2 06       		.uleb128 0x6
 1176 03a3 C0030000 		.4byte	.LASF54
 1177 03a7 0A       		.byte	0xa
 1178 03a8 60       		.byte	0x60
 1179 03a9 E0000000 		.4byte	0xe0
 1180 03ad 08       		.byte	0x8
 1181 03ae 06       		.uleb128 0x6
 1182 03af 4F020000 		.4byte	.LASF55
 1183 03b3 0A       		.byte	0xa
 1184 03b4 62       		.byte	0x62
 1185 03b5 A7020000 		.4byte	0x2a7
 1186 03b9 0C       		.byte	0xc
 1187 03ba 06       		.uleb128 0x6
 1188 03bb 73020000 		.4byte	.LASF56
 1189 03bf 0A       		.byte	0xa
 1190 03c0 69       		.byte	0x69
ARM GAS  /tmp/ccM1PnCe.s 			page 22


 1191 03c1 ED010000 		.4byte	0x1ed
 1192 03c5 10       		.byte	0x10
 1193 03c6 00       		.byte	0
 1194 03c7 03       		.uleb128 0x3
 1195 03c8 90040000 		.4byte	.LASF57
 1196 03cc 0A       		.byte	0xa
 1197 03cd 6B       		.byte	0x6b
 1198 03ce 8E030000 		.4byte	0x38e
 1199 03d2 05       		.uleb128 0x5
 1200 03d3 EB010000 		.4byte	.LASF58
 1201 03d7 10       		.byte	0x10
 1202 03d8 0B       		.byte	0xb
 1203 03d9 2C       		.byte	0x2c
 1204 03da 03040000 		.4byte	0x403
 1205 03de 06       		.uleb128 0x6
 1206 03df 88000000 		.4byte	.LASF59
 1207 03e3 0B       		.byte	0xb
 1208 03e4 2D       		.byte	0x2d
 1209 03e5 F3010000 		.4byte	0x1f3
 1210 03e9 00       		.byte	0
 1211 03ea 06       		.uleb128 0x6
 1212 03eb DA040000 		.4byte	.LASF60
 1213 03ef 0B       		.byte	0xb
 1214 03f0 2F       		.byte	0x2f
 1215 03f1 ED010000 		.4byte	0x1ed
 1216 03f5 08       		.byte	0x8
 1217 03f6 06       		.uleb128 0x6
 1218 03f7 34040000 		.4byte	.LASF61
 1219 03fb 0B       		.byte	0xb
 1220 03fc 31       		.byte	0x31
 1221 03fd 03040000 		.4byte	0x403
 1222 0401 0C       		.byte	0xc
 1223 0402 00       		.byte	0
 1224 0403 09       		.uleb128 0x9
 1225 0404 04       		.byte	0x4
 1226 0405 D2030000 		.4byte	0x3d2
 1227 0409 03       		.uleb128 0x3
 1228 040a EB010000 		.4byte	.LASF58
 1229 040e 0B       		.byte	0xb
 1230 040f 33       		.byte	0x33
 1231 0410 D2030000 		.4byte	0x3d2
 1232 0414 10       		.uleb128 0x10
 1233 0415 04       		.byte	0x4
 1234 0416 07       		.byte	0x7
 1235 0417 96       		.byte	0x96
 1236 0418 49040000 		.4byte	0x449
 1237 041c 11       		.uleb128 0x11
 1238 041d 1A000000 		.4byte	.LASF62
 1239 0421 07       		.byte	0x7
 1240 0422 9D       		.byte	0x9d
 1241 0423 EB000000 		.4byte	0xeb
 1242 0427 11       		.uleb128 0x11
 1243 0428 54000000 		.4byte	.LASF63
 1244 042c 07       		.byte	0x7
 1245 042d A4       		.byte	0xa4
 1246 042e EB000000 		.4byte	0xeb
 1247 0432 11       		.uleb128 0x11
ARM GAS  /tmp/ccM1PnCe.s 			page 23


 1248 0433 B3040000 		.4byte	.LASF64
 1249 0437 07       		.byte	0x7
 1250 0438 AB       		.byte	0xab
 1251 0439 29020000 		.4byte	0x229
 1252 043d 11       		.uleb128 0x11
 1253 043e C7030000 		.4byte	.LASF65
 1254 0442 07       		.byte	0x7
 1255 0443 B2       		.byte	0xb2
 1256 0444 F6000000 		.4byte	0xf6
 1257 0448 00       		.byte	0
 1258 0449 09       		.uleb128 0x9
 1259 044a 04       		.byte	0x4
 1260 044b 09040000 		.4byte	0x409
 1261 044f 03       		.uleb128 0x3
 1262 0450 00000000 		.4byte	.LASF66
 1263 0454 07       		.byte	0x7
 1264 0455 E5       		.byte	0xe5
 1265 0456 5A040000 		.4byte	0x45a
 1266 045a 09       		.uleb128 0x9
 1267 045b 04       		.byte	0x4
 1268 045c 60040000 		.4byte	0x460
 1269 0460 12       		.uleb128 0x12
 1270 0461 EB000000 		.4byte	0xeb
 1271 0465 6F040000 		.4byte	0x46f
 1272 0469 0E       		.uleb128 0xe
 1273 046a 29020000 		.4byte	0x229
 1274 046e 00       		.byte	0
 1275 046f 13       		.uleb128 0x13
 1276 0470 06040000 		.4byte	.LASF68
 1277 0474 01       		.byte	0x1
 1278 0475 4C       		.byte	0x4c
 1279 0476 ED010000 		.4byte	0x1ed
 1280 047a 01       		.byte	0x1
 1281 047b 95040000 		.4byte	0x495
 1282 047f 14       		.uleb128 0x14
 1283 0480 747000   		.ascii	"tp\000"
 1284 0483 01       		.byte	0x1
 1285 0484 4C       		.byte	0x4c
 1286 0485 ED010000 		.4byte	0x1ed
 1287 0489 15       		.uleb128 0x15
 1288 048a 15000000 		.4byte	.LASF67
 1289 048e 01       		.byte	0x1
 1290 048f 4C       		.byte	0x4c
 1291 0490 E0000000 		.4byte	0xe0
 1292 0494 00       		.byte	0
 1293 0495 13       		.uleb128 0x13
 1294 0496 9A000000 		.4byte	.LASF69
 1295 049a 01       		.byte	0x1
 1296 049b 9D       		.byte	0x9d
 1297 049c ED010000 		.4byte	0x1ed
 1298 04a0 01       		.byte	0x1
 1299 04a1 E6040000 		.4byte	0x4e6
 1300 04a5 14       		.uleb128 0x14
 1301 04a6 77737000 		.ascii	"wsp\000"
 1302 04aa 01       		.byte	0x1
 1303 04ab 9D       		.byte	0x9d
 1304 04ac 29020000 		.4byte	0x229
ARM GAS  /tmp/ccM1PnCe.s 			page 24


 1305 04b0 15       		.uleb128 0x15
 1306 04b1 89010000 		.4byte	.LASF70
 1307 04b5 01       		.byte	0x1
 1308 04b6 9D       		.byte	0x9d
 1309 04b7 2C000000 		.4byte	0x2c
 1310 04bb 15       		.uleb128 0x15
 1311 04bc 15000000 		.4byte	.LASF67
 1312 04c0 01       		.byte	0x1
 1313 04c1 9E       		.byte	0x9e
 1314 04c2 E0000000 		.4byte	0xe0
 1315 04c6 14       		.uleb128 0x14
 1316 04c7 706600   		.ascii	"pf\000"
 1317 04ca 01       		.byte	0x1
 1318 04cb 9E       		.byte	0x9e
 1319 04cc 4F040000 		.4byte	0x44f
 1320 04d0 14       		.uleb128 0x14
 1321 04d1 61726700 		.ascii	"arg\000"
 1322 04d5 01       		.byte	0x1
 1323 04d6 9E       		.byte	0x9e
 1324 04d7 29020000 		.4byte	0x229
 1325 04db 16       		.uleb128 0x16
 1326 04dc 747000   		.ascii	"tp\000"
 1327 04df 01       		.byte	0x1
 1328 04e0 A0       		.byte	0xa0
 1329 04e1 ED010000 		.4byte	0x1ed
 1330 04e5 00       		.byte	0
 1331 04e6 17       		.uleb128 0x17
 1332 04e7 6F040000 		.4byte	0x46f
 1333 04eb 00000000 		.4byte	.LFB0
 1334 04ef 28000000 		.4byte	.LFE0-.LFB0
 1335 04f3 01       		.uleb128 0x1
 1336 04f4 9C       		.byte	0x9c
 1337 04f5 08050000 		.4byte	0x508
 1338 04f9 18       		.uleb128 0x18
 1339 04fa 7F040000 		.4byte	0x47f
 1340 04fe 01       		.uleb128 0x1
 1341 04ff 50       		.byte	0x50
 1342 0500 18       		.uleb128 0x18
 1343 0501 89040000 		.4byte	0x489
 1344 0505 01       		.uleb128 0x1
 1345 0506 51       		.byte	0x51
 1346 0507 00       		.byte	0
 1347 0508 17       		.uleb128 0x17
 1348 0509 95040000 		.4byte	0x495
 1349 050d 00000000 		.4byte	.LFB1
 1350 0511 4C000000 		.4byte	.LFE1-.LFB1
 1351 0515 01       		.uleb128 0x1
 1352 0516 9C       		.byte	0x9c
 1353 0517 6A050000 		.4byte	0x56a
 1354 051b 18       		.uleb128 0x18
 1355 051c A5040000 		.4byte	0x4a5
 1356 0520 01       		.uleb128 0x1
 1357 0521 50       		.byte	0x50
 1358 0522 19       		.uleb128 0x19
 1359 0523 B0040000 		.4byte	0x4b0
 1360 0527 00000000 		.4byte	.LLST0
 1361 052b 18       		.uleb128 0x18
ARM GAS  /tmp/ccM1PnCe.s 			page 25


 1362 052c BB040000 		.4byte	0x4bb
 1363 0530 01       		.uleb128 0x1
 1364 0531 52       		.byte	0x52
 1365 0532 19       		.uleb128 0x19
 1366 0533 C6040000 		.4byte	0x4c6
 1367 0537 2E000000 		.4byte	.LLST1
 1368 053b 19       		.uleb128 0x19
 1369 053c D0040000 		.4byte	0x4d0
 1370 0540 5B000000 		.4byte	.LLST2
 1371 0544 1A       		.uleb128 0x1a
 1372 0545 DB040000 		.4byte	0x4db
 1373 0549 01       		.uleb128 0x1
 1374 054a 50       		.byte	0x50
 1375 054b 1B       		.uleb128 0x1b
 1376 054c 6F040000 		.4byte	0x46f
 1377 0550 16000000 		.4byte	.LBB8
 1378 0554 00000000 		.4byte	.Ldebug_ranges0+0
 1379 0558 01       		.byte	0x1
 1380 0559 A8       		.byte	0xa8
 1381 055a 18       		.uleb128 0x18
 1382 055b 89040000 		.4byte	0x489
 1383 055f 01       		.uleb128 0x1
 1384 0560 52       		.byte	0x52
 1385 0561 18       		.uleb128 0x18
 1386 0562 7F040000 		.4byte	0x47f
 1387 0566 01       		.uleb128 0x1
 1388 0567 50       		.byte	0x50
 1389 0568 00       		.byte	0
 1390 0569 00       		.byte	0
 1391 056a 1C       		.uleb128 0x1c
 1392 056b F9010000 		.4byte	.LASF71
 1393 056f 01       		.byte	0x1
 1394 0570 BB       		.byte	0xbb
 1395 0571 ED010000 		.4byte	0x1ed
 1396 0575 00000000 		.4byte	.LFB2
 1397 0579 5C000000 		.4byte	.LFE2-.LFB2
 1398 057d 01       		.uleb128 0x1
 1399 057e 9C       		.byte	0x9c
 1400 057f 5F060000 		.4byte	0x65f
 1401 0583 1D       		.uleb128 0x1d
 1402 0584 77737000 		.ascii	"wsp\000"
 1403 0588 01       		.byte	0x1
 1404 0589 BB       		.byte	0xbb
 1405 058a 29020000 		.4byte	0x229
 1406 058e 7B000000 		.4byte	.LLST3
 1407 0592 1E       		.uleb128 0x1e
 1408 0593 89010000 		.4byte	.LASF70
 1409 0597 01       		.byte	0x1
 1410 0598 BB       		.byte	0xbb
 1411 0599 2C000000 		.4byte	0x2c
 1412 059d A4000000 		.4byte	.LLST4
 1413 05a1 1E       		.uleb128 0x1e
 1414 05a2 15000000 		.4byte	.LASF67
 1415 05a6 01       		.byte	0x1
 1416 05a7 BC       		.byte	0xbc
 1417 05a8 E0000000 		.4byte	0xe0
 1418 05ac D2000000 		.4byte	.LLST5
ARM GAS  /tmp/ccM1PnCe.s 			page 26


 1419 05b0 1D       		.uleb128 0x1d
 1420 05b1 706600   		.ascii	"pf\000"
 1421 05b4 01       		.byte	0x1
 1422 05b5 BC       		.byte	0xbc
 1423 05b6 4F040000 		.4byte	0x44f
 1424 05ba F3000000 		.4byte	.LLST6
 1425 05be 1D       		.uleb128 0x1d
 1426 05bf 61726700 		.ascii	"arg\000"
 1427 05c3 01       		.byte	0x1
 1428 05c4 BC       		.byte	0xbc
 1429 05c5 29020000 		.4byte	0x229
 1430 05c9 1F010000 		.4byte	.LLST7
 1431 05cd 16       		.uleb128 0x16
 1432 05ce 747000   		.ascii	"tp\000"
 1433 05d1 01       		.byte	0x1
 1434 05d2 BD       		.byte	0xbd
 1435 05d3 ED010000 		.4byte	0x1ed
 1436 05d7 1F       		.uleb128 0x1f
 1437 05d8 95040000 		.4byte	0x495
 1438 05dc 0C000000 		.4byte	.LBB12
 1439 05e0 18000000 		.4byte	.Ldebug_ranges0+0x18
 1440 05e4 01       		.byte	0x1
 1441 05e5 C8       		.byte	0xc8
 1442 05e6 49060000 		.4byte	0x649
 1443 05ea 19       		.uleb128 0x19
 1444 05eb D0040000 		.4byte	0x4d0
 1445 05ef 3F010000 		.4byte	.LLST8
 1446 05f3 19       		.uleb128 0x19
 1447 05f4 C6040000 		.4byte	0x4c6
 1448 05f8 6A010000 		.4byte	.LLST9
 1449 05fc 19       		.uleb128 0x19
 1450 05fd BB040000 		.4byte	0x4bb
 1451 0601 8B010000 		.4byte	.LLST10
 1452 0605 19       		.uleb128 0x19
 1453 0606 B0040000 		.4byte	0x4b0
 1454 060a AC010000 		.4byte	.LLST11
 1455 060e 19       		.uleb128 0x19
 1456 060f A5040000 		.4byte	0x4a5
 1457 0613 DA010000 		.4byte	.LLST12
 1458 0617 20       		.uleb128 0x20
 1459 0618 18000000 		.4byte	.Ldebug_ranges0+0x18
 1460 061c 21       		.uleb128 0x21
 1461 061d DB040000 		.4byte	0x4db
 1462 0621 DA010000 		.4byte	.LLST12
 1463 0625 1B       		.uleb128 0x1b
 1464 0626 6F040000 		.4byte	0x46f
 1465 062a 1E000000 		.4byte	.LBB14
 1466 062e 30000000 		.4byte	.Ldebug_ranges0+0x30
 1467 0632 01       		.byte	0x1
 1468 0633 A8       		.byte	0xa8
 1469 0634 19       		.uleb128 0x19
 1470 0635 89040000 		.4byte	0x489
 1471 0639 03020000 		.4byte	.LLST14
 1472 063d 19       		.uleb128 0x19
 1473 063e 7F040000 		.4byte	0x47f
 1474 0642 24020000 		.4byte	.LLST15
 1475 0646 00       		.byte	0
ARM GAS  /tmp/ccM1PnCe.s 			page 27


 1476 0647 00       		.byte	0
 1477 0648 00       		.byte	0
 1478 0649 22       		.uleb128 0x22
 1479 064a 4E000000 		.4byte	.LVL15
 1480 064e 9F080000 		.4byte	0x89f
 1481 0652 23       		.uleb128 0x23
 1482 0653 01       		.uleb128 0x1
 1483 0654 51       		.byte	0x51
 1484 0655 01       		.uleb128 0x1
 1485 0656 30       		.byte	0x30
 1486 0657 23       		.uleb128 0x23
 1487 0658 01       		.uleb128 0x1
 1488 0659 50       		.byte	0x50
 1489 065a 02       		.uleb128 0x2
 1490 065b 74       		.byte	0x74
 1491 065c 00       		.sleb128 0
 1492 065d 00       		.byte	0
 1493 065e 00       		.byte	0
 1494 065f 1C       		.uleb128 0x1c
 1495 0660 F2000000 		.4byte	.LASF72
 1496 0664 01       		.byte	0x1
 1497 0665 D9       		.byte	0xd9
 1498 0666 E0000000 		.4byte	0xe0
 1499 066a 00000000 		.4byte	.LFB3
 1500 066e 30000000 		.4byte	.LFE3-.LFB3
 1501 0672 01       		.uleb128 0x1
 1502 0673 9C       		.byte	0x9c
 1503 0674 A0060000 		.4byte	0x6a0
 1504 0678 1E       		.uleb128 0x1e
 1505 0679 B4010000 		.4byte	.LASF73
 1506 067d 01       		.byte	0x1
 1507 067e D9       		.byte	0xd9
 1508 067f E0000000 		.4byte	0xe0
 1509 0683 4D020000 		.4byte	.LLST16
 1510 0687 24       		.uleb128 0x24
 1511 0688 F1010000 		.4byte	.LASF81
 1512 068c 01       		.byte	0x1
 1513 068d DA       		.byte	0xda
 1514 068e E0000000 		.4byte	0xe0
 1515 0692 79020000 		.4byte	.LLST17
 1516 0696 25       		.uleb128 0x25
 1517 0697 22000000 		.4byte	.LVL20
 1518 069b B5080000 		.4byte	0x8b5
 1519 069f 00       		.byte	0
 1520 06a0 1C       		.uleb128 0x1c
 1521 06a1 24020000 		.4byte	.LASF74
 1522 06a5 01       		.byte	0x1
 1523 06a6 FA       		.byte	0xfa
 1524 06a7 ED010000 		.4byte	0x1ed
 1525 06ab 00000000 		.4byte	.LFB4
 1526 06af 16000000 		.4byte	.LFE4-.LFB4
 1527 06b3 01       		.uleb128 0x1
 1528 06b4 9C       		.byte	0x9c
 1529 06b5 DD060000 		.4byte	0x6dd
 1530 06b9 1D       		.uleb128 0x1d
 1531 06ba 747000   		.ascii	"tp\000"
 1532 06bd 01       		.byte	0x1
ARM GAS  /tmp/ccM1PnCe.s 			page 28


 1533 06be FA       		.byte	0xfa
 1534 06bf ED010000 		.4byte	0x1ed
 1535 06c3 97020000 		.4byte	.LLST18
 1536 06c7 22       		.uleb128 0x22
 1537 06c8 0E000000 		.4byte	.LVL23
 1538 06cc 9F080000 		.4byte	0x89f
 1539 06d0 23       		.uleb128 0x23
 1540 06d1 01       		.uleb128 0x1
 1541 06d2 51       		.byte	0x51
 1542 06d3 01       		.uleb128 0x1
 1543 06d4 30       		.byte	0x30
 1544 06d5 23       		.uleb128 0x23
 1545 06d6 01       		.uleb128 0x1
 1546 06d7 50       		.byte	0x50
 1547 06d8 02       		.uleb128 0x2
 1548 06d9 74       		.byte	0x74
 1549 06da 00       		.sleb128 0
 1550 06db 00       		.byte	0
 1551 06dc 00       		.byte	0
 1552 06dd 26       		.uleb128 0x26
 1553 06de C4010000 		.4byte	.LASF75
 1554 06e2 01       		.byte	0x1
 1555 06e3 1101     		.2byte	0x111
 1556 06e5 00000000 		.4byte	.LFB5
 1557 06e9 16000000 		.4byte	.LFE5-.LFB5
 1558 06ed 01       		.uleb128 0x1
 1559 06ee 9C       		.byte	0x9c
 1560 06ef 01070000 		.4byte	0x701
 1561 06f3 27       		.uleb128 0x27
 1562 06f4 747000   		.ascii	"tp\000"
 1563 06f7 01       		.byte	0x1
 1564 06f8 1101     		.2byte	0x111
 1565 06fa ED010000 		.4byte	0x1ed
 1566 06fe 01       		.uleb128 0x1
 1567 06ff 50       		.byte	0x50
 1568 0700 00       		.byte	0
 1569 0701 26       		.uleb128 0x26
 1570 0702 85040000 		.4byte	.LASF76
 1571 0706 01       		.byte	0x1
 1572 0707 2401     		.2byte	0x124
 1573 0709 00000000 		.4byte	.LFB6
 1574 070d 14000000 		.4byte	.LFE6-.LFB6
 1575 0711 01       		.uleb128 0x1
 1576 0712 9C       		.byte	0x9c
 1577 0713 3E070000 		.4byte	0x73e
 1578 0717 28       		.uleb128 0x28
 1579 0718 62020000 		.4byte	.LASF77
 1580 071c 01       		.byte	0x1
 1581 071d 2401     		.2byte	0x124
 1582 071f 01010000 		.4byte	0x101
 1583 0723 B5020000 		.4byte	.LLST19
 1584 0727 22       		.uleb128 0x22
 1585 0728 0E000000 		.4byte	.LVL27
 1586 072c BC080000 		.4byte	0x8bc
 1587 0730 23       		.uleb128 0x23
 1588 0731 01       		.uleb128 0x1
 1589 0732 51       		.byte	0x51
ARM GAS  /tmp/ccM1PnCe.s 			page 29


 1590 0733 03       		.uleb128 0x3
 1591 0734 F3       		.byte	0xf3
 1592 0735 01       		.uleb128 0x1
 1593 0736 50       		.byte	0x50
 1594 0737 23       		.uleb128 0x23
 1595 0738 01       		.uleb128 0x1
 1596 0739 50       		.byte	0x50
 1597 073a 01       		.uleb128 0x1
 1598 073b 36       		.byte	0x36
 1599 073c 00       		.byte	0
 1600 073d 00       		.byte	0
 1601 073e 26       		.uleb128 0x26
 1602 073f 7D020000 		.4byte	.LASF78
 1603 0743 01       		.byte	0x1
 1604 0744 3501     		.2byte	0x135
 1605 0746 00000000 		.4byte	.LFB7
 1606 074a 20000000 		.4byte	.LFE7-.LFB7
 1607 074e 01       		.uleb128 0x1
 1608 074f 9C       		.byte	0x9c
 1609 0750 74070000 		.4byte	0x774
 1610 0754 28       		.uleb128 0x28
 1611 0755 62020000 		.4byte	.LASF77
 1612 0759 01       		.byte	0x1
 1613 075a 3501     		.2byte	0x135
 1614 075c 01010000 		.4byte	0x101
 1615 0760 E1020000 		.4byte	.LLST20
 1616 0764 22       		.uleb128 0x22
 1617 0765 14000000 		.4byte	.LVL31
 1618 0769 BC080000 		.4byte	0x8bc
 1619 076d 23       		.uleb128 0x23
 1620 076e 01       		.uleb128 0x1
 1621 076f 50       		.byte	0x50
 1622 0770 01       		.uleb128 0x1
 1623 0771 36       		.byte	0x36
 1624 0772 00       		.byte	0
 1625 0773 00       		.byte	0
 1626 0774 26       		.uleb128 0x26
 1627 0775 A8040000 		.4byte	.LASF79
 1628 0779 01       		.byte	0x1
 1629 077a 4401     		.2byte	0x144
 1630 077c 00000000 		.4byte	.LFB8
 1631 0780 24000000 		.4byte	.LFE8-.LFB8
 1632 0784 01       		.uleb128 0x1
 1633 0785 9C       		.byte	0x9c
 1634 0786 94070000 		.4byte	0x794
 1635 078a 25       		.uleb128 0x25
 1636 078b 18000000 		.4byte	.LVL32
 1637 078f D6080000 		.4byte	0x8d6
 1638 0793 00       		.byte	0
 1639 0794 26       		.uleb128 0x26
 1640 0795 32000000 		.4byte	.LASF80
 1641 0799 01       		.byte	0x1
 1642 079a 6E01     		.2byte	0x16e
 1643 079c 00000000 		.4byte	.LFB10
 1644 07a0 30000000 		.4byte	.LFE10-.LFB10
 1645 07a4 01       		.uleb128 0x1
 1646 07a5 9C       		.byte	0x9c
ARM GAS  /tmp/ccM1PnCe.s 			page 30


 1647 07a6 F6070000 		.4byte	0x7f6
 1648 07aa 29       		.uleb128 0x29
 1649 07ab 6D736700 		.ascii	"msg\000"
 1650 07af 01       		.byte	0x1
 1651 07b0 6E01     		.2byte	0x16e
 1652 07b2 EB000000 		.4byte	0xeb
 1653 07b6 0F030000 		.4byte	.LLST21
 1654 07ba 2A       		.uleb128 0x2a
 1655 07bb 747000   		.ascii	"tp\000"
 1656 07be 01       		.byte	0x1
 1657 07bf 6F01     		.2byte	0x16f
 1658 07c1 ED010000 		.4byte	0x1ed
 1659 07c5 30030000 		.4byte	.LLST22
 1660 07c9 2B       		.uleb128 0x2b
 1661 07ca 18000000 		.4byte	.LVL36
 1662 07ce DD080000 		.4byte	0x8dd
 1663 07d2 DD070000 		.4byte	0x7dd
 1664 07d6 23       		.uleb128 0x23
 1665 07d7 01       		.uleb128 0x1
 1666 07d8 50       		.byte	0x50
 1667 07d9 02       		.uleb128 0x2
 1668 07da 74       		.byte	0x74
 1669 07db 00       		.sleb128 0
 1670 07dc 00       		.byte	0
 1671 07dd 25       		.uleb128 0x25
 1672 07de 1C000000 		.4byte	.LVL37
 1673 07e2 F8080000 		.4byte	0x8f8
 1674 07e6 2C       		.uleb128 0x2c
 1675 07e7 2C000000 		.4byte	.LVL39
 1676 07eb 0D090000 		.4byte	0x90d
 1677 07ef 23       		.uleb128 0x23
 1678 07f0 01       		.uleb128 0x1
 1679 07f1 50       		.byte	0x50
 1680 07f2 01       		.uleb128 0x1
 1681 07f3 3E       		.byte	0x3e
 1682 07f4 00       		.byte	0
 1683 07f5 00       		.byte	0
 1684 07f6 26       		.uleb128 0x26
 1685 07f7 7E000000 		.4byte	.LASF82
 1686 07fb 01       		.byte	0x1
 1687 07fc 5901     		.2byte	0x159
 1688 07fe 00000000 		.4byte	.LFB9
 1689 0802 0E000000 		.4byte	.LFE9-.LFB9
 1690 0806 01       		.uleb128 0x1
 1691 0807 9C       		.byte	0x9c
 1692 0808 2E080000 		.4byte	0x82e
 1693 080c 29       		.uleb128 0x29
 1694 080d 6D736700 		.ascii	"msg\000"
 1695 0811 01       		.byte	0x1
 1696 0812 5901     		.2byte	0x159
 1697 0814 EB000000 		.4byte	0xeb
 1698 0818 43030000 		.4byte	.LLST23
 1699 081c 2C       		.uleb128 0x2c
 1700 081d 0E000000 		.4byte	.LVL41
 1701 0821 94070000 		.4byte	0x794
 1702 0825 23       		.uleb128 0x23
 1703 0826 01       		.uleb128 0x1
ARM GAS  /tmp/ccM1PnCe.s 			page 31


 1704 0827 50       		.byte	0x50
 1705 0828 03       		.uleb128 0x3
 1706 0829 F3       		.byte	0xf3
 1707 082a 01       		.uleb128 0x1
 1708 082b 50       		.byte	0x50
 1709 082c 00       		.byte	0
 1710 082d 00       		.byte	0
 1711 082e 2D       		.uleb128 0x2d
 1712 082f 74040000 		.4byte	.LASF83
 1713 0833 01       		.byte	0x1
 1714 0834 A401     		.2byte	0x1a4
 1715 0836 EB000000 		.4byte	0xeb
 1716 083a 00000000 		.4byte	.LFB11
 1717 083e 2C000000 		.4byte	.LFE11-.LFB11
 1718 0842 01       		.uleb128 0x1
 1719 0843 9C       		.byte	0x9c
 1720 0844 89080000 		.4byte	0x889
 1721 0848 29       		.uleb128 0x29
 1722 0849 747000   		.ascii	"tp\000"
 1723 084c 01       		.byte	0x1
 1724 084d A401     		.2byte	0x1a4
 1725 084f ED010000 		.4byte	0x1ed
 1726 0853 64030000 		.4byte	.LLST24
 1727 0857 2E       		.uleb128 0x2e
 1728 0858 6D736700 		.ascii	"msg\000"
 1729 085c 01       		.byte	0x1
 1730 085d A501     		.2byte	0x1a5
 1731 085f EB000000 		.4byte	0xeb
 1732 0863 01       		.uleb128 0x1
 1733 0864 50       		.byte	0x50
 1734 0865 2B       		.uleb128 0x2b
 1735 0866 1A000000 		.4byte	.LVL44
 1736 086a 1E090000 		.4byte	0x91e
 1737 086e 79080000 		.4byte	0x879
 1738 0872 23       		.uleb128 0x23
 1739 0873 01       		.uleb128 0x1
 1740 0874 51       		.byte	0x51
 1741 0875 02       		.uleb128 0x2
 1742 0876 74       		.byte	0x74
 1743 0877 18       		.sleb128 24
 1744 0878 00       		.byte	0
 1745 0879 22       		.uleb128 0x22
 1746 087a 20000000 		.4byte	.LVL45
 1747 087e 0D090000 		.4byte	0x90d
 1748 0882 23       		.uleb128 0x23
 1749 0883 01       		.uleb128 0x1
 1750 0884 50       		.byte	0x50
 1751 0885 01       		.uleb128 0x1
 1752 0886 37       		.byte	0x37
 1753 0887 00       		.byte	0
 1754 0888 00       		.byte	0
 1755 0889 2F       		.uleb128 0x2f
 1756 088a 2B000000 		.4byte	.LASF84
 1757 088e 09       		.byte	0x9
 1758 088f F5       		.byte	0xf5
 1759 0890 83030000 		.4byte	0x383
 1760 0894 2F       		.uleb128 0x2f
ARM GAS  /tmp/ccM1PnCe.s 			page 32


 1761 0895 9A040000 		.4byte	.LASF85
 1762 0899 0A       		.byte	0xa
 1763 089a 6F       		.byte	0x6f
 1764 089b C7030000 		.4byte	0x3c7
 1765 089f 30       		.uleb128 0x30
 1766 08a0 A1010000 		.4byte	.LASF91
 1767 08a4 0A       		.byte	0xa
 1768 08a5 99       		.byte	0x99
 1769 08a6 B5080000 		.4byte	0x8b5
 1770 08aa 0E       		.uleb128 0xe
 1771 08ab ED010000 		.4byte	0x1ed
 1772 08af 0E       		.uleb128 0xe
 1773 08b0 EB000000 		.4byte	0xeb
 1774 08b4 00       		.byte	0
 1775 08b5 31       		.uleb128 0x31
 1776 08b6 C5000000 		.4byte	.LASF87
 1777 08ba 0A       		.byte	0xa
 1778 08bb 9C       		.byte	0x9c
 1779 08bc 32       		.uleb128 0x32
 1780 08bd C5040000 		.4byte	.LASF86
 1781 08c1 0A       		.byte	0xa
 1782 08c2 96       		.byte	0x96
 1783 08c3 EB000000 		.4byte	0xeb
 1784 08c7 D6080000 		.4byte	0x8d6
 1785 08cb 0E       		.uleb128 0xe
 1786 08cc CA000000 		.4byte	0xca
 1787 08d0 0E       		.uleb128 0xe
 1788 08d1 01010000 		.4byte	0x101
 1789 08d5 00       		.byte	0
 1790 08d6 31       		.uleb128 0x31
 1791 08d7 30020000 		.4byte	.LASF88
 1792 08db 0A       		.byte	0xa
 1793 08dc A2       		.byte	0xa2
 1794 08dd 32       		.uleb128 0x32
 1795 08de B9000000 		.4byte	.LASF89
 1796 08e2 06       		.byte	0x6
 1797 08e3 7D       		.byte	0x7d
 1798 08e4 ED010000 		.4byte	0x1ed
 1799 08e8 F2080000 		.4byte	0x8f2
 1800 08ec 0E       		.uleb128 0xe
 1801 08ed F2080000 		.4byte	0x8f2
 1802 08f1 00       		.byte	0
 1803 08f2 09       		.uleb128 0x9
 1804 08f3 04       		.byte	0x4
 1805 08f4 13020000 		.4byte	0x213
 1806 08f8 32       		.uleb128 0x32
 1807 08f9 28040000 		.4byte	.LASF90
 1808 08fd 0A       		.byte	0xa
 1809 08fe 90       		.byte	0x90
 1810 08ff ED010000 		.4byte	0x1ed
 1811 0903 0D090000 		.4byte	0x90d
 1812 0907 0E       		.uleb128 0xe
 1813 0908 ED010000 		.4byte	0x1ed
 1814 090c 00       		.byte	0
 1815 090d 30       		.uleb128 0x30
 1816 090e E4030000 		.4byte	.LASF92
 1817 0912 0A       		.byte	0xa
ARM GAS  /tmp/ccM1PnCe.s 			page 33


 1818 0913 93       		.byte	0x93
 1819 0914 1E090000 		.4byte	0x91e
 1820 0918 0E       		.uleb128 0xe
 1821 0919 CA000000 		.4byte	0xca
 1822 091d 00       		.byte	0
 1823 091e 33       		.uleb128 0x33
 1824 091f 67020000 		.4byte	.LASF96
 1825 0923 06       		.byte	0x6
 1826 0924 7C       		.byte	0x7c
 1827 0925 0E       		.uleb128 0xe
 1828 0926 ED010000 		.4byte	0x1ed
 1829 092a 0E       		.uleb128 0xe
 1830 092b F2080000 		.4byte	0x8f2
 1831 092f 00       		.byte	0
 1832 0930 00       		.byte	0
 1833              		.section	.debug_abbrev,"",%progbits
 1834              	.Ldebug_abbrev0:
 1835 0000 01       		.uleb128 0x1
 1836 0001 11       		.uleb128 0x11
 1837 0002 01       		.byte	0x1
 1838 0003 25       		.uleb128 0x25
 1839 0004 0E       		.uleb128 0xe
 1840 0005 13       		.uleb128 0x13
 1841 0006 0B       		.uleb128 0xb
 1842 0007 03       		.uleb128 0x3
 1843 0008 0E       		.uleb128 0xe
 1844 0009 1B       		.uleb128 0x1b
 1845 000a 0E       		.uleb128 0xe
 1846 000b 55       		.uleb128 0x55
 1847 000c 17       		.uleb128 0x17
 1848 000d 11       		.uleb128 0x11
 1849 000e 01       		.uleb128 0x1
 1850 000f 10       		.uleb128 0x10
 1851 0010 17       		.uleb128 0x17
 1852 0011 00       		.byte	0
 1853 0012 00       		.byte	0
 1854 0013 02       		.uleb128 0x2
 1855 0014 24       		.uleb128 0x24
 1856 0015 00       		.byte	0
 1857 0016 0B       		.uleb128 0xb
 1858 0017 0B       		.uleb128 0xb
 1859 0018 3E       		.uleb128 0x3e
 1860 0019 0B       		.uleb128 0xb
 1861 001a 03       		.uleb128 0x3
 1862 001b 08       		.uleb128 0x8
 1863 001c 00       		.byte	0
 1864 001d 00       		.byte	0
 1865 001e 03       		.uleb128 0x3
 1866 001f 16       		.uleb128 0x16
 1867 0020 00       		.byte	0
 1868 0021 03       		.uleb128 0x3
 1869 0022 0E       		.uleb128 0xe
 1870 0023 3A       		.uleb128 0x3a
 1871 0024 0B       		.uleb128 0xb
 1872 0025 3B       		.uleb128 0x3b
 1873 0026 0B       		.uleb128 0xb
 1874 0027 49       		.uleb128 0x49
ARM GAS  /tmp/ccM1PnCe.s 			page 34


 1875 0028 13       		.uleb128 0x13
 1876 0029 00       		.byte	0
 1877 002a 00       		.byte	0
 1878 002b 04       		.uleb128 0x4
 1879 002c 24       		.uleb128 0x24
 1880 002d 00       		.byte	0
 1881 002e 0B       		.uleb128 0xb
 1882 002f 0B       		.uleb128 0xb
 1883 0030 3E       		.uleb128 0x3e
 1884 0031 0B       		.uleb128 0xb
 1885 0032 03       		.uleb128 0x3
 1886 0033 0E       		.uleb128 0xe
 1887 0034 00       		.byte	0
 1888 0035 00       		.byte	0
 1889 0036 05       		.uleb128 0x5
 1890 0037 13       		.uleb128 0x13
 1891 0038 01       		.byte	0x1
 1892 0039 03       		.uleb128 0x3
 1893 003a 0E       		.uleb128 0xe
 1894 003b 0B       		.uleb128 0xb
 1895 003c 0B       		.uleb128 0xb
 1896 003d 3A       		.uleb128 0x3a
 1897 003e 0B       		.uleb128 0xb
 1898 003f 3B       		.uleb128 0x3b
 1899 0040 0B       		.uleb128 0xb
 1900 0041 01       		.uleb128 0x1
 1901 0042 13       		.uleb128 0x13
 1902 0043 00       		.byte	0
 1903 0044 00       		.byte	0
 1904 0045 06       		.uleb128 0x6
 1905 0046 0D       		.uleb128 0xd
 1906 0047 00       		.byte	0
 1907 0048 03       		.uleb128 0x3
 1908 0049 0E       		.uleb128 0xe
 1909 004a 3A       		.uleb128 0x3a
 1910 004b 0B       		.uleb128 0xb
 1911 004c 3B       		.uleb128 0x3b
 1912 004d 0B       		.uleb128 0xb
 1913 004e 49       		.uleb128 0x49
 1914 004f 13       		.uleb128 0x13
 1915 0050 38       		.uleb128 0x38
 1916 0051 0B       		.uleb128 0xb
 1917 0052 00       		.byte	0
 1918 0053 00       		.byte	0
 1919 0054 07       		.uleb128 0x7
 1920 0055 0D       		.uleb128 0xd
 1921 0056 00       		.byte	0
 1922 0057 03       		.uleb128 0x3
 1923 0058 08       		.uleb128 0x8
 1924 0059 3A       		.uleb128 0x3a
 1925 005a 0B       		.uleb128 0xb
 1926 005b 3B       		.uleb128 0x3b
 1927 005c 0B       		.uleb128 0xb
 1928 005d 49       		.uleb128 0x49
 1929 005e 13       		.uleb128 0x13
 1930 005f 38       		.uleb128 0x38
 1931 0060 0B       		.uleb128 0xb
ARM GAS  /tmp/ccM1PnCe.s 			page 35


 1932 0061 00       		.byte	0
 1933 0062 00       		.byte	0
 1934 0063 08       		.uleb128 0x8
 1935 0064 13       		.uleb128 0x13
 1936 0065 01       		.byte	0x1
 1937 0066 0B       		.uleb128 0xb
 1938 0067 0B       		.uleb128 0xb
 1939 0068 3A       		.uleb128 0x3a
 1940 0069 0B       		.uleb128 0xb
 1941 006a 3B       		.uleb128 0x3b
 1942 006b 0B       		.uleb128 0xb
 1943 006c 01       		.uleb128 0x1
 1944 006d 13       		.uleb128 0x13
 1945 006e 00       		.byte	0
 1946 006f 00       		.byte	0
 1947 0070 09       		.uleb128 0x9
 1948 0071 0F       		.uleb128 0xf
 1949 0072 00       		.byte	0
 1950 0073 0B       		.uleb128 0xb
 1951 0074 0B       		.uleb128 0xb
 1952 0075 49       		.uleb128 0x49
 1953 0076 13       		.uleb128 0x13
 1954 0077 00       		.byte	0
 1955 0078 00       		.byte	0
 1956 0079 0A       		.uleb128 0xa
 1957 007a 0F       		.uleb128 0xf
 1958 007b 00       		.byte	0
 1959 007c 0B       		.uleb128 0xb
 1960 007d 0B       		.uleb128 0xb
 1961 007e 00       		.byte	0
 1962 007f 00       		.byte	0
 1963 0080 0B       		.uleb128 0xb
 1964 0081 13       		.uleb128 0x13
 1965 0082 01       		.byte	0x1
 1966 0083 03       		.uleb128 0x3
 1967 0084 0E       		.uleb128 0xe
 1968 0085 0B       		.uleb128 0xb
 1969 0086 0B       		.uleb128 0xb
 1970 0087 3A       		.uleb128 0x3a
 1971 0088 0B       		.uleb128 0xb
 1972 0089 3B       		.uleb128 0x3b
 1973 008a 05       		.uleb128 0x5
 1974 008b 01       		.uleb128 0x1
 1975 008c 13       		.uleb128 0x13
 1976 008d 00       		.byte	0
 1977 008e 00       		.byte	0
 1978 008f 0C       		.uleb128 0xc
 1979 0090 0D       		.uleb128 0xd
 1980 0091 00       		.byte	0
 1981 0092 03       		.uleb128 0x3
 1982 0093 08       		.uleb128 0x8
 1983 0094 3A       		.uleb128 0x3a
 1984 0095 0B       		.uleb128 0xb
 1985 0096 3B       		.uleb128 0x3b
 1986 0097 05       		.uleb128 0x5
 1987 0098 49       		.uleb128 0x49
 1988 0099 13       		.uleb128 0x13
ARM GAS  /tmp/ccM1PnCe.s 			page 36


 1989 009a 38       		.uleb128 0x38
 1990 009b 0B       		.uleb128 0xb
 1991 009c 00       		.byte	0
 1992 009d 00       		.byte	0
 1993 009e 0D       		.uleb128 0xd
 1994 009f 15       		.uleb128 0x15
 1995 00a0 01       		.byte	0x1
 1996 00a1 27       		.uleb128 0x27
 1997 00a2 19       		.uleb128 0x19
 1998 00a3 01       		.uleb128 0x1
 1999 00a4 13       		.uleb128 0x13
 2000 00a5 00       		.byte	0
 2001 00a6 00       		.byte	0
 2002 00a7 0E       		.uleb128 0xe
 2003 00a8 05       		.uleb128 0x5
 2004 00a9 00       		.byte	0
 2005 00aa 49       		.uleb128 0x49
 2006 00ab 13       		.uleb128 0x13
 2007 00ac 00       		.byte	0
 2008 00ad 00       		.byte	0
 2009 00ae 0F       		.uleb128 0xf
 2010 00af 35       		.uleb128 0x35
 2011 00b0 00       		.byte	0
 2012 00b1 49       		.uleb128 0x49
 2013 00b2 13       		.uleb128 0x13
 2014 00b3 00       		.byte	0
 2015 00b4 00       		.byte	0
 2016 00b5 10       		.uleb128 0x10
 2017 00b6 17       		.uleb128 0x17
 2018 00b7 01       		.byte	0x1
 2019 00b8 0B       		.uleb128 0xb
 2020 00b9 0B       		.uleb128 0xb
 2021 00ba 3A       		.uleb128 0x3a
 2022 00bb 0B       		.uleb128 0xb
 2023 00bc 3B       		.uleb128 0x3b
 2024 00bd 0B       		.uleb128 0xb
 2025 00be 01       		.uleb128 0x1
 2026 00bf 13       		.uleb128 0x13
 2027 00c0 00       		.byte	0
 2028 00c1 00       		.byte	0
 2029 00c2 11       		.uleb128 0x11
 2030 00c3 0D       		.uleb128 0xd
 2031 00c4 00       		.byte	0
 2032 00c5 03       		.uleb128 0x3
 2033 00c6 0E       		.uleb128 0xe
 2034 00c7 3A       		.uleb128 0x3a
 2035 00c8 0B       		.uleb128 0xb
 2036 00c9 3B       		.uleb128 0x3b
 2037 00ca 0B       		.uleb128 0xb
 2038 00cb 49       		.uleb128 0x49
 2039 00cc 13       		.uleb128 0x13
 2040 00cd 00       		.byte	0
 2041 00ce 00       		.byte	0
 2042 00cf 12       		.uleb128 0x12
 2043 00d0 15       		.uleb128 0x15
 2044 00d1 01       		.byte	0x1
 2045 00d2 27       		.uleb128 0x27
ARM GAS  /tmp/ccM1PnCe.s 			page 37


 2046 00d3 19       		.uleb128 0x19
 2047 00d4 49       		.uleb128 0x49
 2048 00d5 13       		.uleb128 0x13
 2049 00d6 01       		.uleb128 0x1
 2050 00d7 13       		.uleb128 0x13
 2051 00d8 00       		.byte	0
 2052 00d9 00       		.byte	0
 2053 00da 13       		.uleb128 0x13
 2054 00db 2E       		.uleb128 0x2e
 2055 00dc 01       		.byte	0x1
 2056 00dd 3F       		.uleb128 0x3f
 2057 00de 19       		.uleb128 0x19
 2058 00df 03       		.uleb128 0x3
 2059 00e0 0E       		.uleb128 0xe
 2060 00e1 3A       		.uleb128 0x3a
 2061 00e2 0B       		.uleb128 0xb
 2062 00e3 3B       		.uleb128 0x3b
 2063 00e4 0B       		.uleb128 0xb
 2064 00e5 27       		.uleb128 0x27
 2065 00e6 19       		.uleb128 0x19
 2066 00e7 49       		.uleb128 0x49
 2067 00e8 13       		.uleb128 0x13
 2068 00e9 20       		.uleb128 0x20
 2069 00ea 0B       		.uleb128 0xb
 2070 00eb 01       		.uleb128 0x1
 2071 00ec 13       		.uleb128 0x13
 2072 00ed 00       		.byte	0
 2073 00ee 00       		.byte	0
 2074 00ef 14       		.uleb128 0x14
 2075 00f0 05       		.uleb128 0x5
 2076 00f1 00       		.byte	0
 2077 00f2 03       		.uleb128 0x3
 2078 00f3 08       		.uleb128 0x8
 2079 00f4 3A       		.uleb128 0x3a
 2080 00f5 0B       		.uleb128 0xb
 2081 00f6 3B       		.uleb128 0x3b
 2082 00f7 0B       		.uleb128 0xb
 2083 00f8 49       		.uleb128 0x49
 2084 00f9 13       		.uleb128 0x13
 2085 00fa 00       		.byte	0
 2086 00fb 00       		.byte	0
 2087 00fc 15       		.uleb128 0x15
 2088 00fd 05       		.uleb128 0x5
 2089 00fe 00       		.byte	0
 2090 00ff 03       		.uleb128 0x3
 2091 0100 0E       		.uleb128 0xe
 2092 0101 3A       		.uleb128 0x3a
 2093 0102 0B       		.uleb128 0xb
 2094 0103 3B       		.uleb128 0x3b
 2095 0104 0B       		.uleb128 0xb
 2096 0105 49       		.uleb128 0x49
 2097 0106 13       		.uleb128 0x13
 2098 0107 00       		.byte	0
 2099 0108 00       		.byte	0
 2100 0109 16       		.uleb128 0x16
 2101 010a 34       		.uleb128 0x34
 2102 010b 00       		.byte	0
ARM GAS  /tmp/ccM1PnCe.s 			page 38


 2103 010c 03       		.uleb128 0x3
 2104 010d 08       		.uleb128 0x8
 2105 010e 3A       		.uleb128 0x3a
 2106 010f 0B       		.uleb128 0xb
 2107 0110 3B       		.uleb128 0x3b
 2108 0111 0B       		.uleb128 0xb
 2109 0112 49       		.uleb128 0x49
 2110 0113 13       		.uleb128 0x13
 2111 0114 00       		.byte	0
 2112 0115 00       		.byte	0
 2113 0116 17       		.uleb128 0x17
 2114 0117 2E       		.uleb128 0x2e
 2115 0118 01       		.byte	0x1
 2116 0119 31       		.uleb128 0x31
 2117 011a 13       		.uleb128 0x13
 2118 011b 11       		.uleb128 0x11
 2119 011c 01       		.uleb128 0x1
 2120 011d 12       		.uleb128 0x12
 2121 011e 06       		.uleb128 0x6
 2122 011f 40       		.uleb128 0x40
 2123 0120 18       		.uleb128 0x18
 2124 0121 9742     		.uleb128 0x2117
 2125 0123 19       		.uleb128 0x19
 2126 0124 01       		.uleb128 0x1
 2127 0125 13       		.uleb128 0x13
 2128 0126 00       		.byte	0
 2129 0127 00       		.byte	0
 2130 0128 18       		.uleb128 0x18
 2131 0129 05       		.uleb128 0x5
 2132 012a 00       		.byte	0
 2133 012b 31       		.uleb128 0x31
 2134 012c 13       		.uleb128 0x13
 2135 012d 02       		.uleb128 0x2
 2136 012e 18       		.uleb128 0x18
 2137 012f 00       		.byte	0
 2138 0130 00       		.byte	0
 2139 0131 19       		.uleb128 0x19
 2140 0132 05       		.uleb128 0x5
 2141 0133 00       		.byte	0
 2142 0134 31       		.uleb128 0x31
 2143 0135 13       		.uleb128 0x13
 2144 0136 02       		.uleb128 0x2
 2145 0137 17       		.uleb128 0x17
 2146 0138 00       		.byte	0
 2147 0139 00       		.byte	0
 2148 013a 1A       		.uleb128 0x1a
 2149 013b 34       		.uleb128 0x34
 2150 013c 00       		.byte	0
 2151 013d 31       		.uleb128 0x31
 2152 013e 13       		.uleb128 0x13
 2153 013f 02       		.uleb128 0x2
 2154 0140 18       		.uleb128 0x18
 2155 0141 00       		.byte	0
 2156 0142 00       		.byte	0
 2157 0143 1B       		.uleb128 0x1b
 2158 0144 1D       		.uleb128 0x1d
 2159 0145 01       		.byte	0x1
ARM GAS  /tmp/ccM1PnCe.s 			page 39


 2160 0146 31       		.uleb128 0x31
 2161 0147 13       		.uleb128 0x13
 2162 0148 52       		.uleb128 0x52
 2163 0149 01       		.uleb128 0x1
 2164 014a 55       		.uleb128 0x55
 2165 014b 17       		.uleb128 0x17
 2166 014c 58       		.uleb128 0x58
 2167 014d 0B       		.uleb128 0xb
 2168 014e 59       		.uleb128 0x59
 2169 014f 0B       		.uleb128 0xb
 2170 0150 00       		.byte	0
 2171 0151 00       		.byte	0
 2172 0152 1C       		.uleb128 0x1c
 2173 0153 2E       		.uleb128 0x2e
 2174 0154 01       		.byte	0x1
 2175 0155 3F       		.uleb128 0x3f
 2176 0156 19       		.uleb128 0x19
 2177 0157 03       		.uleb128 0x3
 2178 0158 0E       		.uleb128 0xe
 2179 0159 3A       		.uleb128 0x3a
 2180 015a 0B       		.uleb128 0xb
 2181 015b 3B       		.uleb128 0x3b
 2182 015c 0B       		.uleb128 0xb
 2183 015d 27       		.uleb128 0x27
 2184 015e 19       		.uleb128 0x19
 2185 015f 49       		.uleb128 0x49
 2186 0160 13       		.uleb128 0x13
 2187 0161 11       		.uleb128 0x11
 2188 0162 01       		.uleb128 0x1
 2189 0163 12       		.uleb128 0x12
 2190 0164 06       		.uleb128 0x6
 2191 0165 40       		.uleb128 0x40
 2192 0166 18       		.uleb128 0x18
 2193 0167 9742     		.uleb128 0x2117
 2194 0169 19       		.uleb128 0x19
 2195 016a 01       		.uleb128 0x1
 2196 016b 13       		.uleb128 0x13
 2197 016c 00       		.byte	0
 2198 016d 00       		.byte	0
 2199 016e 1D       		.uleb128 0x1d
 2200 016f 05       		.uleb128 0x5
 2201 0170 00       		.byte	0
 2202 0171 03       		.uleb128 0x3
 2203 0172 08       		.uleb128 0x8
 2204 0173 3A       		.uleb128 0x3a
 2205 0174 0B       		.uleb128 0xb
 2206 0175 3B       		.uleb128 0x3b
 2207 0176 0B       		.uleb128 0xb
 2208 0177 49       		.uleb128 0x49
 2209 0178 13       		.uleb128 0x13
 2210 0179 02       		.uleb128 0x2
 2211 017a 17       		.uleb128 0x17
 2212 017b 00       		.byte	0
 2213 017c 00       		.byte	0
 2214 017d 1E       		.uleb128 0x1e
 2215 017e 05       		.uleb128 0x5
 2216 017f 00       		.byte	0
ARM GAS  /tmp/ccM1PnCe.s 			page 40


 2217 0180 03       		.uleb128 0x3
 2218 0181 0E       		.uleb128 0xe
 2219 0182 3A       		.uleb128 0x3a
 2220 0183 0B       		.uleb128 0xb
 2221 0184 3B       		.uleb128 0x3b
 2222 0185 0B       		.uleb128 0xb
 2223 0186 49       		.uleb128 0x49
 2224 0187 13       		.uleb128 0x13
 2225 0188 02       		.uleb128 0x2
 2226 0189 17       		.uleb128 0x17
 2227 018a 00       		.byte	0
 2228 018b 00       		.byte	0
 2229 018c 1F       		.uleb128 0x1f
 2230 018d 1D       		.uleb128 0x1d
 2231 018e 01       		.byte	0x1
 2232 018f 31       		.uleb128 0x31
 2233 0190 13       		.uleb128 0x13
 2234 0191 52       		.uleb128 0x52
 2235 0192 01       		.uleb128 0x1
 2236 0193 55       		.uleb128 0x55
 2237 0194 17       		.uleb128 0x17
 2238 0195 58       		.uleb128 0x58
 2239 0196 0B       		.uleb128 0xb
 2240 0197 59       		.uleb128 0x59
 2241 0198 0B       		.uleb128 0xb
 2242 0199 01       		.uleb128 0x1
 2243 019a 13       		.uleb128 0x13
 2244 019b 00       		.byte	0
 2245 019c 00       		.byte	0
 2246 019d 20       		.uleb128 0x20
 2247 019e 0B       		.uleb128 0xb
 2248 019f 01       		.byte	0x1
 2249 01a0 55       		.uleb128 0x55
 2250 01a1 17       		.uleb128 0x17
 2251 01a2 00       		.byte	0
 2252 01a3 00       		.byte	0
 2253 01a4 21       		.uleb128 0x21
 2254 01a5 34       		.uleb128 0x34
 2255 01a6 00       		.byte	0
 2256 01a7 31       		.uleb128 0x31
 2257 01a8 13       		.uleb128 0x13
 2258 01a9 02       		.uleb128 0x2
 2259 01aa 17       		.uleb128 0x17
 2260 01ab 00       		.byte	0
 2261 01ac 00       		.byte	0
 2262 01ad 22       		.uleb128 0x22
 2263 01ae 898201   		.uleb128 0x4109
 2264 01b1 01       		.byte	0x1
 2265 01b2 11       		.uleb128 0x11
 2266 01b3 01       		.uleb128 0x1
 2267 01b4 31       		.uleb128 0x31
 2268 01b5 13       		.uleb128 0x13
 2269 01b6 00       		.byte	0
 2270 01b7 00       		.byte	0
 2271 01b8 23       		.uleb128 0x23
 2272 01b9 8A8201   		.uleb128 0x410a
 2273 01bc 00       		.byte	0
ARM GAS  /tmp/ccM1PnCe.s 			page 41


 2274 01bd 02       		.uleb128 0x2
 2275 01be 18       		.uleb128 0x18
 2276 01bf 9142     		.uleb128 0x2111
 2277 01c1 18       		.uleb128 0x18
 2278 01c2 00       		.byte	0
 2279 01c3 00       		.byte	0
 2280 01c4 24       		.uleb128 0x24
 2281 01c5 34       		.uleb128 0x34
 2282 01c6 00       		.byte	0
 2283 01c7 03       		.uleb128 0x3
 2284 01c8 0E       		.uleb128 0xe
 2285 01c9 3A       		.uleb128 0x3a
 2286 01ca 0B       		.uleb128 0xb
 2287 01cb 3B       		.uleb128 0x3b
 2288 01cc 0B       		.uleb128 0xb
 2289 01cd 49       		.uleb128 0x49
 2290 01ce 13       		.uleb128 0x13
 2291 01cf 02       		.uleb128 0x2
 2292 01d0 17       		.uleb128 0x17
 2293 01d1 00       		.byte	0
 2294 01d2 00       		.byte	0
 2295 01d3 25       		.uleb128 0x25
 2296 01d4 898201   		.uleb128 0x4109
 2297 01d7 00       		.byte	0
 2298 01d8 11       		.uleb128 0x11
 2299 01d9 01       		.uleb128 0x1
 2300 01da 31       		.uleb128 0x31
 2301 01db 13       		.uleb128 0x13
 2302 01dc 00       		.byte	0
 2303 01dd 00       		.byte	0
 2304 01de 26       		.uleb128 0x26
 2305 01df 2E       		.uleb128 0x2e
 2306 01e0 01       		.byte	0x1
 2307 01e1 3F       		.uleb128 0x3f
 2308 01e2 19       		.uleb128 0x19
 2309 01e3 03       		.uleb128 0x3
 2310 01e4 0E       		.uleb128 0xe
 2311 01e5 3A       		.uleb128 0x3a
 2312 01e6 0B       		.uleb128 0xb
 2313 01e7 3B       		.uleb128 0x3b
 2314 01e8 05       		.uleb128 0x5
 2315 01e9 27       		.uleb128 0x27
 2316 01ea 19       		.uleb128 0x19
 2317 01eb 11       		.uleb128 0x11
 2318 01ec 01       		.uleb128 0x1
 2319 01ed 12       		.uleb128 0x12
 2320 01ee 06       		.uleb128 0x6
 2321 01ef 40       		.uleb128 0x40
 2322 01f0 18       		.uleb128 0x18
 2323 01f1 9742     		.uleb128 0x2117
 2324 01f3 19       		.uleb128 0x19
 2325 01f4 01       		.uleb128 0x1
 2326 01f5 13       		.uleb128 0x13
 2327 01f6 00       		.byte	0
 2328 01f7 00       		.byte	0
 2329 01f8 27       		.uleb128 0x27
 2330 01f9 05       		.uleb128 0x5
ARM GAS  /tmp/ccM1PnCe.s 			page 42


 2331 01fa 00       		.byte	0
 2332 01fb 03       		.uleb128 0x3
 2333 01fc 08       		.uleb128 0x8
 2334 01fd 3A       		.uleb128 0x3a
 2335 01fe 0B       		.uleb128 0xb
 2336 01ff 3B       		.uleb128 0x3b
 2337 0200 05       		.uleb128 0x5
 2338 0201 49       		.uleb128 0x49
 2339 0202 13       		.uleb128 0x13
 2340 0203 02       		.uleb128 0x2
 2341 0204 18       		.uleb128 0x18
 2342 0205 00       		.byte	0
 2343 0206 00       		.byte	0
 2344 0207 28       		.uleb128 0x28
 2345 0208 05       		.uleb128 0x5
 2346 0209 00       		.byte	0
 2347 020a 03       		.uleb128 0x3
 2348 020b 0E       		.uleb128 0xe
 2349 020c 3A       		.uleb128 0x3a
 2350 020d 0B       		.uleb128 0xb
 2351 020e 3B       		.uleb128 0x3b
 2352 020f 05       		.uleb128 0x5
 2353 0210 49       		.uleb128 0x49
 2354 0211 13       		.uleb128 0x13
 2355 0212 02       		.uleb128 0x2
 2356 0213 17       		.uleb128 0x17
 2357 0214 00       		.byte	0
 2358 0215 00       		.byte	0
 2359 0216 29       		.uleb128 0x29
 2360 0217 05       		.uleb128 0x5
 2361 0218 00       		.byte	0
 2362 0219 03       		.uleb128 0x3
 2363 021a 08       		.uleb128 0x8
 2364 021b 3A       		.uleb128 0x3a
 2365 021c 0B       		.uleb128 0xb
 2366 021d 3B       		.uleb128 0x3b
 2367 021e 05       		.uleb128 0x5
 2368 021f 49       		.uleb128 0x49
 2369 0220 13       		.uleb128 0x13
 2370 0221 02       		.uleb128 0x2
 2371 0222 17       		.uleb128 0x17
 2372 0223 00       		.byte	0
 2373 0224 00       		.byte	0
 2374 0225 2A       		.uleb128 0x2a
 2375 0226 34       		.uleb128 0x34
 2376 0227 00       		.byte	0
 2377 0228 03       		.uleb128 0x3
 2378 0229 08       		.uleb128 0x8
 2379 022a 3A       		.uleb128 0x3a
 2380 022b 0B       		.uleb128 0xb
 2381 022c 3B       		.uleb128 0x3b
 2382 022d 05       		.uleb128 0x5
 2383 022e 49       		.uleb128 0x49
 2384 022f 13       		.uleb128 0x13
 2385 0230 02       		.uleb128 0x2
 2386 0231 17       		.uleb128 0x17
 2387 0232 00       		.byte	0
ARM GAS  /tmp/ccM1PnCe.s 			page 43


 2388 0233 00       		.byte	0
 2389 0234 2B       		.uleb128 0x2b
 2390 0235 898201   		.uleb128 0x4109
 2391 0238 01       		.byte	0x1
 2392 0239 11       		.uleb128 0x11
 2393 023a 01       		.uleb128 0x1
 2394 023b 31       		.uleb128 0x31
 2395 023c 13       		.uleb128 0x13
 2396 023d 01       		.uleb128 0x1
 2397 023e 13       		.uleb128 0x13
 2398 023f 00       		.byte	0
 2399 0240 00       		.byte	0
 2400 0241 2C       		.uleb128 0x2c
 2401 0242 898201   		.uleb128 0x4109
 2402 0245 01       		.byte	0x1
 2403 0246 11       		.uleb128 0x11
 2404 0247 01       		.uleb128 0x1
 2405 0248 9542     		.uleb128 0x2115
 2406 024a 19       		.uleb128 0x19
 2407 024b 31       		.uleb128 0x31
 2408 024c 13       		.uleb128 0x13
 2409 024d 00       		.byte	0
 2410 024e 00       		.byte	0
 2411 024f 2D       		.uleb128 0x2d
 2412 0250 2E       		.uleb128 0x2e
 2413 0251 01       		.byte	0x1
 2414 0252 3F       		.uleb128 0x3f
 2415 0253 19       		.uleb128 0x19
 2416 0254 03       		.uleb128 0x3
 2417 0255 0E       		.uleb128 0xe
 2418 0256 3A       		.uleb128 0x3a
 2419 0257 0B       		.uleb128 0xb
 2420 0258 3B       		.uleb128 0x3b
 2421 0259 05       		.uleb128 0x5
 2422 025a 27       		.uleb128 0x27
 2423 025b 19       		.uleb128 0x19
 2424 025c 49       		.uleb128 0x49
 2425 025d 13       		.uleb128 0x13
 2426 025e 11       		.uleb128 0x11
 2427 025f 01       		.uleb128 0x1
 2428 0260 12       		.uleb128 0x12
 2429 0261 06       		.uleb128 0x6
 2430 0262 40       		.uleb128 0x40
 2431 0263 18       		.uleb128 0x18
 2432 0264 9742     		.uleb128 0x2117
 2433 0266 19       		.uleb128 0x19
 2434 0267 01       		.uleb128 0x1
 2435 0268 13       		.uleb128 0x13
 2436 0269 00       		.byte	0
 2437 026a 00       		.byte	0
 2438 026b 2E       		.uleb128 0x2e
 2439 026c 34       		.uleb128 0x34
 2440 026d 00       		.byte	0
 2441 026e 03       		.uleb128 0x3
 2442 026f 08       		.uleb128 0x8
 2443 0270 3A       		.uleb128 0x3a
 2444 0271 0B       		.uleb128 0xb
ARM GAS  /tmp/ccM1PnCe.s 			page 44


 2445 0272 3B       		.uleb128 0x3b
 2446 0273 05       		.uleb128 0x5
 2447 0274 49       		.uleb128 0x49
 2448 0275 13       		.uleb128 0x13
 2449 0276 02       		.uleb128 0x2
 2450 0277 18       		.uleb128 0x18
 2451 0278 00       		.byte	0
 2452 0279 00       		.byte	0
 2453 027a 2F       		.uleb128 0x2f
 2454 027b 34       		.uleb128 0x34
 2455 027c 00       		.byte	0
 2456 027d 03       		.uleb128 0x3
 2457 027e 0E       		.uleb128 0xe
 2458 027f 3A       		.uleb128 0x3a
 2459 0280 0B       		.uleb128 0xb
 2460 0281 3B       		.uleb128 0x3b
 2461 0282 0B       		.uleb128 0xb
 2462 0283 49       		.uleb128 0x49
 2463 0284 13       		.uleb128 0x13
 2464 0285 3F       		.uleb128 0x3f
 2465 0286 19       		.uleb128 0x19
 2466 0287 3C       		.uleb128 0x3c
 2467 0288 19       		.uleb128 0x19
 2468 0289 00       		.byte	0
 2469 028a 00       		.byte	0
 2470 028b 30       		.uleb128 0x30
 2471 028c 2E       		.uleb128 0x2e
 2472 028d 01       		.byte	0x1
 2473 028e 3F       		.uleb128 0x3f
 2474 028f 19       		.uleb128 0x19
 2475 0290 03       		.uleb128 0x3
 2476 0291 0E       		.uleb128 0xe
 2477 0292 3A       		.uleb128 0x3a
 2478 0293 0B       		.uleb128 0xb
 2479 0294 3B       		.uleb128 0x3b
 2480 0295 0B       		.uleb128 0xb
 2481 0296 27       		.uleb128 0x27
 2482 0297 19       		.uleb128 0x19
 2483 0298 3C       		.uleb128 0x3c
 2484 0299 19       		.uleb128 0x19
 2485 029a 01       		.uleb128 0x1
 2486 029b 13       		.uleb128 0x13
 2487 029c 00       		.byte	0
 2488 029d 00       		.byte	0
 2489 029e 31       		.uleb128 0x31
 2490 029f 2E       		.uleb128 0x2e
 2491 02a0 00       		.byte	0
 2492 02a1 3F       		.uleb128 0x3f
 2493 02a2 19       		.uleb128 0x19
 2494 02a3 03       		.uleb128 0x3
 2495 02a4 0E       		.uleb128 0xe
 2496 02a5 3A       		.uleb128 0x3a
 2497 02a6 0B       		.uleb128 0xb
 2498 02a7 3B       		.uleb128 0x3b
 2499 02a8 0B       		.uleb128 0xb
 2500 02a9 27       		.uleb128 0x27
 2501 02aa 19       		.uleb128 0x19
ARM GAS  /tmp/ccM1PnCe.s 			page 45


 2502 02ab 3C       		.uleb128 0x3c
 2503 02ac 19       		.uleb128 0x19
 2504 02ad 00       		.byte	0
 2505 02ae 00       		.byte	0
 2506 02af 32       		.uleb128 0x32
 2507 02b0 2E       		.uleb128 0x2e
 2508 02b1 01       		.byte	0x1
 2509 02b2 3F       		.uleb128 0x3f
 2510 02b3 19       		.uleb128 0x19
 2511 02b4 03       		.uleb128 0x3
 2512 02b5 0E       		.uleb128 0xe
 2513 02b6 3A       		.uleb128 0x3a
 2514 02b7 0B       		.uleb128 0xb
 2515 02b8 3B       		.uleb128 0x3b
 2516 02b9 0B       		.uleb128 0xb
 2517 02ba 27       		.uleb128 0x27
 2518 02bb 19       		.uleb128 0x19
 2519 02bc 49       		.uleb128 0x49
 2520 02bd 13       		.uleb128 0x13
 2521 02be 3C       		.uleb128 0x3c
 2522 02bf 19       		.uleb128 0x19
 2523 02c0 01       		.uleb128 0x1
 2524 02c1 13       		.uleb128 0x13
 2525 02c2 00       		.byte	0
 2526 02c3 00       		.byte	0
 2527 02c4 33       		.uleb128 0x33
 2528 02c5 2E       		.uleb128 0x2e
 2529 02c6 01       		.byte	0x1
 2530 02c7 3F       		.uleb128 0x3f
 2531 02c8 19       		.uleb128 0x19
 2532 02c9 03       		.uleb128 0x3
 2533 02ca 0E       		.uleb128 0xe
 2534 02cb 3A       		.uleb128 0x3a
 2535 02cc 0B       		.uleb128 0xb
 2536 02cd 3B       		.uleb128 0x3b
 2537 02ce 0B       		.uleb128 0xb
 2538 02cf 27       		.uleb128 0x27
 2539 02d0 19       		.uleb128 0x19
 2540 02d1 3C       		.uleb128 0x3c
 2541 02d2 19       		.uleb128 0x19
 2542 02d3 00       		.byte	0
 2543 02d4 00       		.byte	0
 2544 02d5 00       		.byte	0
 2545              		.section	.debug_loc,"",%progbits
 2546              	.Ldebug_loc0:
 2547              	.LLST0:
 2548 0000 00000000 		.4byte	.LVL1
 2549 0004 02000000 		.4byte	.LVL2
 2550 0008 0100     		.2byte	0x1
 2551 000a 51       		.byte	0x51
 2552 000b 02000000 		.4byte	.LVL2
 2553 000f 10000000 		.4byte	.LVL4
 2554 0013 0300     		.2byte	0x3
 2555 0015 71       		.byte	0x71
 2556 0016 24       		.sleb128 36
 2557 0017 9F       		.byte	0x9f
 2558 0018 10000000 		.4byte	.LVL4
ARM GAS  /tmp/ccM1PnCe.s 			page 46


 2559 001c 4C000000 		.4byte	.LFE1
 2560 0020 0400     		.2byte	0x4
 2561 0022 F3       		.byte	0xf3
 2562 0023 01       		.uleb128 0x1
 2563 0024 51       		.byte	0x51
 2564 0025 9F       		.byte	0x9f
 2565 0026 00000000 		.4byte	0
 2566 002a 00000000 		.4byte	0
 2567              	.LLST1:
 2568 002e 00000000 		.4byte	.LVL1
 2569 0032 0E000000 		.4byte	.LVL3
 2570 0036 0100     		.2byte	0x1
 2571 0038 53       		.byte	0x53
 2572 0039 0E000000 		.4byte	.LVL3
 2573 003d 14000000 		.4byte	.LVL5
 2574 0041 0200     		.2byte	0x2
 2575 0043 75       		.byte	0x75
 2576 0044 00       		.sleb128 0
 2577 0045 14000000 		.4byte	.LVL5
 2578 0049 4C000000 		.4byte	.LFE1
 2579 004d 0400     		.2byte	0x4
 2580 004f F3       		.byte	0xf3
 2581 0050 01       		.uleb128 0x1
 2582 0051 53       		.byte	0x53
 2583 0052 9F       		.byte	0x9f
 2584 0053 00000000 		.4byte	0
 2585 0057 00000000 		.4byte	0
 2586              	.LLST2:
 2587 005b 00000000 		.4byte	.LVL1
 2588 005f 46000000 		.4byte	.LVL7
 2589 0063 0200     		.2byte	0x2
 2590 0065 91       		.byte	0x91
 2591 0066 00       		.sleb128 0
 2592 0067 46000000 		.4byte	.LVL7
 2593 006b 4C000000 		.4byte	.LFE1
 2594 006f 0200     		.2byte	0x2
 2595 0071 7D       		.byte	0x7d
 2596 0072 00       		.sleb128 0
 2597 0073 00000000 		.4byte	0
 2598 0077 00000000 		.4byte	0
 2599              	.LLST3:
 2600 007b 00000000 		.4byte	.LVL8
 2601 007f 4D000000 		.4byte	.LVL15-1
 2602 0083 0100     		.2byte	0x1
 2603 0085 50       		.byte	0x50
 2604 0086 4D000000 		.4byte	.LVL15-1
 2605 008a 56000000 		.4byte	.LVL16
 2606 008e 0100     		.2byte	0x1
 2607 0090 54       		.byte	0x54
 2608 0091 56000000 		.4byte	.LVL16
 2609 0095 5C000000 		.4byte	.LFE2
 2610 0099 0100     		.2byte	0x1
 2611 009b 50       		.byte	0x50
 2612 009c 00000000 		.4byte	0
 2613 00a0 00000000 		.4byte	0
 2614              	.LLST4:
 2615 00a4 00000000 		.4byte	.LVL8
ARM GAS  /tmp/ccM1PnCe.s 			page 47


 2616 00a8 0E000000 		.4byte	.LVL10
 2617 00ac 0100     		.2byte	0x1
 2618 00ae 51       		.byte	0x51
 2619 00af 0E000000 		.4byte	.LVL10
 2620 00b3 18000000 		.4byte	.LVL11
 2621 00b7 0300     		.2byte	0x3
 2622 00b9 71       		.byte	0x71
 2623 00ba 24       		.sleb128 36
 2624 00bb 9F       		.byte	0x9f
 2625 00bc 18000000 		.4byte	.LVL11
 2626 00c0 5C000000 		.4byte	.LFE2
 2627 00c4 0400     		.2byte	0x4
 2628 00c6 F3       		.byte	0xf3
 2629 00c7 01       		.uleb128 0x1
 2630 00c8 51       		.byte	0x51
 2631 00c9 9F       		.byte	0x9f
 2632 00ca 00000000 		.4byte	0
 2633 00ce 00000000 		.4byte	0
 2634              	.LLST5:
 2635 00d2 00000000 		.4byte	.LVL8
 2636 00d6 4D000000 		.4byte	.LVL15-1
 2637 00da 0100     		.2byte	0x1
 2638 00dc 52       		.byte	0x52
 2639 00dd 4D000000 		.4byte	.LVL15-1
 2640 00e1 5C000000 		.4byte	.LFE2
 2641 00e5 0400     		.2byte	0x4
 2642 00e7 F3       		.byte	0xf3
 2643 00e8 01       		.uleb128 0x1
 2644 00e9 52       		.byte	0x52
 2645 00ea 9F       		.byte	0x9f
 2646 00eb 00000000 		.4byte	0
 2647 00ef 00000000 		.4byte	0
 2648              	.LLST6:
 2649 00f3 00000000 		.4byte	.LVL8
 2650 00f7 0C000000 		.4byte	.LVL9
 2651 00fb 0100     		.2byte	0x1
 2652 00fd 53       		.byte	0x53
 2653 00fe 0C000000 		.4byte	.LVL9
 2654 0102 2C000000 		.4byte	.LVL13
 2655 0106 0100     		.2byte	0x1
 2656 0108 56       		.byte	0x56
 2657 0109 2C000000 		.4byte	.LVL13
 2658 010d 5C000000 		.4byte	.LFE2
 2659 0111 0400     		.2byte	0x4
 2660 0113 F3       		.byte	0xf3
 2661 0114 01       		.uleb128 0x1
 2662 0115 53       		.byte	0x53
 2663 0116 9F       		.byte	0x9f
 2664 0117 00000000 		.4byte	0
 2665 011b 00000000 		.4byte	0
 2666              	.LLST7:
 2667 011f 00000000 		.4byte	.LVL8
 2668 0123 56000000 		.4byte	.LVL16
 2669 0127 0200     		.2byte	0x2
 2670 0129 91       		.byte	0x91
 2671 012a 00       		.sleb128 0
 2672 012b 56000000 		.4byte	.LVL16
ARM GAS  /tmp/ccM1PnCe.s 			page 48


 2673 012f 5C000000 		.4byte	.LFE2
 2674 0133 0200     		.2byte	0x2
 2675 0135 7D       		.byte	0x7d
 2676 0136 00       		.sleb128 0
 2677 0137 00000000 		.4byte	0
 2678 013b 00000000 		.4byte	0
 2679              	.LLST8:
 2680 013f 0C000000 		.4byte	.LVL9
 2681 0143 24000000 		.4byte	.LVL12
 2682 0147 0100     		.2byte	0x1
 2683 0149 55       		.byte	0x55
 2684 014a 24000000 		.4byte	.LVL12
 2685 014e 56000000 		.4byte	.LVL16
 2686 0152 0200     		.2byte	0x2
 2687 0154 91       		.byte	0x91
 2688 0155 00       		.sleb128 0
 2689 0156 56000000 		.4byte	.LVL16
 2690 015a 5C000000 		.4byte	.LFE2
 2691 015e 0200     		.2byte	0x2
 2692 0160 7D       		.byte	0x7d
 2693 0161 00       		.sleb128 0
 2694 0162 00000000 		.4byte	0
 2695 0166 00000000 		.4byte	0
 2696              	.LLST9:
 2697 016a 0C000000 		.4byte	.LVL9
 2698 016e 2C000000 		.4byte	.LVL13
 2699 0172 0100     		.2byte	0x1
 2700 0174 56       		.byte	0x56
 2701 0175 2C000000 		.4byte	.LVL13
 2702 0179 5C000000 		.4byte	.LFE2
 2703 017d 0400     		.2byte	0x4
 2704 017f F3       		.byte	0xf3
 2705 0180 01       		.uleb128 0x1
 2706 0181 53       		.byte	0x53
 2707 0182 9F       		.byte	0x9f
 2708 0183 00000000 		.4byte	0
 2709 0187 00000000 		.4byte	0
 2710              	.LLST10:
 2711 018b 0C000000 		.4byte	.LVL9
 2712 018f 4D000000 		.4byte	.LVL15-1
 2713 0193 0100     		.2byte	0x1
 2714 0195 52       		.byte	0x52
 2715 0196 4D000000 		.4byte	.LVL15-1
 2716 019a 5C000000 		.4byte	.LFE2
 2717 019e 0400     		.2byte	0x4
 2718 01a0 F3       		.byte	0xf3
 2719 01a1 01       		.uleb128 0x1
 2720 01a2 52       		.byte	0x52
 2721 01a3 9F       		.byte	0x9f
 2722 01a4 00000000 		.4byte	0
 2723 01a8 00000000 		.4byte	0
 2724              	.LLST11:
 2725 01ac 0C000000 		.4byte	.LVL9
 2726 01b0 0E000000 		.4byte	.LVL10
 2727 01b4 0100     		.2byte	0x1
 2728 01b6 51       		.byte	0x51
 2729 01b7 0E000000 		.4byte	.LVL10
ARM GAS  /tmp/ccM1PnCe.s 			page 49


 2730 01bb 18000000 		.4byte	.LVL11
 2731 01bf 0300     		.2byte	0x3
 2732 01c1 71       		.byte	0x71
 2733 01c2 24       		.sleb128 36
 2734 01c3 9F       		.byte	0x9f
 2735 01c4 18000000 		.4byte	.LVL11
 2736 01c8 5C000000 		.4byte	.LFE2
 2737 01cc 0400     		.2byte	0x4
 2738 01ce F3       		.byte	0xf3
 2739 01cf 01       		.uleb128 0x1
 2740 01d0 51       		.byte	0x51
 2741 01d1 9F       		.byte	0x9f
 2742 01d2 00000000 		.4byte	0
 2743 01d6 00000000 		.4byte	0
 2744              	.LLST12:
 2745 01da 0C000000 		.4byte	.LVL9
 2746 01de 4D000000 		.4byte	.LVL15-1
 2747 01e2 0100     		.2byte	0x1
 2748 01e4 50       		.byte	0x50
 2749 01e5 4D000000 		.4byte	.LVL15-1
 2750 01e9 56000000 		.4byte	.LVL16
 2751 01ed 0100     		.2byte	0x1
 2752 01ef 54       		.byte	0x54
 2753 01f0 56000000 		.4byte	.LVL16
 2754 01f4 5C000000 		.4byte	.LFE2
 2755 01f8 0100     		.2byte	0x1
 2756 01fa 50       		.byte	0x50
 2757 01fb 00000000 		.4byte	0
 2758 01ff 00000000 		.4byte	0
 2759              	.LLST14:
 2760 0203 32000000 		.4byte	.LVL14
 2761 0207 4D000000 		.4byte	.LVL15-1
 2762 020b 0100     		.2byte	0x1
 2763 020d 52       		.byte	0x52
 2764 020e 4D000000 		.4byte	.LVL15-1
 2765 0212 5C000000 		.4byte	.LFE2
 2766 0216 0400     		.2byte	0x4
 2767 0218 F3       		.byte	0xf3
 2768 0219 01       		.uleb128 0x1
 2769 021a 52       		.byte	0x52
 2770 021b 9F       		.byte	0x9f
 2771 021c 00000000 		.4byte	0
 2772 0220 00000000 		.4byte	0
 2773              	.LLST15:
 2774 0224 32000000 		.4byte	.LVL14
 2775 0228 4D000000 		.4byte	.LVL15-1
 2776 022c 0100     		.2byte	0x1
 2777 022e 50       		.byte	0x50
 2778 022f 4D000000 		.4byte	.LVL15-1
 2779 0233 56000000 		.4byte	.LVL16
 2780 0237 0100     		.2byte	0x1
 2781 0239 54       		.byte	0x54
 2782 023a 56000000 		.4byte	.LVL16
 2783 023e 5C000000 		.4byte	.LFE2
 2784 0242 0100     		.2byte	0x1
 2785 0244 50       		.byte	0x50
 2786 0245 00000000 		.4byte	0
ARM GAS  /tmp/ccM1PnCe.s 			page 50


 2787 0249 00000000 		.4byte	0
 2788              	.LLST16:
 2789 024d 00000000 		.4byte	.LVL17
 2790 0251 0A000000 		.4byte	.LVL18
 2791 0255 0100     		.2byte	0x1
 2792 0257 50       		.byte	0x50
 2793 0258 0A000000 		.4byte	.LVL18
 2794 025c 21000000 		.4byte	.LVL20-1
 2795 0260 0100     		.2byte	0x1
 2796 0262 52       		.byte	0x52
 2797 0263 21000000 		.4byte	.LVL20-1
 2798 0267 30000000 		.4byte	.LFE3
 2799 026b 0400     		.2byte	0x4
 2800 026d F3       		.byte	0xf3
 2801 026e 01       		.uleb128 0x1
 2802 026f 50       		.byte	0x50
 2803 0270 9F       		.byte	0x9f
 2804 0271 00000000 		.4byte	0
 2805 0275 00000000 		.4byte	0
 2806              	.LLST17:
 2807 0279 0E000000 		.4byte	.LVL19
 2808 027d 2A000000 		.4byte	.LVL21
 2809 0281 0100     		.2byte	0x1
 2810 0283 54       		.byte	0x54
 2811 0284 2A000000 		.4byte	.LVL21
 2812 0288 30000000 		.4byte	.LFE3
 2813 028c 0100     		.2byte	0x1
 2814 028e 50       		.byte	0x50
 2815 028f 00000000 		.4byte	0
 2816 0293 00000000 		.4byte	0
 2817              	.LLST18:
 2818 0297 00000000 		.4byte	.LVL22
 2819 029b 0D000000 		.4byte	.LVL23-1
 2820 029f 0100     		.2byte	0x1
 2821 02a1 50       		.byte	0x50
 2822 02a2 0D000000 		.4byte	.LVL23-1
 2823 02a6 16000000 		.4byte	.LFE4
 2824 02aa 0100     		.2byte	0x1
 2825 02ac 54       		.byte	0x54
 2826 02ad 00000000 		.4byte	0
 2827 02b1 00000000 		.4byte	0
 2828              	.LLST19:
 2829 02b5 00000000 		.4byte	.LVL25
 2830 02b9 0A000000 		.4byte	.LVL26
 2831 02bd 0100     		.2byte	0x1
 2832 02bf 50       		.byte	0x50
 2833 02c0 0A000000 		.4byte	.LVL26
 2834 02c4 0D000000 		.4byte	.LVL27-1
 2835 02c8 0100     		.2byte	0x1
 2836 02ca 51       		.byte	0x51
 2837 02cb 0D000000 		.4byte	.LVL27-1
 2838 02cf 14000000 		.4byte	.LFE6
 2839 02d3 0400     		.2byte	0x4
 2840 02d5 F3       		.byte	0xf3
 2841 02d6 01       		.uleb128 0x1
 2842 02d7 50       		.byte	0x50
 2843 02d8 9F       		.byte	0x9f
ARM GAS  /tmp/ccM1PnCe.s 			page 51


 2844 02d9 00000000 		.4byte	0
 2845 02dd 00000000 		.4byte	0
 2846              	.LLST20:
 2847 02e1 00000000 		.4byte	.LVL28
 2848 02e5 0A000000 		.4byte	.LVL29
 2849 02e9 0100     		.2byte	0x1
 2850 02eb 50       		.byte	0x50
 2851 02ec 0A000000 		.4byte	.LVL29
 2852 02f0 0C000000 		.4byte	.LVL30
 2853 02f4 0600     		.2byte	0x6
 2854 02f6 70       		.byte	0x70
 2855 02f7 00       		.sleb128 0
 2856 02f8 71       		.byte	0x71
 2857 02f9 00       		.sleb128 0
 2858 02fa 1C       		.byte	0x1c
 2859 02fb 9F       		.byte	0x9f
 2860 02fc 0C000000 		.4byte	.LVL30
 2861 0300 13000000 		.4byte	.LVL31-1
 2862 0304 0100     		.2byte	0x1
 2863 0306 51       		.byte	0x51
 2864 0307 00000000 		.4byte	0
 2865 030b 00000000 		.4byte	0
 2866              	.LLST21:
 2867 030f 00000000 		.4byte	.LVL33
 2868 0313 12000000 		.4byte	.LVL35
 2869 0317 0100     		.2byte	0x1
 2870 0319 50       		.byte	0x50
 2871 031a 12000000 		.4byte	.LVL35
 2872 031e 30000000 		.4byte	.LFE10
 2873 0322 0400     		.2byte	0x4
 2874 0324 F3       		.byte	0xf3
 2875 0325 01       		.uleb128 0x1
 2876 0326 50       		.byte	0x50
 2877 0327 9F       		.byte	0x9f
 2878 0328 00000000 		.4byte	0
 2879 032c 00000000 		.4byte	0
 2880              	.LLST22:
 2881 0330 06000000 		.4byte	.LVL34
 2882 0334 28000000 		.4byte	.LVL38
 2883 0338 0100     		.2byte	0x1
 2884 033a 55       		.byte	0x55
 2885 033b 00000000 		.4byte	0
 2886 033f 00000000 		.4byte	0
 2887              	.LLST23:
 2888 0343 00000000 		.4byte	.LVL40
 2889 0347 0D000000 		.4byte	.LVL41-1
 2890 034b 0100     		.2byte	0x1
 2891 034d 50       		.byte	0x50
 2892 034e 0D000000 		.4byte	.LVL41-1
 2893 0352 0E000000 		.4byte	.LFE9
 2894 0356 0400     		.2byte	0x4
 2895 0358 F3       		.byte	0xf3
 2896 0359 01       		.uleb128 0x1
 2897 035a 50       		.byte	0x50
 2898 035b 9F       		.byte	0x9f
 2899 035c 00000000 		.4byte	0
 2900 0360 00000000 		.4byte	0
ARM GAS  /tmp/ccM1PnCe.s 			page 52


 2901              	.LLST24:
 2902 0364 00000000 		.4byte	.LVL42
 2903 0368 16000000 		.4byte	.LVL43
 2904 036c 0100     		.2byte	0x1
 2905 036e 50       		.byte	0x50
 2906 036f 16000000 		.4byte	.LVL43
 2907 0373 28000000 		.4byte	.LVL47
 2908 0377 0100     		.2byte	0x1
 2909 0379 54       		.byte	0x54
 2910 037a 28000000 		.4byte	.LVL47
 2911 037e 2C000000 		.4byte	.LFE11
 2912 0382 0400     		.2byte	0x4
 2913 0384 F3       		.byte	0xf3
 2914 0385 01       		.uleb128 0x1
 2915 0386 50       		.byte	0x50
 2916 0387 9F       		.byte	0x9f
 2917 0388 00000000 		.4byte	0
 2918 038c 00000000 		.4byte	0
 2919              		.section	.debug_aranges,"",%progbits
 2920 0000 74000000 		.4byte	0x74
 2921 0004 0200     		.2byte	0x2
 2922 0006 00000000 		.4byte	.Ldebug_info0
 2923 000a 04       		.byte	0x4
 2924 000b 00       		.byte	0
 2925 000c 0000     		.2byte	0
 2926 000e 0000     		.2byte	0
 2927 0010 00000000 		.4byte	.LFB0
 2928 0014 28000000 		.4byte	.LFE0-.LFB0
 2929 0018 00000000 		.4byte	.LFB1
 2930 001c 4C000000 		.4byte	.LFE1-.LFB1
 2931 0020 00000000 		.4byte	.LFB2
 2932 0024 5C000000 		.4byte	.LFE2-.LFB2
 2933 0028 00000000 		.4byte	.LFB3
 2934 002c 30000000 		.4byte	.LFE3-.LFB3
 2935 0030 00000000 		.4byte	.LFB4
 2936 0034 16000000 		.4byte	.LFE4-.LFB4
 2937 0038 00000000 		.4byte	.LFB5
 2938 003c 16000000 		.4byte	.LFE5-.LFB5
 2939 0040 00000000 		.4byte	.LFB6
 2940 0044 14000000 		.4byte	.LFE6-.LFB6
 2941 0048 00000000 		.4byte	.LFB7
 2942 004c 20000000 		.4byte	.LFE7-.LFB7
 2943 0050 00000000 		.4byte	.LFB8
 2944 0054 24000000 		.4byte	.LFE8-.LFB8
 2945 0058 00000000 		.4byte	.LFB10
 2946 005c 30000000 		.4byte	.LFE10-.LFB10
 2947 0060 00000000 		.4byte	.LFB9
 2948 0064 0E000000 		.4byte	.LFE9-.LFB9
 2949 0068 00000000 		.4byte	.LFB11
 2950 006c 2C000000 		.4byte	.LFE11-.LFB11
 2951 0070 00000000 		.4byte	0
 2952 0074 00000000 		.4byte	0
 2953              		.section	.debug_ranges,"",%progbits
 2954              	.Ldebug_ranges0:
 2955 0000 16000000 		.4byte	.LBB8
 2956 0004 18000000 		.4byte	.LBE8
 2957 0008 1A000000 		.4byte	.LBB11
ARM GAS  /tmp/ccM1PnCe.s 			page 53


 2958 000c 42000000 		.4byte	.LBE11
 2959 0010 00000000 		.4byte	0
 2960 0014 00000000 		.4byte	0
 2961 0018 0C000000 		.4byte	.LBB12
 2962 001c 32000000 		.4byte	.LBE12
 2963 0020 34000000 		.4byte	.LBB19
 2964 0024 4A000000 		.4byte	.LBE19
 2965 0028 00000000 		.4byte	0
 2966 002c 00000000 		.4byte	0
 2967 0030 1E000000 		.4byte	.LBB14
 2968 0034 2E000000 		.4byte	.LBE14
 2969 0038 34000000 		.4byte	.LBB17
 2970 003c 4A000000 		.4byte	.LBE17
 2971 0040 00000000 		.4byte	0
 2972 0044 00000000 		.4byte	0
 2973 0048 00000000 		.4byte	.LFB0
 2974 004c 28000000 		.4byte	.LFE0
 2975 0050 00000000 		.4byte	.LFB1
 2976 0054 4C000000 		.4byte	.LFE1
 2977 0058 00000000 		.4byte	.LFB2
 2978 005c 5C000000 		.4byte	.LFE2
 2979 0060 00000000 		.4byte	.LFB3
 2980 0064 30000000 		.4byte	.LFE3
 2981 0068 00000000 		.4byte	.LFB4
 2982 006c 16000000 		.4byte	.LFE4
 2983 0070 00000000 		.4byte	.LFB5
 2984 0074 16000000 		.4byte	.LFE5
 2985 0078 00000000 		.4byte	.LFB6
 2986 007c 14000000 		.4byte	.LFE6
 2987 0080 00000000 		.4byte	.LFB7
 2988 0084 20000000 		.4byte	.LFE7
 2989 0088 00000000 		.4byte	.LFB8
 2990 008c 24000000 		.4byte	.LFE8
 2991 0090 00000000 		.4byte	.LFB10
 2992 0094 30000000 		.4byte	.LFE10
 2993 0098 00000000 		.4byte	.LFB9
 2994 009c 0E000000 		.4byte	.LFE9
 2995 00a0 00000000 		.4byte	.LFB11
 2996 00a4 2C000000 		.4byte	.LFE11
 2997 00a8 00000000 		.4byte	0
 2998 00ac 00000000 		.4byte	0
 2999              		.section	.debug_line,"",%progbits
 3000              	.Ldebug_line0:
 3001 0000 CE020000 		.section	.debug_str,"MS",%progbits,1
 3001      02003C01 
 3001      00000201 
 3001      FB0E0D00 
 3001      01010101 
 3002              	.LASF66:
 3003 0000 7466756E 		.ascii	"tfunc_t\000"
 3003      635F7400 
 3004              	.LASF34:
 3005 0008 705F6D73 		.ascii	"p_msg\000"
 3005      6700
 3006              	.LASF2:
 3007 000e 73697A65 		.ascii	"size_t\000"
 3007      5F7400
ARM GAS  /tmp/ccM1PnCe.s 			page 54


 3008              	.LASF67:
 3009 0015 7072696F 		.ascii	"prio\000"
 3009      00
 3010              	.LASF62:
 3011 001a 7264796D 		.ascii	"rdymsg\000"
 3011      736700
 3012              	.LASF3:
 3013 0021 5F5F7569 		.ascii	"__uint8_t\000"
 3013      6E74385F 
 3013      7400
 3014              	.LASF84:
 3015 002b 76746C69 		.ascii	"vtlist\000"
 3015      737400
 3016              	.LASF80:
 3017 0032 63685468 		.ascii	"chThdExitS\000"
 3017      64457869 
 3017      745300
 3018              	.LASF12:
 3019 003d 6C6F6E67 		.ascii	"long long unsigned int\000"
 3019      206C6F6E 
 3019      6720756E 
 3019      7369676E 
 3019      65642069 
 3020              	.LASF63:
 3021 0054 65786974 		.ascii	"exitcode\000"
 3021      636F6465 
 3021      00
 3022              	.LASF27:
 3023 005d 705F7072 		.ascii	"p_prio\000"
 3023      696F00
 3024              	.LASF11:
 3025 0064 6C6F6E67 		.ascii	"long long int\000"
 3025      206C6F6E 
 3025      6720696E 
 3025      7400
 3026              	.LASF1:
 3027 0072 7369676E 		.ascii	"signed char\000"
 3027      65642063 
 3027      68617200 
 3028              	.LASF82:
 3029 007e 63685468 		.ascii	"chThdExit\000"
 3029      64457869 
 3029      7400
 3030              	.LASF59:
 3031 0088 6D5F7175 		.ascii	"m_queue\000"
 3031      65756500 
 3032              	.LASF19:
 3033 0090 74736C69 		.ascii	"tslices_t\000"
 3033      6365735F 
 3033      7400
 3034              	.LASF69:
 3035 009a 63685468 		.ascii	"chThdCreateI\000"
 3035      64437265 
 3035      61746549 
 3035      00
 3036              	.LASF8:
 3037 00a7 6C6F6E67 		.ascii	"long int\000"
ARM GAS  /tmp/ccM1PnCe.s 			page 55


 3037      20696E74 
 3037      00
 3038              	.LASF18:
 3039 00b0 74737461 		.ascii	"tstate_t\000"
 3039      74655F74 
 3039      00
 3040              	.LASF89:
 3041 00b9 6C697374 		.ascii	"list_remove\000"
 3041      5F72656D 
 3041      6F766500 
 3042              	.LASF87:
 3043 00c5 63685363 		.ascii	"chSchRescheduleS\000"
 3043      68526573 
 3043      63686564 
 3043      756C6553 
 3043      00
 3044              	.LASF9:
 3045 00d6 5F5F7569 		.ascii	"__uint32_t\000"
 3045      6E743332 
 3045      5F7400
 3046              	.LASF40:
 3047 00e1 72656761 		.ascii	"regarm_t\000"
 3047      726D5F74 
 3047      00
 3048              	.LASF47:
 3049 00ea 76745F70 		.ascii	"vt_prev\000"
 3049      72657600 
 3050              	.LASF72:
 3051 00f2 63685468 		.ascii	"chThdSetPriority\000"
 3051      64536574 
 3051      5072696F 
 3051      72697479 
 3051      00
 3052              	.LASF0:
 3053 0103 756E7369 		.ascii	"unsigned int\000"
 3053      676E6564 
 3053      20696E74 
 3053      00
 3054              	.LASF46:
 3055 0110 76745F6E 		.ascii	"vt_next\000"
 3055      65787400 
 3056              	.LASF95:
 3057 0118 2F686F6D 		.ascii	"/home/dltech-deb/gdrive/Projects/RFM_to_Modbus_TCP/"
 3057      652F646C 
 3057      74656368 
 3057      2D646562 
 3057      2F676472 
 3058 014b 43686962 		.ascii	"ChibiOS/F103_ChibiOS_ENC60J28/main\000"
 3058      694F532F 
 3058      46313033 
 3058      5F436869 
 3058      62694F53 
 3059              	.LASF10:
 3060 016e 6C6F6E67 		.ascii	"long unsigned int\000"
 3060      20756E73 
 3060      69676E65 
 3060      6420696E 
ARM GAS  /tmp/ccM1PnCe.s 			page 56


 3060      7400
 3061              	.LASF44:
 3062 0180 76746675 		.ascii	"vtfunc_t\000"
 3062      6E635F74 
 3062      00
 3063              	.LASF70:
 3064 0189 73697A65 		.ascii	"size\000"
 3064      00
 3065              	.LASF6:
 3066 018e 73686F72 		.ascii	"short unsigned int\000"
 3066      7420756E 
 3066      7369676E 
 3066      65642069 
 3066      6E7400
 3067              	.LASF91:
 3068 01a1 63685363 		.ascii	"chSchWakeupS\000"
 3068      6857616B 
 3068      65757053 
 3068      00
 3069              	.LASF21:
 3070 01ae 6D73675F 		.ascii	"msg_t\000"
 3070      7400
 3071              	.LASF73:
 3072 01b4 6E657770 		.ascii	"newprio\000"
 3072      72696F00 
 3073              	.LASF17:
 3074 01bc 746D6F64 		.ascii	"tmode_t\000"
 3074      655F7400 
 3075              	.LASF75:
 3076 01c4 63685468 		.ascii	"chThdTerminate\000"
 3076      64546572 
 3076      6D696E61 
 3076      746500
 3077              	.LASF39:
 3078 01d3 54687265 		.ascii	"ThreadsList\000"
 3078      6164734C 
 3078      69737400 
 3079              	.LASF22:
 3080 01df 6576656E 		.ascii	"eventmask_t\000"
 3080      746D6173 
 3080      6B5F7400 
 3081              	.LASF58:
 3082 01eb 4D757465 		.ascii	"Mutex\000"
 3082      7800
 3083              	.LASF81:
 3084 01f1 6F6C6470 		.ascii	"oldprio\000"
 3084      72696F00 
 3085              	.LASF71:
 3086 01f9 63685468 		.ascii	"chThdCreateStatic\000"
 3086      64437265 
 3086      61746553 
 3086      74617469 
 3086      6300
 3087              	.LASF48:
 3088 020b 76745F74 		.ascii	"vt_time\000"
 3088      696D6500 
 3089              	.LASF43:
ARM GAS  /tmp/ccM1PnCe.s 			page 57


 3090 0213 73697A65 		.ascii	"sizetype\000"
 3090      74797065 
 3090      00
 3091              	.LASF49:
 3092 021c 76745F66 		.ascii	"vt_func\000"
 3092      756E6300 
 3093              	.LASF74:
 3094 0224 63685468 		.ascii	"chThdResume\000"
 3094      64526573 
 3094      756D6500 
 3095              	.LASF88:
 3096 0230 63685363 		.ascii	"chSchDoRescheduleBehind\000"
 3096      68446F52 
 3096      65736368 
 3096      6564756C 
 3096      65426568 
 3097              	.LASF52:
 3098 0248 56544C69 		.ascii	"VTList\000"
 3098      737400
 3099              	.LASF55:
 3100 024f 725F6374 		.ascii	"r_ctx\000"
 3100      7800
 3101              	.LASF38:
 3102 0255 54687265 		.ascii	"ThreadsQueue\000"
 3102      61647351 
 3102      75657565 
 3102      00
 3103              	.LASF77:
 3104 0262 74696D65 		.ascii	"time\000"
 3104      00
 3105              	.LASF96:
 3106 0267 6C697374 		.ascii	"list_insert\000"
 3106      5F696E73 
 3106      65727400 
 3107              	.LASF56:
 3108 0273 725F6375 		.ascii	"r_current\000"
 3108      7272656E 
 3108      7400
 3109              	.LASF78:
 3110 027d 63685468 		.ascii	"chThdSleepUntil\000"
 3110      64536C65 
 3110      6570556E 
 3110      74696C00 
 3111              	.LASF26:
 3112 028d 705F7072 		.ascii	"p_prev\000"
 3112      657600
 3113              	.LASF94:
 3114 0294 2E2E2F6F 		.ascii	"../os/kernel/src/chthreads.c\000"
 3114      732F6B65 
 3114      726E656C 
 3114      2F737263 
 3114      2F636874 
 3115              	.LASF20:
 3116 02b1 74707269 		.ascii	"tprio_t\000"
 3116      6F5F7400 
 3117              	.LASF93:
 3118 02b9 474E5520 		.ascii	"GNU C 4.8.4 20141219 (release) -mcpu=cortex-m3 -mno"
ARM GAS  /tmp/ccM1PnCe.s 			page 58


 3118      4320342E 
 3118      382E3420 
 3118      32303134 
 3118      31323139 
 3119 02ec 2D746875 		.ascii	"-thumb-interwork -mthumb -ggdb -O2 -fomit-frame-poi"
 3119      6D622D69 
 3119      6E746572 
 3119      776F726B 
 3119      202D6D74 
 3120 031f 6E746572 		.ascii	"nter -falign-functions=16 -ffunction-sections -fdat"
 3120      202D6661 
 3120      6C69676E 
 3120      2D66756E 
 3120      6374696F 
 3121 0352 612D7365 		.ascii	"a-sections -fno-common -fno-strict-aliasing\000"
 3121      6374696F 
 3121      6E73202D 
 3121      666E6F2D 
 3121      636F6D6D 
 3122              	.LASF16:
 3123 037e 5F426F6F 		.ascii	"_Bool\000"
 3123      6C00
 3124              	.LASF14:
 3125 0384 696E7433 		.ascii	"int32_t\000"
 3125      325F7400 
 3126              	.LASF4:
 3127 038c 756E7369 		.ascii	"unsigned char\000"
 3127      676E6564 
 3127      20636861 
 3127      7200
 3128              	.LASF36:
 3129 039a 705F6D74 		.ascii	"p_mtxlist\000"
 3129      786C6973 
 3129      7400
 3130              	.LASF5:
 3131 03a4 73686F72 		.ascii	"short int\000"
 3131      7420696E 
 3131      7400
 3132              	.LASF29:
 3133 03ae 705F7374 		.ascii	"p_state\000"
 3133      61746500 
 3134              	.LASF31:
 3135 03b6 705F7072 		.ascii	"p_preempt\000"
 3135      65656D70 
 3135      7400
 3136              	.LASF54:
 3137 03c0 725F7072 		.ascii	"r_prio\000"
 3137      696F00
 3138              	.LASF65:
 3139 03c7 65776D61 		.ascii	"ewmask\000"
 3139      736B00
 3140              	.LASF25:
 3141 03ce 705F6E65 		.ascii	"p_next\000"
 3141      787400
 3142              	.LASF30:
 3143 03d5 705F666C 		.ascii	"p_flags\000"
 3143      61677300 
ARM GAS  /tmp/ccM1PnCe.s 			page 59


 3144              	.LASF24:
 3145 03dd 54687265 		.ascii	"Thread\000"
 3145      616400
 3146              	.LASF92:
 3147 03e4 63685363 		.ascii	"chSchGoSleepS\000"
 3147      68476F53 
 3147      6C656570 
 3147      5300
 3148              	.LASF35:
 3149 03f2 705F6570 		.ascii	"p_epending\000"
 3149      656E6469 
 3149      6E6700
 3150              	.LASF15:
 3151 03fd 75696E74 		.ascii	"uint32_t\000"
 3151      33325F74 
 3151      00
 3152              	.LASF68:
 3153 0406 5F746872 		.ascii	"_thread_init\000"
 3153      6561645F 
 3153      696E6974 
 3153      00
 3154              	.LASF53:
 3155 0413 725F7175 		.ascii	"r_queue\000"
 3155      65756500 
 3156              	.LASF45:
 3157 041b 56697274 		.ascii	"VirtualTimer\000"
 3157      75616C54 
 3157      696D6572 
 3157      00
 3158              	.LASF90:
 3159 0428 63685363 		.ascii	"chSchReadyI\000"
 3159      68526561 
 3159      64794900 
 3160              	.LASF61:
 3161 0434 6D5F6E65 		.ascii	"m_next\000"
 3161      787400
 3162              	.LASF23:
 3163 043b 73797374 		.ascii	"systime_t\000"
 3163      696D655F 
 3163      7400
 3164              	.LASF37:
 3165 0445 705F7265 		.ascii	"p_realprio\000"
 3165      616C7072 
 3165      696F00
 3166              	.LASF7:
 3167 0450 5F5F696E 		.ascii	"__int32_t\000"
 3167      7433325F 
 3167      7400
 3168              	.LASF42:
 3169 045a 636F6E74 		.ascii	"context\000"
 3169      65787400 
 3170              	.LASF41:
 3171 0462 696E7463 		.ascii	"intctx\000"
 3171      747800
 3172              	.LASF33:
 3173 0469 705F6D73 		.ascii	"p_msgqueue\000"
 3173      67717565 
ARM GAS  /tmp/ccM1PnCe.s 			page 60


 3173      756500
 3174              	.LASF83:
 3175 0474 63685468 		.ascii	"chThdWait\000"
 3175      64576169 
 3175      7400
 3176              	.LASF50:
 3177 047e 76745F70 		.ascii	"vt_par\000"
 3177      617200
 3178              	.LASF76:
 3179 0485 63685468 		.ascii	"chThdSleep\000"
 3179      64536C65 
 3179      657000
 3180              	.LASF57:
 3181 0490 52656164 		.ascii	"ReadyList\000"
 3181      794C6973 
 3181      7400
 3182              	.LASF85:
 3183 049a 726C6973 		.ascii	"rlist\000"
 3183      7400
 3184              	.LASF13:
 3185 04a0 75696E74 		.ascii	"uint8_t\000"
 3185      385F7400 
 3186              	.LASF79:
 3187 04a8 63685468 		.ascii	"chThdYield\000"
 3187      64596965 
 3187      6C6400
 3188              	.LASF64:
 3189 04b3 77746F62 		.ascii	"wtobjp\000"
 3189      6A7000
 3190              	.LASF51:
 3191 04ba 76745F73 		.ascii	"vt_systime\000"
 3191      79737469 
 3191      6D6500
 3192              	.LASF86:
 3193 04c5 63685363 		.ascii	"chSchGoSleepTimeoutS\000"
 3193      68476F53 
 3193      6C656570 
 3193      54696D65 
 3193      6F757453 
 3194              	.LASF60:
 3195 04da 6D5F6F77 		.ascii	"m_owner\000"
 3195      6E657200 
 3196              	.LASF28:
 3197 04e2 705F6374 		.ascii	"p_ctx\000"
 3197      7800
 3198              	.LASF32:
 3199 04e8 705F7761 		.ascii	"p_waiting\000"
 3199      6974696E 
 3199      6700
 3200              		.ident	"GCC: (4.8.4-1+11-1) 4.8.4 20141219 (release)"
ARM GAS  /tmp/ccM1PnCe.s 			page 61


DEFINED SYMBOLS
                            *ABS*:0000000000000000 chthreads.c
     /tmp/ccM1PnCe.s:19     .text._thread_init:0000000000000000 $t
     /tmp/ccM1PnCe.s:25     .text._thread_init:0000000000000000 _thread_init
     /tmp/ccM1PnCe.s:76     .text.chThdCreateI:0000000000000000 $t
     /tmp/ccM1PnCe.s:82     .text.chThdCreateI:0000000000000000 chThdCreateI
     /tmp/ccM1PnCe.s:162    .text.chThdCreateI:0000000000000048 $d
     /tmp/ccM1PnCe.s:167    .text.chThdCreateStatic:0000000000000000 $t
     /tmp/ccM1PnCe.s:173    .text.chThdCreateStatic:0000000000000000 chThdCreateStatic
     /tmp/ccM1PnCe.s:276    .text.chThdCreateStatic:0000000000000058 $d
     /tmp/ccM1PnCe.s:281    .text.chThdSetPriority:0000000000000000 $t
     /tmp/ccM1PnCe.s:287    .text.chThdSetPriority:0000000000000000 chThdSetPriority
     /tmp/ccM1PnCe.s:340    .text.chThdSetPriority:000000000000002c $d
     /tmp/ccM1PnCe.s:345    .text.chThdResume:0000000000000000 $t
     /tmp/ccM1PnCe.s:351    .text.chThdResume:0000000000000000 chThdResume
     /tmp/ccM1PnCe.s:385    .text.chThdTerminate:0000000000000000 $t
     /tmp/ccM1PnCe.s:391    .text.chThdTerminate:0000000000000000 chThdTerminate
     /tmp/ccM1PnCe.s:420    .text.chThdSleep:0000000000000000 $t
     /tmp/ccM1PnCe.s:426    .text.chThdSleep:0000000000000000 chThdSleep
     /tmp/ccM1PnCe.s:459    .text.chThdSleepUntil:0000000000000000 $t
     /tmp/ccM1PnCe.s:465    .text.chThdSleepUntil:0000000000000000 chThdSleepUntil
     /tmp/ccM1PnCe.s:502    .text.chThdSleepUntil:000000000000001c $d
     /tmp/ccM1PnCe.s:507    .text.chThdYield:0000000000000000 $t
     /tmp/ccM1PnCe.s:513    .text.chThdYield:0000000000000000 chThdYield
     /tmp/ccM1PnCe.s:549    .text.chThdYield:0000000000000020 $d
     /tmp/ccM1PnCe.s:554    .text.chThdExitS:0000000000000000 $t
     /tmp/ccM1PnCe.s:560    .text.chThdExitS:0000000000000000 chThdExitS
     /tmp/ccM1PnCe.s:609    .text.chThdExitS:000000000000002c $d
     /tmp/ccM1PnCe.s:614    .text.chThdExit:0000000000000000 $t
     /tmp/ccM1PnCe.s:620    .text.chThdExit:0000000000000000 chThdExit
     /tmp/ccM1PnCe.s:644    .text.chThdWait:0000000000000000 $t
     /tmp/ccM1PnCe.s:650    .text.chThdWait:0000000000000000 chThdWait
     /tmp/ccM1PnCe.s:698    .text.chThdWait:0000000000000028 $d
                     .debug_frame:0000000000000010 $d
     /tmp/ccM1PnCe.s:166    .text.chThdCreateI:000000000000004c $t
     /tmp/ccM1PnCe.s:280    .text.chThdCreateStatic:000000000000005c $t
     /tmp/ccM1PnCe.s:553    .text.chThdYield:0000000000000024 $t
     /tmp/ccM1PnCe.s:702    .text.chThdWait:000000000000002c $t

UNDEFINED SYMBOLS
_port_thread_start
_port_lock
chSchWakeupS
_port_unlock
chSchRescheduleS
rlist
chSchGoSleepTimeoutS
vtlist
chSchDoRescheduleBehind
list_remove
chSchReadyI
chSchGoSleepS
list_insert
