ARM GAS  /tmp/ccENdww2.s 			page 1


   1              		.syntax unified
   2              		.cpu cortex-m3
   3              		.fpu softvfp
   4              		.eabi_attribute 20, 1
   5              		.eabi_attribute 21, 1
   6              		.eabi_attribute 23, 3
   7              		.eabi_attribute 24, 1
   8              		.eabi_attribute 25, 1
   9              		.eabi_attribute 26, 1
  10              		.eabi_attribute 30, 2
  11              		.eabi_attribute 34, 1
  12              		.eabi_attribute 18, 4
  13              		.thumb
  14              		.file	"chvt.c"
  15              		.text
  16              	.Ltext0:
  17              		.cfi_sections	.debug_frame
  18              		.section	.text._vt_init,"ax",%progbits
  19              		.align	2
  20              		.p2align 4,,15
  21              		.global	_vt_init
  22              		.thumb
  23              		.thumb_func
  24              		.type	_vt_init, %function
  25              	_vt_init:
  26              	.LFB0:
  27              		.file 1 "../os/kernel/src/chvt.c"
  28              		.loc 1 50 0
  29              		.cfi_startproc
  30              		@ args = 0, pretend = 0, frame = 0
  31              		@ frame_needed = 0, uses_anonymous_args = 0
  32              		@ link register save eliminated.
  33              		.loc 1 52 0
  34 0000 044B     		ldr	r3, .L2
  35              		.loc 1 53 0
  36 0002 4FF0FF31 		mov	r1, #-1
  37              		.loc 1 54 0
  38 0006 0022     		movs	r2, #0
  39              		.loc 1 52 0
  40 0008 5B60     		str	r3, [r3, #4]
  41 000a 1B60     		str	r3, [r3]
  42              		.loc 1 53 0
  43 000c 9960     		str	r1, [r3, #8]
  44              		.loc 1 54 0
  45 000e DA60     		str	r2, [r3, #12]
  46 0010 7047     		bx	lr
  47              	.L3:
  48 0012 00BF     		.align	2
  49              	.L2:
  50 0014 00000000 		.word	.LANCHOR0
  51              		.cfi_endproc
  52              	.LFE0:
  53              		.size	_vt_init, .-_vt_init
  54 0018 AFF30080 		.section	.text.chVTSetI,"ax",%progbits
  54      AFF30080 
  55              		.align	2
  56              		.p2align 4,,15
ARM GAS  /tmp/ccENdww2.s 			page 2


  57              		.global	chVTSetI
  58              		.thumb
  59              		.thumb_func
  60              		.type	chVTSetI, %function
  61              	chVTSetI:
  62              	.LFB1:
  63              		.loc 1 76 0
  64              		.cfi_startproc
  65              		@ args = 0, pretend = 0, frame = 0
  66              		@ frame_needed = 0, uses_anonymous_args = 0
  67              		@ link register save eliminated.
  68              	.LVL0:
  69 0000 30B4     		push	{r4, r5}
  70              		.cfi_def_cfa_offset 8
  71              		.cfi_offset 4, -8
  72              		.cfi_offset 5, -4
  73              		.loc 1 85 0
  74 0002 0C4D     		ldr	r5, .L9
  75              		.loc 1 83 0
  76 0004 0361     		str	r3, [r0, #16]
  77              		.loc 1 85 0
  78 0006 2C68     		ldr	r4, [r5]
  79              	.LVL1:
  80              		.loc 1 84 0
  81 0008 C260     		str	r2, [r0, #12]
  82              		.loc 1 86 0
  83 000a A368     		ldr	r3, [r4, #8]
  84              	.LVL2:
  85 000c 9942     		cmp	r1, r3
  86 000e 04D9     		bls	.L5
  87              	.L6:
  88              		.loc 1 88 0
  89 0010 2468     		ldr	r4, [r4]
  90              	.LVL3:
  91              		.loc 1 87 0
  92 0012 C91A     		subs	r1, r1, r3
  93              	.LVL4:
  94              		.loc 1 86 0
  95 0014 A368     		ldr	r3, [r4, #8]
  96 0016 8B42     		cmp	r3, r1
  97 0018 FAD3     		bcc	.L6
  98              	.L5:
  99              		.loc 1 91 0
 100 001a 0460     		str	r4, [r0]
 101 001c 6368     		ldr	r3, [r4, #4]
 102              		.loc 1 94 0
 103 001e AC42     		cmp	r4, r5
 104              		.loc 1 91 0
 105 0020 4360     		str	r3, [r0, #4]
 106              		.loc 1 92 0
 107 0022 6060     		str	r0, [r4, #4]
 108              	.LVL5:
 109 0024 1860     		str	r0, [r3]
 110              		.loc 1 93 0
 111 0026 8160     		str	r1, [r0, #8]
 112              		.loc 1 94 0
 113 0028 02D0     		beq	.L4
ARM GAS  /tmp/ccENdww2.s 			page 3


 114              		.loc 1 95 0
 115 002a A368     		ldr	r3, [r4, #8]
 116 002c 591A     		subs	r1, r3, r1
 117              	.LVL6:
 118 002e A160     		str	r1, [r4, #8]
 119              	.LVL7:
 120              	.L4:
 121              		.loc 1 96 0
 122 0030 30BC     		pop	{r4, r5}
 123              	.LVL8:
 124 0032 7047     		bx	lr
 125              	.L10:
 126              		.align	2
 127              	.L9:
 128 0034 00000000 		.word	.LANCHOR0
 129              		.cfi_endproc
 130              	.LFE1:
 131              		.size	chVTSetI, .-chVTSetI
 132 0038 AFF30080 		.section	.text.chVTResetI,"ax",%progbits
 132      AFF30080 
 133              		.align	2
 134              		.p2align 4,,15
 135              		.global	chVTResetI
 136              		.thumb
 137              		.thumb_func
 138              		.type	chVTResetI, %function
 139              	chVTResetI:
 140              	.LFB2:
 141              		.loc 1 106 0
 142              		.cfi_startproc
 143              		@ args = 0, pretend = 0, frame = 0
 144              		@ frame_needed = 0, uses_anonymous_args = 0
 145              		@ link register save eliminated.
 146              	.LVL9:
 147              		.loc 1 114 0
 148 0000 0368     		ldr	r3, [r0]
 149 0002 084A     		ldr	r2, .L13
 150 0004 9342     		cmp	r3, r2
 151 0006 04D0     		beq	.L12
 152              		.loc 1 115 0
 153 0008 9968     		ldr	r1, [r3, #8]
 154 000a 8268     		ldr	r2, [r0, #8]
 155 000c 0A44     		add	r2, r2, r1
 156 000e 9A60     		str	r2, [r3, #8]
 157 0010 0368     		ldr	r3, [r0]
 158              	.L12:
 159              		.loc 1 116 0
 160 0012 4268     		ldr	r2, [r0, #4]
 161              		.loc 1 118 0
 162 0014 0021     		movs	r1, #0
 163              		.loc 1 116 0
 164 0016 1360     		str	r3, [r2]
 165              		.loc 1 117 0
 166 0018 0368     		ldr	r3, [r0]
 167 001a 4268     		ldr	r2, [r0, #4]
 168 001c 5A60     		str	r2, [r3, #4]
 169              		.loc 1 118 0
ARM GAS  /tmp/ccENdww2.s 			page 4


 170 001e C160     		str	r1, [r0, #12]
 171 0020 7047     		bx	lr
 172              	.L14:
 173 0022 00BF     		.align	2
 174              	.L13:
 175 0024 00000000 		.word	.LANCHOR0
 176              		.cfi_endproc
 177              	.LFE2:
 178              		.size	chVTResetI, .-chVTResetI
 179              		.global	vtlist
 180 0028 AFF30080 		.section	.bss.vtlist,"aw",%nobits
 180      AFF30080 
 181              		.align	2
 182              		.set	.LANCHOR0,. + 0
 183              		.type	vtlist, %object
 184              		.size	vtlist, 16
 185              	vtlist:
 186 0000 00000000 		.space	16
 186      00000000 
 186      00000000 
 186      00000000 
 187              		.text
 188              	.Letext0:
 189              		.file 2 "/usr/include/newlib/machine/_default_types.h"
 190              		.file 3 "/usr/include/newlib/stdint.h"
 191              		.file 4 "../os/ports/GCC/ARMCMx/chtypes.h"
 192              		.file 5 "../os/kernel/include/chvt.h"