ARM GAS  /tmp/ccuRW4Ww.s 			page 1


   1              		.syntax unified
   2              		.cpu cortex-m3
   3              		.fpu softvfp
   4              		.eabi_attribute 20, 1
   5              		.eabi_attribute 21, 1
   6              		.eabi_attribute 23, 3
   7              		.eabi_attribute 24, 1
   8              		.eabi_attribute 25, 1
   9              		.eabi_attribute 26, 1
  10              		.eabi_attribute 30, 2
  11              		.eabi_attribute 34, 1
  12              		.eabi_attribute 18, 4
  13              		.thumb
  14              		.file	"enc.c"
  15              		.text
  16              	.Ltext0:
  17              		.cfi_sections	.debug_frame
  18              		.section	.text.enc_write_data.isra.0,"ax",%progbits
  19              		.align	2
  20              		.p2align 4,,15
  21              		.thumb
  22              		.thumb_func
  23              		.type	enc_write_data.isra.0, %function
  24              	enc_write_data.isra.0:
  25              	.LFB75:
  26              		.file 1 "enc.c"
  27              		.loc 1 26 0
  28              		.cfi_startproc
  29              		@ args = 0, pretend = 0, frame = 0
  30              		@ frame_needed = 0, uses_anonymous_args = 0
  31              	.LVL0:
  32 0000 70B5     		push	{r4, r5, r6, lr}
  33              		.cfi_def_cfa_offset 16
  34              		.cfi_offset 4, -16
  35              		.cfi_offset 5, -12
  36              		.cfi_offset 6, -8
  37              		.cfi_offset 14, -4
  38              		.loc 1 26 0
  39 0002 0446     		mov	r4, r0
  40 0004 0E46     		mov	r6, r1
  41 0006 1546     		mov	r5, r2
  42              		.loc 1 28 0
  43 0008 0068     		ldr	r0, [r0]
  44 000a FFF7FEFF 		bl	spiSelect
  45              	.LVL1:
  46              		.loc 1 29 0
  47 000e 2068     		ldr	r0, [r4]
  48 0010 3146     		mov	r1, r6
  49 0012 2A46     		mov	r2, r5
  50 0014 FFF7FEFF 		bl	spiSend
  51              	.LVL2:
  52              		.loc 1 30 0
  53 0018 2068     		ldr	r0, [r4]
  54              		.loc 1 31 0
  55 001a BDE87040 		pop	{r4, r5, r6, lr}
  56              	.LVL3:
  57              		.loc 1 30 0
ARM GAS  /tmp/ccuRW4Ww.s 			page 2


  58 001e FFF7FEBF 		b	spiUnselect
  59              	.LVL4:
  60              		.cfi_endproc
  61              	.LFE75:
  62              		.size	enc_write_data.isra.0, .-enc_write_data.isra.0
  63 0022 00BFAFF3 		.section	.text.enc_set_bank,"ax",%progbits
  63      0080AFF3 
  63      0080AFF3 
  63      0080
  64              		.align	2
  65              		.p2align 4,,15
  66              		.thumb
  67              		.thumb_func
  68              		.type	enc_set_bank, %function
  69              	enc_set_bank:
  70              	.LFB62:
  71              		.loc 1 60 0
  72              		.cfi_startproc
  73              		@ args = 0, pretend = 0, frame = 8
  74              		@ frame_needed = 0, uses_anonymous_args = 0
  75              	.LVL5:
  76 0000 70B5     		push	{r4, r5, r6, lr}
  77              		.cfi_def_cfa_offset 16
  78              		.cfi_offset 4, -16
  79              		.cfi_offset 5, -12
  80              		.cfi_offset 6, -8
  81              		.cfi_offset 14, -4
  82              		.loc 1 63 0
  83 0002 037C     		ldrb	r3, [r0, #16]	@ zero_extendqisi2
  84              		.loc 1 61 0
  85 0004 C1F34115 		ubfx	r5, r1, #5, #2
  86              	.LVL6:
  87              		.loc 1 63 0
  88 0008 AB42     		cmp	r3, r5
  89              		.loc 1 60 0
  90 000a 82B0     		sub	sp, sp, #8
  91              		.cfi_def_cfa_offset 24
  92              		.loc 1 60 0
  93 000c 0446     		mov	r4, r0
  94              		.loc 1 63 0
  95 000e 14D0     		beq	.L2
  96              	.LVL7:
  97              	.LBB40:
  98              	.LBB41:
  99              	.LBB42:
 100              		.loc 1 37 0
 101 0010 0323     		movs	r3, #3
 102              		.loc 1 38 0
 103 0012 01AA     		add	r2, sp, #4
 104 0014 0221     		movs	r1, #2
 105              		.loc 1 36 0
 106 0016 BF26     		movs	r6, #191
 107              		.loc 1 37 0
 108 0018 8DF80530 		strb	r3, [sp, #5]
 109              		.loc 1 36 0
 110 001c 8DF80460 		strb	r6, [sp, #4]
 111              		.loc 1 38 0
ARM GAS  /tmp/ccuRW4Ww.s 			page 3


 112 0020 FFF7FEFF 		bl	enc_write_data.isra.0
 113              	.LVL8:
 114              	.LBE42:
 115              	.LBE41:
 116              	.LBE40:
 117              	.LBB43:
 118              	.LBB44:
 119              	.LBB45:
 120              		.loc 1 36 0
 121 0024 9F23     		movs	r3, #159
 122              		.loc 1 38 0
 123 0026 01AA     		add	r2, sp, #4
 124 0028 2046     		mov	r0, r4
 125 002a 0221     		movs	r1, #2
 126              		.loc 1 37 0
 127 002c 8DF80550 		strb	r5, [sp, #5]
 128              		.loc 1 36 0
 129 0030 8DF80430 		strb	r3, [sp, #4]
 130              		.loc 1 38 0
 131 0034 FFF7FEFF 		bl	enc_write_data.isra.0
 132              	.LVL9:
 133              	.LBE45:
 134              	.LBE44:
 135              	.LBE43:
 136              		.loc 1 67 0
 137 0038 2574     		strb	r5, [r4, #16]
 138              	.LVL10:
 139              	.L2:
 140              		.loc 1 68 0
 141 003a 02B0     		add	sp, sp, #8
 142              		@ sp needed
 143 003c 70BD     		pop	{r4, r5, r6, pc}
 144              		.cfi_endproc
 145              	.LFE62:
 146              		.size	enc_set_bank, .-enc_set_bank
 147 003e 00BF     		.section	.text.enc_register_write,"ax",%progbits
 148              		.align	2
 149              		.p2align 4,,15
 150              		.thumb
 151              		.thumb_func
 152              		.type	enc_register_write, %function
 153              	enc_register_write:
 154              	.LFB63:
 155              		.loc 1 71 0
 156              		.cfi_startproc
 157              		@ args = 0, pretend = 0, frame = 8
 158              		@ frame_needed = 0, uses_anonymous_args = 0
 159              	.LVL11:
 160 0000 70B5     		push	{r4, r5, r6, lr}
 161              		.cfi_def_cfa_offset 16
 162              		.cfi_offset 4, -16
 163              		.cfi_offset 5, -12
 164              		.cfi_offset 6, -8
 165              		.cfi_offset 14, -4
 166 0002 0D46     		mov	r5, r1
 167 0004 82B0     		sub	sp, sp, #8
 168              		.cfi_def_cfa_offset 24
ARM GAS  /tmp/ccuRW4Ww.s 			page 4


 169              		.loc 1 71 0
 170 0006 0646     		mov	r6, r0
 171              		.loc 1 73 0
 172 0008 05F01F05 		and	r5, r5, #31
 173              		.loc 1 71 0
 174 000c 1446     		mov	r4, r2
 175              		.loc 1 73 0
 176 000e 45F04005 		orr	r5, r5, #64
 177              		.loc 1 72 0
 178 0012 FFF7FEFF 		bl	enc_set_bank
 179              	.LVL12:
 180              	.LBB46:
 181              	.LBB47:
 182              		.loc 1 38 0
 183 0016 3046     		mov	r0, r6
 184 0018 0221     		movs	r1, #2
 185 001a 01AA     		add	r2, sp, #4
 186              		.loc 1 37 0
 187 001c 8DF80540 		strb	r4, [sp, #5]
 188              		.loc 1 36 0
 189 0020 8DF80450 		strb	r5, [sp, #4]
 190              		.loc 1 38 0
 191 0024 FFF7FEFF 		bl	enc_write_data.isra.0
 192              	.LVL13:
 193              	.LBE47:
 194              	.LBE46:
 195              		.loc 1 74 0
 196 0028 02B0     		add	sp, sp, #8
 197              		@ sp needed
 198 002a 70BD     		pop	{r4, r5, r6, pc}
 199              		.cfi_endproc
 200              	.LFE63:
 201              		.size	enc_register_write, .-enc_register_write
 202 002c AFF30080 		.section	.text.enc_buffer_write.isra.1,"ax",%progbits
 203              		.align	2
 204              		.p2align 4,,15
 205              		.thumb
 206              		.thumb_func
 207              		.type	enc_buffer_write.isra.1, %function
 208              	enc_buffer_write.isra.1:
 209              	.LFB76:
 210              		.loc 1 87 0
 211              		.cfi_startproc
 212              		@ args = 0, pretend = 0, frame = 8
 213              		@ frame_needed = 0, uses_anonymous_args = 0
 214              	.LVL14:
 215 0000 F0B5     		push	{r4, r5, r6, r7, lr}
 216              		.cfi_def_cfa_offset 20
 217              		.cfi_offset 4, -20
 218              		.cfi_offset 5, -16
 219              		.cfi_offset 6, -12
 220              		.cfi_offset 7, -8
 221              		.cfi_offset 14, -4
 222 0002 83B0     		sub	sp, sp, #12
 223              		.cfi_def_cfa_offset 32
 224              		.loc 1 89 0
 225 0004 7A23     		movs	r3, #122
ARM GAS  /tmp/ccuRW4Ww.s 			page 5


 226 0006 02AD     		add	r5, sp, #8
 227 0008 05F8043D 		strb	r3, [r5, #-4]!
 228              		.loc 1 87 0
 229 000c 0446     		mov	r4, r0
 230              		.loc 1 91 0
 231 000e 0068     		ldr	r0, [r0]
 232              		.loc 1 87 0
 233 0010 0F46     		mov	r7, r1
 234 0012 1646     		mov	r6, r2
 235              		.loc 1 91 0
 236 0014 FFF7FEFF 		bl	spiSelect
 237              	.LVL15:
 238              		.loc 1 92 0
 239 0018 2A46     		mov	r2, r5
 240 001a 2068     		ldr	r0, [r4]
 241 001c 0121     		movs	r1, #1
 242 001e FFF7FEFF 		bl	spiSend
 243              	.LVL16:
 244              		.loc 1 93 0
 245 0022 3946     		mov	r1, r7
 246 0024 3246     		mov	r2, r6
 247 0026 2068     		ldr	r0, [r4]
 248 0028 FFF7FEFF 		bl	spiSend
 249              	.LVL17:
 250              		.loc 1 94 0
 251 002c 2068     		ldr	r0, [r4]
 252 002e FFF7FEFF 		bl	spiUnselect
 253              	.LVL18:
 254              		.loc 1 95 0
 255 0032 03B0     		add	sp, sp, #12
 256              		@ sp needed
 257 0034 F0BD     		pop	{r4, r5, r6, r7, pc}
 258              		.cfi_endproc
 259              	.LFE76:
 260              		.size	enc_buffer_write.isra.1, .-enc_buffer_write.isra.1
 261 0036 00BFAFF3 		.section	.text.enc_read.isra.2,"ax",%progbits
 261      0080AFF3 
 261      0080
 262              		.align	2
 263              		.p2align 4,,15
 264              		.thumb
 265              		.thumb_func
 266              		.type	enc_read.isra.2, %function
 267              	enc_read.isra.2:
 268              	.LFB77:
 269              		.loc 1 41 0
 270              		.cfi_startproc
 271              		@ args = 0, pretend = 0, frame = 8
 272              		@ frame_needed = 0, uses_anonymous_args = 0
 273              	.LVL19:
 274 0000 F0B5     		push	{r4, r5, r6, r7, lr}
 275              		.cfi_def_cfa_offset 20
 276              		.cfi_offset 4, -20
 277              		.cfi_offset 5, -16
 278              		.cfi_offset 6, -12
 279              		.cfi_offset 7, -8
 280              		.cfi_offset 14, -4
ARM GAS  /tmp/ccuRW4Ww.s 			page 6


 281 0002 83B0     		sub	sp, sp, #12
 282              		.cfi_def_cfa_offset 32
 283              		.loc 1 41 0
 284 0004 02AD     		add	r5, sp, #8
 285 0006 0446     		mov	r4, r0
 286 0008 05F8011D 		strb	r1, [r5, #-1]!
 287              		.loc 1 43 0
 288 000c 0068     		ldr	r0, [r0]
 289              		.loc 1 41 0
 290 000e 1F46     		mov	r7, r3
 291 0010 1646     		mov	r6, r2
 292              		.loc 1 43 0
 293 0012 FFF7FEFF 		bl	spiSelect
 294              	.LVL20:
 295              		.loc 1 44 0
 296 0016 2A46     		mov	r2, r5
 297 0018 2068     		ldr	r0, [r4]
 298 001a 0121     		movs	r1, #1
 299 001c FFF7FEFF 		bl	spiSend
 300              	.LVL21:
 301              		.loc 1 45 0
 302 0020 3146     		mov	r1, r6
 303 0022 3A46     		mov	r2, r7
 304 0024 2068     		ldr	r0, [r4]
 305 0026 FFF7FEFF 		bl	spiReceive
 306              	.LVL22:
 307              		.loc 1 46 0
 308 002a 2068     		ldr	r0, [r4]
 309 002c FFF7FEFF 		bl	spiUnselect
 310              	.LVL23:
 311              		.loc 1 47 0
 312 0030 03B0     		add	sp, sp, #12
 313              		@ sp needed
 314 0032 F0BD     		pop	{r4, r5, r6, r7, pc}
 315              		.cfi_endproc
 316              	.LFE77:
 317              		.size	enc_read.isra.2, .-enc_read.isra.2
 318 0034 AFF30080 		.section	.text.enc_register_read,"ax",%progbits
 318      AFF30080 
 318      AFF30080 
 319              		.align	2
 320              		.p2align 4,,15
 321              		.thumb
 322              		.thumb_func
 323              		.type	enc_register_read, %function
 324              	enc_register_read:
 325              	.LFB64:
 326              		.loc 1 77 0
 327              		.cfi_startproc
 328              		@ args = 0, pretend = 0, frame = 8
 329              		@ frame_needed = 0, uses_anonymous_args = 0
 330              	.LVL24:
 331 0000 70B5     		push	{r4, r5, r6, lr}
 332              		.cfi_def_cfa_offset 16
 333              		.cfi_offset 4, -16
 334              		.cfi_offset 5, -12
 335              		.cfi_offset 6, -8
ARM GAS  /tmp/ccuRW4Ww.s 			page 7


 336              		.cfi_offset 14, -4
 337              		.loc 1 78 0
 338 0002 0023     		movs	r3, #0
 339              		.loc 1 77 0
 340 0004 82B0     		sub	sp, sp, #8
 341              		.cfi_def_cfa_offset 24
 342              		.loc 1 79 0
 343 0006 CC09     		lsrs	r4, r1, #7
 344              	.LVL25:
 345              		.loc 1 77 0
 346 0008 0D46     		mov	r5, r1
 347              		.loc 1 78 0
 348 000a 8DF80430 		strb	r3, [sp, #4]
 349 000e 8DF80530 		strb	r3, [sp, #5]
 350              		.loc 1 77 0
 351 0012 0646     		mov	r6, r0
 352              		.loc 1 81 0
 353 0014 FFF7FEFF 		bl	enc_set_bank
 354              	.LVL26:
 355              		.loc 1 82 0
 356 0018 002C     		cmp	r4, #0
 357 001a 3046     		mov	r0, r6
 358 001c 01AB     		add	r3, sp, #4
 359 001e 05F01F01 		and	r1, r5, #31
 360 0022 0CBF     		ite	eq
 361 0024 0122     		moveq	r2, #1
 362 0026 0222     		movne	r2, #2
 363 0028 FFF7FEFF 		bl	enc_read.isra.2
 364              	.LVL27:
 365              		.loc 1 84 0
 366 002c 02AB     		add	r3, sp, #8
 367 002e 1C44     		add	r4, r4, r3
 368              	.LVL28:
 369              		.loc 1 85 0
 370 0030 14F8040C 		ldrb	r0, [r4, #-4]	@ zero_extendqisi2
 371 0034 02B0     		add	sp, sp, #8
 372              		@ sp needed
 373 0036 70BD     		pop	{r4, r5, r6, pc}
 374              		.cfi_endproc
 375              	.LFE64:
 376              		.size	enc_register_read, .-enc_register_read
 377 0038 AFF30080 		.section	.text.enc_reset,"ax",%progbits
 377      AFF30080 
 378              		.align	2
 379              		.p2align 4,,15
 380              		.global	enc_reset
 381              		.thumb
 382              		.thumb_func
 383              		.type	enc_reset, %function
 384              	enc_reset:
 385              	.LFB56:
 386              		.loc 1 8 0
 387              		.cfi_startproc
 388              		@ args = 0, pretend = 0, frame = 8
 389              		@ frame_needed = 0, uses_anonymous_args = 0
 390              	.LVL29:
 391 0000 F0B5     		push	{r4, r5, r6, r7, lr}
ARM GAS  /tmp/ccuRW4Ww.s 			page 8


 392              		.cfi_def_cfa_offset 20
 393              		.cfi_offset 4, -20
 394              		.cfi_offset 5, -16
 395              		.cfi_offset 6, -12
 396              		.cfi_offset 7, -8
 397              		.cfi_offset 14, -4
 398 0002 83B0     		sub	sp, sp, #12
 399              		.cfi_def_cfa_offset 32
 400              		.loc 1 9 0
 401 0004 FF23     		movs	r3, #255
 402 0006 02AD     		add	r5, sp, #8
 403              		.loc 1 8 0
 404 0008 0446     		mov	r4, r0
 405              		.loc 1 9 0
 406 000a 05F8013D 		strb	r3, [r5, #-1]!
 407              		.loc 1 12 0
 408              	@ 12 "enc.c" 1
 409 000e FFF7FEFF 		bl      _port_lock
 410              	@ 0 "" 2
 411              		.loc 1 13 0
 412              		.thumb
 413 0012 0C4E     		ldr	r6, .L12
 414 0014 0227     		movs	r7, #2
 415 0016 7761     		str	r7, [r6, #20]
 416              		.loc 1 14 0
 417 0018 0120     		movs	r0, #1
 418              	.LVL30:
 419 001a FFF7FEFF 		bl	chThdSleep
 420              	.LVL31:
 421              		.loc 1 15 0
 422 001e 3761     		str	r7, [r6, #16]
 423              		.loc 1 16 0
 424              	@ 16 "enc.c" 1
 425 0020 FFF7FEFF 		bl      _port_unlock
 426              	@ 0 "" 2
 427              		.loc 1 18 0
 428              		.thumb
 429 0024 2068     		ldr	r0, [r4]
 430 0026 FFF7FEFF 		bl	spiSelect
 431              	.LVL32:
 432              		.loc 1 19 0
 433 002a 2A46     		mov	r2, r5
 434 002c 0121     		movs	r1, #1
 435 002e 2068     		ldr	r0, [r4]
 436 0030 FFF7FEFF 		bl	spiSend
 437              	.LVL33:
 438              		.loc 1 20 0
 439 0034 2068     		ldr	r0, [r4]
 440 0036 FFF7FEFF 		bl	spiUnselect
 441              	.LVL34:
 442              		.loc 1 23 0
 443 003a 0120     		movs	r0, #1
 444 003c FFF7FEFF 		bl	chThdSleep
 445              	.LVL35:
 446              		.loc 1 24 0
 447 0040 03B0     		add	sp, sp, #12
 448              		@ sp needed
ARM GAS  /tmp/ccuRW4Ww.s 			page 9


 449 0042 F0BD     		pop	{r4, r5, r6, r7, pc}
 450              	.LVL36:
 451              	.L13:
 452              		.align	2
 453              	.L12:
 454 0044 000C0140 		.word	1073810432
 455              		.cfi_endproc
 456              	.LFE56:
 457              		.size	enc_reset, .-enc_reset
 458 0048 AFF30080 		.section	.text.enc_write,"ax",%progbits
 458      AFF30080 
 459              		.align	2
 460              		.p2align 4,,15
 461              		.global	enc_write
 462              		.thumb
 463              		.thumb_func
 464              		.type	enc_write, %function
 465              	enc_write:
 466              	.LFB58:
 467              		.loc 1 34 0
 468              		.cfi_startproc
 469              		@ args = 0, pretend = 0, frame = 8
 470              		@ frame_needed = 0, uses_anonymous_args = 0
 471              	.LVL37:
 472 0000 00B5     		push	{lr}
 473              		.cfi_def_cfa_offset 4
 474              		.cfi_offset 14, -4
 475 0002 83B0     		sub	sp, sp, #12
 476              		.cfi_def_cfa_offset 16
 477              		.loc 1 36 0
 478 0004 8DF80420 		strb	r2, [sp, #4]
 479              		.loc 1 38 0
 480 0008 01AA     		add	r2, sp, #4
 481              	.LVL38:
 482              		.loc 1 37 0
 483 000a 8DF80530 		strb	r3, [sp, #5]
 484              		.loc 1 38 0
 485 000e FFF7FEFF 		bl	enc_write_data.isra.0
 486              	.LVL39:
 487              		.loc 1 39 0
 488 0012 03B0     		add	sp, sp, #12
 489              		@ sp needed
 490 0014 5DF804FB 		ldr	pc, [sp], #4
 491              		.cfi_endproc
 492              	.LFE58:
 493              		.size	enc_write, .-enc_write
 494 0018 AFF30080 		.section	.text.enc_bit_set,"ax",%progbits
 494      AFF30080 
 495              		.align	2
 496              		.p2align 4,,15
 497              		.global	enc_bit_set
 498              		.thumb
 499              		.thumb_func
 500              		.type	enc_bit_set, %function
 501              	enc_bit_set:
 502              	.LFB60:
 503              		.loc 1 50 0
ARM GAS  /tmp/ccuRW4Ww.s 			page 10


 504              		.cfi_startproc
 505              		@ args = 0, pretend = 0, frame = 8
 506              		@ frame_needed = 0, uses_anonymous_args = 0
 507              	.LVL40:
 508 0000 00B5     		push	{lr}
 509              		.cfi_def_cfa_offset 4
 510              		.cfi_offset 14, -4
 511              		.loc 1 51 0
 512 0002 01F01F01 		and	r1, r1, #31
 513              	.LVL41:
 514              		.loc 1 50 0
 515 0006 83B0     		sub	sp, sp, #12
 516              		.cfi_def_cfa_offset 16
 517              		.loc 1 51 0
 518 0008 61F07F03 		orn	r3, r1, #127
 519              	.LBB48:
 520              	.LBB49:
 521              		.loc 1 37 0
 522 000c 8DF80520 		strb	r2, [sp, #5]
 523              		.loc 1 38 0
 524 0010 0221     		movs	r1, #2
 525 0012 01AA     		add	r2, sp, #4
 526              	.LVL42:
 527              		.loc 1 36 0
 528 0014 8DF80430 		strb	r3, [sp, #4]
 529              		.loc 1 38 0
 530 0018 FFF7FEFF 		bl	enc_write_data.isra.0
 531              	.LVL43:
 532              	.LBE49:
 533              	.LBE48:
 534              		.loc 1 52 0
 535 001c 03B0     		add	sp, sp, #12
 536              		@ sp needed
 537 001e 5DF804FB 		ldr	pc, [sp], #4
 538              		.cfi_endproc
 539              	.LFE60:
 540              		.size	enc_bit_set, .-enc_bit_set
 541 0022 00BFAFF3 		.section	.text.enc_bit_clr,"ax",%progbits
 541      0080AFF3 
 541      0080AFF3 
 541      0080
 542              		.align	2
 543              		.p2align 4,,15
 544              		.global	enc_bit_clr
 545              		.thumb
 546              		.thumb_func
 547              		.type	enc_bit_clr, %function
 548              	enc_bit_clr:
 549              	.LFB61:
 550              		.loc 1 55 0
 551              		.cfi_startproc
 552              		@ args = 0, pretend = 0, frame = 8
 553              		@ frame_needed = 0, uses_anonymous_args = 0
 554              	.LVL44:
 555 0000 00B5     		push	{lr}
 556              		.cfi_def_cfa_offset 4
 557              		.cfi_offset 14, -4
ARM GAS  /tmp/ccuRW4Ww.s 			page 11


 558              		.loc 1 56 0
 559 0002 01F01F01 		and	r1, r1, #31
 560              	.LVL45:
 561              		.loc 1 55 0
 562 0006 83B0     		sub	sp, sp, #12
 563              		.cfi_def_cfa_offset 16
 564              		.loc 1 56 0
 565 0008 61F05F03 		orn	r3, r1, #95
 566              	.LBB50:
 567              	.LBB51:
 568              		.loc 1 37 0
 569 000c 8DF80520 		strb	r2, [sp, #5]
 570              		.loc 1 38 0
 571 0010 0221     		movs	r1, #2
 572 0012 01AA     		add	r2, sp, #4
 573              	.LVL46:
 574              		.loc 1 36 0
 575 0014 8DF80430 		strb	r3, [sp, #4]
 576              		.loc 1 38 0
 577 0018 FFF7FEFF 		bl	enc_write_data.isra.0
 578              	.LVL47:
 579              	.LBE51:
 580              	.LBE50:
 581              		.loc 1 57 0
 582 001c 03B0     		add	sp, sp, #12
 583              		@ sp needed
 584 001e 5DF804FB 		ldr	pc, [sp], #4
 585              		.cfi_endproc
 586              	.LFE61:
 587              		.size	enc_bit_clr, .-enc_bit_clr
 588 0022 00BFAFF3 		.section	.text.enc_phy_read,"ax",%progbits
 588      0080AFF3 
 588      0080AFF3 
 588      0080
 589              		.align	2
 590              		.p2align 4,,15
 591              		.global	enc_phy_read
 592              		.thumb
 593              		.thumb_func
 594              		.type	enc_phy_read, %function
 595              	enc_phy_read:
 596              	.LFB67:
 597              		.loc 1 110 0
 598              		.cfi_startproc
 599              		@ args = 0, pretend = 0, frame = 8
 600              		@ frame_needed = 0, uses_anonymous_args = 0
 601              	.LVL48:
 602 0000 30B5     		push	{r4, r5, lr}
 603              		.cfi_def_cfa_offset 12
 604              		.cfi_offset 4, -12
 605              		.cfi_offset 5, -8
 606              		.cfi_offset 14, -4
 607 0002 0A46     		mov	r2, r1
 608 0004 83B0     		sub	sp, sp, #12
 609              		.cfi_def_cfa_offset 24
 610              		.loc 1 110 0
 611 0006 0446     		mov	r4, r0
ARM GAS  /tmp/ccuRW4Ww.s 			page 12


 612              		.loc 1 113 0
 613 0008 D421     		movs	r1, #212
 614              	.LVL49:
 615 000a FFF7FEFF 		bl	enc_register_write
 616              	.LVL50:
 617              	.LBB52:
 618              	.LBB53:
 619              	.LBB54:
 620              		.loc 1 36 0
 621 000e 9225     		movs	r5, #146
 622              		.loc 1 37 0
 623 0010 0123     		movs	r3, #1
 624              		.loc 1 38 0
 625 0012 2046     		mov	r0, r4
 626 0014 0221     		movs	r1, #2
 627 0016 01AA     		add	r2, sp, #4
 628              		.loc 1 36 0
 629 0018 8DF80450 		strb	r5, [sp, #4]
 630              		.loc 1 37 0
 631 001c 8DF80530 		strb	r3, [sp, #5]
 632              		.loc 1 38 0
 633 0020 FFF7FEFF 		bl	enc_write_data.isra.0
 634              	.LVL51:
 635 0024 01E0     		b	.L18
 636              	.L19:
 637              	.LBE54:
 638              	.LBE53:
 639              	.LBE52:
 640              		.loc 1 117 0
 641 0026 FFF7FEFF 		bl	chThdSleep
 642              	.LVL52:
 643              	.L18:
 644              		.loc 1 116 0 discriminator 1
 645 002a 2046     		mov	r0, r4
 646 002c EA21     		movs	r1, #234
 647 002e FFF7FEFF 		bl	enc_register_read
 648              	.LVL53:
 649 0032 10F00102 		ands	r2, r0, #1
 650              		.loc 1 117 0 discriminator 1
 651 0036 4FF00100 		mov	r0, #1
 652              		.loc 1 116 0 discriminator 1
 653 003a F4D1     		bne	.L19
 654              		.loc 1 120 0
 655 003c 2046     		mov	r0, r4
 656 003e D221     		movs	r1, #210
 657 0040 FFF7FEFF 		bl	enc_register_write
 658              	.LVL54:
 659              		.loc 1 122 0
 660 0044 2046     		mov	r0, r4
 661 0046 D921     		movs	r1, #217
 662 0048 FFF7FEFF 		bl	enc_register_read
 663              	.LVL55:
 664              		.loc 1 123 0
 665 004c D821     		movs	r1, #216
 666              		.loc 1 122 0
 667 004e 0302     		lsls	r3, r0, #8
 668              		.loc 1 123 0
ARM GAS  /tmp/ccuRW4Ww.s 			page 13


 669 0050 2046     		mov	r0, r4
 670              		.loc 1 122 0
 671 0052 9CB2     		uxth	r4, r3
 672              	.LVL56:
 673              		.loc 1 123 0
 674 0054 FFF7FEFF 		bl	enc_register_read
 675              	.LVL57:
 676 0058 2043     		orrs	r0, r0, r4
 677              	.LVL58:
 678              		.loc 1 126 0
 679 005a 80B2     		uxth	r0, r0
 680 005c 03B0     		add	sp, sp, #12
 681              		@ sp needed
 682 005e 30BD     		pop	{r4, r5, pc}
 683              		.cfi_endproc
 684              	.LFE67:
 685              		.size	enc_phy_read, .-enc_phy_read
 686              		.section	.text.enc_int_clear,"ax",%progbits
 687              		.align	2
 688              		.p2align 4,,15
 689              		.global	enc_int_clear
 690              		.thumb
 691              		.thumb_func
 692              		.type	enc_int_clear, %function
 693              	enc_int_clear:
 694              	.LFB68:
 695              		.loc 1 129 0
 696              		.cfi_startproc
 697              		@ args = 0, pretend = 0, frame = 8
 698              		@ frame_needed = 0, uses_anonymous_args = 0
 699              	.LVL59:
 700 0000 00B5     		push	{lr}
 701              		.cfi_def_cfa_offset 4
 702              		.cfi_offset 14, -4
 703 0002 83B0     		sub	sp, sp, #12
 704              		.cfi_def_cfa_offset 16
 705              	.LBB55:
 706              	.LBB56:
 707              	.LBB57:
 708              		.loc 1 37 0
 709 0004 8DF80510 		strb	r1, [sp, #5]
 710              		.loc 1 36 0
 711 0008 BC23     		movs	r3, #188
 712              		.loc 1 38 0
 713 000a 0221     		movs	r1, #2
 714              	.LVL60:
 715 000c 01AA     		add	r2, sp, #4
 716              		.loc 1 36 0
 717 000e 8DF80430 		strb	r3, [sp, #4]
 718              		.loc 1 38 0
 719 0012 FFF7FEFF 		bl	enc_write_data.isra.0
 720              	.LVL61:
 721              	.LBE57:
 722              	.LBE56:
 723              	.LBE55:
 724              		.loc 1 131 0
 725 0016 03B0     		add	sp, sp, #12
ARM GAS  /tmp/ccuRW4Ww.s 			page 14


 726              		@ sp needed
 727 0018 5DF804FB 		ldr	pc, [sp], #4
 728              		.cfi_endproc
 729              	.LFE68:
 730              		.size	enc_int_clear, .-enc_int_clear
 731 001c AFF30080 		.section	.text.enc_int_flags,"ax",%progbits
 732              		.align	2
 733              		.p2align 4,,15
 734              		.global	enc_int_flags
 735              		.thumb
 736              		.thumb_func
 737              		.type	enc_int_flags, %function
 738              	enc_int_flags:
 739              	.LFB69:
 740              		.loc 1 134 0
 741              		.cfi_startproc
 742              		@ args = 0, pretend = 0, frame = 0
 743              		@ frame_needed = 0, uses_anonymous_args = 0
 744              		@ link register save eliminated.
 745              	.LVL62:
 746              		.loc 1 135 0
 747 0000 1C21     		movs	r1, #28
 748 0002 FFF7FEBF 		b	enc_register_read
 749              	.LVL63:
 750              		.cfi_endproc
 751              	.LFE69:
 752              		.size	enc_int_flags, .-enc_int_flags
 753 0006 00BFAFF3 		.section	.text.enc_read_REG,"ax",%progbits
 753      0080AFF3 
 753      0080
 754              		.align	2
 755              		.p2align 4,,15
 756              		.global	enc_read_REG
 757              		.thumb
 758              		.thumb_func
 759              		.type	enc_read_REG, %function
 760              	enc_read_REG:
 761              	.LFB70:
 762              		.loc 1 140 0
 763              		.cfi_startproc
 764              		@ args = 0, pretend = 0, frame = 0
 765              		@ frame_needed = 0, uses_anonymous_args = 0
 766              		@ link register save eliminated.
 767              	.LVL64:
 768              		.loc 1 141 0
 769 0000 FFF7FEBF 		b	enc_register_read
 770              	.LVL65:
 771              		.cfi_endproc
 772              	.LFE70:
 773              		.size	enc_read_REG, .-enc_read_REG
 774 0004 AFF30080 		.section	.text.enc_packet_send,"ax",%progbits
 774      AFF30080 
 774      AFF30080 
 775              		.align	2
 776              		.p2align 4,,15
 777              		.global	enc_packet_send
 778              		.thumb
ARM GAS  /tmp/ccuRW4Ww.s 			page 15


 779              		.thumb_func
 780              		.type	enc_packet_send, %function
 781              	enc_packet_send:
 782              	.LFB71:
 783              		.loc 1 145 0
 784              		.cfi_startproc
 785              		@ args = 4, pretend = 0, frame = 8
 786              		@ frame_needed = 0, uses_anonymous_args = 0
 787              	.LVL66:
 788 0000 2DE9F041 		push	{r4, r5, r6, r7, r8, lr}
 789              		.cfi_def_cfa_offset 24
 790              		.cfi_offset 4, -24
 791              		.cfi_offset 5, -20
 792              		.cfi_offset 6, -16
 793              		.cfi_offset 7, -12
 794              		.cfi_offset 8, -8
 795              		.cfi_offset 14, -4
 796              		.loc 1 146 0
 797 0004 0024     		movs	r4, #0
 798              		.loc 1 145 0
 799 0006 82B0     		sub	sp, sp, #8
 800              		.cfi_def_cfa_offset 32
 801              		.loc 1 146 0
 802 0008 8DF80040 		strb	r4, [sp]
 803              	.LVL67:
 804              		.loc 1 145 0
 805 000c 0546     		mov	r5, r0
 806 000e 0F46     		mov	r7, r1
 807 0010 9046     		mov	r8, r2
 808 0012 1E46     		mov	r6, r3
 809              		.loc 1 149 0
 810 0014 4FF6FF74 		movw	r4, #65535
 811 0018 06E0     		b	.L24
 812              	.LVL68:
 813              	.L29:
 814              		.loc 1 151 0
 815 001a FFF7FEFF 		bl	enc_register_read
 816              	.LVL69:
 817 001e 8307     		lsls	r3, r0, #30
 818 0020 0CD4     		bmi	.L28
 819 0022 013C     		subs	r4, r4, #1
 820              	.LVL70:
 821 0024 A4B2     		uxth	r4, r4
 822              	.LVL71:
 823              		.loc 1 160 0
 824 0026 4CB1     		cbz	r4, .L28
 825              	.L24:
 826              	.LVL72:
 827              		.loc 1 149 0 discriminator 1
 828 0028 1F21     		movs	r1, #31
 829 002a 2846     		mov	r0, r5
 830 002c FFF7FEFF 		bl	enc_register_read
 831              	.LVL73:
 832 0030 10F0080F 		tst	r0, #8
 833              		.loc 1 151 0 discriminator 1
 834 0034 4FF01C01 		mov	r1, #28
 835 0038 2846     		mov	r0, r5
ARM GAS  /tmp/ccuRW4Ww.s 			page 16


 836              		.loc 1 149 0 discriminator 1
 837 003a EED1     		bne	.L29
 838              	.LVL74:
 839              	.L28:
 840              	.LBB58:
 841              	.LBB59:
 842              	.LBB60:
 843              		.loc 1 36 0
 844 003c 9F23     		movs	r3, #159
 845              		.loc 1 38 0
 846 003e 01AA     		add	r2, sp, #4
 847              		.loc 1 37 0
 848 0040 8024     		movs	r4, #128
 849              		.loc 1 38 0
 850 0042 2846     		mov	r0, r5
 851 0044 0221     		movs	r1, #2
 852              		.loc 1 36 0
 853 0046 8DF80430 		strb	r3, [sp, #4]
 854              		.loc 1 37 0
 855 004a 8DF80540 		strb	r4, [sp, #5]
 856              		.loc 1 38 0
 857 004e FFF7FEFF 		bl	enc_write_data.isra.0
 858              	.LVL75:
 859              	.LBE60:
 860              	.LBE59:
 861              	.LBE58:
 862              	.LBB61:
 863              	.LBB62:
 864              	.LBB63:
 865              		.loc 1 36 0
 866 0052 BF23     		movs	r3, #191
 867              		.loc 1 38 0
 868 0054 01AA     		add	r2, sp, #4
 869 0056 2846     		mov	r0, r5
 870 0058 0221     		movs	r1, #2
 871              		.loc 1 36 0
 872 005a 8DF80430 		strb	r3, [sp, #4]
 873              		.loc 1 37 0
 874 005e 8DF80540 		strb	r4, [sp, #5]
 875              		.loc 1 38 0
 876 0062 FFF7FEFF 		bl	enc_write_data.isra.0
 877              	.LVL76:
 878              	.LBE63:
 879              	.LBE62:
 880              	.LBE61:
 881              		.loc 1 167 0
 882 0066 2846     		mov	r0, r5
 883 0068 0221     		movs	r1, #2
 884 006a 1022     		movs	r2, #16
 885 006c FFF7FEFF 		bl	enc_register_write
 886              	.LVL77:
 887              		.loc 1 168 0
 888 0070 2846     		mov	r0, r5
 889 0072 0321     		movs	r1, #3
 890 0074 1A22     		movs	r2, #26
 891 0076 FFF7FEFF 		bl	enc_register_write
 892              	.LVL78:
ARM GAS  /tmp/ccuRW4Ww.s 			page 17


 893              		.loc 1 170 0
 894 007a 06F11002 		add	r2, r6, #16
 895 007e 3A44     		add	r2, r2, r7
 896 0080 D2B2     		uxtb	r2, r2
 897 0082 2846     		mov	r0, r5
 898 0084 0621     		movs	r1, #6
 899 0086 FFF7FEFF 		bl	enc_register_write
 900              	.LVL79:
 901              		.loc 1 171 0
 902 008a 07F5D053 		add	r3, r7, #6656
 903 008e 1033     		adds	r3, r3, #16
 904 0090 9A19     		adds	r2, r3, r6
 905 0092 C2F30722 		ubfx	r2, r2, #8, #8
 906 0096 2846     		mov	r0, r5
 907 0098 0721     		movs	r1, #7
 908 009a FFF7FEFF 		bl	enc_register_write
 909              	.LVL80:
 910              		.loc 1 174 0
 911 009e 2846     		mov	r0, r5
 912 00a0 0121     		movs	r1, #1
 913 00a2 6A46     		mov	r2, sp
 914 00a4 FFF7FEFF 		bl	enc_buffer_write.isra.1
 915              	.LVL81:
 916              		.loc 1 175 0
 917 00a8 2846     		mov	r0, r5
 918 00aa 3946     		mov	r1, r7
 919 00ac 4246     		mov	r2, r8
 920 00ae FFF7FEFF 		bl	enc_buffer_write.isra.1
 921              	.LVL82:
 922              		.loc 1 177 0
 923 00b2 26B1     		cbz	r6, .L27
 924              		.loc 1 177 0 is_stmt 0 discriminator 1
 925 00b4 3146     		mov	r1, r6
 926 00b6 2846     		mov	r0, r5
 927 00b8 089A     		ldr	r2, [sp, #32]
 928 00ba FFF7FEFF 		bl	enc_buffer_write.isra.1
 929              	.LVL83:
 930              	.L27:
 931              	.LBB64:
 932              	.LBB65:
 933              	.LBB66:
 934              		.loc 1 37 0 is_stmt 1
 935 00be 0823     		movs	r3, #8
 936              		.loc 1 38 0
 937 00c0 2846     		mov	r0, r5
 938 00c2 01AA     		add	r2, sp, #4
 939              		.loc 1 36 0
 940 00c4 9F24     		movs	r4, #159
 941              		.loc 1 38 0
 942 00c6 0221     		movs	r1, #2
 943              		.loc 1 36 0
 944 00c8 8DF80440 		strb	r4, [sp, #4]
 945              		.loc 1 37 0
 946 00cc 8DF80530 		strb	r3, [sp, #5]
 947              		.loc 1 38 0
 948 00d0 FFF7FEFF 		bl	enc_write_data.isra.0
 949              	.LVL84:
ARM GAS  /tmp/ccuRW4Ww.s 			page 18


 950              	.LBE66:
 951              	.LBE65:
 952              	.LBE64:
 953              		.loc 1 180 0
 954 00d4 02B0     		add	sp, sp, #8
 955              		@ sp needed
 956 00d6 BDE8F081 		pop	{r4, r5, r6, r7, r8, pc}
 957              		.cfi_endproc
 958              	.LFE71:
 959              		.size	enc_packet_send, .-enc_packet_send
 960 00da 00BFAFF3 		.section	.text.enc_packet_receive,"ax",%progbits
 960      0080
 961              		.align	2
 962              		.p2align 4,,15
 963              		.global	enc_packet_receive
 964              		.thumb
 965              		.thumb_func
 966              		.type	enc_packet_receive, %function
 967              	enc_packet_receive:
 968              	.LFB72:
 969              		.loc 1 183 0
 970              		.cfi_startproc
 971              		@ args = 0, pretend = 0, frame = 8
 972              		@ frame_needed = 0, uses_anonymous_args = 0
 973              	.LVL85:
 974 0000 F0B5     		push	{r4, r5, r6, r7, lr}
 975              		.cfi_def_cfa_offset 20
 976              		.cfi_offset 4, -20
 977              		.cfi_offset 5, -16
 978              		.cfi_offset 6, -12
 979              		.cfi_offset 7, -8
 980              		.cfi_offset 14, -4
 981 0002 0D46     		mov	r5, r1
 982 0004 83B0     		sub	sp, sp, #12
 983              		.cfi_def_cfa_offset 32
 984              		.loc 1 189 0
 985 0006 3921     		movs	r1, #57
 986              	.LVL86:
 987              		.loc 1 183 0
 988 0008 1646     		mov	r6, r2
 989 000a 0446     		mov	r4, r0
 990              		.loc 1 189 0
 991 000c FFF7FEFF 		bl	enc_register_read
 992              	.LVL87:
 993 0010 0028     		cmp	r0, #0
 994 0012 4BD0     		beq	.L34
 995              		.loc 1 192 0
 996 0014 2046     		mov	r0, r4
 997 0016 A27C     		ldrb	r2, [r4, #18]	@ zero_extendqisi2
 998 0018 0021     		movs	r1, #0
 999 001a FFF7FEFF 		bl	enc_register_write
 1000              	.LVL88:
 1001              		.loc 1 193 0
 1002 001e 628A     		ldrh	r2, [r4, #18]
 1003 0020 2046     		mov	r0, r4
 1004 0022 120A     		lsrs	r2, r2, #8
 1005 0024 0121     		movs	r1, #1
ARM GAS  /tmp/ccuRW4Ww.s 			page 19


 1006 0026 FFF7FEFF 		bl	enc_register_write
 1007              	.LVL89:
 1008              		.loc 1 196 0
 1009 002a 2046     		mov	r0, r4
 1010 002c 04F11203 		add	r3, r4, #18
 1011 0030 3A21     		movs	r1, #58
 1012 0032 0222     		movs	r2, #2
 1013 0034 FFF7FEFF 		bl	enc_read.isra.2
 1014              	.LVL90:
 1015              		.loc 1 199 0
 1016 0038 2046     		mov	r0, r4
 1017 003a 3A21     		movs	r1, #58
 1018 003c 0222     		movs	r2, #2
 1019 003e 0DF10603 		add	r3, sp, #6
 1020 0042 FFF7FEFF 		bl	enc_read.isra.2
 1021              	.LVL91:
 1022              		.loc 1 202 0
 1023 0046 BDF80670 		ldrh	r7, [sp, #6]
 1024              		.loc 1 205 0
 1025 004a 2046     		mov	r0, r4
 1026 004c 3A21     		movs	r1, #58
 1027 004e 0222     		movs	r2, #2
 1028 0050 01AB     		add	r3, sp, #4
 1029              		.loc 1 202 0
 1030 0052 043F     		subs	r7, r7, #4
 1031 0054 ADF80670 		strh	r7, [sp, #6]	@ movhi
 1032              		.loc 1 205 0
 1033 0058 FFF7FEFF 		bl	enc_read.isra.2
 1034              	.LVL92:
 1035              		.loc 1 207 0
 1036 005c BDF80620 		ldrh	r2, [sp, #6]
 1037              		.loc 1 209 0
 1038 0060 3346     		mov	r3, r6
 1039              		.loc 1 207 0
 1040 0062 AA42     		cmp	r2, r5
 1041 0064 88BF     		it	hi
 1042 0066 2A46     		movhi	r2, r5
 1043              		.loc 1 209 0
 1044 0068 2046     		mov	r0, r4
 1045 006a 4FF03A01 		mov	r1, #58
 1046              		.loc 1 207 0
 1047 006e 88BF     		it	hi
 1048 0070 ADF80650 		strhhi	r5, [sp, #6]	@ movhi
 1049              		.loc 1 209 0
 1050 0074 FFF7FEFF 		bl	enc_read.isra.2
 1051              	.LVL93:
 1052              		.loc 1 211 0
 1053 0078 658A     		ldrh	r5, [r4, #18]
 1054              	.LVL94:
 1055              		.loc 1 215 0
 1056 007a 2046     		mov	r0, r4
 1057              		.loc 1 212 0
 1058 007c 013D     		subs	r5, r5, #1
 1059 007e ADB2     		uxth	r5, r5
 1060              	.LVL95:
 1061              		.loc 1 215 0
 1062 0080 EAB2     		uxtb	r2, r5
ARM GAS  /tmp/ccuRW4Ww.s 			page 20


 1063 0082 0C21     		movs	r1, #12
 1064 0084 FFF7FEFF 		bl	enc_register_write
 1065              	.LVL96:
 1066              		.loc 1 216 0
 1067 0088 2046     		mov	r0, r4
 1068 008a 2A0A     		lsrs	r2, r5, #8
 1069 008c 0D21     		movs	r1, #13
 1070 008e FFF7FEFF 		bl	enc_register_write
 1071              	.LVL97:
 1072              	.LBB67:
 1073              	.LBB68:
 1074              	.LBB69:
 1075              		.loc 1 38 0
 1076 0092 2046     		mov	r0, r4
 1077              		.loc 1 37 0
 1078 0094 4023     		movs	r3, #64
 1079              		.loc 1 36 0
 1080 0096 9E24     		movs	r4, #158
 1081              	.LVL98:
 1082              		.loc 1 38 0
 1083 0098 0221     		movs	r1, #2
 1084 009a 6A46     		mov	r2, sp
 1085              		.loc 1 36 0
 1086 009c 8DF80040 		strb	r4, [sp]
 1087              		.loc 1 37 0
 1088 00a0 8DF80130 		strb	r3, [sp, #1]
 1089              		.loc 1 38 0
 1090 00a4 FFF7FEFF 		bl	enc_write_data.isra.0
 1091              	.LVL99:
 1092              	.LBE69:
 1093              	.LBE68:
 1094              	.LBE67:
 1095              		.loc 1 221 0
 1096 00a8 BDF80600 		ldrh	r0, [sp, #6]
 1097              	.LVL100:
 1098              	.L34:
 1099              		.loc 1 222 0
 1100 00ac 03B0     		add	sp, sp, #12
 1101              		@ sp needed
 1102 00ae F0BD     		pop	{r4, r5, r6, r7, pc}
 1103              		.cfi_endproc
 1104              	.LFE72:
 1105              		.size	enc_packet_receive, .-enc_packet_receive
 1106              		.section	.text.enc_drop_packets,"ax",%progbits
 1107              		.align	2
 1108              		.p2align 4,,15
 1109              		.global	enc_drop_packets
 1110              		.thumb
 1111              		.thumb_func
 1112              		.type	enc_drop_packets, %function
 1113              	enc_drop_packets:
 1114              	.LFB73:
 1115              		.loc 1 225 0
 1116              		.cfi_startproc
 1117              		@ args = 0, pretend = 0, frame = 0
 1118              		@ frame_needed = 0, uses_anonymous_args = 0
 1119              	.LVL101:
ARM GAS  /tmp/ccuRW4Ww.s 			page 21


 1120 0000 38B5     		push	{r3, r4, r5, lr}
 1121              		.cfi_def_cfa_offset 16
 1122              		.cfi_offset 3, -16
 1123              		.cfi_offset 4, -12
 1124              		.cfi_offset 5, -8
 1125              		.cfi_offset 14, -4
 1126              		.loc 1 227 0
 1127 0002 0024     		movs	r4, #0
 1128              		.loc 1 225 0
 1129 0004 0546     		mov	r5, r0
 1130              		.loc 1 227 0
 1131 0006 4482     		strh	r4, [r0, #18]	@ movhi
 1132              		.loc 1 229 0
 1133 0008 2246     		mov	r2, r4
 1134 000a 0C21     		movs	r1, #12
 1135 000c FFF7FEFF 		bl	enc_register_write
 1136              	.LVL102:
 1137              		.loc 1 230 0
 1138 0010 2846     		mov	r0, r5
 1139 0012 2246     		mov	r2, r4
 1140 0014 0D21     		movs	r1, #13
 1141 0016 FFF7FEFF 		bl	enc_register_write
 1142              	.LVL103:
 1143              		.loc 1 232 0
 1144 001a 2846     		mov	r0, r5
 1145 001c 2246     		mov	r2, r4
 1146 001e 3921     		movs	r1, #57
 1147              		.loc 1 233 0
 1148 0020 BDE83840 		pop	{r3, r4, r5, lr}
 1149              	.LVL104:
 1150              		.loc 1 232 0
 1151 0024 FFF7FEBF 		b	enc_register_write
 1152              	.LVL105:
 1153              		.cfi_endproc
 1154              	.LFE73:
 1155              		.size	enc_drop_packets, .-enc_drop_packets
 1156 0028 AFF30080 		.section	.text.enc_init,"ax",%progbits
 1156      AFF30080 
 1157              		.align	2
 1158              		.p2align 4,,15
 1159              		.global	enc_init
 1160              		.thumb
 1161              		.thumb_func
 1162              		.type	enc_init, %function
 1163              	enc_init:
 1164              	.LFB74:
 1165              		.loc 1 236 0
 1166              		.cfi_startproc
 1167              		@ args = 0, pretend = 0, frame = 0
 1168              		@ frame_needed = 0, uses_anonymous_args = 0
 1169              	.LVL106:
 1170 0000 38B5     		push	{r3, r4, r5, lr}
 1171              		.cfi_def_cfa_offset 16
 1172              		.cfi_offset 3, -16
 1173              		.cfi_offset 4, -12
 1174              		.cfi_offset 5, -8
 1175              		.cfi_offset 14, -4
ARM GAS  /tmp/ccuRW4Ww.s 			page 22


 1176              		.loc 1 236 0
 1177 0002 0446     		mov	r4, r0
 1178              		.loc 1 242 0
 1179 0004 0025     		movs	r5, #0
 1180              		.loc 1 239 0
 1181 0006 FFF7FEFF 		bl	enc_reset
 1182              	.LVL107:
 1183              		.loc 1 244 0
 1184 000a 2046     		mov	r0, r4
 1185 000c 2A46     		mov	r2, r5
 1186              		.loc 1 242 0
 1187 000e 6582     		strh	r5, [r4, #18]	@ movhi
 1188              		.loc 1 244 0
 1189 0010 0821     		movs	r1, #8
 1190 0012 FFF7FEFF 		bl	enc_register_write
 1191              	.LVL108:
 1192              		.loc 1 245 0
 1193 0016 2046     		mov	r0, r4
 1194 0018 2A46     		mov	r2, r5
 1195 001a 0921     		movs	r1, #9
 1196 001c FFF7FEFF 		bl	enc_register_write
 1197              	.LVL109:
 1198              		.loc 1 247 0
 1199 0020 2046     		mov	r0, r4
 1200 0022 2A46     		mov	r2, r5
 1201 0024 0C21     		movs	r1, #12
 1202 0026 FFF7FEFF 		bl	enc_register_write
 1203              	.LVL110:
 1204              		.loc 1 248 0
 1205 002a 2046     		mov	r0, r4
 1206 002c 2A46     		mov	r2, r5
 1207 002e 0D21     		movs	r1, #13
 1208 0030 FFF7FEFF 		bl	enc_register_write
 1209              	.LVL111:
 1210              		.loc 1 250 0
 1211 0034 2046     		mov	r0, r4
 1212 0036 0A21     		movs	r1, #10
 1213 0038 0F22     		movs	r2, #15
 1214 003a FFF7FEFF 		bl	enc_register_write
 1215              	.LVL112:
 1216              		.loc 1 251 0
 1217 003e 2046     		mov	r0, r4
 1218 0040 0B21     		movs	r1, #11
 1219 0042 1A22     		movs	r2, #26
 1220 0044 FFF7FEFF 		bl	enc_register_write
 1221              	.LVL113:
 1222              		.loc 1 254 0
 1223 0048 2046     		mov	r0, r4
 1224 004a 0421     		movs	r1, #4
 1225 004c 1022     		movs	r2, #16
 1226 004e FFF7FEFF 		bl	enc_register_write
 1227              	.LVL114:
 1228              		.loc 1 255 0
 1229 0052 2046     		mov	r0, r4
 1230 0054 0521     		movs	r1, #5
 1231 0056 1A22     		movs	r2, #26
 1232 0058 FFF7FEFF 		bl	enc_register_write
ARM GAS  /tmp/ccuRW4Ww.s 			page 23


 1233              	.LVL115:
 1234              		.loc 1 257 0
 1235 005c 2046     		mov	r0, r4
 1236 005e 0621     		movs	r1, #6
 1237 0060 FF22     		movs	r2, #255
 1238 0062 FFF7FEFF 		bl	enc_register_write
 1239              	.LVL116:
 1240              		.loc 1 258 0
 1241 0066 2046     		mov	r0, r4
 1242 0068 0721     		movs	r1, #7
 1243 006a 1F22     		movs	r2, #31
 1244 006c FFF7FEFF 		bl	enc_register_write
 1245              	.LVL117:
 1246              		.loc 1 261 0
 1247 0070 2046     		mov	r0, r4
 1248 0072 3821     		movs	r1, #56
 1249 0074 2022     		movs	r2, #32
 1250 0076 FFF7FEFF 		bl	enc_register_write
 1251              	.LVL118:
 1252              		.loc 1 264 0
 1253 007a 2046     		mov	r0, r4
 1254 007c C021     		movs	r1, #192
 1255 007e 0D22     		movs	r2, #13
 1256 0080 FFF7FEFF 		bl	enc_register_write
 1257              	.LVL119:
 1258              		.loc 1 265 0
 1259 0084 2046     		mov	r0, r4
 1260 0086 2A46     		mov	r2, r5
 1261 0088 C121     		movs	r1, #193
 1262 008a FFF7FEFF 		bl	enc_register_write
 1263              	.LVL120:
 1264              		.loc 1 267 0
 1265 008e 2046     		mov	r0, r4
 1266 0090 C221     		movs	r1, #194
 1267 0092 3222     		movs	r2, #50
 1268 0094 FFF7FEFF 		bl	enc_register_write
 1269              	.LVL121:
 1270              		.loc 1 269 0
 1271 0098 2046     		mov	r0, r4
 1272 009a C621     		movs	r1, #198
 1273 009c 1222     		movs	r2, #18
 1274 009e FFF7FEFF 		bl	enc_register_write
 1275              	.LVL122:
 1276              		.loc 1 270 0
 1277 00a2 2046     		mov	r0, r4
 1278 00a4 C721     		movs	r1, #199
 1279 00a6 0C22     		movs	r2, #12
 1280 00a8 FFF7FEFF 		bl	enc_register_write
 1281              	.LVL123:
 1282              		.loc 1 271 0
 1283 00ac 2046     		mov	r0, r4
 1284 00ae C421     		movs	r1, #196
 1285 00b0 1222     		movs	r2, #18
 1286 00b2 FFF7FEFF 		bl	enc_register_write
 1287              	.LVL124:
 1288              		.loc 1 274 0
 1289 00b6 2046     		mov	r0, r4
ARM GAS  /tmp/ccuRW4Ww.s 			page 24


 1290 00b8 227D     		ldrb	r2, [r4, #20]	@ zero_extendqisi2
 1291 00ba E421     		movs	r1, #228
 1292 00bc FFF7FEFF 		bl	enc_register_write
 1293              	.LVL125:
 1294              		.loc 1 275 0
 1295 00c0 2046     		mov	r0, r4
 1296 00c2 627D     		ldrb	r2, [r4, #21]	@ zero_extendqisi2
 1297 00c4 E521     		movs	r1, #229
 1298 00c6 FFF7FEFF 		bl	enc_register_write
 1299              	.LVL126:
 1300              		.loc 1 276 0
 1301 00ca 2046     		mov	r0, r4
 1302 00cc A27D     		ldrb	r2, [r4, #22]	@ zero_extendqisi2
 1303 00ce E221     		movs	r1, #226
 1304 00d0 FFF7FEFF 		bl	enc_register_write
 1305              	.LVL127:
 1306              		.loc 1 277 0
 1307 00d4 2046     		mov	r0, r4
 1308 00d6 E27D     		ldrb	r2, [r4, #23]	@ zero_extendqisi2
 1309 00d8 E321     		movs	r1, #227
 1310 00da FFF7FEFF 		bl	enc_register_write
 1311              	.LVL128:
 1312              		.loc 1 278 0
 1313 00de 2046     		mov	r0, r4
 1314 00e0 227E     		ldrb	r2, [r4, #24]	@ zero_extendqisi2
 1315 00e2 E021     		movs	r1, #224
 1316 00e4 FFF7FEFF 		bl	enc_register_write
 1317              	.LVL129:
 1318              		.loc 1 279 0
 1319 00e8 2046     		mov	r0, r4
 1320 00ea 627E     		ldrb	r2, [r4, #25]	@ zero_extendqisi2
 1321 00ec E121     		movs	r1, #225
 1322 00ee FFF7FEFF 		bl	enc_register_write
 1323              	.LVL130:
 1324              	.LBB72:
 1325              	.LBB73:
 1326              		.loc 1 101 0
 1327 00f2 2046     		mov	r0, r4
 1328 00f4 D421     		movs	r1, #212
 1329 00f6 1022     		movs	r2, #16
 1330 00f8 FFF7FEFF 		bl	enc_register_write
 1331              	.LVL131:
 1332              		.loc 1 102 0
 1333 00fc 2046     		mov	r0, r4
 1334 00fe 2A46     		mov	r2, r5
 1335 0100 D621     		movs	r1, #214
 1336 0102 FFF7FEFF 		bl	enc_register_write
 1337              	.LVL132:
 1338              		.loc 1 103 0
 1339 0106 2046     		mov	r0, r4
 1340 0108 D721     		movs	r1, #215
 1341 010a 0122     		movs	r2, #1
 1342 010c FFF7FEFF 		bl	enc_register_write
 1343              	.LVL133:
 1344 0110 01E0     		b	.L40
 1345              	.L41:
 1346              		.loc 1 106 0
ARM GAS  /tmp/ccuRW4Ww.s 			page 25


 1347 0112 FFF7FEFF 		bl	chThdSleep
 1348              	.LVL134:
 1349              	.L40:
 1350              		.loc 1 105 0
 1351 0116 2046     		mov	r0, r4
 1352 0118 EA21     		movs	r1, #234
 1353 011a FFF7FEFF 		bl	enc_register_read
 1354              	.LVL135:
 1355 011e 10F00105 		ands	r5, r0, #1
 1356              		.loc 1 106 0
 1357 0122 4FF00100 		mov	r0, #1
 1358              		.loc 1 105 0
 1359 0126 F4D1     		bne	.L41
 1360              	.LBE73:
 1361              	.LBE72:
 1362              		.loc 1 290 0
 1363 0128 2046     		mov	r0, r4
 1364 012a 1B21     		movs	r1, #27
 1365 012c C122     		movs	r2, #193
 1366 012e FFF7FEFF 		bl	enc_register_write
 1367              	.LVL136:
 1368              		.loc 1 293 0
 1369 0132 2046     		mov	r0, r4
 1370 0134 1F21     		movs	r1, #31
 1371 0136 0422     		movs	r2, #4
 1372 0138 FFF7FEFF 		bl	enc_register_write
 1373              	.LVL137:
 1374              		.loc 1 294 0
 1375 013c 2574     		strb	r5, [r4, #16]
 1376 013e 38BD     		pop	{r3, r4, r5, pc}
 1377              		.cfi_endproc
 1378              	.LFE74:
 1379              		.size	enc_init, .-enc_init
 1380              		.text
 1381              	.Letext0:
 1382              		.file 2 "/usr/lib/gcc/arm-none-eabi/4.8/include/stddef.h"
 1383              		.file 3 "/usr/include/newlib/machine/_default_types.h"
 1384              		.file 4 "/usr/include/newlib/stdint.h"
 1385              		.file 5 "../os/ports/GCC/ARMCMx/chtypes.h"
 1386              		.file 6 "../os/kernel/include/chlists.h"
 1387              		.file 7 "../os/kernel/include/chthreads.h"
 1388              		.file 8 "../os/ports/GCC/ARMCMx/chcore_v7m.h"
 1389              		.file 9 "../os/kernel/include/chmtx.h"
 1390              		.file 10 "../os/hal/platforms/STM32F1xx/stm32f10x.h"
 1391              		.file 11 "../os/hal/platforms/STM32F1xx/stm32_dma.h"
 1392              		.file 12 "../os/hal/platforms/STM32/GPIOv1/pal_lld.h"
 1393              		.file 13 "../os/hal/include/spi.h"
 1394              		.file 14 "../os/hal/platforms/STM32/SPIv1/spi_lld.h"
 1395              		.file 15 "enc.h"
 1396              		.file 16 "../os/ports/common/ARMCMx/CMSIS/include/core_cm3.h"