ARM GAS  /tmp/ccxm6w7v.s 			page 1


   1              		.syntax unified
   2              		.cpu cortex-m3
   3              		.fpu softvfp
   4              		.eabi_attribute 20, 1
   5              		.eabi_attribute 21, 1
   6              		.eabi_attribute 23, 3
   7              		.eabi_attribute 24, 1
   8              		.eabi_attribute 25, 1
   9              		.eabi_attribute 26, 1
  10              		.eabi_attribute 30, 2
  11              		.eabi_attribute 34, 1
  12              		.eabi_attribute 18, 4
  13              		.thumb
  14              		.file	"evtimer.c"
  15              		.text
  16              	.Ltext0:
  17              		.cfi_sections	.debug_frame
  18              		.section	.text.tmrcb,"ax",%progbits
  19              		.align	2
  20              		.p2align 4,,15
  21              		.thumb
  22              		.thumb_func
  23              		.type	tmrcb, %function
  24              	tmrcb:
  25              	.LFB0:
  26              		.file 1 "../os/various/evtimer.c"
  27              		.loc 1 28 0
  28              		.cfi_startproc
  29              		@ args = 0, pretend = 0, frame = 0
  30              		@ frame_needed = 0, uses_anonymous_args = 0
  31              	.LVL0:
  32 0000 10B5     		push	{r4, lr}
  33              		.cfi_def_cfa_offset 8
  34              		.cfi_offset 4, -8
  35              		.cfi_offset 14, -4
  36              		.loc 1 28 0
  37 0002 0446     		mov	r4, r0
  38              	.LVL1:
  39              		.loc 1 31 0
  40              	@ 31 "../os/various/evtimer.c" 1
  41 0004 FFF7FEFF 		bl      _port_lock
  42              	@ 0 "" 2
  43              		.loc 1 32 0
  44              		.thumb
  45 0008 0021     		movs	r1, #0
  46 000a 1430     		adds	r0, r0, #20
  47              	.LVL2:
  48 000c FFF7FEFF 		bl	chEvtBroadcastFlagsI
  49              	.LVL3:
  50              		.loc 1 33 0
  51 0010 2046     		mov	r0, r4
  52 0012 A169     		ldr	r1, [r4, #24]
  53 0014 2346     		mov	r3, r4
  54 0016 034A     		ldr	r2, .L2
  55 0018 FFF7FEFF 		bl	chVTSetI
  56              	.LVL4:
  57              		.loc 1 34 0
ARM GAS  /tmp/ccxm6w7v.s 			page 2


  58              	@ 34 "../os/various/evtimer.c" 1
  59 001c FFF7FEFF 		bl      _port_unlock
  60              	@ 0 "" 2
  61              		.thumb
  62 0020 10BD     		pop	{r4, pc}
  63              	.LVL5:
  64              	.L3:
  65 0022 00BF     		.align	2
  66              	.L2:
  67 0024 00000000 		.word	tmrcb
  68              		.cfi_endproc
  69              	.LFE0:
  70              		.size	tmrcb, .-tmrcb
  71 0028 AFF30080 		.section	.text.evtStart,"ax",%progbits
  71      AFF30080 
  72              		.align	2
  73              		.p2align 4,,15
  74              		.global	evtStart
  75              		.thumb
  76              		.thumb_func
  77              		.type	evtStart, %function
  78              	evtStart:
  79              	.LFB1:
  80              		.loc 1 43 0
  81              		.cfi_startproc
  82              		@ args = 0, pretend = 0, frame = 0
  83              		@ frame_needed = 0, uses_anonymous_args = 0
  84              	.LVL6:
  85 0000 08B5     		push	{r3, lr}
  86              		.cfi_def_cfa_offset 8
  87              		.cfi_offset 3, -8
  88              		.cfi_offset 14, -4
  89              		.loc 1 45 0
  90              	@ 45 "../os/various/evtimer.c" 1
  91 0002 FFF7FEFF 		bl      _port_lock
  92              	@ 0 "" 2
  93              		.loc 1 47 0
  94              		.thumb
  95 0006 C368     		ldr	r3, [r0, #12]
  96 0008 13B1     		cbz	r3, .L7
  97              		.loc 1 50 0
  98              	@ 50 "../os/various/evtimer.c" 1
  99 000a FFF7FEFF 		bl      _port_unlock
 100              	@ 0 "" 2
 101              		.thumb
 102 000e 08BD     		pop	{r3, pc}
 103              	.L7:
 104              		.loc 1 48 0
 105 0010 8169     		ldr	r1, [r0, #24]
 106 0012 0346     		mov	r3, r0
 107 0014 024A     		ldr	r2, .L8
 108 0016 FFF7FEFF 		bl	chVTSetI
 109              	.LVL7:
 110              		.loc 1 50 0
 111              	@ 50 "../os/various/evtimer.c" 1
 112 001a FFF7FEFF 		bl      _port_unlock
 113              	@ 0 "" 2
ARM GAS  /tmp/ccxm6w7v.s 			page 3


 114              		.thumb
 115 001e 08BD     		pop	{r3, pc}
 116              	.L9:
 117              		.align	2
 118              	.L8:
 119 0020 00000000 		.word	tmrcb
 120              		.cfi_endproc
 121              	.LFE1:
 122              		.size	evtStart, .-evtStart
 123 0024 AFF30080 		.section	.text.evtStop,"ax",%progbits
 123      AFF30080 
 123      AFF30080 
 124              		.align	2
 125              		.p2align 4,,15
 126              		.global	evtStop
 127              		.thumb
 128              		.thumb_func
 129              		.type	evtStop, %function
 130              	evtStop:
 131              	.LFB2:
 132              		.loc 1 59 0
 133              		.cfi_startproc
 134              		@ args = 0, pretend = 0, frame = 0
 135              		@ frame_needed = 0, uses_anonymous_args = 0
 136              	.LVL8:
 137 0000 08B5     		push	{r3, lr}
 138              		.cfi_def_cfa_offset 8
 139              		.cfi_offset 3, -8
 140              		.cfi_offset 14, -4
 141              		.loc 1 61 0
 142              	@ 61 "../os/various/evtimer.c" 1
 143 0002 FFF7FEFF 		bl      _port_lock
 144              	@ 0 "" 2
 145              		.thumb
 146 0006 C368     		ldr	r3, [r0, #12]
 147 0008 0BB1     		cbz	r3, .L11
 148              		.loc 1 61 0 is_stmt 0 discriminator 1
 149 000a FFF7FEFF 		bl	chVTResetI
 150              	.LVL9:
 151              	.L11:
 152              		.loc 1 61 0 discriminator 2
 153              	@ 61 "../os/various/evtimer.c" 1
 154 000e FFF7FEFF 		bl      _port_unlock
 155              	@ 0 "" 2
 156              		.thumb
 157 0012 08BD     		pop	{r3, pc}
 158              		.cfi_endproc
 159              	.LFE2:
 160              		.size	evtStop, .-evtStop
 161 0014 AFF30080 		.text
 161      AFF30080 
 161      AFF30080 
 162              	.Letext0:
 163              		.file 2 "/usr/include/newlib/machine/_default_types.h"
 164              		.file 3 "/usr/include/newlib/stdint.h"
 165              		.file 4 "../os/ports/GCC/ARMCMx/chtypes.h"
 166              		.file 5 "../os/kernel/include/chlists.h"
ARM GAS  /tmp/ccxm6w7v.s 			page 4


 167              		.file 6 "../os/kernel/include/chthreads.h"
 168              		.file 7 "../os/ports/GCC/ARMCMx/chcore_v7m.h"
 169              		.file 8 "../os/kernel/include/chvt.h"
 170              		.file 9 "../os/kernel/include/chmtx.h"
 171              		.file 10 "../os/kernel/include/chevents.h"
 172              		.file 11 "../os/various/evtimer.h"