ARM GAS  /tmp/ccxm6w7v.s 			page 1


   1              		.syntax unified
   2              		.cpu cortex-m3
   3              		.fpu softvfp
   4              		.eabi_attribute 20, 1
   5              		.eabi_attribute 21, 1
   6              		.eabi_attribute 23, 3
   7              		.eabi_attribute 24, 1
   8              		.eabi_attribute 25, 1
   9              		.eabi_attribute 26, 1
  10              		.eabi_attribute 30, 2
  11              		.eabi_attribute 34, 1
  12              		.eabi_attribute 18, 4
  13              		.thumb
  14              		.file	"evtimer.c"
  15              		.text
  16              	.Ltext0:
  17              		.cfi_sections	.debug_frame
  18              		.section	.text.tmrcb,"ax",%progbits
  19              		.align	2
  20              		.p2align 4,,15
  21              		.thumb
  22              		.thumb_func
  23              		.type	tmrcb, %function
  24              	tmrcb:
  25              	.LFB0:
  26              		.file 1 "../os/various/evtimer.c"
  27              		.loc 1 28 0
  28              		.cfi_startproc
  29              		@ args = 0, pretend = 0, frame = 0
  30              		@ frame_needed = 0, uses_anonymous_args = 0
  31              	.LVL0:
  32 0000 10B5     		push	{r4, lr}
  33              		.cfi_def_cfa_offset 8
  34              		.cfi_offset 4, -8
  35              		.cfi_offset 14, -4
  36              		.loc 1 28 0
  37 0002 0446     		mov	r4, r0
  38              	.LVL1:
  39              		.loc 1 31 0
  40              	@ 31 "../os/various/evtimer.c" 1
  41 0004 FFF7FEFF 		bl      _port_lock
  42              	@ 0 "" 2
  43              		.loc 1 32 0
  44              		.thumb
  45 0008 0021     		movs	r1, #0
  46 000a 1430     		adds	r0, r0, #20
  47              	.LVL2:
  48 000c FFF7FEFF 		bl	chEvtBroadcastFlagsI
  49              	.LVL3:
  50              		.loc 1 33 0
  51 0010 2046     		mov	r0, r4
  52 0012 A169     		ldr	r1, [r4, #24]
  53 0014 2346     		mov	r3, r4
  54 0016 034A     		ldr	r2, .L2
  55 0018 FFF7FEFF 		bl	chVTSetI
  56              	.LVL4:
  57              		.loc 1 34 0
ARM GAS  /tmp/ccxm6w7v.s 			page 2


  58              	@ 34 "../os/various/evtimer.c" 1
  59 001c FFF7FEFF 		bl      _port_unlock
  60              	@ 0 "" 2
  61              		.thumb
  62 0020 10BD     		pop	{r4, pc}
  63              	.LVL5:
  64              	.L3:
  65 0022 00BF     		.align	2
  66              	.L2:
  67 0024 00000000 		.word	tmrcb
  68              		.cfi_endproc
  69              	.LFE0:
  70              		.size	tmrcb, .-tmrcb
  71 0028 AFF30080 		.section	.text.evtStart,"ax",%progbits
  71      AFF30080 
  72              		.align	2
  73              		.p2align 4,,15
  74              		.global	evtStart
  75              		.thumb
  76              		.thumb_func
  77              		.type	evtStart, %function
  78              	evtStart:
  79              	.LFB1:
  80              		.loc 1 43 0
  81              		.cfi_startproc
  82              		@ args = 0, pretend = 0, frame = 0
  83              		@ frame_needed = 0, uses_anonymous_args = 0
  84              	.LVL6:
  85 0000 08B5     		push	{r3, lr}
  86              		.cfi_def_cfa_offset 8
  87              		.cfi_offset 3, -8
  88              		.cfi_offset 14, -4
  89              		.loc 1 45 0
  90              	@ 45 "../os/various/evtimer.c" 1
  91 0002 FFF7FEFF 		bl      _port_lock
  92              	@ 0 "" 2
  93              		.loc 1 47 0
  94              		.thumb
  95 0006 C368     		ldr	r3, [r0, #12]
  96 0008 13B1     		cbz	r3, .L7
  97              		.loc 1 50 0
  98              	@ 50 "../os/various/evtimer.c" 1
  99 000a FFF7FEFF 		bl      _port_unlock
 100              	@ 0 "" 2
 101              		.thumb
 102 000e 08BD     		pop	{r3, pc}
 103              	.L7:
 104              		.loc 1 48 0
 105 0010 8169     		ldr	r1, [r0, #24]
 106 0012 0346     		mov	r3, r0
 107 0014 024A     		ldr	r2, .L8
 108 0016 FFF7FEFF 		bl	chVTSetI
 109              	.LVL7:
 110              		.loc 1 50 0
 111              	@ 50 "../os/various/evtimer.c" 1
 112 001a FFF7FEFF 		bl      _port_unlock
 113              	@ 0 "" 2
ARM GAS  /tmp/ccxm6w7v.s 			page 3


 114              		.thumb
 115 001e 08BD     		pop	{r3, pc}
 116              	.L9:
 117              		.align	2
 118              	.L8:
 119 0020 00000000 		.word	tmrcb
 120              		.cfi_endproc
 121              	.LFE1:
 122              		.size	evtStart, .-evtStart
 123 0024 AFF30080 		.section	.text.evtStop,"ax",%progbits
 123      AFF30080 
 123      AFF30080 
 124              		.align	2
 125              		.p2align 4,,15
 126              		.global	evtStop
 127              		.thumb
 128              		.thumb_func
 129              		.type	evtStop, %function
 130              	evtStop:
 131              	.LFB2:
 132              		.loc 1 59 0
 133              		.cfi_startproc
 134              		@ args = 0, pretend = 0, frame = 0
 135              		@ frame_needed = 0, uses_anonymous_args = 0
 136              	.LVL8:
 137 0000 08B5     		push	{r3, lr}
 138              		.cfi_def_cfa_offset 8
 139              		.cfi_offset 3, -8
 140              		.cfi_offset 14, -4
 141              		.loc 1 61 0
 142              	@ 61 "../os/various/evtimer.c" 1
 143 0002 FFF7FEFF 		bl      _port_lock
 144              	@ 0 "" 2
 145              		.thumb
 146 0006 C368     		ldr	r3, [r0, #12]
 147 0008 0BB1     		cbz	r3, .L11
 148              		.loc 1 61 0 is_stmt 0 discriminator 1
 149 000a FFF7FEFF 		bl	chVTResetI
 150              	.LVL9:
 151              	.L11:
 152              		.loc 1 61 0 discriminator 2
 153              	@ 61 "../os/various/evtimer.c" 1
 154 000e FFF7FEFF 		bl      _port_unlock
 155              	@ 0 "" 2
 156              		.thumb
 157 0012 08BD     		pop	{r3, pc}
 158              		.cfi_endproc
 159              	.LFE2:
 160              		.size	evtStop, .-evtStop
 161 0014 AFF30080 		.text
 161      AFF30080 
 161      AFF30080 
 162              	.Letext0:
 163              		.file 2 "/usr/include/newlib/machine/_default_types.h"
 164              		.file 3 "/usr/include/newlib/stdint.h"
 165              		.file 4 "../os/ports/GCC/ARMCMx/chtypes.h"
 166              		.file 5 "../os/kernel/include/chlists.h"
ARM GAS  /tmp/ccxm6w7v.s 			page 4


 167              		.file 6 "../os/kernel/include/chthreads.h"
 168              		.file 7 "../os/ports/GCC/ARMCMx/chcore_v7m.h"
 169              		.file 8 "../os/kernel/include/chvt.h"
 170              		.file 9 "../os/kernel/include/chmtx.h"
 171              		.file 10 "../os/kernel/include/chevents.h"
 172              		.file 11 "../os/various/evtimer.h"
 173              		.section	.debug_info,"",%progbits
 174              	.Ldebug_info0:
 175 0000 9E050000 		.4byte	0x59e
 176 0004 0400     		.2byte	0x4
 177 0006 00000000 		.4byte	.Ldebug_abbrev0
 178 000a 04       		.byte	0x4
 179 000b 01       		.uleb128 0x1
 180 000c 07020000 		.4byte	.LASF74
 181 0010 01       		.byte	0x1
 182 0011 41010000 		.4byte	.LASF75
 183 0015 EB000000 		.4byte	.LASF76
 184 0019 00000000 		.4byte	.Ldebug_ranges0+0
 185 001d 00000000 		.4byte	0
 186 0021 00000000 		.4byte	.Ldebug_line0
 187 0025 02       		.uleb128 0x2
 188 0026 04       		.byte	0x4
 189 0027 05       		.byte	0x5
 190 0028 696E7400 		.ascii	"int\000"
 191 002c 03       		.uleb128 0x3
 192 002d 04       		.byte	0x4
 193 002e 07       		.byte	0x7
 194 002f D6000000 		.4byte	.LASF0
 195 0033 03       		.uleb128 0x3
 196 0034 01       		.byte	0x1
 197 0035 06       		.byte	0x6
 198 0036 61000000 		.4byte	.LASF1
 199 003a 04       		.uleb128 0x4
 200 003b 19000000 		.4byte	.LASF5
 201 003f 02       		.byte	0x2
 202 0040 1D       		.byte	0x1d
 203 0041 45000000 		.4byte	0x45
 204 0045 03       		.uleb128 0x3
 205 0046 01       		.byte	0x1
 206 0047 08       		.byte	0x8
 207 0048 DA020000 		.4byte	.LASF2
 208 004c 03       		.uleb128 0x3
 209 004d 02       		.byte	0x2
 210 004e 05       		.byte	0x5
 211 004f 07030000 		.4byte	.LASF3
 212 0053 03       		.uleb128 0x3
 213 0054 02       		.byte	0x2
 214 0055 07       		.byte	0x7
 215 0056 74010000 		.4byte	.LASF4
 216 005a 04       		.uleb128 0x4
 217 005b 8E030000 		.4byte	.LASF6
 218 005f 02       		.byte	0x2
 219 0060 3F       		.byte	0x3f
 220 0061 65000000 		.4byte	0x65
 221 0065 03       		.uleb128 0x3
 222 0066 04       		.byte	0x4
 223 0067 05       		.byte	0x5
ARM GAS  /tmp/ccxm6w7v.s 			page 5


 224 0068 87000000 		.4byte	.LASF7
 225 006c 04       		.uleb128 0x4
 226 006d AE000000 		.4byte	.LASF8
 227 0071 02       		.byte	0x2
 228 0072 41       		.byte	0x41
 229 0073 77000000 		.4byte	0x77
 230 0077 03       		.uleb128 0x3
 231 0078 04       		.byte	0x4
 232 0079 07       		.byte	0x7
 233 007a 59010000 		.4byte	.LASF9
 234 007e 03       		.uleb128 0x3
 235 007f 08       		.byte	0x8
 236 0080 05       		.byte	0x5
 237 0081 53000000 		.4byte	.LASF10
 238 0085 03       		.uleb128 0x3
 239 0086 08       		.byte	0x8
 240 0087 07       		.byte	0x7
 241 0088 23000000 		.4byte	.LASF11
 242 008c 04       		.uleb128 0x4
 243 008d D5030000 		.4byte	.LASF12
 244 0091 03       		.byte	0x3
 245 0092 2A       		.byte	0x2a
 246 0093 3A000000 		.4byte	0x3a
 247 0097 04       		.uleb128 0x4
 248 0098 D2020000 		.4byte	.LASF13
 249 009c 03       		.byte	0x3
 250 009d 41       		.byte	0x41
 251 009e 5A000000 		.4byte	0x5a
 252 00a2 04       		.uleb128 0x4
 253 00a3 56030000 		.4byte	.LASF14
 254 00a7 03       		.byte	0x3
 255 00a8 42       		.byte	0x42
 256 00a9 6C000000 		.4byte	0x6c
 257 00ad 03       		.uleb128 0x3
 258 00ae 01       		.byte	0x1
 259 00af 02       		.byte	0x2
 260 00b0 CC020000 		.4byte	.LASF15
 261 00b4 04       		.uleb128 0x4
 262 00b5 95010000 		.4byte	.LASF16
 263 00b9 04       		.byte	0x4
 264 00ba 2C       		.byte	0x2c
 265 00bb 8C000000 		.4byte	0x8c
 266 00bf 04       		.uleb128 0x4
 267 00c0 90000000 		.4byte	.LASF17
 268 00c4 04       		.byte	0x4
 269 00c5 2D       		.byte	0x2d
 270 00c6 8C000000 		.4byte	0x8c
 271 00ca 04       		.uleb128 0x4
 272 00cb 7D000000 		.4byte	.LASF18
 273 00cf 04       		.byte	0x4
 274 00d0 2F       		.byte	0x2f
 275 00d1 8C000000 		.4byte	0x8c
 276 00d5 04       		.uleb128 0x4
 277 00d6 FF010000 		.4byte	.LASF19
 278 00da 04       		.byte	0x4
 279 00db 30       		.byte	0x30
 280 00dc A2000000 		.4byte	0xa2
ARM GAS  /tmp/ccxm6w7v.s 			page 6


 281 00e0 04       		.uleb128 0x4
 282 00e1 87010000 		.4byte	.LASF20
 283 00e5 04       		.byte	0x4
 284 00e6 31       		.byte	0x31
 285 00e7 97000000 		.4byte	0x97
 286 00eb 04       		.uleb128 0x4
 287 00ec A9010000 		.4byte	.LASF21
 288 00f0 04       		.byte	0x4
 289 00f1 33       		.byte	0x33
 290 00f2 A2000000 		.4byte	0xa2
 291 00f6 04       		.uleb128 0x4
 292 00f7 C1030000 		.4byte	.LASF22
 293 00fb 04       		.byte	0x4
 294 00fc 34       		.byte	0x34
 295 00fd A2000000 		.4byte	0xa2
 296 0101 04       		.uleb128 0x4
 297 0102 79030000 		.4byte	.LASF23
 298 0106 04       		.byte	0x4
 299 0107 35       		.byte	0x35
 300 0108 A2000000 		.4byte	0xa2
 301 010c 04       		.uleb128 0x4
 302 010d 39030000 		.4byte	.LASF24
 303 0111 05       		.byte	0x5
 304 0112 2A       		.byte	0x2a
 305 0113 17010000 		.4byte	0x117
 306 0117 05       		.uleb128 0x5
 307 0118 39030000 		.4byte	.LASF24
 308 011c 34       		.byte	0x34
 309 011d 06       		.byte	0x6
 310 011e 5E       		.byte	0x5e
 311 011f CC010000 		.4byte	0x1cc
 312 0123 06       		.uleb128 0x6
 313 0124 2A030000 		.4byte	.LASF25
 314 0128 06       		.byte	0x6
 315 0129 5F       		.byte	0x5f
 316 012a ED010000 		.4byte	0x1ed
 317 012e 00       		.byte	0
 318 012f 06       		.uleb128 0x6
 319 0130 F8010000 		.4byte	.LASF26
 320 0134 06       		.byte	0x6
 321 0135 61       		.byte	0x61
 322 0136 ED010000 		.4byte	0x1ed
 323 013a 04       		.byte	0x4
 324 013b 06       		.uleb128 0x6
 325 013c 4C000000 		.4byte	.LASF27
 326 0140 06       		.byte	0x6
 327 0141 63       		.byte	0x63
 328 0142 D5000000 		.4byte	0xd5
 329 0146 08       		.byte	0x8
 330 0147 06       		.uleb128 0x6
 331 0148 00040000 		.4byte	.LASF28
 332 014c 06       		.byte	0x6
 333 014d 64       		.byte	0x64
 334 014e A7020000 		.4byte	0x2a7
 335 0152 0C       		.byte	0xc
 336 0153 06       		.uleb128 0x6
 337 0154 11030000 		.4byte	.LASF29
ARM GAS  /tmp/ccxm6w7v.s 			page 7


 338 0158 06       		.byte	0x6
 339 0159 79       		.byte	0x79
 340 015a BF000000 		.4byte	0xbf
 341 015e 10       		.byte	0x10
 342 015f 06       		.uleb128 0x6
 343 0160 31030000 		.4byte	.LASF30
 344 0164 06       		.byte	0x6
 345 0165 7D       		.byte	0x7d
 346 0166 B4000000 		.4byte	0xb4
 347 016a 11       		.byte	0x11
 348 016b 06       		.uleb128 0x6
 349 016c 19030000 		.4byte	.LASF31
 350 0170 06       		.byte	0x6
 351 0171 88       		.byte	0x88
 352 0172 CA000000 		.4byte	0xca
 353 0176 12       		.byte	0x12
 354 0177 07       		.uleb128 0x7
 355 0178 705F7500 		.ascii	"p_u\000"
 356 017c 06       		.byte	0x6
 357 017d B4       		.byte	0xb4
 358 017e F9030000 		.4byte	0x3f9
 359 0182 14       		.byte	0x14
 360 0183 06       		.uleb128 0x6
 361 0184 06040000 		.4byte	.LASF32
 362 0188 06       		.byte	0x6
 363 0189 B9       		.byte	0xb9
 364 018a 13020000 		.4byte	0x213
 365 018e 18       		.byte	0x18
 366 018f 06       		.uleb128 0x6
 367 0190 AF030000 		.4byte	.LASF33
 368 0194 06       		.byte	0x6
 369 0195 BF       		.byte	0xbf
 370 0196 F3010000 		.4byte	0x1f3
 371 019a 1C       		.byte	0x1c
 372 019b 06       		.uleb128 0x6
 373 019c 0C000000 		.4byte	.LASF34
 374 01a0 06       		.byte	0x6
 375 01a1 C3       		.byte	0xc3
 376 01a2 E0000000 		.4byte	0xe0
 377 01a6 24       		.byte	0x24
 378 01a7 06       		.uleb128 0x6
 379 01a8 4B030000 		.4byte	.LASF35
 380 01ac 06       		.byte	0x6
 381 01ad C9       		.byte	0xc9
 382 01ae EB000000 		.4byte	0xeb
 383 01b2 28       		.byte	0x28
 384 01b3 06       		.uleb128 0x6
 385 01b4 FD020000 		.4byte	.LASF36
 386 01b8 06       		.byte	0x6
 387 01b9 D0       		.byte	0xd0
 388 01ba 2E040000 		.4byte	0x42e
 389 01be 2C       		.byte	0x2c
 390 01bf 06       		.uleb128 0x6
 391 01c0 83030000 		.4byte	.LASF37
 392 01c4 06       		.byte	0x6
 393 01c5 D4       		.byte	0xd4
 394 01c6 D5000000 		.4byte	0xd5
ARM GAS  /tmp/ccxm6w7v.s 			page 8


 395 01ca 30       		.byte	0x30
 396 01cb 00       		.byte	0
 397 01cc 08       		.uleb128 0x8
 398 01cd 08       		.byte	0x8
 399 01ce 05       		.byte	0x5
 400 01cf 61       		.byte	0x61
 401 01d0 ED010000 		.4byte	0x1ed
 402 01d4 06       		.uleb128 0x6
 403 01d5 2A030000 		.4byte	.LASF25
 404 01d9 05       		.byte	0x5
 405 01da 62       		.byte	0x62
 406 01db ED010000 		.4byte	0x1ed
 407 01df 00       		.byte	0
 408 01e0 06       		.uleb128 0x6
 409 01e1 F8010000 		.4byte	.LASF26
 410 01e5 05       		.byte	0x5
 411 01e6 64       		.byte	0x64
 412 01e7 ED010000 		.4byte	0x1ed
 413 01eb 04       		.byte	0x4
 414 01ec 00       		.byte	0
 415 01ed 09       		.uleb128 0x9
 416 01ee 04       		.byte	0x4
 417 01ef 0C010000 		.4byte	0x10c
 418 01f3 04       		.uleb128 0x4
 419 01f4 E3010000 		.4byte	.LASF38
 420 01f8 05       		.byte	0x5
 421 01f9 66       		.byte	0x66
 422 01fa CC010000 		.4byte	0x1cc
 423 01fe 08       		.uleb128 0x8
 424 01ff 04       		.byte	0x4
 425 0200 05       		.byte	0x5
 426 0201 6B       		.byte	0x6b
 427 0202 13020000 		.4byte	0x213
 428 0206 06       		.uleb128 0x6
 429 0207 2A030000 		.4byte	.LASF25
 430 020b 05       		.byte	0x5
 431 020c 6D       		.byte	0x6d
 432 020d ED010000 		.4byte	0x1ed
 433 0211 00       		.byte	0
 434 0212 00       		.byte	0
 435 0213 04       		.uleb128 0x4
 436 0214 9D010000 		.4byte	.LASF39
 437 0218 05       		.byte	0x5
 438 0219 70       		.byte	0x70
 439 021a FE010000 		.4byte	0x1fe
 440 021e 04       		.uleb128 0x4
 441 021f B9000000 		.4byte	.LASF40
 442 0223 07       		.byte	0x7
 443 0224 E5       		.byte	0xe5
 444 0225 29020000 		.4byte	0x229
 445 0229 0A       		.uleb128 0xa
 446 022a 04       		.byte	0x4
 447 022b 0B       		.uleb128 0xb
 448 022c A8030000 		.4byte	.LASF41
 449 0230 24       		.byte	0x24
 450 0231 07       		.byte	0x7
 451 0232 0C01     		.2byte	0x10c
ARM GAS  /tmp/ccxm6w7v.s 			page 9


 452 0234 A7020000 		.4byte	0x2a7
 453 0238 0C       		.uleb128 0xc
 454 0239 723400   		.ascii	"r4\000"
 455 023c 07       		.byte	0x7
 456 023d 1F01     		.2byte	0x11f
 457 023f 1E020000 		.4byte	0x21e
 458 0243 00       		.byte	0
 459 0244 0C       		.uleb128 0xc
 460 0245 723500   		.ascii	"r5\000"
 461 0248 07       		.byte	0x7
 462 0249 2001     		.2byte	0x120
 463 024b 1E020000 		.4byte	0x21e
 464 024f 04       		.byte	0x4
 465 0250 0C       		.uleb128 0xc
 466 0251 723600   		.ascii	"r6\000"
 467 0254 07       		.byte	0x7
 468 0255 2101     		.2byte	0x121
 469 0257 1E020000 		.4byte	0x21e
 470 025b 08       		.byte	0x8
 471 025c 0C       		.uleb128 0xc
 472 025d 723700   		.ascii	"r7\000"
 473 0260 07       		.byte	0x7
 474 0261 2201     		.2byte	0x122
 475 0263 1E020000 		.4byte	0x21e
 476 0267 0C       		.byte	0xc
 477 0268 0C       		.uleb128 0xc
 478 0269 723800   		.ascii	"r8\000"
 479 026c 07       		.byte	0x7
 480 026d 2301     		.2byte	0x123
 481 026f 1E020000 		.4byte	0x21e
 482 0273 10       		.byte	0x10
 483 0274 0C       		.uleb128 0xc
 484 0275 723900   		.ascii	"r9\000"
 485 0278 07       		.byte	0x7
 486 0279 2401     		.2byte	0x124
 487 027b 1E020000 		.4byte	0x21e
 488 027f 14       		.byte	0x14
 489 0280 0C       		.uleb128 0xc
 490 0281 72313000 		.ascii	"r10\000"
 491 0285 07       		.byte	0x7
 492 0286 2501     		.2byte	0x125
 493 0288 1E020000 		.4byte	0x21e
 494 028c 18       		.byte	0x18
 495 028d 0C       		.uleb128 0xc
 496 028e 72313100 		.ascii	"r11\000"
 497 0292 07       		.byte	0x7
 498 0293 2601     		.2byte	0x126
 499 0295 1E020000 		.4byte	0x21e
 500 0299 1C       		.byte	0x1c
 501 029a 0C       		.uleb128 0xc
 502 029b 6C7200   		.ascii	"lr\000"
 503 029e 07       		.byte	0x7
 504 029f 2701     		.2byte	0x127
 505 02a1 1E020000 		.4byte	0x21e
 506 02a5 20       		.byte	0x20
 507 02a6 00       		.byte	0
 508 02a7 0B       		.uleb128 0xb
ARM GAS  /tmp/ccxm6w7v.s 			page 10


 509 02a8 A0030000 		.4byte	.LASF42
 510 02ac 04       		.byte	0x4
 511 02ad 07       		.byte	0x7
 512 02ae 3101     		.2byte	0x131
 513 02b0 C2020000 		.4byte	0x2c2
 514 02b4 0C       		.uleb128 0xc
 515 02b5 72313300 		.ascii	"r13\000"
 516 02b9 07       		.byte	0x7
 517 02ba 3201     		.2byte	0x132
 518 02bc C2020000 		.4byte	0x2c2
 519 02c0 00       		.byte	0
 520 02c1 00       		.byte	0
 521 02c2 09       		.uleb128 0x9
 522 02c3 04       		.byte	0x4
 523 02c4 2B020000 		.4byte	0x22b
 524 02c8 03       		.uleb128 0x3
 525 02c9 04       		.byte	0x4
 526 02ca 07       		.byte	0x7
 527 02cb C9010000 		.4byte	.LASF43
 528 02cf 04       		.uleb128 0x4
 529 02d0 6B010000 		.4byte	.LASF44
 530 02d4 08       		.byte	0x8
 531 02d5 58       		.byte	0x58
 532 02d6 DA020000 		.4byte	0x2da
 533 02da 09       		.uleb128 0x9
 534 02db 04       		.byte	0x4
 535 02dc E0020000 		.4byte	0x2e0
 536 02e0 0D       		.uleb128 0xd
 537 02e1 EB020000 		.4byte	0x2eb
 538 02e5 0E       		.uleb128 0xe
 539 02e6 29020000 		.4byte	0x229
 540 02ea 00       		.byte	0
 541 02eb 04       		.uleb128 0x4
 542 02ec 5F030000 		.4byte	.LASF45
 543 02f0 08       		.byte	0x8
 544 02f1 5D       		.byte	0x5d
 545 02f2 F6020000 		.4byte	0x2f6
 546 02f6 05       		.uleb128 0x5
 547 02f7 5F030000 		.4byte	.LASF45
 548 02fb 14       		.byte	0x14
 549 02fc 08       		.byte	0x8
 550 02fd 64       		.byte	0x64
 551 02fe 3F030000 		.4byte	0x33f
 552 0302 06       		.uleb128 0x6
 553 0303 E3000000 		.4byte	.LASF46
 554 0307 08       		.byte	0x8
 555 0308 65       		.byte	0x65
 556 0309 3F030000 		.4byte	0x33f
 557 030d 00       		.byte	0
 558 030e 06       		.uleb128 0x6
 559 030f C2000000 		.4byte	.LASF47
 560 0313 08       		.byte	0x8
 561 0314 67       		.byte	0x67
 562 0315 3F030000 		.4byte	0x33f
 563 0319 04       		.byte	0x4
 564 031a 06       		.uleb128 0x6
 565 031b BB010000 		.4byte	.LASF48
ARM GAS  /tmp/ccxm6w7v.s 			page 11


 566 031f 08       		.byte	0x8
 567 0320 69       		.byte	0x69
 568 0321 01010000 		.4byte	0x101
 569 0325 08       		.byte	0x8
 570 0326 06       		.uleb128 0x6
 571 0327 D2010000 		.4byte	.LASF49
 572 032b 08       		.byte	0x8
 573 032c 6A       		.byte	0x6a
 574 032d CF020000 		.4byte	0x2cf
 575 0331 0C       		.byte	0xc
 576 0332 06       		.uleb128 0x6
 577 0333 BA030000 		.4byte	.LASF50
 578 0337 08       		.byte	0x8
 579 0338 6C       		.byte	0x6c
 580 0339 29020000 		.4byte	0x229
 581 033d 10       		.byte	0x10
 582 033e 00       		.byte	0
 583 033f 09       		.uleb128 0x9
 584 0340 04       		.byte	0x4
 585 0341 EB020000 		.4byte	0x2eb
 586 0345 05       		.uleb128 0x5
 587 0346 B5010000 		.4byte	.LASF51
 588 034a 10       		.byte	0x10
 589 034b 09       		.byte	0x9
 590 034c 2C       		.byte	0x2c
 591 034d 76030000 		.4byte	0x376
 592 0351 06       		.uleb128 0x6
 593 0352 75000000 		.4byte	.LASF52
 594 0356 09       		.byte	0x9
 595 0357 2D       		.byte	0x2d
 596 0358 F3010000 		.4byte	0x1f3
 597 035c 00       		.byte	0
 598 035d 06       		.uleb128 0x6
 599 035e F8030000 		.4byte	.LASF53
 600 0362 09       		.byte	0x9
 601 0363 2F       		.byte	0x2f
 602 0364 ED010000 		.4byte	0x1ed
 603 0368 08       		.byte	0x8
 604 0369 06       		.uleb128 0x6
 605 036a 72030000 		.4byte	.LASF54
 606 036e 09       		.byte	0x9
 607 036f 31       		.byte	0x31
 608 0370 76030000 		.4byte	0x376
 609 0374 0C       		.byte	0xc
 610 0375 00       		.byte	0
 611 0376 09       		.uleb128 0x9
 612 0377 04       		.byte	0x4
 613 0378 45030000 		.4byte	0x345
 614 037c 04       		.uleb128 0x4
 615 037d B5010000 		.4byte	.LASF51
 616 0381 09       		.byte	0x9
 617 0382 33       		.byte	0x33
 618 0383 45030000 		.4byte	0x345
 619 0387 04       		.uleb128 0x4
 620 0388 DD030000 		.4byte	.LASF55
 621 038c 0A       		.byte	0xa
 622 038d 2C       		.byte	0x2c
ARM GAS  /tmp/ccxm6w7v.s 			page 12


 623 038e 92030000 		.4byte	0x392
 624 0392 05       		.uleb128 0x5
 625 0393 DD030000 		.4byte	.LASF55
 626 0397 10       		.byte	0x10
 627 0398 0A       		.byte	0xa
 628 0399 31       		.byte	0x31
 629 039a CF030000 		.4byte	0x3cf
 630 039e 06       		.uleb128 0x6
 631 039f 8D010000 		.4byte	.LASF56
 632 03a3 0A       		.byte	0xa
 633 03a4 32       		.byte	0x32
 634 03a5 CF030000 		.4byte	0x3cf
 635 03a9 00       		.byte	0
 636 03aa 06       		.uleb128 0x6
 637 03ab E8020000 		.4byte	.LASF57
 638 03af 0A       		.byte	0xa
 639 03b0 35       		.byte	0x35
 640 03b1 ED010000 		.4byte	0x1ed
 641 03b5 04       		.byte	0x4
 642 03b6 06       		.uleb128 0x6
 643 03b7 F0010000 		.4byte	.LASF58
 644 03bb 0A       		.byte	0xa
 645 03bc 37       		.byte	0x37
 646 03bd EB000000 		.4byte	0xeb
 647 03c1 08       		.byte	0x8
 648 03c2 06       		.uleb128 0x6
 649 03c3 F4020000 		.4byte	.LASF59
 650 03c7 0A       		.byte	0xa
 651 03c8 3A       		.byte	0x3a
 652 03c9 F6000000 		.4byte	0xf6
 653 03cd 0C       		.byte	0xc
 654 03ce 00       		.byte	0
 655 03cf 09       		.uleb128 0x9
 656 03d0 04       		.byte	0x4
 657 03d1 87030000 		.4byte	0x387
 658 03d5 05       		.uleb128 0x5
 659 03d6 CA000000 		.4byte	.LASF60
 660 03da 04       		.byte	0x4
 661 03db 0A       		.byte	0xa
 662 03dc 41       		.byte	0x41
 663 03dd EE030000 		.4byte	0x3ee
 664 03e1 06       		.uleb128 0x6
 665 03e2 CD030000 		.4byte	.LASF61
 666 03e6 0A       		.byte	0xa
 667 03e7 42       		.byte	0x42
 668 03e8 CF030000 		.4byte	0x3cf
 669 03ec 00       		.byte	0
 670 03ed 00       		.byte	0
 671 03ee 04       		.uleb128 0x4
 672 03ef CA000000 		.4byte	.LASF60
 673 03f3 0A       		.byte	0xa
 674 03f4 45       		.byte	0x45
 675 03f5 D5030000 		.4byte	0x3d5
 676 03f9 0F       		.uleb128 0xf
 677 03fa 04       		.byte	0x4
 678 03fb 06       		.byte	0x6
 679 03fc 96       		.byte	0x96
ARM GAS  /tmp/ccxm6w7v.s 			page 13


 680 03fd 2E040000 		.4byte	0x42e
 681 0401 10       		.uleb128 0x10
 682 0402 12000000 		.4byte	.LASF62
 683 0406 06       		.byte	0x6
 684 0407 9D       		.byte	0x9d
 685 0408 E0000000 		.4byte	0xe0
 686 040c 10       		.uleb128 0x10
 687 040d 3A000000 		.4byte	.LASF63
 688 0411 06       		.byte	0x6
 689 0412 A4       		.byte	0xa4
 690 0413 E0000000 		.4byte	0xe0
 691 0417 10       		.uleb128 0x10
 692 0418 EB030000 		.4byte	.LASF64
 693 041c 06       		.byte	0x6
 694 041d AB       		.byte	0xab
 695 041e 29020000 		.4byte	0x229
 696 0422 10       		.uleb128 0x10
 697 0423 23030000 		.4byte	.LASF65
 698 0427 06       		.byte	0x6
 699 0428 B2       		.byte	0xb2
 700 0429 EB000000 		.4byte	0xeb
 701 042d 00       		.byte	0
 702 042e 09       		.uleb128 0x9
 703 042f 04       		.byte	0x4
 704 0430 7C030000 		.4byte	0x37c
 705 0434 08       		.uleb128 0x8
 706 0435 1C       		.byte	0x1c
 707 0436 0B       		.byte	0xb
 708 0437 27       		.byte	0x27
 709 0438 61040000 		.4byte	0x461
 710 043c 06       		.uleb128 0x6
 711 043d F2030000 		.4byte	.LASF66
 712 0441 0B       		.byte	0xb
 713 0442 28       		.byte	0x28
 714 0443 EB020000 		.4byte	0x2eb
 715 0447 00       		.byte	0
 716 0448 06       		.uleb128 0x6
 717 0449 C3010000 		.4byte	.LASF67
 718 044d 0B       		.byte	0xb
 719 044e 29       		.byte	0x29
 720 044f EE030000 		.4byte	0x3ee
 721 0453 14       		.byte	0x14
 722 0454 06       		.uleb128 0x6
 723 0455 00000000 		.4byte	.LASF68
 724 0459 0B       		.byte	0xb
 725 045a 2A       		.byte	0x2a
 726 045b 01010000 		.4byte	0x101
 727 045f 18       		.byte	0x18
 728 0460 00       		.byte	0
 729 0461 04       		.uleb128 0x4
 730 0462 6D000000 		.4byte	.LASF69
 731 0466 0B       		.byte	0xb
 732 0467 2B       		.byte	0x2b
 733 0468 34040000 		.4byte	0x434
 734 046c 11       		.uleb128 0x11
 735 046d 6C030000 		.4byte	.LASF77
 736 0471 01       		.byte	0x1
ARM GAS  /tmp/ccxm6w7v.s 			page 14


 737 0472 1C       		.byte	0x1c
 738 0473 00000000 		.4byte	.LFB0
 739 0477 28000000 		.4byte	.LFE0-.LFB0
 740 047b 01       		.uleb128 0x1
 741 047c 9C       		.byte	0x9c
 742 047d D6040000 		.4byte	0x4d6
 743 0481 12       		.uleb128 0x12
 744 0482 7000     		.ascii	"p\000"
 745 0484 01       		.byte	0x1
 746 0485 1C       		.byte	0x1c
 747 0486 29020000 		.4byte	0x229
 748 048a 00000000 		.4byte	.LLST0
 749 048e 13       		.uleb128 0x13
 750 048f 65747000 		.ascii	"etp\000"
 751 0493 01       		.byte	0x1
 752 0494 1D       		.byte	0x1d
 753 0495 D6040000 		.4byte	0x4d6
 754 0499 2C000000 		.4byte	.LLST1
 755 049d 14       		.uleb128 0x14
 756 049e 10000000 		.4byte	.LVL3
 757 04a2 58050000 		.4byte	0x558
 758 04a6 B6040000 		.4byte	0x4b6
 759 04aa 15       		.uleb128 0x15
 760 04ab 01       		.uleb128 0x1
 761 04ac 51       		.byte	0x51
 762 04ad 01       		.uleb128 0x1
 763 04ae 30       		.byte	0x30
 764 04af 15       		.uleb128 0x15
 765 04b0 01       		.uleb128 0x1
 766 04b1 50       		.byte	0x50
 767 04b2 02       		.uleb128 0x2
 768 04b3 74       		.byte	0x74
 769 04b4 14       		.sleb128 20
 770 04b5 00       		.byte	0
 771 04b6 16       		.uleb128 0x16
 772 04b7 1C000000 		.4byte	.LVL4
 773 04bb 74050000 		.4byte	0x574
 774 04bf 15       		.uleb128 0x15
 775 04c0 01       		.uleb128 0x1
 776 04c1 53       		.byte	0x53
 777 04c2 02       		.uleb128 0x2
 778 04c3 74       		.byte	0x74
 779 04c4 00       		.sleb128 0
 780 04c5 15       		.uleb128 0x15
 781 04c6 01       		.uleb128 0x1
 782 04c7 52       		.byte	0x52
 783 04c8 05       		.uleb128 0x5
 784 04c9 03       		.byte	0x3
 785 04ca 00000000 		.4byte	tmrcb
 786 04ce 15       		.uleb128 0x15
 787 04cf 01       		.uleb128 0x1
 788 04d0 50       		.byte	0x50
 789 04d1 02       		.uleb128 0x2
 790 04d2 74       		.byte	0x74
 791 04d3 00       		.sleb128 0
 792 04d4 00       		.byte	0
 793 04d5 00       		.byte	0
ARM GAS  /tmp/ccxm6w7v.s 			page 15


 794 04d6 09       		.uleb128 0x9
 795 04d7 04       		.byte	0x4
 796 04d8 61040000 		.4byte	0x461
 797 04dc 17       		.uleb128 0x17
 798 04dd 43000000 		.4byte	.LASF70
 799 04e1 01       		.byte	0x1
 800 04e2 2B       		.byte	0x2b
 801 04e3 00000000 		.4byte	.LFB1
 802 04e7 24000000 		.4byte	.LFE1-.LFB1
 803 04eb 01       		.uleb128 0x1
 804 04ec 9C       		.byte	0x9c
 805 04ed 22050000 		.4byte	0x522
 806 04f1 12       		.uleb128 0x12
 807 04f2 65747000 		.ascii	"etp\000"
 808 04f6 01       		.byte	0x1
 809 04f7 2B       		.byte	0x2b
 810 04f8 D6040000 		.4byte	0x4d6
 811 04fc 58000000 		.4byte	.LLST2
 812 0500 16       		.uleb128 0x16
 813 0501 1A000000 		.4byte	.LVL7
 814 0505 74050000 		.4byte	0x574
 815 0509 15       		.uleb128 0x15
 816 050a 01       		.uleb128 0x1
 817 050b 53       		.byte	0x53
 818 050c 03       		.uleb128 0x3
 819 050d F3       		.byte	0xf3
 820 050e 01       		.uleb128 0x1
 821 050f 50       		.byte	0x50
 822 0510 15       		.uleb128 0x15
 823 0511 01       		.uleb128 0x1
 824 0512 52       		.byte	0x52
 825 0513 05       		.uleb128 0x5
 826 0514 03       		.byte	0x3
 827 0515 00000000 		.4byte	tmrcb
 828 0519 15       		.uleb128 0x15
 829 051a 01       		.uleb128 0x1
 830 051b 50       		.byte	0x50
 831 051c 03       		.uleb128 0x3
 832 051d F3       		.byte	0xf3
 833 051e 01       		.uleb128 0x1
 834 051f 50       		.byte	0x50
 835 0520 00       		.byte	0
 836 0521 00       		.byte	0
 837 0522 17       		.uleb128 0x17
 838 0523 98030000 		.4byte	.LASF71
 839 0527 01       		.byte	0x1
 840 0528 3B       		.byte	0x3b
 841 0529 00000000 		.4byte	.LFB2
 842 052d 14000000 		.4byte	.LFE2-.LFB2
 843 0531 01       		.uleb128 0x1
 844 0532 9C       		.byte	0x9c
 845 0533 58050000 		.4byte	0x558
 846 0537 12       		.uleb128 0x12
 847 0538 65747000 		.ascii	"etp\000"
 848 053c 01       		.byte	0x1
 849 053d 3B       		.byte	0x3b
 850 053e D6040000 		.4byte	0x4d6
ARM GAS  /tmp/ccxm6w7v.s 			page 16


 851 0542 79000000 		.4byte	.LLST3
 852 0546 16       		.uleb128 0x16
 853 0547 0E000000 		.4byte	.LVL9
 854 054b 94050000 		.4byte	0x594
 855 054f 15       		.uleb128 0x15
 856 0550 01       		.uleb128 0x1
 857 0551 50       		.byte	0x50
 858 0552 03       		.uleb128 0x3
 859 0553 F3       		.byte	0xf3
 860 0554 01       		.uleb128 0x1
 861 0555 50       		.byte	0x50
 862 0556 00       		.byte	0
 863 0557 00       		.byte	0
 864 0558 18       		.uleb128 0x18
 865 0559 99000000 		.4byte	.LASF72
 866 055d 0A       		.byte	0xa
 867 055e BA       		.byte	0xba
 868 055f 6E050000 		.4byte	0x56e
 869 0563 0E       		.uleb128 0xe
 870 0564 6E050000 		.4byte	0x56e
 871 0568 0E       		.uleb128 0xe
 872 0569 F6000000 		.4byte	0xf6
 873 056d 00       		.byte	0
 874 056e 09       		.uleb128 0x9
 875 056f 04       		.byte	0x4
 876 0570 EE030000 		.4byte	0x3ee
 877 0574 18       		.uleb128 0x18
 878 0575 DA010000 		.4byte	.LASF73
 879 0579 08       		.byte	0x8
 880 057a FE       		.byte	0xfe
 881 057b 94050000 		.4byte	0x594
 882 057f 0E       		.uleb128 0xe
 883 0580 3F030000 		.4byte	0x33f
 884 0584 0E       		.uleb128 0xe
 885 0585 01010000 		.4byte	0x101
 886 0589 0E       		.uleb128 0xe
 887 058a CF020000 		.4byte	0x2cf
 888 058e 0E       		.uleb128 0xe
 889 058f 29020000 		.4byte	0x229
 890 0593 00       		.byte	0
 891 0594 19       		.uleb128 0x19
 892 0595 40030000 		.4byte	.LASF78
 893 0599 08       		.byte	0x8
 894 059a FF       		.byte	0xff
 895 059b 0E       		.uleb128 0xe
 896 059c 3F030000 		.4byte	0x33f
 897 05a0 00       		.byte	0
 898 05a1 00       		.byte	0
 899              		.section	.debug_abbrev,"",%progbits
 900              	.Ldebug_abbrev0:
 901 0000 01       		.uleb128 0x1
 902 0001 11       		.uleb128 0x11
 903 0002 01       		.byte	0x1
 904 0003 25       		.uleb128 0x25
 905 0004 0E       		.uleb128 0xe
 906 0005 13       		.uleb128 0x13
 907 0006 0B       		.uleb128 0xb
ARM GAS  /tmp/ccxm6w7v.s 			page 17


 908 0007 03       		.uleb128 0x3
 909 0008 0E       		.uleb128 0xe
 910 0009 1B       		.uleb128 0x1b
 911 000a 0E       		.uleb128 0xe
 912 000b 55       		.uleb128 0x55
 913 000c 17       		.uleb128 0x17
 914 000d 11       		.uleb128 0x11
 915 000e 01       		.uleb128 0x1
 916 000f 10       		.uleb128 0x10
 917 0010 17       		.uleb128 0x17
 918 0011 00       		.byte	0
 919 0012 00       		.byte	0
 920 0013 02       		.uleb128 0x2
 921 0014 24       		.uleb128 0x24
 922 0015 00       		.byte	0
 923 0016 0B       		.uleb128 0xb
 924 0017 0B       		.uleb128 0xb
 925 0018 3E       		.uleb128 0x3e
 926 0019 0B       		.uleb128 0xb
 927 001a 03       		.uleb128 0x3
 928 001b 08       		.uleb128 0x8
 929 001c 00       		.byte	0
 930 001d 00       		.byte	0
 931 001e 03       		.uleb128 0x3
 932 001f 24       		.uleb128 0x24
 933 0020 00       		.byte	0
 934 0021 0B       		.uleb128 0xb
 935 0022 0B       		.uleb128 0xb
 936 0023 3E       		.uleb128 0x3e
 937 0024 0B       		.uleb128 0xb
 938 0025 03       		.uleb128 0x3
 939 0026 0E       		.uleb128 0xe
 940 0027 00       		.byte	0
 941 0028 00       		.byte	0
 942 0029 04       		.uleb128 0x4
 943 002a 16       		.uleb128 0x16
 944 002b 00       		.byte	0
 945 002c 03       		.uleb128 0x3
 946 002d 0E       		.uleb128 0xe
 947 002e 3A       		.uleb128 0x3a
 948 002f 0B       		.uleb128 0xb
 949 0030 3B       		.uleb128 0x3b
 950 0031 0B       		.uleb128 0xb
 951 0032 49       		.uleb128 0x49
 952 0033 13       		.uleb128 0x13
 953 0034 00       		.byte	0
 954 0035 00       		.byte	0
 955 0036 05       		.uleb128 0x5
 956 0037 13       		.uleb128 0x13
 957 0038 01       		.byte	0x1
 958 0039 03       		.uleb128 0x3
 959 003a 0E       		.uleb128 0xe
 960 003b 0B       		.uleb128 0xb
 961 003c 0B       		.uleb128 0xb
 962 003d 3A       		.uleb128 0x3a
 963 003e 0B       		.uleb128 0xb
 964 003f 3B       		.uleb128 0x3b
ARM GAS  /tmp/ccxm6w7v.s 			page 18


 965 0040 0B       		.uleb128 0xb
 966 0041 01       		.uleb128 0x1
 967 0042 13       		.uleb128 0x13
 968 0043 00       		.byte	0
 969 0044 00       		.byte	0
 970 0045 06       		.uleb128 0x6
 971 0046 0D       		.uleb128 0xd
 972 0047 00       		.byte	0
 973 0048 03       		.uleb128 0x3
 974 0049 0E       		.uleb128 0xe
 975 004a 3A       		.uleb128 0x3a
 976 004b 0B       		.uleb128 0xb
 977 004c 3B       		.uleb128 0x3b
 978 004d 0B       		.uleb128 0xb
 979 004e 49       		.uleb128 0x49
 980 004f 13       		.uleb128 0x13
 981 0050 38       		.uleb128 0x38
 982 0051 0B       		.uleb128 0xb
 983 0052 00       		.byte	0
 984 0053 00       		.byte	0
 985 0054 07       		.uleb128 0x7
 986 0055 0D       		.uleb128 0xd
 987 0056 00       		.byte	0
 988 0057 03       		.uleb128 0x3
 989 0058 08       		.uleb128 0x8
 990 0059 3A       		.uleb128 0x3a
 991 005a 0B       		.uleb128 0xb
 992 005b 3B       		.uleb128 0x3b
 993 005c 0B       		.uleb128 0xb
 994 005d 49       		.uleb128 0x49
 995 005e 13       		.uleb128 0x13
 996 005f 38       		.uleb128 0x38
 997 0060 0B       		.uleb128 0xb
 998 0061 00       		.byte	0
 999 0062 00       		.byte	0
 1000 0063 08       		.uleb128 0x8
 1001 0064 13       		.uleb128 0x13
 1002 0065 01       		.byte	0x1
 1003 0066 0B       		.uleb128 0xb
 1004 0067 0B       		.uleb128 0xb
 1005 0068 3A       		.uleb128 0x3a
 1006 0069 0B       		.uleb128 0xb
 1007 006a 3B       		.uleb128 0x3b
 1008 006b 0B       		.uleb128 0xb
 1009 006c 01       		.uleb128 0x1
 1010 006d 13       		.uleb128 0x13
 1011 006e 00       		.byte	0
 1012 006f 00       		.byte	0
 1013 0070 09       		.uleb128 0x9
 1014 0071 0F       		.uleb128 0xf
 1015 0072 00       		.byte	0
 1016 0073 0B       		.uleb128 0xb
 1017 0074 0B       		.uleb128 0xb
 1018 0075 49       		.uleb128 0x49
 1019 0076 13       		.uleb128 0x13
 1020 0077 00       		.byte	0
 1021 0078 00       		.byte	0
ARM GAS  /tmp/ccxm6w7v.s 			page 19


 1022 0079 0A       		.uleb128 0xa
 1023 007a 0F       		.uleb128 0xf
 1024 007b 00       		.byte	0
 1025 007c 0B       		.uleb128 0xb
 1026 007d 0B       		.uleb128 0xb
 1027 007e 00       		.byte	0
 1028 007f 00       		.byte	0
 1029 0080 0B       		.uleb128 0xb
 1030 0081 13       		.uleb128 0x13
 1031 0082 01       		.byte	0x1
 1032 0083 03       		.uleb128 0x3
 1033 0084 0E       		.uleb128 0xe
 1034 0085 0B       		.uleb128 0xb
 1035 0086 0B       		.uleb128 0xb
 1036 0087 3A       		.uleb128 0x3a
 1037 0088 0B       		.uleb128 0xb
 1038 0089 3B       		.uleb128 0x3b
 1039 008a 05       		.uleb128 0x5
 1040 008b 01       		.uleb128 0x1
 1041 008c 13       		.uleb128 0x13
 1042 008d 00       		.byte	0
 1043 008e 00       		.byte	0
 1044 008f 0C       		.uleb128 0xc
 1045 0090 0D       		.uleb128 0xd
 1046 0091 00       		.byte	0
 1047 0092 03       		.uleb128 0x3
 1048 0093 08       		.uleb128 0x8
 1049 0094 3A       		.uleb128 0x3a
 1050 0095 0B       		.uleb128 0xb
 1051 0096 3B       		.uleb128 0x3b
 1052 0097 05       		.uleb128 0x5
 1053 0098 49       		.uleb128 0x49
 1054 0099 13       		.uleb128 0x13
 1055 009a 38       		.uleb128 0x38
 1056 009b 0B       		.uleb128 0xb
 1057 009c 00       		.byte	0
 1058 009d 00       		.byte	0
 1059 009e 0D       		.uleb128 0xd
 1060 009f 15       		.uleb128 0x15
 1061 00a0 01       		.byte	0x1
 1062 00a1 27       		.uleb128 0x27
 1063 00a2 19       		.uleb128 0x19
 1064 00a3 01       		.uleb128 0x1
 1065 00a4 13       		.uleb128 0x13
 1066 00a5 00       		.byte	0
 1067 00a6 00       		.byte	0
 1068 00a7 0E       		.uleb128 0xe
 1069 00a8 05       		.uleb128 0x5
 1070 00a9 00       		.byte	0
 1071 00aa 49       		.uleb128 0x49
 1072 00ab 13       		.uleb128 0x13
 1073 00ac 00       		.byte	0
 1074 00ad 00       		.byte	0
 1075 00ae 0F       		.uleb128 0xf
 1076 00af 17       		.uleb128 0x17
 1077 00b0 01       		.byte	0x1
 1078 00b1 0B       		.uleb128 0xb
ARM GAS  /tmp/ccxm6w7v.s 			page 20


 1079 00b2 0B       		.uleb128 0xb
 1080 00b3 3A       		.uleb128 0x3a
 1081 00b4 0B       		.uleb128 0xb
 1082 00b5 3B       		.uleb128 0x3b
 1083 00b6 0B       		.uleb128 0xb
 1084 00b7 01       		.uleb128 0x1
 1085 00b8 13       		.uleb128 0x13
 1086 00b9 00       		.byte	0
 1087 00ba 00       		.byte	0
 1088 00bb 10       		.uleb128 0x10
 1089 00bc 0D       		.uleb128 0xd
 1090 00bd 00       		.byte	0
 1091 00be 03       		.uleb128 0x3
 1092 00bf 0E       		.uleb128 0xe
 1093 00c0 3A       		.uleb128 0x3a
 1094 00c1 0B       		.uleb128 0xb
 1095 00c2 3B       		.uleb128 0x3b
 1096 00c3 0B       		.uleb128 0xb
 1097 00c4 49       		.uleb128 0x49
 1098 00c5 13       		.uleb128 0x13
 1099 00c6 00       		.byte	0
 1100 00c7 00       		.byte	0
 1101 00c8 11       		.uleb128 0x11
 1102 00c9 2E       		.uleb128 0x2e
 1103 00ca 01       		.byte	0x1
 1104 00cb 03       		.uleb128 0x3
 1105 00cc 0E       		.uleb128 0xe
 1106 00cd 3A       		.uleb128 0x3a
 1107 00ce 0B       		.uleb128 0xb
 1108 00cf 3B       		.uleb128 0x3b
 1109 00d0 0B       		.uleb128 0xb
 1110 00d1 27       		.uleb128 0x27
 1111 00d2 19       		.uleb128 0x19
 1112 00d3 11       		.uleb128 0x11
 1113 00d4 01       		.uleb128 0x1
 1114 00d5 12       		.uleb128 0x12
 1115 00d6 06       		.uleb128 0x6
 1116 00d7 40       		.uleb128 0x40
 1117 00d8 18       		.uleb128 0x18
 1118 00d9 9742     		.uleb128 0x2117
 1119 00db 19       		.uleb128 0x19
 1120 00dc 01       		.uleb128 0x1
 1121 00dd 13       		.uleb128 0x13
 1122 00de 00       		.byte	0
 1123 00df 00       		.byte	0
 1124 00e0 12       		.uleb128 0x12
 1125 00e1 05       		.uleb128 0x5
 1126 00e2 00       		.byte	0
 1127 00e3 03       		.uleb128 0x3
 1128 00e4 08       		.uleb128 0x8
 1129 00e5 3A       		.uleb128 0x3a
 1130 00e6 0B       		.uleb128 0xb
 1131 00e7 3B       		.uleb128 0x3b
 1132 00e8 0B       		.uleb128 0xb
 1133 00e9 49       		.uleb128 0x49
 1134 00ea 13       		.uleb128 0x13
 1135 00eb 02       		.uleb128 0x2
ARM GAS  /tmp/ccxm6w7v.s 			page 21


 1136 00ec 17       		.uleb128 0x17
 1137 00ed 00       		.byte	0
 1138 00ee 00       		.byte	0
 1139 00ef 13       		.uleb128 0x13
 1140 00f0 34       		.uleb128 0x34
 1141 00f1 00       		.byte	0
 1142 00f2 03       		.uleb128 0x3
 1143 00f3 08       		.uleb128 0x8
 1144 00f4 3A       		.uleb128 0x3a
 1145 00f5 0B       		.uleb128 0xb
 1146 00f6 3B       		.uleb128 0x3b
 1147 00f7 0B       		.uleb128 0xb
 1148 00f8 49       		.uleb128 0x49
 1149 00f9 13       		.uleb128 0x13
 1150 00fa 02       		.uleb128 0x2
 1151 00fb 17       		.uleb128 0x17
 1152 00fc 00       		.byte	0
 1153 00fd 00       		.byte	0
 1154 00fe 14       		.uleb128 0x14
 1155 00ff 898201   		.uleb128 0x4109
 1156 0102 01       		.byte	0x1
 1157 0103 11       		.uleb128 0x11
 1158 0104 01       		.uleb128 0x1
 1159 0105 31       		.uleb128 0x31
 1160 0106 13       		.uleb128 0x13
 1161 0107 01       		.uleb128 0x1
 1162 0108 13       		.uleb128 0x13
 1163 0109 00       		.byte	0
 1164 010a 00       		.byte	0
 1165 010b 15       		.uleb128 0x15
 1166 010c 8A8201   		.uleb128 0x410a
 1167 010f 00       		.byte	0
 1168 0110 02       		.uleb128 0x2
 1169 0111 18       		.uleb128 0x18
 1170 0112 9142     		.uleb128 0x2111
 1171 0114 18       		.uleb128 0x18
 1172 0115 00       		.byte	0
 1173 0116 00       		.byte	0
 1174 0117 16       		.uleb128 0x16
 1175 0118 898201   		.uleb128 0x4109
 1176 011b 01       		.byte	0x1
 1177 011c 11       		.uleb128 0x11
 1178 011d 01       		.uleb128 0x1
 1179 011e 31       		.uleb128 0x31
 1180 011f 13       		.uleb128 0x13
 1181 0120 00       		.byte	0
 1182 0121 00       		.byte	0
 1183 0122 17       		.uleb128 0x17
 1184 0123 2E       		.uleb128 0x2e
 1185 0124 01       		.byte	0x1
 1186 0125 3F       		.uleb128 0x3f
 1187 0126 19       		.uleb128 0x19
 1188 0127 03       		.uleb128 0x3
 1189 0128 0E       		.uleb128 0xe
 1190 0129 3A       		.uleb128 0x3a
 1191 012a 0B       		.uleb128 0xb
 1192 012b 3B       		.uleb128 0x3b
ARM GAS  /tmp/ccxm6w7v.s 			page 22


 1193 012c 0B       		.uleb128 0xb
 1194 012d 27       		.uleb128 0x27
 1195 012e 19       		.uleb128 0x19
 1196 012f 11       		.uleb128 0x11
 1197 0130 01       		.uleb128 0x1
 1198 0131 12       		.uleb128 0x12
 1199 0132 06       		.uleb128 0x6
 1200 0133 40       		.uleb128 0x40
 1201 0134 18       		.uleb128 0x18
 1202 0135 9742     		.uleb128 0x2117
 1203 0137 19       		.uleb128 0x19
 1204 0138 01       		.uleb128 0x1
 1205 0139 13       		.uleb128 0x13
 1206 013a 00       		.byte	0
 1207 013b 00       		.byte	0
 1208 013c 18       		.uleb128 0x18
 1209 013d 2E       		.uleb128 0x2e
 1210 013e 01       		.byte	0x1
 1211 013f 3F       		.uleb128 0x3f
 1212 0140 19       		.uleb128 0x19
 1213 0141 03       		.uleb128 0x3
 1214 0142 0E       		.uleb128 0xe
 1215 0143 3A       		.uleb128 0x3a
 1216 0144 0B       		.uleb128 0xb
 1217 0145 3B       		.uleb128 0x3b
 1218 0146 0B       		.uleb128 0xb
 1219 0147 27       		.uleb128 0x27
 1220 0148 19       		.uleb128 0x19
 1221 0149 3C       		.uleb128 0x3c
 1222 014a 19       		.uleb128 0x19
 1223 014b 01       		.uleb128 0x1
 1224 014c 13       		.uleb128 0x13
 1225 014d 00       		.byte	0
 1226 014e 00       		.byte	0
 1227 014f 19       		.uleb128 0x19
 1228 0150 2E       		.uleb128 0x2e
 1229 0151 01       		.byte	0x1
 1230 0152 3F       		.uleb128 0x3f
 1231 0153 19       		.uleb128 0x19
 1232 0154 03       		.uleb128 0x3
 1233 0155 0E       		.uleb128 0xe
 1234 0156 3A       		.uleb128 0x3a
 1235 0157 0B       		.uleb128 0xb
 1236 0158 3B       		.uleb128 0x3b
 1237 0159 0B       		.uleb128 0xb
 1238 015a 27       		.uleb128 0x27
 1239 015b 19       		.uleb128 0x19
 1240 015c 3C       		.uleb128 0x3c
 1241 015d 19       		.uleb128 0x19
 1242 015e 00       		.byte	0
 1243 015f 00       		.byte	0
 1244 0160 00       		.byte	0
 1245              		.section	.debug_loc,"",%progbits
 1246              	.Ldebug_loc0:
 1247              	.LLST0:
 1248 0000 00000000 		.4byte	.LVL0
 1249 0004 0C000000 		.4byte	.LVL2
ARM GAS  /tmp/ccxm6w7v.s 			page 23


 1250 0008 0100     		.2byte	0x1
 1251 000a 50       		.byte	0x50
 1252 000b 0C000000 		.4byte	.LVL2
 1253 000f 22000000 		.4byte	.LVL5
 1254 0013 0100     		.2byte	0x1
 1255 0015 54       		.byte	0x54
 1256 0016 22000000 		.4byte	.LVL5
 1257 001a 28000000 		.4byte	.LFE0
 1258 001e 0400     		.2byte	0x4
 1259 0020 F3       		.byte	0xf3
 1260 0021 01       		.uleb128 0x1
 1261 0022 50       		.byte	0x50
 1262 0023 9F       		.byte	0x9f
 1263 0024 00000000 		.4byte	0
 1264 0028 00000000 		.4byte	0
 1265              	.LLST1:
 1266 002c 04000000 		.4byte	.LVL1
 1267 0030 0C000000 		.4byte	.LVL2
 1268 0034 0100     		.2byte	0x1
 1269 0036 50       		.byte	0x50
 1270 0037 0C000000 		.4byte	.LVL2
 1271 003b 22000000 		.4byte	.LVL5
 1272 003f 0100     		.2byte	0x1
 1273 0041 54       		.byte	0x54
 1274 0042 22000000 		.4byte	.LVL5
 1275 0046 28000000 		.4byte	.LFE0
 1276 004a 0400     		.2byte	0x4
 1277 004c F3       		.byte	0xf3
 1278 004d 01       		.uleb128 0x1
 1279 004e 50       		.byte	0x50
 1280 004f 9F       		.byte	0x9f
 1281 0050 00000000 		.4byte	0
 1282 0054 00000000 		.4byte	0
 1283              	.LLST2:
 1284 0058 00000000 		.4byte	.LVL6
 1285 005c 19000000 		.4byte	.LVL7-1
 1286 0060 0100     		.2byte	0x1
 1287 0062 50       		.byte	0x50
 1288 0063 19000000 		.4byte	.LVL7-1
 1289 0067 24000000 		.4byte	.LFE1
 1290 006b 0400     		.2byte	0x4
 1291 006d F3       		.byte	0xf3
 1292 006e 01       		.uleb128 0x1
 1293 006f 50       		.byte	0x50
 1294 0070 9F       		.byte	0x9f
 1295 0071 00000000 		.4byte	0
 1296 0075 00000000 		.4byte	0
 1297              	.LLST3:
 1298 0079 00000000 		.4byte	.LVL8
 1299 007d 0D000000 		.4byte	.LVL9-1
 1300 0081 0100     		.2byte	0x1
 1301 0083 50       		.byte	0x50
 1302 0084 0D000000 		.4byte	.LVL9-1
 1303 0088 14000000 		.4byte	.LFE2
 1304 008c 0400     		.2byte	0x4
 1305 008e F3       		.byte	0xf3
 1306 008f 01       		.uleb128 0x1
ARM GAS  /tmp/ccxm6w7v.s 			page 24


 1307 0090 50       		.byte	0x50
 1308 0091 9F       		.byte	0x9f
 1309 0092 00000000 		.4byte	0
 1310 0096 00000000 		.4byte	0
 1311              		.section	.debug_aranges,"",%progbits
 1312 0000 2C000000 		.4byte	0x2c
 1313 0004 0200     		.2byte	0x2
 1314 0006 00000000 		.4byte	.Ldebug_info0
 1315 000a 04       		.byte	0x4
 1316 000b 00       		.byte	0
 1317 000c 0000     		.2byte	0
 1318 000e 0000     		.2byte	0
 1319 0010 00000000 		.4byte	.LFB0
 1320 0014 28000000 		.4byte	.LFE0-.LFB0
 1321 0018 00000000 		.4byte	.LFB1
 1322 001c 24000000 		.4byte	.LFE1-.LFB1
 1323 0020 00000000 		.4byte	.LFB2
 1324 0024 14000000 		.4byte	.LFE2-.LFB2
 1325 0028 00000000 		.4byte	0
 1326 002c 00000000 		.4byte	0
 1327              		.section	.debug_ranges,"",%progbits
 1328              	.Ldebug_ranges0:
 1329 0000 00000000 		.4byte	.LFB0
 1330 0004 28000000 		.4byte	.LFE0
 1331 0008 00000000 		.4byte	.LFB1
 1332 000c 24000000 		.4byte	.LFE1
 1333 0010 00000000 		.4byte	.LFB2
 1334 0014 14000000 		.4byte	.LFE2
 1335 0018 00000000 		.4byte	0
 1336 001c 00000000 		.4byte	0
 1337              		.section	.debug_line,"",%progbits
 1338              	.Ldebug_line0:
 1339 0000 5C010000 		.section	.debug_str,"MS",%progbits,1
 1339      02001301 
 1339      00000201 
 1339      FB0E0D00 
 1339      01010101 
 1340              	.LASF68:
 1341 0000 65745F69 		.ascii	"et_interval\000"
 1341      6E746572 
 1341      76616C00 
 1342              	.LASF34:
 1343 000c 705F6D73 		.ascii	"p_msg\000"
 1343      6700
 1344              	.LASF62:
 1345 0012 7264796D 		.ascii	"rdymsg\000"
 1345      736700
 1346              	.LASF5:
 1347 0019 5F5F7569 		.ascii	"__uint8_t\000"
 1347      6E74385F 
 1347      7400
 1348              	.LASF11:
 1349 0023 6C6F6E67 		.ascii	"long long unsigned int\000"
 1349      206C6F6E 
 1349      6720756E 
 1349      7369676E 
 1349      65642069 
ARM GAS  /tmp/ccxm6w7v.s 			page 25


 1350              	.LASF63:
 1351 003a 65786974 		.ascii	"exitcode\000"
 1351      636F6465 
 1351      00
 1352              	.LASF70:
 1353 0043 65767453 		.ascii	"evtStart\000"
 1353      74617274 
 1353      00
 1354              	.LASF27:
 1355 004c 705F7072 		.ascii	"p_prio\000"
 1355      696F00
 1356              	.LASF10:
 1357 0053 6C6F6E67 		.ascii	"long long int\000"
 1357      206C6F6E 
 1357      6720696E 
 1357      7400
 1358              	.LASF1:
 1359 0061 7369676E 		.ascii	"signed char\000"
 1359      65642063 
 1359      68617200 
 1360              	.LASF69:
 1361 006d 45765469 		.ascii	"EvTimer\000"
 1361      6D657200 
 1362              	.LASF52:
 1363 0075 6D5F7175 		.ascii	"m_queue\000"
 1363      65756500 
 1364              	.LASF18:
 1365 007d 74736C69 		.ascii	"tslices_t\000"
 1365      6365735F 
 1365      7400
 1366              	.LASF7:
 1367 0087 6C6F6E67 		.ascii	"long int\000"
 1367      20696E74 
 1367      00
 1368              	.LASF17:
 1369 0090 74737461 		.ascii	"tstate_t\000"
 1369      74655F74 
 1369      00
 1370              	.LASF72:
 1371 0099 63684576 		.ascii	"chEvtBroadcastFlagsI\000"
 1371      7442726F 
 1371      61646361 
 1371      7374466C 
 1371      61677349 
 1372              	.LASF8:
 1373 00ae 5F5F7569 		.ascii	"__uint32_t\000"
 1373      6E743332 
 1373      5F7400
 1374              	.LASF40:
 1375 00b9 72656761 		.ascii	"regarm_t\000"
 1375      726D5F74 
 1375      00
 1376              	.LASF47:
 1377 00c2 76745F70 		.ascii	"vt_prev\000"
 1377      72657600 
 1378              	.LASF60:
 1379 00ca 4576656E 		.ascii	"EventSource\000"
ARM GAS  /tmp/ccxm6w7v.s 			page 26


 1379      74536F75 
 1379      72636500 
 1380              	.LASF0:
 1381 00d6 756E7369 		.ascii	"unsigned int\000"
 1381      676E6564 
 1381      20696E74 
 1381      00
 1382              	.LASF46:
 1383 00e3 76745F6E 		.ascii	"vt_next\000"
 1383      65787400 
 1384              	.LASF76:
 1385 00eb 2F686F6D 		.ascii	"/home/dltech-deb/gdrive/Projects/RFM_to_Modbus_TCP/"
 1385      652F646C 
 1385      74656368 
 1385      2D646562 
 1385      2F676472 
 1386 011e 43686962 		.ascii	"ChibiOS/F103_ChibiOS_ENC60J28/main\000"
 1386      694F532F 
 1386      46313033 
 1386      5F436869 
 1386      62694F53 
 1387              	.LASF75:
 1388 0141 2E2E2F6F 		.ascii	"../os/various/evtimer.c\000"
 1388      732F7661 
 1388      72696F75 
 1388      732F6576 
 1388      74696D65 
 1389              	.LASF9:
 1390 0159 6C6F6E67 		.ascii	"long unsigned int\000"
 1390      20756E73 
 1390      69676E65 
 1390      6420696E 
 1390      7400
 1391              	.LASF44:
 1392 016b 76746675 		.ascii	"vtfunc_t\000"
 1392      6E635F74 
 1392      00
 1393              	.LASF4:
 1394 0174 73686F72 		.ascii	"short unsigned int\000"
 1394      7420756E 
 1394      7369676E 
 1394      65642069 
 1394      6E7400
 1395              	.LASF20:
 1396 0187 6D73675F 		.ascii	"msg_t\000"
 1396      7400
 1397              	.LASF56:
 1398 018d 656C5F6E 		.ascii	"el_next\000"
 1398      65787400 
 1399              	.LASF16:
 1400 0195 746D6F64 		.ascii	"tmode_t\000"
 1400      655F7400 
 1401              	.LASF39:
 1402 019d 54687265 		.ascii	"ThreadsList\000"
 1402      6164734C 
 1402      69737400 
 1403              	.LASF21:
ARM GAS  /tmp/ccxm6w7v.s 			page 27


 1404 01a9 6576656E 		.ascii	"eventmask_t\000"
 1404      746D6173 
 1404      6B5F7400 
 1405              	.LASF51:
 1406 01b5 4D757465 		.ascii	"Mutex\000"
 1406      7800
 1407              	.LASF48:
 1408 01bb 76745F74 		.ascii	"vt_time\000"
 1408      696D6500 
 1409              	.LASF67:
 1410 01c3 65745F65 		.ascii	"et_es\000"
 1410      7300
 1411              	.LASF43:
 1412 01c9 73697A65 		.ascii	"sizetype\000"
 1412      74797065 
 1412      00
 1413              	.LASF49:
 1414 01d2 76745F66 		.ascii	"vt_func\000"
 1414      756E6300 
 1415              	.LASF73:
 1416 01da 63685654 		.ascii	"chVTSetI\000"
 1416      53657449 
 1416      00
 1417              	.LASF38:
 1418 01e3 54687265 		.ascii	"ThreadsQueue\000"
 1418      61647351 
 1418      75657565 
 1418      00
 1419              	.LASF58:
 1420 01f0 656C5F6D 		.ascii	"el_mask\000"
 1420      61736B00 
 1421              	.LASF26:
 1422 01f8 705F7072 		.ascii	"p_prev\000"
 1422      657600
 1423              	.LASF19:
 1424 01ff 74707269 		.ascii	"tprio_t\000"
 1424      6F5F7400 
 1425              	.LASF74:
 1426 0207 474E5520 		.ascii	"GNU C 4.8.4 20141219 (release) -mcpu=cortex-m3 -mno"
 1426      4320342E 
 1426      382E3420 
 1426      32303134 
 1426      31323139 
 1427 023a 2D746875 		.ascii	"-thumb-interwork -mthumb -ggdb -O2 -fomit-frame-poi"
 1427      6D622D69 
 1427      6E746572 
 1427      776F726B 
 1427      202D6D74 
 1428 026d 6E746572 		.ascii	"nter -falign-functions=16 -ffunction-sections -fdat"
 1428      202D6661 
 1428      6C69676E 
 1428      2D66756E 
 1428      6374696F 
 1429 02a0 612D7365 		.ascii	"a-sections -fno-common -fno-strict-aliasing\000"
 1429      6374696F 
 1429      6E73202D 
 1429      666E6F2D 
ARM GAS  /tmp/ccxm6w7v.s 			page 28


 1429      636F6D6D 
 1430              	.LASF15:
 1431 02cc 5F426F6F 		.ascii	"_Bool\000"
 1431      6C00
 1432              	.LASF13:
 1433 02d2 696E7433 		.ascii	"int32_t\000"
 1433      325F7400 
 1434              	.LASF2:
 1435 02da 756E7369 		.ascii	"unsigned char\000"
 1435      676E6564 
 1435      20636861 
 1435      7200
 1436              	.LASF57:
 1437 02e8 656C5F6C 		.ascii	"el_listener\000"
 1437      69737465 
 1437      6E657200 
 1438              	.LASF59:
 1439 02f4 656C5F66 		.ascii	"el_flags\000"
 1439      6C616773 
 1439      00
 1440              	.LASF36:
 1441 02fd 705F6D74 		.ascii	"p_mtxlist\000"
 1441      786C6973 
 1441      7400
 1442              	.LASF3:
 1443 0307 73686F72 		.ascii	"short int\000"
 1443      7420696E 
 1443      7400
 1444              	.LASF29:
 1445 0311 705F7374 		.ascii	"p_state\000"
 1445      61746500 
 1446              	.LASF31:
 1447 0319 705F7072 		.ascii	"p_preempt\000"
 1447      65656D70 
 1447      7400
 1448              	.LASF65:
 1449 0323 65776D61 		.ascii	"ewmask\000"
 1449      736B00
 1450              	.LASF25:
 1451 032a 705F6E65 		.ascii	"p_next\000"
 1451      787400
 1452              	.LASF30:
 1453 0331 705F666C 		.ascii	"p_flags\000"
 1453      61677300 
 1454              	.LASF24:
 1455 0339 54687265 		.ascii	"Thread\000"
 1455      616400
 1456              	.LASF78:
 1457 0340 63685654 		.ascii	"chVTResetI\000"
 1457      52657365 
 1457      744900
 1458              	.LASF35:
 1459 034b 705F6570 		.ascii	"p_epending\000"
 1459      656E6469 
 1459      6E6700
 1460              	.LASF14:
 1461 0356 75696E74 		.ascii	"uint32_t\000"
ARM GAS  /tmp/ccxm6w7v.s 			page 29


 1461      33325F74 
 1461      00
 1462              	.LASF45:
 1463 035f 56697274 		.ascii	"VirtualTimer\000"
 1463      75616C54 
 1463      696D6572 
 1463      00
 1464              	.LASF77:
 1465 036c 746D7263 		.ascii	"tmrcb\000"
 1465      6200
 1466              	.LASF54:
 1467 0372 6D5F6E65 		.ascii	"m_next\000"
 1467      787400
 1468              	.LASF23:
 1469 0379 73797374 		.ascii	"systime_t\000"
 1469      696D655F 
 1469      7400
 1470              	.LASF37:
 1471 0383 705F7265 		.ascii	"p_realprio\000"
 1471      616C7072 
 1471      696F00
 1472              	.LASF6:
 1473 038e 5F5F696E 		.ascii	"__int32_t\000"
 1473      7433325F 
 1473      7400
 1474              	.LASF71:
 1475 0398 65767453 		.ascii	"evtStop\000"
 1475      746F7000 
 1476              	.LASF42:
 1477 03a0 636F6E74 		.ascii	"context\000"
 1477      65787400 
 1478              	.LASF41:
 1479 03a8 696E7463 		.ascii	"intctx\000"
 1479      747800
 1480              	.LASF33:
 1481 03af 705F6D73 		.ascii	"p_msgqueue\000"
 1481      67717565 
 1481      756500
 1482              	.LASF50:
 1483 03ba 76745F70 		.ascii	"vt_par\000"
 1483      617200
 1484              	.LASF22:
 1485 03c1 666C6167 		.ascii	"flagsmask_t\000"
 1485      736D6173 
 1485      6B5F7400 
 1486              	.LASF61:
 1487 03cd 65735F6E 		.ascii	"es_next\000"
 1487      65787400 
 1488              	.LASF12:
 1489 03d5 75696E74 		.ascii	"uint8_t\000"
 1489      385F7400 
 1490              	.LASF55:
 1491 03dd 4576656E 		.ascii	"EventListener\000"
 1491      744C6973 
 1491      74656E65 
 1491      7200
 1492              	.LASF64:
ARM GAS  /tmp/ccxm6w7v.s 			page 30


 1493 03eb 77746F62 		.ascii	"wtobjp\000"
 1493      6A7000
 1494              	.LASF66:
 1495 03f2 65745F76 		.ascii	"et_vt\000"
 1495      7400
 1496              	.LASF53:
 1497 03f8 6D5F6F77 		.ascii	"m_owner\000"
 1497      6E657200 
 1498              	.LASF28:
 1499 0400 705F6374 		.ascii	"p_ctx\000"
 1499      7800
 1500              	.LASF32:
 1501 0406 705F7761 		.ascii	"p_waiting\000"
 1501      6974696E 
 1501      6700
 1502              		.ident	"GCC: (4.8.4-1+11-1) 4.8.4 20141219 (release)"
ARM GAS  /tmp/ccxm6w7v.s 			page 31


DEFINED SYMBOLS
                            *ABS*:0000000000000000 evtimer.c
     /tmp/ccxm6w7v.s:19     .text.tmrcb:0000000000000000 $t
     /tmp/ccxm6w7v.s:24     .text.tmrcb:0000000000000000 tmrcb
     /tmp/ccxm6w7v.s:67     .text.tmrcb:0000000000000024 $d
     /tmp/ccxm6w7v.s:72     .text.evtStart:0000000000000000 $t
     /tmp/ccxm6w7v.s:78     .text.evtStart:0000000000000000 evtStart
     /tmp/ccxm6w7v.s:119    .text.evtStart:0000000000000020 $d
     /tmp/ccxm6w7v.s:124    .text.evtStop:0000000000000000 $t
     /tmp/ccxm6w7v.s:130    .text.evtStop:0000000000000000 evtStop
                     .debug_frame:0000000000000010 $d
     /tmp/ccxm6w7v.s:71     .text.tmrcb:0000000000000028 $t
     /tmp/ccxm6w7v.s:123    .text.evtStart:0000000000000024 $t

UNDEFINED SYMBOLS
_port_lock
chEvtBroadcastFlagsI
chVTSetI
_port_unlock
chVTResetI
