ARM GAS  /tmp/ccEsEOdh.s 			page 1


   1              		.syntax unified
   2              		.cpu cortex-m3
   3              		.fpu softvfp
   4              		.eabi_attribute 20, 1
   5              		.eabi_attribute 21, 1
   6              		.eabi_attribute 23, 3
   7              		.eabi_attribute 24, 1
   8              		.eabi_attribute 25, 1
   9              		.eabi_attribute 26, 1
  10              		.eabi_attribute 30, 2
  11              		.eabi_attribute 34, 1
  12              		.eabi_attribute 18, 4
  13              		.thumb
  14              		.file	"ext_lld.c"
  15              		.text
  16              	.Ltext0:
  17              		.cfi_sections	.debug_frame
  18              		.section	.text.ext_lld_init,"ax",%progbits
  19              		.align	2
  20              		.p2align 4,,15
  21              		.global	ext_lld_init
  22              		.thumb
  23              		.thumb_func
  24              		.type	ext_lld_init, %function
  25              	ext_lld_init:
  26              	.LFB56:
  27              		.file 1 "../os/hal/platforms/STM32/ext_lld.c"
  28              		.loc 1 66 0
  29              		.cfi_startproc
  30              		@ args = 0, pretend = 0, frame = 0
  31              		@ frame_needed = 0, uses_anonymous_args = 0
  32              		@ link register save eliminated.
  33              		.loc 1 69 0
  34 0000 0148     		ldr	r0, .L2
  35 0002 FFF7FEBF 		b	extObjectInit
  36              	.LVL0:
  37              	.L3:
  38 0006 00BF     		.align	2
  39              	.L2:
  40 0008 00000000 		.word	.LANCHOR0
  41              		.cfi_endproc
  42              	.LFE56:
  43              		.size	ext_lld_init, .-ext_lld_init
  44 000c AFF30080 		.section	.text.ext_lld_stop,"ax",%progbits
  45              		.align	2
  46              		.p2align 4,,15
  47              		.global	ext_lld_stop
  48              		.thumb
  49              		.thumb_func
  50              		.type	ext_lld_stop, %function
  51              	ext_lld_stop:
  52              	.LFB58:
  53              		.loc 1 100 0
  54              		.cfi_startproc
  55              		@ args = 0, pretend = 0, frame = 0
  56              		@ frame_needed = 0, uses_anonymous_args = 0
  57              	.LVL1:
ARM GAS  /tmp/ccEsEOdh.s 			page 2


  58 0000 08B5     		push	{r3, lr}
  59              		.cfi_def_cfa_offset 8
  60              		.cfi_offset 3, -8
  61              		.cfi_offset 14, -4
  62              		.loc 1 102 0
  63 0002 0378     		ldrb	r3, [r0]	@ zero_extendqisi2
  64 0004 022B     		cmp	r3, #2
  65 0006 07D0     		beq	.L7
  66              	.LVL2:
  67              	.L5:
  68              		.loc 1 105 0
  69 0008 054B     		ldr	r3, .L8
  70 000a 0022     		movs	r2, #0
  71              		.loc 1 107 0
  72 000c 4FF0FF31 		mov	r1, #-1
  73              		.loc 1 105 0
  74 0010 5A60     		str	r2, [r3, #4]
  75              		.loc 1 106 0
  76 0012 1A60     		str	r2, [r3]
  77              		.loc 1 107 0
  78 0014 5961     		str	r1, [r3, #20]
  79 0016 08BD     		pop	{r3, pc}
  80              	.LVL3:
  81              	.L7:
  82              		.loc 1 103 0
  83 0018 FFF7FEFF 		bl	ext_lld_exti_irq_disable
  84              	.LVL4:
  85 001c F4E7     		b	.L5
  86              	.L9:
  87 001e 00BF     		.align	2
  88              	.L8:
  89 0020 00040140 		.word	1073808384
  90              		.cfi_endproc
  91              	.LFE58:
  92              		.size	ext_lld_stop, .-ext_lld_stop
  93 0024 AFF30080 		.section	.text.ext_lld_channel_enable,"ax",%progbits
  93      AFF30080 
  93      AFF30080 
  94              		.align	2
  95              		.p2align 4,,15
  96              		.global	ext_lld_channel_enable
  97              		.thumb
  98              		.thumb_func
  99              		.type	ext_lld_channel_enable, %function
 100              	ext_lld_channel_enable:
 101              	.LFB59:
 102              		.loc 1 121 0
 103              		.cfi_startproc
 104              		@ args = 0, pretend = 0, frame = 0
 105              		@ frame_needed = 0, uses_anonymous_args = 0
 106              		@ link register save eliminated.
 107              	.LVL5:
 108              		.loc 1 124 0
 109 0000 0F29     		cmp	r1, #15
 110              		.loc 1 121 0
 111 0002 30B4     		push	{r4, r5}
 112              		.cfi_def_cfa_offset 8
ARM GAS  /tmp/ccEsEOdh.s 			page 3


 113              		.cfi_offset 4, -8
 114              		.cfi_offset 5, -4
 115              		.loc 1 124 0
 116 0004 15D8     		bhi	.L11
 117              	.LVL6:
 118              	.LBB2:
 119              		.loc 1 127 0
 120 0006 4268     		ldr	r2, [r0, #4]
 121              		.loc 1 126 0
 122 0008 01F00303 		and	r3, r1, #3
 123              		.loc 1 127 0
 124 000c 52F83140 		ldr	r4, [r2, r1, lsl #3]
 125              		.loc 1 126 0
 126 0010 9B00     		lsls	r3, r3, #2
 127              	.LVL7:
 128 0012 0F22     		movs	r2, #15
 129              	.LVL8:
 130 0014 9A40     		lsls	r2, r2, r3
 131              		.loc 1 128 0
 132 0016 C4F30314 		ubfx	r4, r4, #4, #4
 133              		.loc 1 127 0
 134 001a 9C40     		lsls	r4, r4, r3
 135 001c 21F00303 		bic	r3, r1, #3
 136              	.LVL9:
 137 0020 03F18043 		add	r3, r3, #1073741824
 138 0024 03F58033 		add	r3, r3, #65536
 139              		.loc 1 135 0
 140 0028 9D68     		ldr	r5, [r3, #8]
 141 002a 25EA0202 		bic	r2, r5, r2
 142 002e 2243     		orrs	r2, r2, r4
 143 0030 9A60     		str	r2, [r3, #8]
 144              	.LVL10:
 145              	.L11:
 146              	.LBE2:
 147              		.loc 1 146 0
 148 0032 0122     		movs	r2, #1
 149 0034 8A40     		lsls	r2, r2, r1
 150              		.loc 1 145 0
 151 0036 4368     		ldr	r3, [r0, #4]
 152 0038 D443     		mvns	r4, r2
 153 003a 53F83130 		ldr	r3, [r3, r1, lsl #3]
 154 003e 13F0010F 		tst	r3, #1
 155              		.loc 1 146 0
 156 0042 144B     		ldr	r3, .L18
 157 0044 9D68     		ldr	r5, [r3, #8]
 158 0046 14BF     		ite	ne
 159 0048 1543     		orrne	r5, r2, r5
 160              		.loc 1 148 0
 161 004a 2540     		andeq	r5, r4, r5
 162 004c 9D60     		str	r5, [r3, #8]
 163              		.loc 1 149 0
 164 004e 4368     		ldr	r3, [r0, #4]
 165 0050 53F83130 		ldr	r3, [r3, r1, lsl #3]
 166 0054 13F0020F 		tst	r3, #2
 167              		.loc 1 150 0
 168 0058 0E4B     		ldr	r3, .L18
 169 005a DD68     		ldr	r5, [r3, #12]
ARM GAS  /tmp/ccEsEOdh.s 			page 4


 170 005c 14BF     		ite	ne
 171 005e 1543     		orrne	r5, r2, r5
 172              		.loc 1 152 0
 173 0060 2540     		andeq	r5, r4, r5
 174 0062 DD60     		str	r5, [r3, #12]
 175              		.loc 1 155 0
 176 0064 4368     		ldr	r3, [r0, #4]
 177 0066 03EBC101 		add	r1, r3, r1, lsl #3
 178              	.LVL11:
 179 006a 4B68     		ldr	r3, [r1, #4]
 180 006c 43B1     		cbz	r3, .L16
 181              		.loc 1 156 0
 182 006e 094B     		ldr	r3, .L18
 183 0070 1968     		ldr	r1, [r3]
 184 0072 0A43     		orrs	r2, r2, r1
 185 0074 1A60     		str	r2, [r3]
 186              		.loc 1 157 0
 187 0076 5A68     		ldr	r2, [r3, #4]
 188 0078 1440     		ands	r4, r4, r2
 189 007a 5C60     		str	r4, [r3, #4]
 190              		.loc 1 187 0
 191 007c 30BC     		pop	{r4, r5}
 192 007e 7047     		bx	lr
 193              	.L16:
 194              		.loc 1 160 0
 195 0080 044B     		ldr	r3, .L18
 196 0082 5968     		ldr	r1, [r3, #4]
 197 0084 0A43     		orrs	r2, r2, r1
 198 0086 5A60     		str	r2, [r3, #4]
 199              		.loc 1 161 0
 200 0088 1A68     		ldr	r2, [r3]
 201 008a 1440     		ands	r4, r4, r2
 202 008c 1C60     		str	r4, [r3]
 203              		.loc 1 187 0
 204 008e 30BC     		pop	{r4, r5}
 205 0090 7047     		bx	lr
 206              	.L19:
 207 0092 00BF     		.align	2
 208              	.L18:
 209 0094 00040140 		.word	1073808384
 210              		.cfi_endproc
 211              	.LFE59:
 212              		.size	ext_lld_channel_enable, .-ext_lld_channel_enable
 213 0098 AFF30080 		.section	.text.ext_lld_channel_disable,"ax",%progbits
 213      AFF30080 
 214              		.align	2
 215              		.p2align 4,,15
 216              		.global	ext_lld_channel_disable
 217              		.thumb
 218              		.thumb_func
 219              		.type	ext_lld_channel_disable, %function
 220              	ext_lld_channel_disable:
 221              	.LFB60:
 222              		.loc 1 197 0
 223              		.cfi_startproc
 224              		@ args = 0, pretend = 0, frame = 0
 225              		@ frame_needed = 0, uses_anonymous_args = 0
ARM GAS  /tmp/ccEsEOdh.s 			page 5


 226              		@ link register save eliminated.
 227              	.LVL12:
 228              		.loc 1 204 0
 229 0000 0123     		movs	r3, #1
 230 0002 03FA01F1 		lsl	r1, r3, r1
 231              	.LVL13:
 232 0006 084B     		ldr	r3, .L21
 233 0008 CA43     		mvns	r2, r1
 234 000a 1868     		ldr	r0, [r3]
 235              	.LVL14:
 236 000c 1040     		ands	r0, r0, r2
 237 000e 1860     		str	r0, [r3]
 238              		.loc 1 205 0
 239 0010 5868     		ldr	r0, [r3, #4]
 240 0012 1040     		ands	r0, r0, r2
 241 0014 5860     		str	r0, [r3, #4]
 242              		.loc 1 206 0
 243 0016 9868     		ldr	r0, [r3, #8]
 244 0018 1040     		ands	r0, r0, r2
 245 001a 9860     		str	r0, [r3, #8]
 246              		.loc 1 207 0
 247 001c D868     		ldr	r0, [r3, #12]
 248 001e 0240     		ands	r2, r2, r0
 249 0020 DA60     		str	r2, [r3, #12]
 250              		.loc 1 208 0
 251 0022 5961     		str	r1, [r3, #20]
 252 0024 7047     		bx	lr
 253              	.L22:
 254 0026 00BF     		.align	2
 255              	.L21:
 256 0028 00040140 		.word	1073808384
 257              		.cfi_endproc
 258              	.LFE60:
 259              		.size	ext_lld_channel_disable, .-ext_lld_channel_disable
 260 002c AFF30080 		.section	.text.ext_lld_start,"ax",%progbits
 261              		.align	2
 262              		.p2align 4,,15
 263              		.global	ext_lld_start
 264              		.thumb
 265              		.thumb_func
 266              		.type	ext_lld_start, %function
 267              	ext_lld_start:
 268              	.LFB57:
 269              		.loc 1 79 0
 270              		.cfi_startproc
 271              		@ args = 0, pretend = 0, frame = 0
 272              		@ frame_needed = 0, uses_anonymous_args = 0
 273              	.LVL15:
 274 0000 38B5     		push	{r3, r4, r5, lr}
 275              		.cfi_def_cfa_offset 16
 276              		.cfi_offset 3, -16
 277              		.cfi_offset 4, -12
 278              		.cfi_offset 5, -8
 279              		.cfi_offset 14, -4
 280              		.loc 1 82 0
 281 0002 0378     		ldrb	r3, [r0]	@ zero_extendqisi2
 282              		.loc 1 79 0
ARM GAS  /tmp/ccEsEOdh.s 			page 6


 283 0004 0546     		mov	r5, r0
 284              		.loc 1 82 0
 285 0006 012B     		cmp	r3, #1
 286 0008 13D0     		beq	.L29
 287              	.LVL16:
 288              	.L24:
 289              		.loc 1 79 0 discriminator 1
 290 000a 0024     		movs	r4, #0
 291 000c 04E0     		b	.L28
 292              	.LVL17:
 293              	.L31:
 294              		.loc 1 86 0
 295 000e 0134     		adds	r4, r4, #1
 296              		.loc 1 88 0
 297 0010 FFF7FEFF 		bl	ext_lld_channel_enable
 298              	.LVL18:
 299              		.loc 1 86 0
 300 0014 132C     		cmp	r4, #19
 301 0016 0BD0     		beq	.L30
 302              	.LVL19:
 303              	.L28:
 304              		.loc 1 87 0
 305 0018 6B68     		ldr	r3, [r5, #4]
 306              		.loc 1 90 0
 307 001a 2146     		mov	r1, r4
 308              		.loc 1 87 0
 309 001c 53F83430 		ldr	r3, [r3, r4, lsl #3]
 310              		.loc 1 90 0
 311 0020 2846     		mov	r0, r5
 312              		.loc 1 87 0
 313 0022 5B07     		lsls	r3, r3, #29
 314 0024 F3D4     		bmi	.L31
 315              	.LVL20:
 316              		.loc 1 86 0
 317 0026 0134     		adds	r4, r4, #1
 318              	.LVL21:
 319              		.loc 1 90 0
 320 0028 FFF7FEFF 		bl	ext_lld_channel_disable
 321              	.LVL22:
 322              		.loc 1 86 0
 323 002c 132C     		cmp	r4, #19
 324 002e F3D1     		bne	.L28
 325              	.L30:
 326              		.loc 1 91 0
 327 0030 38BD     		pop	{r3, r4, r5, pc}
 328              	.LVL23:
 329              	.L29:
 330              		.loc 1 83 0
 331 0032 FFF7FEFF 		bl	ext_lld_exti_irq_enable
 332              	.LVL24:
 333 0036 E8E7     		b	.L24
 334              		.cfi_endproc
 335              	.LFE57:
 336              		.size	ext_lld_start, .-ext_lld_start
 337              		.global	EXTD1
 338 0038 AFF30080 		.section	.bss.EXTD1,"aw",%nobits
 338      AFF30080 
ARM GAS  /tmp/ccEsEOdh.s 			page 7


 339              		.align	2
 340              		.set	.LANCHOR0,. + 0
 341              		.type	EXTD1, %object
 342              		.size	EXTD1, 8
 343              	EXTD1:
 344 0000 00000000 		.space	8
 344      00000000 
 345              		.text
 346              	.Letext0:
 347              		.file 2 "/usr/include/newlib/machine/_default_types.h"
 348              		.file 3 "/usr/include/newlib/stdint.h"
 349              		.file 4 "../os/hal/platforms/STM32F1xx/stm32f10x.h"
 350              		.file 5 "../os/hal/include/ext.h"
 351              		.file 6 "../os/hal/platforms/STM32/ext_lld.h"
 352              		.file 7 "../os/ports/common/ARMCMx/CMSIS/include/core_cm3.h"
 353              		.file 8 "../os/hal/platforms/STM32F1xx/ext_lld_isr.h"