ARM GAS  /tmp/ccEsEOdh.s 			page 1


   1              		.syntax unified
   2              		.cpu cortex-m3
   3              		.fpu softvfp
   4              		.eabi_attribute 20, 1
   5              		.eabi_attribute 21, 1
   6              		.eabi_attribute 23, 3
   7              		.eabi_attribute 24, 1
   8              		.eabi_attribute 25, 1
   9              		.eabi_attribute 26, 1
  10              		.eabi_attribute 30, 2
  11              		.eabi_attribute 34, 1
  12              		.eabi_attribute 18, 4
  13              		.thumb
  14              		.file	"ext_lld.c"
  15              		.text
  16              	.Ltext0:
  17              		.cfi_sections	.debug_frame
  18              		.section	.text.ext_lld_init,"ax",%progbits
  19              		.align	2
  20              		.p2align 4,,15
  21              		.global	ext_lld_init
  22              		.thumb
  23              		.thumb_func
  24              		.type	ext_lld_init, %function
  25              	ext_lld_init:
  26              	.LFB56:
  27              		.file 1 "../os/hal/platforms/STM32/ext_lld.c"
  28              		.loc 1 66 0
  29              		.cfi_startproc
  30              		@ args = 0, pretend = 0, frame = 0
  31              		@ frame_needed = 0, uses_anonymous_args = 0
  32              		@ link register save eliminated.
  33              		.loc 1 69 0
  34 0000 0148     		ldr	r0, .L2
  35 0002 FFF7FEBF 		b	extObjectInit
  36              	.LVL0:
  37              	.L3:
  38 0006 00BF     		.align	2
  39              	.L2:
  40 0008 00000000 		.word	.LANCHOR0
  41              		.cfi_endproc
  42              	.LFE56:
  43              		.size	ext_lld_init, .-ext_lld_init
  44 000c AFF30080 		.section	.text.ext_lld_stop,"ax",%progbits
  45              		.align	2
  46              		.p2align 4,,15
  47              		.global	ext_lld_stop
  48              		.thumb
  49              		.thumb_func
  50              		.type	ext_lld_stop, %function
  51              	ext_lld_stop:
  52              	.LFB58:
  53              		.loc 1 100 0
  54              		.cfi_startproc
  55              		@ args = 0, pretend = 0, frame = 0
  56              		@ frame_needed = 0, uses_anonymous_args = 0
  57              	.LVL1:
ARM GAS  /tmp/ccEsEOdh.s 			page 2


  58 0000 08B5     		push	{r3, lr}
  59              		.cfi_def_cfa_offset 8
  60              		.cfi_offset 3, -8
  61              		.cfi_offset 14, -4
  62              		.loc 1 102 0
  63 0002 0378     		ldrb	r3, [r0]	@ zero_extendqisi2
  64 0004 022B     		cmp	r3, #2
  65 0006 07D0     		beq	.L7
  66              	.LVL2:
  67              	.L5:
  68              		.loc 1 105 0
  69 0008 054B     		ldr	r3, .L8
  70 000a 0022     		movs	r2, #0
  71              		.loc 1 107 0
  72 000c 4FF0FF31 		mov	r1, #-1
  73              		.loc 1 105 0
  74 0010 5A60     		str	r2, [r3, #4]
  75              		.loc 1 106 0
  76 0012 1A60     		str	r2, [r3]
  77              		.loc 1 107 0
  78 0014 5961     		str	r1, [r3, #20]
  79 0016 08BD     		pop	{r3, pc}
  80              	.LVL3:
  81              	.L7:
  82              		.loc 1 103 0
  83 0018 FFF7FEFF 		bl	ext_lld_exti_irq_disable
  84              	.LVL4:
  85 001c F4E7     		b	.L5
  86              	.L9:
  87 001e 00BF     		.align	2
  88              	.L8:
  89 0020 00040140 		.word	1073808384
  90              		.cfi_endproc
  91              	.LFE58:
  92              		.size	ext_lld_stop, .-ext_lld_stop
  93 0024 AFF30080 		.section	.text.ext_lld_channel_enable,"ax",%progbits
  93      AFF30080 
  93      AFF30080 
  94              		.align	2
  95              		.p2align 4,,15
  96              		.global	ext_lld_channel_enable
  97              		.thumb
  98              		.thumb_func
  99              		.type	ext_lld_channel_enable, %function
 100              	ext_lld_channel_enable:
 101              	.LFB59:
 102              		.loc 1 121 0
 103              		.cfi_startproc
 104              		@ args = 0, pretend = 0, frame = 0
 105              		@ frame_needed = 0, uses_anonymous_args = 0
 106              		@ link register save eliminated.
 107              	.LVL5:
 108              		.loc 1 124 0
 109 0000 0F29     		cmp	r1, #15
 110              		.loc 1 121 0
 111 0002 30B4     		push	{r4, r5}
 112              		.cfi_def_cfa_offset 8
ARM GAS  /tmp/ccEsEOdh.s 			page 3


 113              		.cfi_offset 4, -8
 114              		.cfi_offset 5, -4
 115              		.loc 1 124 0
 116 0004 15D8     		bhi	.L11
 117              	.LVL6:
 118              	.LBB2:
 119              		.loc 1 127 0
 120 0006 4268     		ldr	r2, [r0, #4]
 121              		.loc 1 126 0
 122 0008 01F00303 		and	r3, r1, #3
 123              		.loc 1 127 0
 124 000c 52F83140 		ldr	r4, [r2, r1, lsl #3]
 125              		.loc 1 126 0
 126 0010 9B00     		lsls	r3, r3, #2
 127              	.LVL7:
 128 0012 0F22     		movs	r2, #15
 129              	.LVL8:
 130 0014 9A40     		lsls	r2, r2, r3
 131              		.loc 1 128 0
 132 0016 C4F30314 		ubfx	r4, r4, #4, #4
 133              		.loc 1 127 0
 134 001a 9C40     		lsls	r4, r4, r3
 135 001c 21F00303 		bic	r3, r1, #3
 136              	.LVL9:
 137 0020 03F18043 		add	r3, r3, #1073741824
 138 0024 03F58033 		add	r3, r3, #65536
 139              		.loc 1 135 0
 140 0028 9D68     		ldr	r5, [r3, #8]
 141 002a 25EA0202 		bic	r2, r5, r2
 142 002e 2243     		orrs	r2, r2, r4
 143 0030 9A60     		str	r2, [r3, #8]
 144              	.LVL10:
 145              	.L11:
 146              	.LBE2:
 147              		.loc 1 146 0
 148 0032 0122     		movs	r2, #1
 149 0034 8A40     		lsls	r2, r2, r1
 150              		.loc 1 145 0
 151 0036 4368     		ldr	r3, [r0, #4]
 152 0038 D443     		mvns	r4, r2
 153 003a 53F83130 		ldr	r3, [r3, r1, lsl #3]
 154 003e 13F0010F 		tst	r3, #1
 155              		.loc 1 146 0
 156 0042 144B     		ldr	r3, .L18
 157 0044 9D68     		ldr	r5, [r3, #8]
 158 0046 14BF     		ite	ne
 159 0048 1543     		orrne	r5, r2, r5
 160              		.loc 1 148 0
 161 004a 2540     		andeq	r5, r4, r5
 162 004c 9D60     		str	r5, [r3, #8]
 163              		.loc 1 149 0
 164 004e 4368     		ldr	r3, [r0, #4]
 165 0050 53F83130 		ldr	r3, [r3, r1, lsl #3]
 166 0054 13F0020F 		tst	r3, #2
 167              		.loc 1 150 0
 168 0058 0E4B     		ldr	r3, .L18
 169 005a DD68     		ldr	r5, [r3, #12]
ARM GAS  /tmp/ccEsEOdh.s 			page 4


 170 005c 14BF     		ite	ne
 171 005e 1543     		orrne	r5, r2, r5
 172              		.loc 1 152 0
 173 0060 2540     		andeq	r5, r4, r5
 174 0062 DD60     		str	r5, [r3, #12]
 175              		.loc 1 155 0
 176 0064 4368     		ldr	r3, [r0, #4]
 177 0066 03EBC101 		add	r1, r3, r1, lsl #3
 178              	.LVL11:
 179 006a 4B68     		ldr	r3, [r1, #4]
 180 006c 43B1     		cbz	r3, .L16
 181              		.loc 1 156 0
 182 006e 094B     		ldr	r3, .L18
 183 0070 1968     		ldr	r1, [r3]
 184 0072 0A43     		orrs	r2, r2, r1
 185 0074 1A60     		str	r2, [r3]
 186              		.loc 1 157 0
 187 0076 5A68     		ldr	r2, [r3, #4]
 188 0078 1440     		ands	r4, r4, r2
 189 007a 5C60     		str	r4, [r3, #4]
 190              		.loc 1 187 0
 191 007c 30BC     		pop	{r4, r5}
 192 007e 7047     		bx	lr
 193              	.L16:
 194              		.loc 1 160 0
 195 0080 044B     		ldr	r3, .L18
 196 0082 5968     		ldr	r1, [r3, #4]
 197 0084 0A43     		orrs	r2, r2, r1
 198 0086 5A60     		str	r2, [r3, #4]
 199              		.loc 1 161 0
 200 0088 1A68     		ldr	r2, [r3]
 201 008a 1440     		ands	r4, r4, r2
 202 008c 1C60     		str	r4, [r3]
 203              		.loc 1 187 0
 204 008e 30BC     		pop	{r4, r5}
 205 0090 7047     		bx	lr
 206              	.L19:
 207 0092 00BF     		.align	2
 208              	.L18:
 209 0094 00040140 		.word	1073808384
 210              		.cfi_endproc
 211              	.LFE59:
 212              		.size	ext_lld_channel_enable, .-ext_lld_channel_enable
 213 0098 AFF30080 		.section	.text.ext_lld_channel_disable,"ax",%progbits
 213      AFF30080 
 214              		.align	2
 215              		.p2align 4,,15
 216              		.global	ext_lld_channel_disable
 217              		.thumb
 218              		.thumb_func
 219              		.type	ext_lld_channel_disable, %function
 220              	ext_lld_channel_disable:
 221              	.LFB60:
 222              		.loc 1 197 0
 223              		.cfi_startproc
 224              		@ args = 0, pretend = 0, frame = 0
 225              		@ frame_needed = 0, uses_anonymous_args = 0
ARM GAS  /tmp/ccEsEOdh.s 			page 5


 226              		@ link register save eliminated.
 227              	.LVL12:
 228              		.loc 1 204 0
 229 0000 0123     		movs	r3, #1
 230 0002 03FA01F1 		lsl	r1, r3, r1
 231              	.LVL13:
 232 0006 084B     		ldr	r3, .L21
 233 0008 CA43     		mvns	r2, r1
 234 000a 1868     		ldr	r0, [r3]
 235              	.LVL14:
 236 000c 1040     		ands	r0, r0, r2
 237 000e 1860     		str	r0, [r3]
 238              		.loc 1 205 0
 239 0010 5868     		ldr	r0, [r3, #4]
 240 0012 1040     		ands	r0, r0, r2
 241 0014 5860     		str	r0, [r3, #4]
 242              		.loc 1 206 0
 243 0016 9868     		ldr	r0, [r3, #8]
 244 0018 1040     		ands	r0, r0, r2
 245 001a 9860     		str	r0, [r3, #8]
 246              		.loc 1 207 0
 247 001c D868     		ldr	r0, [r3, #12]
 248 001e 0240     		ands	r2, r2, r0
 249 0020 DA60     		str	r2, [r3, #12]
 250              		.loc 1 208 0
 251 0022 5961     		str	r1, [r3, #20]
 252 0024 7047     		bx	lr
 253              	.L22:
 254 0026 00BF     		.align	2
 255              	.L21:
 256 0028 00040140 		.word	1073808384
 257              		.cfi_endproc
 258              	.LFE60:
 259              		.size	ext_lld_channel_disable, .-ext_lld_channel_disable
 260 002c AFF30080 		.section	.text.ext_lld_start,"ax",%progbits
 261              		.align	2
 262              		.p2align 4,,15
 263              		.global	ext_lld_start
 264              		.thumb
 265              		.thumb_func
 266              		.type	ext_lld_start, %function
 267              	ext_lld_start:
 268              	.LFB57:
 269              		.loc 1 79 0
 270              		.cfi_startproc
 271              		@ args = 0, pretend = 0, frame = 0
 272              		@ frame_needed = 0, uses_anonymous_args = 0
 273              	.LVL15:
 274 0000 38B5     		push	{r3, r4, r5, lr}
 275              		.cfi_def_cfa_offset 16
 276              		.cfi_offset 3, -16
 277              		.cfi_offset 4, -12
 278              		.cfi_offset 5, -8
 279              		.cfi_offset 14, -4
 280              		.loc 1 82 0
 281 0002 0378     		ldrb	r3, [r0]	@ zero_extendqisi2
 282              		.loc 1 79 0
ARM GAS  /tmp/ccEsEOdh.s 			page 6


 283 0004 0546     		mov	r5, r0
 284              		.loc 1 82 0
 285 0006 012B     		cmp	r3, #1
 286 0008 13D0     		beq	.L29
 287              	.LVL16:
 288              	.L24:
 289              		.loc 1 79 0 discriminator 1
 290 000a 0024     		movs	r4, #0
 291 000c 04E0     		b	.L28
 292              	.LVL17:
 293              	.L31:
 294              		.loc 1 86 0
 295 000e 0134     		adds	r4, r4, #1
 296              		.loc 1 88 0
 297 0010 FFF7FEFF 		bl	ext_lld_channel_enable
 298              	.LVL18:
 299              		.loc 1 86 0
 300 0014 132C     		cmp	r4, #19
 301 0016 0BD0     		beq	.L30
 302              	.LVL19:
 303              	.L28:
 304              		.loc 1 87 0
 305 0018 6B68     		ldr	r3, [r5, #4]
 306              		.loc 1 90 0
 307 001a 2146     		mov	r1, r4
 308              		.loc 1 87 0
 309 001c 53F83430 		ldr	r3, [r3, r4, lsl #3]
 310              		.loc 1 90 0
 311 0020 2846     		mov	r0, r5
 312              		.loc 1 87 0
 313 0022 5B07     		lsls	r3, r3, #29
 314 0024 F3D4     		bmi	.L31
 315              	.LVL20:
 316              		.loc 1 86 0
 317 0026 0134     		adds	r4, r4, #1
 318              	.LVL21:
 319              		.loc 1 90 0
 320 0028 FFF7FEFF 		bl	ext_lld_channel_disable
 321              	.LVL22:
 322              		.loc 1 86 0
 323 002c 132C     		cmp	r4, #19
 324 002e F3D1     		bne	.L28
 325              	.L30:
 326              		.loc 1 91 0
 327 0030 38BD     		pop	{r3, r4, r5, pc}
 328              	.LVL23:
 329              	.L29:
 330              		.loc 1 83 0
 331 0032 FFF7FEFF 		bl	ext_lld_exti_irq_enable
 332              	.LVL24:
 333 0036 E8E7     		b	.L24
 334              		.cfi_endproc
 335              	.LFE57:
 336              		.size	ext_lld_start, .-ext_lld_start
 337              		.global	EXTD1
 338 0038 AFF30080 		.section	.bss.EXTD1,"aw",%nobits
 338      AFF30080 
ARM GAS  /tmp/ccEsEOdh.s 			page 7


 339              		.align	2
 340              		.set	.LANCHOR0,. + 0
 341              		.type	EXTD1, %object
 342              		.size	EXTD1, 8
 343              	EXTD1:
 344 0000 00000000 		.space	8
 344      00000000 
 345              		.text
 346              	.Letext0:
 347              		.file 2 "/usr/include/newlib/machine/_default_types.h"
 348              		.file 3 "/usr/include/newlib/stdint.h"
 349              		.file 4 "../os/hal/platforms/STM32F1xx/stm32f10x.h"
 350              		.file 5 "../os/hal/include/ext.h"
 351              		.file 6 "../os/hal/platforms/STM32/ext_lld.h"
 352              		.file 7 "../os/ports/common/ARMCMx/CMSIS/include/core_cm3.h"
 353              		.file 8 "../os/hal/platforms/STM32F1xx/ext_lld_isr.h"
 354              		.section	.debug_info,"",%progbits
 355              	.Ldebug_info0:
 356 0000 F5030000 		.4byte	0x3f5
 357 0004 0400     		.2byte	0x4
 358 0006 00000000 		.4byte	.Ldebug_abbrev0
 359 000a 04       		.byte	0x4
 360 000b 01       		.uleb128 0x1
 361 000c 22020000 		.4byte	.LASF51
 362 0010 01       		.byte	0x1
 363 0011 00000000 		.4byte	.LASF52
 364 0015 96000000 		.4byte	.LASF53
 365 0019 00000000 		.4byte	.Ldebug_ranges0+0
 366 001d 00000000 		.4byte	0
 367 0021 00000000 		.4byte	.Ldebug_line0
 368 0025 02       		.uleb128 0x2
 369 0026 04       		.byte	0x4
 370 0027 05       		.byte	0x5
 371 0028 696E7400 		.ascii	"int\000"
 372 002c 03       		.uleb128 0x3
 373 002d 04       		.byte	0x4
 374 002e 07       		.byte	0x7
 375 002f 01020000 		.4byte	.LASF0
 376 0033 03       		.uleb128 0x3
 377 0034 01       		.byte	0x1
 378 0035 06       		.byte	0x6
 379 0036 50030000 		.4byte	.LASF1
 380 003a 03       		.uleb128 0x3
 381 003b 01       		.byte	0x1
 382 003c 08       		.byte	0x8
 383 003d 67010000 		.4byte	.LASF2
 384 0041 03       		.uleb128 0x3
 385 0042 02       		.byte	0x2
 386 0043 05       		.byte	0x5
 387 0044 1F030000 		.4byte	.LASF3
 388 0048 03       		.uleb128 0x3
 389 0049 02       		.byte	0x2
 390 004a 07       		.byte	0x7
 391 004b 87010000 		.4byte	.LASF4
 392 004f 04       		.uleb128 0x4
 393 0050 7D000000 		.4byte	.LASF6
 394 0054 02       		.byte	0x2
ARM GAS  /tmp/ccEsEOdh.s 			page 8


 395 0055 3F       		.byte	0x3f
 396 0056 5A000000 		.4byte	0x5a
 397 005a 03       		.uleb128 0x3
 398 005b 04       		.byte	0x4
 399 005c 05       		.byte	0x5
 400 005d 42030000 		.4byte	.LASF5
 401 0061 04       		.uleb128 0x4
 402 0062 C0010000 		.4byte	.LASF7
 403 0066 02       		.byte	0x2
 404 0067 41       		.byte	0x41
 405 0068 6C000000 		.4byte	0x6c
 406 006c 03       		.uleb128 0x3
 407 006d 04       		.byte	0x4
 408 006e 07       		.byte	0x7
 409 006f 75010000 		.4byte	.LASF8
 410 0073 03       		.uleb128 0x3
 411 0074 08       		.byte	0x8
 412 0075 05       		.byte	0x5
 413 0076 F8020000 		.4byte	.LASF9
 414 007a 03       		.uleb128 0x3
 415 007b 08       		.byte	0x8
 416 007c 07       		.byte	0x7
 417 007d 50010000 		.4byte	.LASF10
 418 0081 04       		.uleb128 0x4
 419 0082 E7020000 		.4byte	.LASF11
 420 0086 03       		.byte	0x3
 421 0087 41       		.byte	0x41
 422 0088 4F000000 		.4byte	0x4f
 423 008c 04       		.uleb128 0x4
 424 008d 5C030000 		.4byte	.LASF12
 425 0091 03       		.byte	0x3
 426 0092 42       		.byte	0x42
 427 0093 61000000 		.4byte	0x61
 428 0097 03       		.uleb128 0x3
 429 0098 01       		.byte	0x1
 430 0099 02       		.byte	0x2
 431 009a 65030000 		.4byte	.LASF13
 432 009e 05       		.uleb128 0x5
 433 009f 8C000000 		.4byte	0x8c
 434 00a3 03       		.uleb128 0x3
 435 00a4 04       		.byte	0x4
 436 00a5 07       		.byte	0x7
 437 00a6 EF020000 		.4byte	.LASF14
 438 00aa 06       		.uleb128 0x6
 439 00ab 8C000000 		.4byte	0x8c
 440 00af BA000000 		.4byte	0xba
 441 00b3 07       		.uleb128 0x7
 442 00b4 A3000000 		.4byte	0xa3
 443 00b8 03       		.byte	0x3
 444 00b9 00       		.byte	0
 445 00ba 05       		.uleb128 0x5
 446 00bb 81000000 		.4byte	0x81
 447 00bf 08       		.uleb128 0x8
 448 00c0 18       		.byte	0x18
 449 00c1 04       		.byte	0x4
 450 00c2 8603     		.2byte	0x386
 451 00c4 16010000 		.4byte	0x116
ARM GAS  /tmp/ccEsEOdh.s 			page 9


 452 00c8 09       		.uleb128 0x9
 453 00c9 494D5200 		.ascii	"IMR\000"
 454 00cd 04       		.byte	0x4
 455 00ce 8803     		.2byte	0x388
 456 00d0 9E000000 		.4byte	0x9e
 457 00d4 00       		.byte	0
 458 00d5 09       		.uleb128 0x9
 459 00d6 454D5200 		.ascii	"EMR\000"
 460 00da 04       		.byte	0x4
 461 00db 8903     		.2byte	0x389
 462 00dd 9E000000 		.4byte	0x9e
 463 00e1 04       		.byte	0x4
 464 00e2 0A       		.uleb128 0xa
 465 00e3 B4010000 		.4byte	.LASF15
 466 00e7 04       		.byte	0x4
 467 00e8 8A03     		.2byte	0x38a
 468 00ea 9E000000 		.4byte	0x9e
 469 00ee 08       		.byte	0x8
 470 00ef 0A       		.uleb128 0xa
 471 00f0 3D030000 		.4byte	.LASF16
 472 00f4 04       		.byte	0x4
 473 00f5 8B03     		.2byte	0x38b
 474 00f7 9E000000 		.4byte	0x9e
 475 00fb 0C       		.byte	0xc
 476 00fc 0A       		.uleb128 0xa
 477 00fd 6B030000 		.4byte	.LASF17
 478 0101 04       		.byte	0x4
 479 0102 8C03     		.2byte	0x38c
 480 0104 9E000000 		.4byte	0x9e
 481 0108 10       		.byte	0x10
 482 0109 09       		.uleb128 0x9
 483 010a 505200   		.ascii	"PR\000"
 484 010d 04       		.byte	0x4
 485 010e 8D03     		.2byte	0x38d
 486 0110 9E000000 		.4byte	0x9e
 487 0114 14       		.byte	0x14
 488 0115 00       		.byte	0
 489 0116 0B       		.uleb128 0xb
 490 0117 9A010000 		.4byte	.LASF18
 491 011b 04       		.byte	0x4
 492 011c 8E03     		.2byte	0x38e
 493 011e BF000000 		.4byte	0xbf
 494 0122 08       		.uleb128 0x8
 495 0123 20       		.byte	0x20
 496 0124 04       		.byte	0x4
 497 0125 0704     		.2byte	0x407
 498 0127 6D010000 		.4byte	0x16d
 499 012b 0A       		.uleb128 0xa
 500 012c 4B030000 		.4byte	.LASF19
 501 0130 04       		.byte	0x4
 502 0131 0904     		.2byte	0x409
 503 0133 9E000000 		.4byte	0x9e
 504 0137 00       		.byte	0
 505 0138 0A       		.uleb128 0xa
 506 0139 87000000 		.4byte	.LASF20
 507 013d 04       		.byte	0x4
 508 013e 0A04     		.2byte	0x40a
ARM GAS  /tmp/ccEsEOdh.s 			page 10


 509 0140 9E000000 		.4byte	0x9e
 510 0144 04       		.byte	0x4
 511 0145 0A       		.uleb128 0xa
 512 0146 EF010000 		.4byte	.LASF21
 513 014a 04       		.byte	0x4
 514 014b 0B04     		.2byte	0x40b
 515 014d 6D010000 		.4byte	0x16d
 516 0151 08       		.byte	0x8
 517 0152 0A       		.uleb128 0xa
 518 0153 8C000000 		.4byte	.LASF22
 519 0157 04       		.byte	0x4
 520 0158 0C04     		.2byte	0x40c
 521 015a 8C000000 		.4byte	0x8c
 522 015e 18       		.byte	0x18
 523 015f 0A       		.uleb128 0xa
 524 0160 37030000 		.4byte	.LASF23
 525 0164 04       		.byte	0x4
 526 0165 0D04     		.2byte	0x40d
 527 0167 9E000000 		.4byte	0x9e
 528 016b 1C       		.byte	0x1c
 529 016c 00       		.byte	0
 530 016d 05       		.uleb128 0x5
 531 016e AA000000 		.4byte	0xaa
 532 0172 0B       		.uleb128 0xb
 533 0173 24000000 		.4byte	.LASF24
 534 0177 04       		.byte	0x4
 535 0178 0E04     		.2byte	0x40e
 536 017a 22010000 		.4byte	0x122
 537 017e 0C       		.uleb128 0xc
 538 017f 01       		.byte	0x1
 539 0180 05       		.byte	0x5
 540 0181 4A       		.byte	0x4a
 541 0182 99010000 		.4byte	0x199
 542 0186 0D       		.uleb128 0xd
 543 0187 72000000 		.4byte	.LASF25
 544 018b 00       		.sleb128 0
 545 018c 0D       		.uleb128 0xd
 546 018d 7F030000 		.4byte	.LASF26
 547 0191 01       		.sleb128 1
 548 0192 0D       		.uleb128 0xd
 549 0193 F6010000 		.4byte	.LASF27
 550 0197 02       		.sleb128 2
 551 0198 00       		.byte	0
 552 0199 04       		.uleb128 0x4
 553 019a 56000000 		.4byte	.LASF28
 554 019e 05       		.byte	0x5
 555 019f 4E       		.byte	0x4e
 556 01a0 7E010000 		.4byte	0x17e
 557 01a4 04       		.uleb128 0x4
 558 01a5 31000000 		.4byte	.LASF29
 559 01a9 05       		.byte	0x5
 560 01aa 53       		.byte	0x53
 561 01ab AF010000 		.4byte	0x1af
 562 01af 0E       		.uleb128 0xe
 563 01b0 31000000 		.4byte	.LASF29
 564 01b4 08       		.byte	0x8
 565 01b5 06       		.byte	0x6
ARM GAS  /tmp/ccEsEOdh.s 			page 11


 566 01b6 71       		.byte	0x71
 567 01b7 D4010000 		.4byte	0x1d4
 568 01bb 0F       		.uleb128 0xf
 569 01bc 50000000 		.4byte	.LASF30
 570 01c0 06       		.byte	0x6
 571 01c1 75       		.byte	0x75
 572 01c2 99010000 		.4byte	0x199
 573 01c6 00       		.byte	0
 574 01c7 0F       		.uleb128 0xf
 575 01c8 B9010000 		.4byte	.LASF31
 576 01cc 06       		.byte	0x6
 577 01cd 79       		.byte	0x79
 578 01ce 61020000 		.4byte	0x261
 579 01d2 04       		.byte	0x4
 580 01d3 00       		.byte	0
 581 01d4 04       		.uleb128 0x4
 582 01d5 EC000000 		.4byte	.LASF32
 583 01d9 06       		.byte	0x6
 584 01da 47       		.byte	0x47
 585 01db 8C000000 		.4byte	0x8c
 586 01df 04       		.uleb128 0x4
 587 01e0 12010000 		.4byte	.LASF33
 588 01e4 06       		.byte	0x6
 589 01e5 4F       		.byte	0x4f
 590 01e6 EA010000 		.4byte	0x1ea
 591 01ea 10       		.uleb128 0x10
 592 01eb 04       		.byte	0x4
 593 01ec F0010000 		.4byte	0x1f0
 594 01f0 11       		.uleb128 0x11
 595 01f1 00020000 		.4byte	0x200
 596 01f5 12       		.uleb128 0x12
 597 01f6 00020000 		.4byte	0x200
 598 01fa 12       		.uleb128 0x12
 599 01fb D4010000 		.4byte	0x1d4
 600 01ff 00       		.byte	0
 601 0200 10       		.uleb128 0x10
 602 0201 04       		.byte	0x4
 603 0202 A4010000 		.4byte	0x1a4
 604 0206 13       		.uleb128 0x13
 605 0207 08       		.byte	0x8
 606 0208 06       		.byte	0x6
 607 0209 54       		.byte	0x54
 608 020a 26020000 		.4byte	0x226
 609 020e 0F       		.uleb128 0xf
 610 020f 1D020000 		.4byte	.LASF34
 611 0213 06       		.byte	0x6
 612 0214 58       		.byte	0x58
 613 0215 8C000000 		.4byte	0x8c
 614 0219 00       		.byte	0
 615 021a 14       		.uleb128 0x14
 616 021b 636200   		.ascii	"cb\000"
 617 021e 06       		.byte	0x6
 618 021f 5F       		.byte	0x5f
 619 0220 DF010000 		.4byte	0x1df
 620 0224 04       		.byte	0x4
 621 0225 00       		.byte	0
 622 0226 04       		.uleb128 0x4
ARM GAS  /tmp/ccEsEOdh.s 			page 12


 623 0227 61000000 		.4byte	.LASF35
 624 022b 06       		.byte	0x6
 625 022c 60       		.byte	0x60
 626 022d 06020000 		.4byte	0x206
 627 0231 13       		.uleb128 0x13
 628 0232 98       		.byte	0x98
 629 0233 06       		.byte	0x6
 630 0234 66       		.byte	0x66
 631 0235 46020000 		.4byte	0x246
 632 0239 0F       		.uleb128 0xf
 633 023a 0B030000 		.4byte	.LASF36
 634 023e 06       		.byte	0x6
 635 023f 6A       		.byte	0x6a
 636 0240 46020000 		.4byte	0x246
 637 0244 00       		.byte	0
 638 0245 00       		.byte	0
 639 0246 06       		.uleb128 0x6
 640 0247 26020000 		.4byte	0x226
 641 024b 56020000 		.4byte	0x256
 642 024f 07       		.uleb128 0x7
 643 0250 A3000000 		.4byte	0xa3
 644 0254 12       		.byte	0x12
 645 0255 00       		.byte	0
 646 0256 04       		.uleb128 0x4
 647 0257 13020000 		.4byte	.LASF37
 648 025b 06       		.byte	0x6
 649 025c 6C       		.byte	0x6c
 650 025d 31020000 		.4byte	0x231
 651 0261 10       		.uleb128 0x10
 652 0262 04       		.byte	0x4
 653 0263 67020000 		.4byte	0x267
 654 0267 15       		.uleb128 0x15
 655 0268 56020000 		.4byte	0x256
 656 026c 16       		.uleb128 0x16
 657 026d 43000000 		.4byte	.LASF38
 658 0271 01       		.byte	0x1
 659 0272 42       		.byte	0x42
 660 0273 00000000 		.4byte	.LFB56
 661 0277 0C000000 		.4byte	.LFE56-.LFB56
 662 027b 01       		.uleb128 0x1
 663 027c 9C       		.byte	0x9c
 664 027d 95020000 		.4byte	0x295
 665 0281 17       		.uleb128 0x17
 666 0282 06000000 		.4byte	.LVL0
 667 0286 D9030000 		.4byte	0x3d9
 668 028a 18       		.uleb128 0x18
 669 028b 01       		.uleb128 0x1
 670 028c 50       		.byte	0x50
 671 028d 05       		.uleb128 0x5
 672 028e 03       		.byte	0x3
 673 028f 00000000 		.4byte	.LANCHOR0
 674 0293 00       		.byte	0
 675 0294 00       		.byte	0
 676 0295 16       		.uleb128 0x16
 677 0296 E2010000 		.4byte	.LASF39
 678 029a 01       		.byte	0x1
 679 029b 64       		.byte	0x64
ARM GAS  /tmp/ccEsEOdh.s 			page 13


 680 029c 00000000 		.4byte	.LFB58
 681 02a0 24000000 		.4byte	.LFE58-.LFB58
 682 02a4 01       		.uleb128 0x1
 683 02a5 9C       		.byte	0x9c
 684 02a6 C3020000 		.4byte	0x2c3
 685 02aa 19       		.uleb128 0x19
 686 02ab 0E020000 		.4byte	.LASF41
 687 02af 01       		.byte	0x1
 688 02b0 64       		.byte	0x64
 689 02b1 00020000 		.4byte	0x200
 690 02b5 00000000 		.4byte	.LLST0
 691 02b9 1A       		.uleb128 0x1a
 692 02ba 1C000000 		.4byte	.LVL4
 693 02be EA030000 		.4byte	0x3ea
 694 02c2 00       		.byte	0
 695 02c3 16       		.uleb128 0x16
 696 02c4 CB010000 		.4byte	.LASF40
 697 02c8 01       		.byte	0x1
 698 02c9 79       		.byte	0x79
 699 02ca 00000000 		.4byte	.LFB59
 700 02ce 98000000 		.4byte	.LFE59-.LFB59
 701 02d2 01       		.uleb128 0x1
 702 02d3 9C       		.byte	0x9c
 703 02d4 2A030000 		.4byte	0x32a
 704 02d8 1B       		.uleb128 0x1b
 705 02d9 0E020000 		.4byte	.LASF41
 706 02dd 01       		.byte	0x1
 707 02de 79       		.byte	0x79
 708 02df 00020000 		.4byte	0x200
 709 02e3 01       		.uleb128 0x1
 710 02e4 50       		.byte	0x50
 711 02e5 19       		.uleb128 0x19
 712 02e6 3B000000 		.4byte	.LASF42
 713 02ea 01       		.byte	0x1
 714 02eb 79       		.byte	0x79
 715 02ec D4010000 		.4byte	0x1d4
 716 02f0 3A000000 		.4byte	.LLST1
 717 02f4 1C       		.uleb128 0x1c
 718 02f5 06000000 		.4byte	.LBB2
 719 02f9 2C000000 		.4byte	.LBE2-.LBB2
 720 02fd 1D       		.uleb128 0x1d
 721 02fe 6E00     		.ascii	"n\000"
 722 0300 01       		.byte	0x1
 723 0301 7D       		.byte	0x7d
 724 0302 8C000000 		.4byte	0x8c
 725 0306 5B000000 		.4byte	.LLST2
 726 030a 1E       		.uleb128 0x1e
 727 030b 06030000 		.4byte	.LASF43
 728 030f 01       		.byte	0x1
 729 0310 7E       		.byte	0x7e
 730 0311 8C000000 		.4byte	0x8c
 731 0315 72000000 		.4byte	.LLST3
 732 0319 1E       		.uleb128 0x1e
 733 031a 14030000 		.4byte	.LASF44
 734 031e 01       		.byte	0x1
 735 031f 7F       		.byte	0x7f
 736 0320 8C000000 		.4byte	0x8c
ARM GAS  /tmp/ccEsEOdh.s 			page 14


 737 0324 9E000000 		.4byte	.LLST4
 738 0328 00       		.byte	0
 739 0329 00       		.byte	0
 740 032a 16       		.uleb128 0x16
 741 032b 38010000 		.4byte	.LASF45
 742 032f 01       		.byte	0x1
 743 0330 C5       		.byte	0xc5
 744 0331 00000000 		.4byte	.LFB60
 745 0335 2C000000 		.4byte	.LFE60-.LFB60
 746 0339 01       		.uleb128 0x1
 747 033a 9C       		.byte	0x9c
 748 033b 5E030000 		.4byte	0x35e
 749 033f 19       		.uleb128 0x19
 750 0340 0E020000 		.4byte	.LASF41
 751 0344 01       		.byte	0x1
 752 0345 C5       		.byte	0xc5
 753 0346 00020000 		.4byte	0x200
 754 034a FD000000 		.4byte	.LLST5
 755 034e 19       		.uleb128 0x19
 756 034f 3B000000 		.4byte	.LASF42
 757 0353 01       		.byte	0x1
 758 0354 C5       		.byte	0xc5
 759 0355 D4010000 		.4byte	0x1d4
 760 0359 1E010000 		.4byte	.LLST6
 761 035d 00       		.byte	0
 762 035e 16       		.uleb128 0x16
 763 035f 71030000 		.4byte	.LASF46
 764 0363 01       		.byte	0x1
 765 0364 4F       		.byte	0x4f
 766 0365 00000000 		.4byte	.LFB57
 767 0369 38000000 		.4byte	.LFE57-.LFB57
 768 036d 01       		.uleb128 0x1
 769 036e 9C       		.byte	0x9c
 770 036f BC030000 		.4byte	0x3bc
 771 0373 19       		.uleb128 0x19
 772 0374 0E020000 		.4byte	.LASF41
 773 0378 01       		.byte	0x1
 774 0379 4F       		.byte	0x4f
 775 037a 00020000 		.4byte	0x200
 776 037e 3F010000 		.4byte	.LLST7
 777 0382 1D       		.uleb128 0x1d
 778 0383 6900     		.ascii	"i\000"
 779 0385 01       		.byte	0x1
 780 0386 50       		.byte	0x50
 781 0387 2C000000 		.4byte	0x2c
 782 038b 9F010000 		.4byte	.LLST8
 783 038f 1A       		.uleb128 0x1a
 784 0390 14000000 		.4byte	.LVL18
 785 0394 C3020000 		.4byte	0x2c3
 786 0398 1F       		.uleb128 0x1f
 787 0399 2C000000 		.4byte	.LVL22
 788 039d 2A030000 		.4byte	0x32a
 789 03a1 B2030000 		.4byte	0x3b2
 790 03a5 18       		.uleb128 0x18
 791 03a6 01       		.uleb128 0x1
 792 03a7 51       		.byte	0x51
 793 03a8 02       		.uleb128 0x2
ARM GAS  /tmp/ccEsEOdh.s 			page 15


 794 03a9 74       		.byte	0x74
 795 03aa 7F       		.sleb128 -1
 796 03ab 18       		.uleb128 0x18
 797 03ac 01       		.uleb128 0x1
 798 03ad 50       		.byte	0x50
 799 03ae 02       		.uleb128 0x2
 800 03af 75       		.byte	0x75
 801 03b0 00       		.sleb128 0
 802 03b1 00       		.byte	0
 803 03b2 1A       		.uleb128 0x1a
 804 03b3 36000000 		.4byte	.LVL24
 805 03b7 F1030000 		.4byte	0x3f1
 806 03bb 00       		.byte	0
 807 03bc 20       		.uleb128 0x20
 808 03bd A7010000 		.4byte	.LASF47
 809 03c1 07       		.byte	0x7
 810 03c2 0706     		.2byte	0x607
 811 03c4 BA000000 		.4byte	0xba
 812 03c8 21       		.uleb128 0x21
 813 03c9 19030000 		.4byte	.LASF48
 814 03cd 01       		.byte	0x1
 815 03ce 2B       		.byte	0x2b
 816 03cf A4010000 		.4byte	0x1a4
 817 03d3 05       		.uleb128 0x5
 818 03d4 03       		.byte	0x3
 819 03d5 00000000 		.4byte	EXTD1
 820 03d9 22       		.uleb128 0x22
 821 03da 29030000 		.4byte	.LASF54
 822 03de 05       		.byte	0x5
 823 03df 91       		.byte	0x91
 824 03e0 EA030000 		.4byte	0x3ea
 825 03e4 12       		.uleb128 0x12
 826 03e5 00020000 		.4byte	0x200
 827 03e9 00       		.byte	0
 828 03ea 23       		.uleb128 0x23
 829 03eb F9000000 		.4byte	.LASF49
 830 03ef 08       		.byte	0x8
 831 03f0 8C       		.byte	0x8c
 832 03f1 23       		.uleb128 0x23
 833 03f2 20010000 		.4byte	.LASF50
 834 03f6 08       		.byte	0x8
 835 03f7 8B       		.byte	0x8b
 836 03f8 00       		.byte	0
 837              		.section	.debug_abbrev,"",%progbits
 838              	.Ldebug_abbrev0:
 839 0000 01       		.uleb128 0x1
 840 0001 11       		.uleb128 0x11
 841 0002 01       		.byte	0x1
 842 0003 25       		.uleb128 0x25
 843 0004 0E       		.uleb128 0xe
 844 0005 13       		.uleb128 0x13
 845 0006 0B       		.uleb128 0xb
 846 0007 03       		.uleb128 0x3
 847 0008 0E       		.uleb128 0xe
 848 0009 1B       		.uleb128 0x1b
 849 000a 0E       		.uleb128 0xe
 850 000b 55       		.uleb128 0x55
ARM GAS  /tmp/ccEsEOdh.s 			page 16


 851 000c 17       		.uleb128 0x17
 852 000d 11       		.uleb128 0x11
 853 000e 01       		.uleb128 0x1
 854 000f 10       		.uleb128 0x10
 855 0010 17       		.uleb128 0x17
 856 0011 00       		.byte	0
 857 0012 00       		.byte	0
 858 0013 02       		.uleb128 0x2
 859 0014 24       		.uleb128 0x24
 860 0015 00       		.byte	0
 861 0016 0B       		.uleb128 0xb
 862 0017 0B       		.uleb128 0xb
 863 0018 3E       		.uleb128 0x3e
 864 0019 0B       		.uleb128 0xb
 865 001a 03       		.uleb128 0x3
 866 001b 08       		.uleb128 0x8
 867 001c 00       		.byte	0
 868 001d 00       		.byte	0
 869 001e 03       		.uleb128 0x3
 870 001f 24       		.uleb128 0x24
 871 0020 00       		.byte	0
 872 0021 0B       		.uleb128 0xb
 873 0022 0B       		.uleb128 0xb
 874 0023 3E       		.uleb128 0x3e
 875 0024 0B       		.uleb128 0xb
 876 0025 03       		.uleb128 0x3
 877 0026 0E       		.uleb128 0xe
 878 0027 00       		.byte	0
 879 0028 00       		.byte	0
 880 0029 04       		.uleb128 0x4
 881 002a 16       		.uleb128 0x16
 882 002b 00       		.byte	0
 883 002c 03       		.uleb128 0x3
 884 002d 0E       		.uleb128 0xe
 885 002e 3A       		.uleb128 0x3a
 886 002f 0B       		.uleb128 0xb
 887 0030 3B       		.uleb128 0x3b
 888 0031 0B       		.uleb128 0xb
 889 0032 49       		.uleb128 0x49
 890 0033 13       		.uleb128 0x13
 891 0034 00       		.byte	0
 892 0035 00       		.byte	0
 893 0036 05       		.uleb128 0x5
 894 0037 35       		.uleb128 0x35
 895 0038 00       		.byte	0
 896 0039 49       		.uleb128 0x49
 897 003a 13       		.uleb128 0x13
 898 003b 00       		.byte	0
 899 003c 00       		.byte	0
 900 003d 06       		.uleb128 0x6
 901 003e 01       		.uleb128 0x1
 902 003f 01       		.byte	0x1
 903 0040 49       		.uleb128 0x49
 904 0041 13       		.uleb128 0x13
 905 0042 01       		.uleb128 0x1
 906 0043 13       		.uleb128 0x13
 907 0044 00       		.byte	0
ARM GAS  /tmp/ccEsEOdh.s 			page 17


 908 0045 00       		.byte	0
 909 0046 07       		.uleb128 0x7
 910 0047 21       		.uleb128 0x21
 911 0048 00       		.byte	0
 912 0049 49       		.uleb128 0x49
 913 004a 13       		.uleb128 0x13
 914 004b 2F       		.uleb128 0x2f
 915 004c 0B       		.uleb128 0xb
 916 004d 00       		.byte	0
 917 004e 00       		.byte	0
 918 004f 08       		.uleb128 0x8
 919 0050 13       		.uleb128 0x13
 920 0051 01       		.byte	0x1
 921 0052 0B       		.uleb128 0xb
 922 0053 0B       		.uleb128 0xb
 923 0054 3A       		.uleb128 0x3a
 924 0055 0B       		.uleb128 0xb
 925 0056 3B       		.uleb128 0x3b
 926 0057 05       		.uleb128 0x5
 927 0058 01       		.uleb128 0x1
 928 0059 13       		.uleb128 0x13
 929 005a 00       		.byte	0
 930 005b 00       		.byte	0
 931 005c 09       		.uleb128 0x9
 932 005d 0D       		.uleb128 0xd
 933 005e 00       		.byte	0
 934 005f 03       		.uleb128 0x3
 935 0060 08       		.uleb128 0x8
 936 0061 3A       		.uleb128 0x3a
 937 0062 0B       		.uleb128 0xb
 938 0063 3B       		.uleb128 0x3b
 939 0064 05       		.uleb128 0x5
 940 0065 49       		.uleb128 0x49
 941 0066 13       		.uleb128 0x13
 942 0067 38       		.uleb128 0x38
 943 0068 0B       		.uleb128 0xb
 944 0069 00       		.byte	0
 945 006a 00       		.byte	0
 946 006b 0A       		.uleb128 0xa
 947 006c 0D       		.uleb128 0xd
 948 006d 00       		.byte	0
 949 006e 03       		.uleb128 0x3
 950 006f 0E       		.uleb128 0xe
 951 0070 3A       		.uleb128 0x3a
 952 0071 0B       		.uleb128 0xb
 953 0072 3B       		.uleb128 0x3b
 954 0073 05       		.uleb128 0x5
 955 0074 49       		.uleb128 0x49
 956 0075 13       		.uleb128 0x13
 957 0076 38       		.uleb128 0x38
 958 0077 0B       		.uleb128 0xb
 959 0078 00       		.byte	0
 960 0079 00       		.byte	0
 961 007a 0B       		.uleb128 0xb
 962 007b 16       		.uleb128 0x16
 963 007c 00       		.byte	0
 964 007d 03       		.uleb128 0x3
ARM GAS  /tmp/ccEsEOdh.s 			page 18


 965 007e 0E       		.uleb128 0xe
 966 007f 3A       		.uleb128 0x3a
 967 0080 0B       		.uleb128 0xb
 968 0081 3B       		.uleb128 0x3b
 969 0082 05       		.uleb128 0x5
 970 0083 49       		.uleb128 0x49
 971 0084 13       		.uleb128 0x13
 972 0085 00       		.byte	0
 973 0086 00       		.byte	0
 974 0087 0C       		.uleb128 0xc
 975 0088 04       		.uleb128 0x4
 976 0089 01       		.byte	0x1
 977 008a 0B       		.uleb128 0xb
 978 008b 0B       		.uleb128 0xb
 979 008c 3A       		.uleb128 0x3a
 980 008d 0B       		.uleb128 0xb
 981 008e 3B       		.uleb128 0x3b
 982 008f 0B       		.uleb128 0xb
 983 0090 01       		.uleb128 0x1
 984 0091 13       		.uleb128 0x13
 985 0092 00       		.byte	0
 986 0093 00       		.byte	0
 987 0094 0D       		.uleb128 0xd
 988 0095 28       		.uleb128 0x28
 989 0096 00       		.byte	0
 990 0097 03       		.uleb128 0x3
 991 0098 0E       		.uleb128 0xe
 992 0099 1C       		.uleb128 0x1c
 993 009a 0D       		.uleb128 0xd
 994 009b 00       		.byte	0
 995 009c 00       		.byte	0
 996 009d 0E       		.uleb128 0xe
 997 009e 13       		.uleb128 0x13
 998 009f 01       		.byte	0x1
 999 00a0 03       		.uleb128 0x3
 1000 00a1 0E       		.uleb128 0xe
 1001 00a2 0B       		.uleb128 0xb
 1002 00a3 0B       		.uleb128 0xb
 1003 00a4 3A       		.uleb128 0x3a
 1004 00a5 0B       		.uleb128 0xb
 1005 00a6 3B       		.uleb128 0x3b
 1006 00a7 0B       		.uleb128 0xb
 1007 00a8 01       		.uleb128 0x1
 1008 00a9 13       		.uleb128 0x13
 1009 00aa 00       		.byte	0
 1010 00ab 00       		.byte	0
 1011 00ac 0F       		.uleb128 0xf
 1012 00ad 0D       		.uleb128 0xd
 1013 00ae 00       		.byte	0
 1014 00af 03       		.uleb128 0x3
 1015 00b0 0E       		.uleb128 0xe
 1016 00b1 3A       		.uleb128 0x3a
 1017 00b2 0B       		.uleb128 0xb
 1018 00b3 3B       		.uleb128 0x3b
 1019 00b4 0B       		.uleb128 0xb
 1020 00b5 49       		.uleb128 0x49
 1021 00b6 13       		.uleb128 0x13
ARM GAS  /tmp/ccEsEOdh.s 			page 19


 1022 00b7 38       		.uleb128 0x38
 1023 00b8 0B       		.uleb128 0xb
 1024 00b9 00       		.byte	0
 1025 00ba 00       		.byte	0
 1026 00bb 10       		.uleb128 0x10
 1027 00bc 0F       		.uleb128 0xf
 1028 00bd 00       		.byte	0
 1029 00be 0B       		.uleb128 0xb
 1030 00bf 0B       		.uleb128 0xb
 1031 00c0 49       		.uleb128 0x49
 1032 00c1 13       		.uleb128 0x13
 1033 00c2 00       		.byte	0
 1034 00c3 00       		.byte	0
 1035 00c4 11       		.uleb128 0x11
 1036 00c5 15       		.uleb128 0x15
 1037 00c6 01       		.byte	0x1
 1038 00c7 27       		.uleb128 0x27
 1039 00c8 19       		.uleb128 0x19
 1040 00c9 01       		.uleb128 0x1
 1041 00ca 13       		.uleb128 0x13
 1042 00cb 00       		.byte	0
 1043 00cc 00       		.byte	0
 1044 00cd 12       		.uleb128 0x12
 1045 00ce 05       		.uleb128 0x5
 1046 00cf 00       		.byte	0
 1047 00d0 49       		.uleb128 0x49
 1048 00d1 13       		.uleb128 0x13
 1049 00d2 00       		.byte	0
 1050 00d3 00       		.byte	0
 1051 00d4 13       		.uleb128 0x13
 1052 00d5 13       		.uleb128 0x13
 1053 00d6 01       		.byte	0x1
 1054 00d7 0B       		.uleb128 0xb
 1055 00d8 0B       		.uleb128 0xb
 1056 00d9 3A       		.uleb128 0x3a
 1057 00da 0B       		.uleb128 0xb
 1058 00db 3B       		.uleb128 0x3b
 1059 00dc 0B       		.uleb128 0xb
 1060 00dd 01       		.uleb128 0x1
 1061 00de 13       		.uleb128 0x13
 1062 00df 00       		.byte	0
 1063 00e0 00       		.byte	0
 1064 00e1 14       		.uleb128 0x14
 1065 00e2 0D       		.uleb128 0xd
 1066 00e3 00       		.byte	0
 1067 00e4 03       		.uleb128 0x3
 1068 00e5 08       		.uleb128 0x8
 1069 00e6 3A       		.uleb128 0x3a
 1070 00e7 0B       		.uleb128 0xb
 1071 00e8 3B       		.uleb128 0x3b
 1072 00e9 0B       		.uleb128 0xb
 1073 00ea 49       		.uleb128 0x49
 1074 00eb 13       		.uleb128 0x13
 1075 00ec 38       		.uleb128 0x38
 1076 00ed 0B       		.uleb128 0xb
 1077 00ee 00       		.byte	0
 1078 00ef 00       		.byte	0
ARM GAS  /tmp/ccEsEOdh.s 			page 20


 1079 00f0 15       		.uleb128 0x15
 1080 00f1 26       		.uleb128 0x26
 1081 00f2 00       		.byte	0
 1082 00f3 49       		.uleb128 0x49
 1083 00f4 13       		.uleb128 0x13
 1084 00f5 00       		.byte	0
 1085 00f6 00       		.byte	0
 1086 00f7 16       		.uleb128 0x16
 1087 00f8 2E       		.uleb128 0x2e
 1088 00f9 01       		.byte	0x1
 1089 00fa 3F       		.uleb128 0x3f
 1090 00fb 19       		.uleb128 0x19
 1091 00fc 03       		.uleb128 0x3
 1092 00fd 0E       		.uleb128 0xe
 1093 00fe 3A       		.uleb128 0x3a
 1094 00ff 0B       		.uleb128 0xb
 1095 0100 3B       		.uleb128 0x3b
 1096 0101 0B       		.uleb128 0xb
 1097 0102 27       		.uleb128 0x27
 1098 0103 19       		.uleb128 0x19
 1099 0104 11       		.uleb128 0x11
 1100 0105 01       		.uleb128 0x1
 1101 0106 12       		.uleb128 0x12
 1102 0107 06       		.uleb128 0x6
 1103 0108 40       		.uleb128 0x40
 1104 0109 18       		.uleb128 0x18
 1105 010a 9742     		.uleb128 0x2117
 1106 010c 19       		.uleb128 0x19
 1107 010d 01       		.uleb128 0x1
 1108 010e 13       		.uleb128 0x13
 1109 010f 00       		.byte	0
 1110 0110 00       		.byte	0
 1111 0111 17       		.uleb128 0x17
 1112 0112 898201   		.uleb128 0x4109
 1113 0115 01       		.byte	0x1
 1114 0116 11       		.uleb128 0x11
 1115 0117 01       		.uleb128 0x1
 1116 0118 9542     		.uleb128 0x2115
 1117 011a 19       		.uleb128 0x19
 1118 011b 31       		.uleb128 0x31
 1119 011c 13       		.uleb128 0x13
 1120 011d 00       		.byte	0
 1121 011e 00       		.byte	0
 1122 011f 18       		.uleb128 0x18
 1123 0120 8A8201   		.uleb128 0x410a
 1124 0123 00       		.byte	0
 1125 0124 02       		.uleb128 0x2
 1126 0125 18       		.uleb128 0x18
 1127 0126 9142     		.uleb128 0x2111
 1128 0128 18       		.uleb128 0x18
 1129 0129 00       		.byte	0
 1130 012a 00       		.byte	0
 1131 012b 19       		.uleb128 0x19
 1132 012c 05       		.uleb128 0x5
 1133 012d 00       		.byte	0
 1134 012e 03       		.uleb128 0x3
 1135 012f 0E       		.uleb128 0xe
ARM GAS  /tmp/ccEsEOdh.s 			page 21


 1136 0130 3A       		.uleb128 0x3a
 1137 0131 0B       		.uleb128 0xb
 1138 0132 3B       		.uleb128 0x3b
 1139 0133 0B       		.uleb128 0xb
 1140 0134 49       		.uleb128 0x49
 1141 0135 13       		.uleb128 0x13
 1142 0136 02       		.uleb128 0x2
 1143 0137 17       		.uleb128 0x17
 1144 0138 00       		.byte	0
 1145 0139 00       		.byte	0
 1146 013a 1A       		.uleb128 0x1a
 1147 013b 898201   		.uleb128 0x4109
 1148 013e 00       		.byte	0
 1149 013f 11       		.uleb128 0x11
 1150 0140 01       		.uleb128 0x1
 1151 0141 31       		.uleb128 0x31
 1152 0142 13       		.uleb128 0x13
 1153 0143 00       		.byte	0
 1154 0144 00       		.byte	0
 1155 0145 1B       		.uleb128 0x1b
 1156 0146 05       		.uleb128 0x5
 1157 0147 00       		.byte	0
 1158 0148 03       		.uleb128 0x3
 1159 0149 0E       		.uleb128 0xe
 1160 014a 3A       		.uleb128 0x3a
 1161 014b 0B       		.uleb128 0xb
 1162 014c 3B       		.uleb128 0x3b
 1163 014d 0B       		.uleb128 0xb
 1164 014e 49       		.uleb128 0x49
 1165 014f 13       		.uleb128 0x13
 1166 0150 02       		.uleb128 0x2
 1167 0151 18       		.uleb128 0x18
 1168 0152 00       		.byte	0
 1169 0153 00       		.byte	0
 1170 0154 1C       		.uleb128 0x1c
 1171 0155 0B       		.uleb128 0xb
 1172 0156 01       		.byte	0x1
 1173 0157 11       		.uleb128 0x11
 1174 0158 01       		.uleb128 0x1
 1175 0159 12       		.uleb128 0x12
 1176 015a 06       		.uleb128 0x6
 1177 015b 00       		.byte	0
 1178 015c 00       		.byte	0
 1179 015d 1D       		.uleb128 0x1d
 1180 015e 34       		.uleb128 0x34
 1181 015f 00       		.byte	0
 1182 0160 03       		.uleb128 0x3
 1183 0161 08       		.uleb128 0x8
 1184 0162 3A       		.uleb128 0x3a
 1185 0163 0B       		.uleb128 0xb
 1186 0164 3B       		.uleb128 0x3b
 1187 0165 0B       		.uleb128 0xb
 1188 0166 49       		.uleb128 0x49
 1189 0167 13       		.uleb128 0x13
 1190 0168 02       		.uleb128 0x2
 1191 0169 17       		.uleb128 0x17
 1192 016a 00       		.byte	0
ARM GAS  /tmp/ccEsEOdh.s 			page 22


 1193 016b 00       		.byte	0
 1194 016c 1E       		.uleb128 0x1e
 1195 016d 34       		.uleb128 0x34
 1196 016e 00       		.byte	0
 1197 016f 03       		.uleb128 0x3
 1198 0170 0E       		.uleb128 0xe
 1199 0171 3A       		.uleb128 0x3a
 1200 0172 0B       		.uleb128 0xb
 1201 0173 3B       		.uleb128 0x3b
 1202 0174 0B       		.uleb128 0xb
 1203 0175 49       		.uleb128 0x49
 1204 0176 13       		.uleb128 0x13
 1205 0177 02       		.uleb128 0x2
 1206 0178 17       		.uleb128 0x17
 1207 0179 00       		.byte	0
 1208 017a 00       		.byte	0
 1209 017b 1F       		.uleb128 0x1f
 1210 017c 898201   		.uleb128 0x4109
 1211 017f 01       		.byte	0x1
 1212 0180 11       		.uleb128 0x11
 1213 0181 01       		.uleb128 0x1
 1214 0182 31       		.uleb128 0x31
 1215 0183 13       		.uleb128 0x13
 1216 0184 01       		.uleb128 0x1
 1217 0185 13       		.uleb128 0x13
 1218 0186 00       		.byte	0
 1219 0187 00       		.byte	0
 1220 0188 20       		.uleb128 0x20
 1221 0189 34       		.uleb128 0x34
 1222 018a 00       		.byte	0
 1223 018b 03       		.uleb128 0x3
 1224 018c 0E       		.uleb128 0xe
 1225 018d 3A       		.uleb128 0x3a
 1226 018e 0B       		.uleb128 0xb
 1227 018f 3B       		.uleb128 0x3b
 1228 0190 05       		.uleb128 0x5
 1229 0191 49       		.uleb128 0x49
 1230 0192 13       		.uleb128 0x13
 1231 0193 3F       		.uleb128 0x3f
 1232 0194 19       		.uleb128 0x19
 1233 0195 3C       		.uleb128 0x3c
 1234 0196 19       		.uleb128 0x19
 1235 0197 00       		.byte	0
 1236 0198 00       		.byte	0
 1237 0199 21       		.uleb128 0x21
 1238 019a 34       		.uleb128 0x34
 1239 019b 00       		.byte	0
 1240 019c 03       		.uleb128 0x3
 1241 019d 0E       		.uleb128 0xe
 1242 019e 3A       		.uleb128 0x3a
 1243 019f 0B       		.uleb128 0xb
 1244 01a0 3B       		.uleb128 0x3b
 1245 01a1 0B       		.uleb128 0xb
 1246 01a2 49       		.uleb128 0x49
 1247 01a3 13       		.uleb128 0x13
 1248 01a4 3F       		.uleb128 0x3f
 1249 01a5 19       		.uleb128 0x19
ARM GAS  /tmp/ccEsEOdh.s 			page 23


 1250 01a6 02       		.uleb128 0x2
 1251 01a7 18       		.uleb128 0x18
 1252 01a8 00       		.byte	0
 1253 01a9 00       		.byte	0
 1254 01aa 22       		.uleb128 0x22
 1255 01ab 2E       		.uleb128 0x2e
 1256 01ac 01       		.byte	0x1
 1257 01ad 3F       		.uleb128 0x3f
 1258 01ae 19       		.uleb128 0x19
 1259 01af 03       		.uleb128 0x3
 1260 01b0 0E       		.uleb128 0xe
 1261 01b1 3A       		.uleb128 0x3a
 1262 01b2 0B       		.uleb128 0xb
 1263 01b3 3B       		.uleb128 0x3b
 1264 01b4 0B       		.uleb128 0xb
 1265 01b5 27       		.uleb128 0x27
 1266 01b6 19       		.uleb128 0x19
 1267 01b7 3C       		.uleb128 0x3c
 1268 01b8 19       		.uleb128 0x19
 1269 01b9 01       		.uleb128 0x1
 1270 01ba 13       		.uleb128 0x13
 1271 01bb 00       		.byte	0
 1272 01bc 00       		.byte	0
 1273 01bd 23       		.uleb128 0x23
 1274 01be 2E       		.uleb128 0x2e
 1275 01bf 00       		.byte	0
 1276 01c0 3F       		.uleb128 0x3f
 1277 01c1 19       		.uleb128 0x19
 1278 01c2 03       		.uleb128 0x3
 1279 01c3 0E       		.uleb128 0xe
 1280 01c4 3A       		.uleb128 0x3a
 1281 01c5 0B       		.uleb128 0xb
 1282 01c6 3B       		.uleb128 0x3b
 1283 01c7 0B       		.uleb128 0xb
 1284 01c8 27       		.uleb128 0x27
 1285 01c9 19       		.uleb128 0x19
 1286 01ca 3C       		.uleb128 0x3c
 1287 01cb 19       		.uleb128 0x19
 1288 01cc 00       		.byte	0
 1289 01cd 00       		.byte	0
 1290 01ce 00       		.byte	0
 1291              		.section	.debug_loc,"",%progbits
 1292              	.Ldebug_loc0:
 1293              	.LLST0:
 1294 0000 00000000 		.4byte	.LVL1
 1295 0004 08000000 		.4byte	.LVL2
 1296 0008 0100     		.2byte	0x1
 1297 000a 50       		.byte	0x50
 1298 000b 08000000 		.4byte	.LVL2
 1299 000f 18000000 		.4byte	.LVL3
 1300 0013 0400     		.2byte	0x4
 1301 0015 F3       		.byte	0xf3
 1302 0016 01       		.uleb128 0x1
 1303 0017 50       		.byte	0x50
 1304 0018 9F       		.byte	0x9f
 1305 0019 18000000 		.4byte	.LVL3
 1306 001d 1B000000 		.4byte	.LVL4-1
ARM GAS  /tmp/ccEsEOdh.s 			page 24


 1307 0021 0100     		.2byte	0x1
 1308 0023 50       		.byte	0x50
 1309 0024 1B000000 		.4byte	.LVL4-1
 1310 0028 24000000 		.4byte	.LFE58
 1311 002c 0400     		.2byte	0x4
 1312 002e F3       		.byte	0xf3
 1313 002f 01       		.uleb128 0x1
 1314 0030 50       		.byte	0x50
 1315 0031 9F       		.byte	0x9f
 1316 0032 00000000 		.4byte	0
 1317 0036 00000000 		.4byte	0
 1318              	.LLST1:
 1319 003a 00000000 		.4byte	.LVL5
 1320 003e 6A000000 		.4byte	.LVL11
 1321 0042 0100     		.2byte	0x1
 1322 0044 51       		.byte	0x51
 1323 0045 6A000000 		.4byte	.LVL11
 1324 0049 98000000 		.4byte	.LFE59
 1325 004d 0400     		.2byte	0x4
 1326 004f F3       		.byte	0xf3
 1327 0050 01       		.uleb128 0x1
 1328 0051 51       		.byte	0x51
 1329 0052 9F       		.byte	0x9f
 1330 0053 00000000 		.4byte	0
 1331 0057 00000000 		.4byte	0
 1332              	.LLST2:
 1333 005b 06000000 		.4byte	.LVL6
 1334 005f 32000000 		.4byte	.LVL10
 1335 0063 0500     		.2byte	0x5
 1336 0065 71       		.byte	0x71
 1337 0066 00       		.sleb128 0
 1338 0067 32       		.byte	0x32
 1339 0068 25       		.byte	0x25
 1340 0069 9F       		.byte	0x9f
 1341 006a 00000000 		.4byte	0
 1342 006e 00000000 		.4byte	0
 1343              	.LLST3:
 1344 0072 12000000 		.4byte	.LVL7
 1345 0076 20000000 		.4byte	.LVL9
 1346 007a 0600     		.2byte	0x6
 1347 007c 3F       		.byte	0x3f
 1348 007d 73       		.byte	0x73
 1349 007e 00       		.sleb128 0
 1350 007f 24       		.byte	0x24
 1351 0080 20       		.byte	0x20
 1352 0081 9F       		.byte	0x9f
 1353 0082 20000000 		.4byte	.LVL9
 1354 0086 32000000 		.4byte	.LVL10
 1355 008a 0A00     		.2byte	0xa
 1356 008c 3F       		.byte	0x3f
 1357 008d 71       		.byte	0x71
 1358 008e 00       		.sleb128 0
 1359 008f 33       		.byte	0x33
 1360 0090 1A       		.byte	0x1a
 1361 0091 32       		.byte	0x32
 1362 0092 24       		.byte	0x24
 1363 0093 24       		.byte	0x24
ARM GAS  /tmp/ccEsEOdh.s 			page 25


 1364 0094 20       		.byte	0x20
 1365 0095 9F       		.byte	0x9f
 1366 0096 00000000 		.4byte	0
 1367 009a 00000000 		.4byte	0
 1368              	.LLST4:
 1369 009e 12000000 		.4byte	.LVL7
 1370 00a2 14000000 		.4byte	.LVL8
 1371 00a6 1100     		.2byte	0x11
 1372 00a8 71       		.byte	0x71
 1373 00a9 00       		.sleb128 0
 1374 00aa 33       		.byte	0x33
 1375 00ab 24       		.byte	0x24
 1376 00ac 72       		.byte	0x72
 1377 00ad 00       		.sleb128 0
 1378 00ae 22       		.byte	0x22
 1379 00af 06       		.byte	0x6
 1380 00b0 08       		.byte	0x8
 1381 00b1 F0       		.byte	0xf0
 1382 00b2 1A       		.byte	0x1a
 1383 00b3 34       		.byte	0x34
 1384 00b4 25       		.byte	0x25
 1385 00b5 73       		.byte	0x73
 1386 00b6 00       		.sleb128 0
 1387 00b7 24       		.byte	0x24
 1388 00b8 9F       		.byte	0x9f
 1389 00b9 14000000 		.4byte	.LVL8
 1390 00bd 20000000 		.4byte	.LVL9
 1391 00c1 1200     		.2byte	0x12
 1392 00c3 71       		.byte	0x71
 1393 00c4 00       		.sleb128 0
 1394 00c5 33       		.byte	0x33
 1395 00c6 24       		.byte	0x24
 1396 00c7 70       		.byte	0x70
 1397 00c8 04       		.sleb128 4
 1398 00c9 06       		.byte	0x6
 1399 00ca 22       		.byte	0x22
 1400 00cb 06       		.byte	0x6
 1401 00cc 08       		.byte	0x8
 1402 00cd F0       		.byte	0xf0
 1403 00ce 1A       		.byte	0x1a
 1404 00cf 34       		.byte	0x34
 1405 00d0 25       		.byte	0x25
 1406 00d1 73       		.byte	0x73
 1407 00d2 00       		.sleb128 0
 1408 00d3 24       		.byte	0x24
 1409 00d4 9F       		.byte	0x9f
 1410 00d5 20000000 		.4byte	.LVL9
 1411 00d9 32000000 		.4byte	.LVL10
 1412 00dd 1600     		.2byte	0x16
 1413 00df 71       		.byte	0x71
 1414 00e0 00       		.sleb128 0
 1415 00e1 33       		.byte	0x33
 1416 00e2 24       		.byte	0x24
 1417 00e3 70       		.byte	0x70
 1418 00e4 04       		.sleb128 4
 1419 00e5 06       		.byte	0x6
 1420 00e6 22       		.byte	0x22
ARM GAS  /tmp/ccEsEOdh.s 			page 26


 1421 00e7 06       		.byte	0x6
 1422 00e8 08       		.byte	0x8
 1423 00e9 F0       		.byte	0xf0
 1424 00ea 1A       		.byte	0x1a
 1425 00eb 34       		.byte	0x34
 1426 00ec 25       		.byte	0x25
 1427 00ed 71       		.byte	0x71
 1428 00ee 00       		.sleb128 0
 1429 00ef 33       		.byte	0x33
 1430 00f0 1A       		.byte	0x1a
 1431 00f1 32       		.byte	0x32
 1432 00f2 24       		.byte	0x24
 1433 00f3 24       		.byte	0x24
 1434 00f4 9F       		.byte	0x9f
 1435 00f5 00000000 		.4byte	0
 1436 00f9 00000000 		.4byte	0
 1437              	.LLST5:
 1438 00fd 00000000 		.4byte	.LVL12
 1439 0101 0C000000 		.4byte	.LVL14
 1440 0105 0100     		.2byte	0x1
 1441 0107 50       		.byte	0x50
 1442 0108 0C000000 		.4byte	.LVL14
 1443 010c 2C000000 		.4byte	.LFE60
 1444 0110 0400     		.2byte	0x4
 1445 0112 F3       		.byte	0xf3
 1446 0113 01       		.uleb128 0x1
 1447 0114 50       		.byte	0x50
 1448 0115 9F       		.byte	0x9f
 1449 0116 00000000 		.4byte	0
 1450 011a 00000000 		.4byte	0
 1451              	.LLST6:
 1452 011e 00000000 		.4byte	.LVL12
 1453 0122 06000000 		.4byte	.LVL13
 1454 0126 0100     		.2byte	0x1
 1455 0128 51       		.byte	0x51
 1456 0129 06000000 		.4byte	.LVL13
 1457 012d 2C000000 		.4byte	.LFE60
 1458 0131 0400     		.2byte	0x4
 1459 0133 F3       		.byte	0xf3
 1460 0134 01       		.uleb128 0x1
 1461 0135 51       		.byte	0x51
 1462 0136 9F       		.byte	0x9f
 1463 0137 00000000 		.4byte	0
 1464 013b 00000000 		.4byte	0
 1465              	.LLST7:
 1466 013f 00000000 		.4byte	.LVL15
 1467 0143 0A000000 		.4byte	.LVL16
 1468 0147 0100     		.2byte	0x1
 1469 0149 50       		.byte	0x50
 1470 014a 0A000000 		.4byte	.LVL16
 1471 014e 0E000000 		.4byte	.LVL17
 1472 0152 0100     		.2byte	0x1
 1473 0154 55       		.byte	0x55
 1474 0155 0E000000 		.4byte	.LVL17
 1475 0159 13000000 		.4byte	.LVL18-1
 1476 015d 0100     		.2byte	0x1
 1477 015f 50       		.byte	0x50
ARM GAS  /tmp/ccEsEOdh.s 			page 27


 1478 0160 13000000 		.4byte	.LVL18-1
 1479 0164 26000000 		.4byte	.LVL20
 1480 0168 0100     		.2byte	0x1
 1481 016a 55       		.byte	0x55
 1482 016b 26000000 		.4byte	.LVL20
 1483 016f 2B000000 		.4byte	.LVL22-1
 1484 0173 0100     		.2byte	0x1
 1485 0175 50       		.byte	0x50
 1486 0176 2B000000 		.4byte	.LVL22-1
 1487 017a 32000000 		.4byte	.LVL23
 1488 017e 0100     		.2byte	0x1
 1489 0180 55       		.byte	0x55
 1490 0181 32000000 		.4byte	.LVL23
 1491 0185 35000000 		.4byte	.LVL24-1
 1492 0189 0100     		.2byte	0x1
 1493 018b 50       		.byte	0x50
 1494 018c 35000000 		.4byte	.LVL24-1
 1495 0190 38000000 		.4byte	.LFE57
 1496 0194 0100     		.2byte	0x1
 1497 0196 55       		.byte	0x55
 1498 0197 00000000 		.4byte	0
 1499 019b 00000000 		.4byte	0
 1500              	.LLST8:
 1501 019f 0A000000 		.4byte	.LVL16
 1502 01a3 0E000000 		.4byte	.LVL17
 1503 01a7 0200     		.2byte	0x2
 1504 01a9 30       		.byte	0x30
 1505 01aa 9F       		.byte	0x9f
 1506 01ab 0E000000 		.4byte	.LVL17
 1507 01af 13000000 		.4byte	.LVL18-1
 1508 01b3 0100     		.2byte	0x1
 1509 01b5 51       		.byte	0x51
 1510 01b6 13000000 		.4byte	.LVL18-1
 1511 01ba 14000000 		.4byte	.LVL18
 1512 01be 0300     		.2byte	0x3
 1513 01c0 74       		.byte	0x74
 1514 01c1 7F       		.sleb128 -1
 1515 01c2 9F       		.byte	0x9f
 1516 01c3 14000000 		.4byte	.LVL18
 1517 01c7 28000000 		.4byte	.LVL21
 1518 01cb 0100     		.2byte	0x1
 1519 01cd 54       		.byte	0x54
 1520 01ce 28000000 		.4byte	.LVL21
 1521 01d2 2B000000 		.4byte	.LVL22-1
 1522 01d6 0100     		.2byte	0x1
 1523 01d8 51       		.byte	0x51
 1524 01d9 2B000000 		.4byte	.LVL22-1
 1525 01dd 2C000000 		.4byte	.LVL22
 1526 01e1 0300     		.2byte	0x3
 1527 01e3 74       		.byte	0x74
 1528 01e4 7F       		.sleb128 -1
 1529 01e5 9F       		.byte	0x9f
 1530 01e6 2C000000 		.4byte	.LVL22
 1531 01ea 32000000 		.4byte	.LVL23
 1532 01ee 0100     		.2byte	0x1
 1533 01f0 54       		.byte	0x54
 1534 01f1 00000000 		.4byte	0
ARM GAS  /tmp/ccEsEOdh.s 			page 28


 1535 01f5 00000000 		.4byte	0
 1536              		.section	.debug_aranges,"",%progbits
 1537 0000 3C000000 		.4byte	0x3c
 1538 0004 0200     		.2byte	0x2
 1539 0006 00000000 		.4byte	.Ldebug_info0
 1540 000a 04       		.byte	0x4
 1541 000b 00       		.byte	0
 1542 000c 0000     		.2byte	0
 1543 000e 0000     		.2byte	0
 1544 0010 00000000 		.4byte	.LFB56
 1545 0014 0C000000 		.4byte	.LFE56-.LFB56
 1546 0018 00000000 		.4byte	.LFB58
 1547 001c 24000000 		.4byte	.LFE58-.LFB58
 1548 0020 00000000 		.4byte	.LFB59
 1549 0024 98000000 		.4byte	.LFE59-.LFB59
 1550 0028 00000000 		.4byte	.LFB60
 1551 002c 2C000000 		.4byte	.LFE60-.LFB60
 1552 0030 00000000 		.4byte	.LFB57
 1553 0034 38000000 		.4byte	.LFE57-.LFB57
 1554 0038 00000000 		.4byte	0
 1555 003c 00000000 		.4byte	0
 1556              		.section	.debug_ranges,"",%progbits
 1557              	.Ldebug_ranges0:
 1558 0000 00000000 		.4byte	.LFB56
 1559 0004 0C000000 		.4byte	.LFE56
 1560 0008 00000000 		.4byte	.LFB58
 1561 000c 24000000 		.4byte	.LFE58
 1562 0010 00000000 		.4byte	.LFB59
 1563 0014 98000000 		.4byte	.LFE59
 1564 0018 00000000 		.4byte	.LFB60
 1565 001c 2C000000 		.4byte	.LFE60
 1566 0020 00000000 		.4byte	.LFB57
 1567 0024 38000000 		.4byte	.LFE57
 1568 0028 00000000 		.4byte	0
 1569 002c 00000000 		.4byte	0
 1570              		.section	.debug_line,"",%progbits
 1571              	.Ldebug_line0:
 1572 0000 C0010000 		.section	.debug_str,"MS",%progbits,1
 1572      02002601 
 1572      00000201 
 1572      FB0E0D00 
 1572      01010101 
 1573              	.LASF52:
 1574 0000 2E2E2F6F 		.ascii	"../os/hal/platforms/STM32/ext_lld.c\000"
 1574      732F6861 
 1574      6C2F706C 
 1574      6174666F 
 1574      726D732F 
 1575              	.LASF24:
 1576 0024 4146494F 		.ascii	"AFIO_TypeDef\000"
 1576      5F547970 
 1576      65446566 
 1576      00
 1577              	.LASF29:
 1578 0031 45585444 		.ascii	"EXTDriver\000"
 1578      72697665 
 1578      7200
ARM GAS  /tmp/ccEsEOdh.s 			page 29


 1579              	.LASF42:
 1580 003b 6368616E 		.ascii	"channel\000"
 1580      6E656C00 
 1581              	.LASF38:
 1582 0043 6578745F 		.ascii	"ext_lld_init\000"
 1582      6C6C645F 
 1582      696E6974 
 1582      00
 1583              	.LASF30:
 1584 0050 73746174 		.ascii	"state\000"
 1584      6500
 1585              	.LASF28:
 1586 0056 65787473 		.ascii	"extstate_t\000"
 1586      74617465 
 1586      5F7400
 1587              	.LASF35:
 1588 0061 45585443 		.ascii	"EXTChannelConfig\000"
 1588      68616E6E 
 1588      656C436F 
 1588      6E666967 
 1588      00
 1589              	.LASF25:
 1590 0072 4558545F 		.ascii	"EXT_UNINIT\000"
 1590      554E494E 
 1590      495400
 1591              	.LASF6:
 1592 007d 5F5F696E 		.ascii	"__int32_t\000"
 1592      7433325F 
 1592      7400
 1593              	.LASF20:
 1594 0087 4D415052 		.ascii	"MAPR\000"
 1594      00
 1595              	.LASF22:
 1596 008c 52455345 		.ascii	"RESERVED0\000"
 1596      52564544 
 1596      3000
 1597              	.LASF53:
 1598 0096 2F686F6D 		.ascii	"/home/dltech-deb/gdrive/Projects/RFM_to_Modbus_TCP/"
 1598      652F646C 
 1598      74656368 
 1598      2D646562 
 1598      2F676472 
 1599 00c9 43686962 		.ascii	"ChibiOS/F103_ChibiOS_ENC60J28/main\000"
 1599      694F532F 
 1599      46313033 
 1599      5F436869 
 1599      62694F53 
 1600              	.LASF32:
 1601 00ec 65787063 		.ascii	"expchannel_t\000"
 1601      68616E6E 
 1601      656C5F74 
 1601      00
 1602              	.LASF49:
 1603 00f9 6578745F 		.ascii	"ext_lld_exti_irq_disable\000"
 1603      6C6C645F 
 1603      65787469 
 1603      5F697271 
ARM GAS  /tmp/ccEsEOdh.s 			page 30


 1603      5F646973 
 1604              	.LASF33:
 1605 0112 65787463 		.ascii	"extcallback_t\000"
 1605      616C6C62 
 1605      61636B5F 
 1605      7400
 1606              	.LASF50:
 1607 0120 6578745F 		.ascii	"ext_lld_exti_irq_enable\000"
 1607      6C6C645F 
 1607      65787469 
 1607      5F697271 
 1607      5F656E61 
 1608              	.LASF45:
 1609 0138 6578745F 		.ascii	"ext_lld_channel_disable\000"
 1609      6C6C645F 
 1609      6368616E 
 1609      6E656C5F 
 1609      64697361 
 1610              	.LASF10:
 1611 0150 6C6F6E67 		.ascii	"long long unsigned int\000"
 1611      206C6F6E 
 1611      6720756E 
 1611      7369676E 
 1611      65642069 
 1612              	.LASF2:
 1613 0167 756E7369 		.ascii	"unsigned char\000"
 1613      676E6564 
 1613      20636861 
 1613      7200
 1614              	.LASF8:
 1615 0175 6C6F6E67 		.ascii	"long unsigned int\000"
 1615      20756E73 
 1615      69676E65 
 1615      6420696E 
 1615      7400
 1616              	.LASF4:
 1617 0187 73686F72 		.ascii	"short unsigned int\000"
 1617      7420756E 
 1617      7369676E 
 1617      65642069 
 1617      6E7400
 1618              	.LASF18:
 1619 019a 45585449 		.ascii	"EXTI_TypeDef\000"
 1619      5F547970 
 1619      65446566 
 1619      00
 1620              	.LASF47:
 1621 01a7 49544D5F 		.ascii	"ITM_RxBuffer\000"
 1621      52784275 
 1621      66666572 
 1621      00
 1622              	.LASF15:
 1623 01b4 52545352 		.ascii	"RTSR\000"
 1623      00
 1624              	.LASF31:
 1625 01b9 636F6E66 		.ascii	"config\000"
 1625      696700
ARM GAS  /tmp/ccEsEOdh.s 			page 31


 1626              	.LASF7:
 1627 01c0 5F5F7569 		.ascii	"__uint32_t\000"
 1627      6E743332 
 1627      5F7400
 1628              	.LASF40:
 1629 01cb 6578745F 		.ascii	"ext_lld_channel_enable\000"
 1629      6C6C645F 
 1629      6368616E 
 1629      6E656C5F 
 1629      656E6162 
 1630              	.LASF39:
 1631 01e2 6578745F 		.ascii	"ext_lld_stop\000"
 1631      6C6C645F 
 1631      73746F70 
 1631      00
 1632              	.LASF21:
 1633 01ef 45585449 		.ascii	"EXTICR\000"
 1633      435200
 1634              	.LASF27:
 1635 01f6 4558545F 		.ascii	"EXT_ACTIVE\000"
 1635      41435449 
 1635      564500
 1636              	.LASF0:
 1637 0201 756E7369 		.ascii	"unsigned int\000"
 1637      676E6564 
 1637      20696E74 
 1637      00
 1638              	.LASF41:
 1639 020e 65787470 		.ascii	"extp\000"
 1639      00
 1640              	.LASF37:
 1641 0213 45585443 		.ascii	"EXTConfig\000"
 1641      6F6E6669 
 1641      6700
 1642              	.LASF34:
 1643 021d 6D6F6465 		.ascii	"mode\000"
 1643      00
 1644              	.LASF51:
 1645 0222 474E5520 		.ascii	"GNU C 4.8.4 20141219 (release) -mcpu=cortex-m3 -mno"
 1645      4320342E 
 1645      382E3420 
 1645      32303134 
 1645      31323139 
 1646 0255 2D746875 		.ascii	"-thumb-interwork -mthumb -ggdb -O2 -fomit-frame-poi"
 1646      6D622D69 
 1646      6E746572 
 1646      776F726B 
 1646      202D6D74 
 1647 0288 6E746572 		.ascii	"nter -falign-functions=16 -ffunction-sections -fdat"
 1647      202D6661 
 1647      6C69676E 
 1647      2D66756E 
 1647      6374696F 
 1648 02bb 612D7365 		.ascii	"a-sections -fno-common -fno-strict-aliasing\000"
 1648      6374696F 
 1648      6E73202D 
 1648      666E6F2D 
ARM GAS  /tmp/ccEsEOdh.s 			page 32


 1648      636F6D6D 
 1649              	.LASF11:
 1650 02e7 696E7433 		.ascii	"int32_t\000"
 1650      325F7400 
 1651              	.LASF14:
 1652 02ef 73697A65 		.ascii	"sizetype\000"
 1652      74797065 
 1652      00
 1653              	.LASF9:
 1654 02f8 6C6F6E67 		.ascii	"long long int\000"
 1654      206C6F6E 
 1654      6720696E 
 1654      7400
 1655              	.LASF43:
 1656 0306 6D61736B 		.ascii	"mask\000"
 1656      00
 1657              	.LASF36:
 1658 030b 6368616E 		.ascii	"channels\000"
 1658      6E656C73 
 1658      00
 1659              	.LASF44:
 1660 0314 706F7274 		.ascii	"port\000"
 1660      00
 1661              	.LASF48:
 1662 0319 45585444 		.ascii	"EXTD1\000"
 1662      3100
 1663              	.LASF3:
 1664 031f 73686F72 		.ascii	"short int\000"
 1664      7420696E 
 1664      7400
 1665              	.LASF54:
 1666 0329 6578744F 		.ascii	"extObjectInit\000"
 1666      626A6563 
 1666      74496E69 
 1666      7400
 1667              	.LASF23:
 1668 0337 4D415052 		.ascii	"MAPR2\000"
 1668      3200
 1669              	.LASF16:
 1670 033d 46545352 		.ascii	"FTSR\000"
 1670      00
 1671              	.LASF5:
 1672 0342 6C6F6E67 		.ascii	"long int\000"
 1672      20696E74 
 1672      00
 1673              	.LASF19:
 1674 034b 45564352 		.ascii	"EVCR\000"
 1674      00
 1675              	.LASF1:
 1676 0350 7369676E 		.ascii	"signed char\000"
 1676      65642063 
 1676      68617200 
 1677              	.LASF12:
 1678 035c 75696E74 		.ascii	"uint32_t\000"
 1678      33325F74 
 1678      00
 1679              	.LASF13:
ARM GAS  /tmp/ccEsEOdh.s 			page 33


 1680 0365 5F426F6F 		.ascii	"_Bool\000"
 1680      6C00
 1681              	.LASF17:
 1682 036b 53574945 		.ascii	"SWIER\000"
 1682      5200
 1683              	.LASF46:
 1684 0371 6578745F 		.ascii	"ext_lld_start\000"
 1684      6C6C645F 
 1684      73746172 
 1684      7400
 1685              	.LASF26:
 1686 037f 4558545F 		.ascii	"EXT_STOP\000"
 1686      53544F50 
 1686      00
 1687              		.ident	"GCC: (4.8.4-1+11-1) 4.8.4 20141219 (release)"
ARM GAS  /tmp/ccEsEOdh.s 			page 34


DEFINED SYMBOLS
                            *ABS*:0000000000000000 ext_lld.c
     /tmp/ccEsEOdh.s:19     .text.ext_lld_init:0000000000000000 $t
     /tmp/ccEsEOdh.s:25     .text.ext_lld_init:0000000000000000 ext_lld_init
     /tmp/ccEsEOdh.s:40     .text.ext_lld_init:0000000000000008 $d
     /tmp/ccEsEOdh.s:45     .text.ext_lld_stop:0000000000000000 $t
     /tmp/ccEsEOdh.s:51     .text.ext_lld_stop:0000000000000000 ext_lld_stop
     /tmp/ccEsEOdh.s:89     .text.ext_lld_stop:0000000000000020 $d
     /tmp/ccEsEOdh.s:94     .text.ext_lld_channel_enable:0000000000000000 $t
     /tmp/ccEsEOdh.s:100    .text.ext_lld_channel_enable:0000000000000000 ext_lld_channel_enable
     /tmp/ccEsEOdh.s:209    .text.ext_lld_channel_enable:0000000000000094 $d
     /tmp/ccEsEOdh.s:214    .text.ext_lld_channel_disable:0000000000000000 $t
     /tmp/ccEsEOdh.s:220    .text.ext_lld_channel_disable:0000000000000000 ext_lld_channel_disable
     /tmp/ccEsEOdh.s:256    .text.ext_lld_channel_disable:0000000000000028 $d
     /tmp/ccEsEOdh.s:261    .text.ext_lld_start:0000000000000000 $t
     /tmp/ccEsEOdh.s:267    .text.ext_lld_start:0000000000000000 ext_lld_start
     /tmp/ccEsEOdh.s:343    .bss.EXTD1:0000000000000000 EXTD1
     /tmp/ccEsEOdh.s:339    .bss.EXTD1:0000000000000000 $d
                     .debug_frame:0000000000000010 $d
     /tmp/ccEsEOdh.s:44     .text.ext_lld_init:000000000000000c $t
     /tmp/ccEsEOdh.s:93     .text.ext_lld_stop:0000000000000024 $t
     /tmp/ccEsEOdh.s:213    .text.ext_lld_channel_enable:0000000000000098 $t
     /tmp/ccEsEOdh.s:260    .text.ext_lld_channel_disable:000000000000002c $t

UNDEFINED SYMBOLS
extObjectInit
ext_lld_exti_irq_disable
ext_lld_exti_irq_enable
