ARM GAS  /tmp/ccYVmQBc.s 			page 1


   1              		.syntax unified
   2              		.cpu cortex-m3
   3              		.fpu softvfp
   4              		.eabi_attribute 20, 1
   5              		.eabi_attribute 21, 1
   6              		.eabi_attribute 23, 3
   7              		.eabi_attribute 24, 1
   8              		.eabi_attribute 25, 1
   9              		.eabi_attribute 26, 1
  10              		.eabi_attribute 30, 2
  11              		.eabi_attribute 34, 1
  12              		.eabi_attribute 18, 4
  13              		.thumb
  14              		.file	"hal.c"
  15              		.text
  16              	.Ltext0:
  17              		.cfi_sections	.debug_frame
  18              		.section	.text.halInit,"ax",%progbits
  19              		.align	2
  20              		.p2align 4,,15
  21              		.global	halInit
  22              		.thumb
  23              		.thumb_func
  24              		.type	halInit, %function
  25              	halInit:
  26              	.LFB56:
  27              		.file 1 "../os/hal/src/hal.c"
  28              		.loc 1 68 0
  29              		.cfi_startproc
  30              		@ args = 0, pretend = 0, frame = 0
  31              		@ frame_needed = 0, uses_anonymous_args = 0
  32 0000 08B5     		push	{r3, lr}
  33              		.cfi_def_cfa_offset 8
  34              		.cfi_offset 3, -8
  35              		.cfi_offset 14, -4
  36              		.loc 1 70 0
  37 0002 FFF7FEFF 		bl	hal_lld_init
  38              	.LVL0:
  39              		.loc 1 73 0
  40 0006 FFF7FEFF 		bl	tmInit
  41              	.LVL1:
  42              		.loc 1 76 0
  43 000a 0648     		ldr	r0, .L2
  44 000c FFF7FEFF 		bl	_pal_lld_init
  45              	.LVL2:
  46              		.loc 1 85 0
  47 0010 FFF7FEFF 		bl	extInit
  48              	.LVL3:
  49              		.loc 1 109 0
  50 0014 FFF7FEFF 		bl	spiInit
  51              	.LVL4:
  52              		.loc 1 112 0
  53 0018 FFF7FEFF 		bl	uartInit
  54              	.LVL5:
  55              		.loc 1 128 0
  56 001c BDE80840 		pop	{r3, lr}
  57              		.loc 1 127 0
ARM GAS  /tmp/ccYVmQBc.s 			page 2


  58 0020 FFF7FEBF 		b	boardInit
  59              	.LVL6:
  60              	.L3:
  61              		.align	2
  62              	.L2:
  63 0024 00000000 		.word	pal_default_config
  64              		.cfi_endproc
  65              	.LFE56:
  66              		.size	halInit, .-halInit
  67 0028 AFF30080 		.section	.text.halIsCounterWithin,"ax",%progbits
  67      AFF30080 
  68              		.align	2
  69              		.p2align 4,,15
  70              		.global	halIsCounterWithin
  71              		.thumb
  72              		.thumb_func
  73              		.type	halIsCounterWithin, %function
  74              	halIsCounterWithin:
  75              	.LFB57:
  76              		.loc 1 174 0
  77              		.cfi_startproc
  78              		@ args = 0, pretend = 0, frame = 0
  79              		@ frame_needed = 0, uses_anonymous_args = 0
  80              		@ link register save eliminated.
  81              	.LVL7:
  82              		.loc 1 175 0
  83 0000 084B     		ldr	r3, .L13
  84              		.loc 1 177 0
  85 0002 8142     		cmp	r1, r0
  86              		.loc 1 175 0
  87 0004 5B68     		ldr	r3, [r3, #4]
  88              	.LVL8:
  89              		.loc 1 177 0
  90 0006 06D9     		bls	.L5
  91              		.loc 1 177 0 is_stmt 0 discriminator 1
  92 0008 8342     		cmp	r3, r0
  93 000a 08D3     		bcc	.L9
  94              	.L11:
  95 000c 8B42     		cmp	r3, r1
  96 000e 2CBF     		ite	cs
  97 0010 0020     		movcs	r0, #0
  98              	.LVL9:
  99 0012 0120     		movcc	r0, #1
 100 0014 7047     		bx	lr
 101              	.LVL10:
 102              	.L5:
 103              		.loc 1 178 0 is_stmt 1
 104 0016 8342     		cmp	r3, r0
 105 0018 F8D3     		bcc	.L11
 106 001a 0120     		movs	r0, #1
 107              	.LVL11:
 108              		.loc 1 179 0
 109 001c 7047     		bx	lr
 110              	.LVL12:
 111              	.L9:
 112 001e 0020     		movs	r0, #0
 113              	.LVL13:
ARM GAS  /tmp/ccYVmQBc.s 			page 3


 114 0020 7047     		bx	lr
 115              	.L14:
 116 0022 00BF     		.align	2
 117              	.L13:
 118 0024 001000E0 		.word	-536866816
 119              		.cfi_endproc
 120              	.LFE57:
 121              		.size	halIsCounterWithin, .-halIsCounterWithin
 122 0028 AFF30080 		.section	.text.halPolledDelay,"ax",%progbits
 122      AFF30080 
 123              		.align	2
 124              		.p2align 4,,15
 125              		.global	halPolledDelay
 126              		.thumb
 127              		.thumb_func
 128              		.type	halPolledDelay, %function
 129              	halPolledDelay:
 130              	.LFB58:
 131              		.loc 1 193 0
 132              		.cfi_startproc
 133              		@ args = 0, pretend = 0, frame = 0
 134              		@ frame_needed = 0, uses_anonymous_args = 0
 135              		@ link register save eliminated.
 136              	.LVL14:
 137              		.loc 1 194 0
 138 0000 0C49     		ldr	r1, .L26
 139 0002 4A68     		ldr	r2, [r1, #4]
 140              	.LVL15:
 141              		.loc 1 195 0
 142 0004 1044     		add	r0, r0, r2
 143              	.LVL16:
 144              	.L21:
 145              	.LBB4:
 146              	.LBB5:
 147              		.loc 1 177 0 discriminator 1
 148 0006 8242     		cmp	r2, r0
 149              		.loc 1 175 0 discriminator 1
 150 0008 4B68     		ldr	r3, [r1, #4]
 151              	.LVL17:
 152              		.loc 1 177 0 discriminator 1
 153 000a 0CD2     		bcs	.L16
 154              		.loc 1 177 0 is_stmt 0
 155 000c 9A42     		cmp	r2, r3
 156 000e 03D9     		bls	.L24
 157 0010 0023     		movs	r3, #0
 158              	.LVL18:
 159              	.LBE5:
 160              	.LBE4:
 161              		.loc 1 196 0 is_stmt 1
 162 0012 002B     		cmp	r3, #0
 163 0014 F7D1     		bne	.L21
 164              	.L25:
 165              		.loc 1 198 0
 166 0016 7047     		bx	lr
 167              	.LVL19:
 168              	.L24:
 169 0018 9842     		cmp	r0, r3
ARM GAS  /tmp/ccYVmQBc.s 			page 4


 170 001a 94BF     		ite	ls
 171 001c 0023     		movls	r3, #0
 172              	.LVL20:
 173 001e 0123     		movhi	r3, #1
 174              		.loc 1 196 0
 175 0020 002B     		cmp	r3, #0
 176 0022 F0D1     		bne	.L21
 177 0024 F7E7     		b	.L25
 178              	.LVL21:
 179              	.L16:
 180              	.LBB7:
 181              	.LBB6:
 182              		.loc 1 178 0
 183 0026 9A42     		cmp	r2, r3
 184 0028 F6D8     		bhi	.L24
 185 002a 0123     		movs	r3, #1
 186              	.LVL22:
 187              	.LBE6:
 188              	.LBE7:
 189              		.loc 1 196 0
 190 002c 002B     		cmp	r3, #0
 191 002e EAD1     		bne	.L21
 192 0030 F1E7     		b	.L25
 193              	.L27:
 194 0032 00BF     		.align	2
 195              	.L26:
 196 0034 001000E0 		.word	-536866816
 197              		.cfi_endproc
 198              	.LFE58:
 199              		.size	halPolledDelay, .-halPolledDelay
 200 0038 AFF30080 		.text
 200      AFF30080 
 201              	.Letext0:
 202              		.file 2 "/usr/include/newlib/machine/_default_types.h"
 203              		.file 3 "/usr/include/newlib/stdint.h"
 204              		.file 4 "../os/ports/GCC/ARMCMx/chtypes.h"
 205              		.file 5 "../os/ports/common/ARMCMx/nvic.h"
 206              		.file 6 "../os/hal/platforms/STM32F1xx/hal_lld.h"
 207              		.file 7 "../os/hal/platforms/STM32/GPIOv1/pal_lld.h"
 208              		.file 8 "../os/ports/common/ARMCMx/CMSIS/include/core_cm3.h"
 209              		.file 9 "../os/hal/include/tm.h"
 210              		.file 10 "../os/hal/include/ext.h"
 211              		.file 11 "../os/hal/include/spi.h"
 212              		.file 12 "../os/hal/include/uart.h"
 213              		.file 13 "../conf/board.h"