ARM GAS  /tmp/ccFw5iuQ.s 			page 1


   1              		.syntax unified
   2              		.cpu cortex-m3
   3              		.fpu softvfp
   4              		.eabi_attribute 20, 1
   5              		.eabi_attribute 21, 1
   6              		.eabi_attribute 23, 3
   7              		.eabi_attribute 24, 1
   8              		.eabi_attribute 25, 1
   9              		.eabi_attribute 26, 1
  10              		.eabi_attribute 30, 2
  11              		.eabi_attribute 34, 1
  12              		.eabi_attribute 18, 4
  13              		.thumb
  14              		.file	"hal_lld.c"
  15              		.text
  16              	.Ltext0:
  17              		.cfi_sections	.debug_frame
  18              		.section	.text.hal_lld_init,"ax",%progbits
  19              		.align	2
  20              		.p2align 4,,15
  21              		.global	hal_lld_init
  22              		.thumb
  23              		.thumb_func
  24              		.type	hal_lld_init, %function
  25              	hal_lld_init:
  26              	.LFB57:
  27              		.file 1 "../os/hal/platforms/STM32F1xx/hal_lld.c"
  28              		.loc 1 99 0
  29              		.cfi_startproc
  30              		@ args = 0, pretend = 0, frame = 0
  31              		@ frame_needed = 0, uses_anonymous_args = 0
  32              		@ link register save eliminated.
  33 0000 F0B4     		push	{r4, r5, r6, r7}
  34              		.cfi_def_cfa_offset 16
  35              		.cfi_offset 4, -16
  36              		.cfi_offset 5, -12
  37              		.cfi_offset 6, -8
  38              		.cfi_offset 7, -4
  39              		.loc 1 102 0
  40 0002 154B     		ldr	r3, .L2
  41 0004 0021     		movs	r1, #0
  42              		.loc 1 106 0
  43 0006 154A     		ldr	r2, .L2+4
  44              		.loc 1 102 0
  45 0008 4FF0FF34 		mov	r4, #-1
  46 000c 1869     		ldr	r0, [r3, #16]
  47              		.loc 1 106 0
  48 000e 45F6BF56 		movw	r6, #23999
  49              		.loc 1 102 0
  50 0012 1C61     		str	r4, [r3, #16]
  51              		.loc 1 113 0
  52 0014 1248     		ldr	r0, .L2+8
  53              		.loc 1 102 0
  54 0016 1961     		str	r1, [r3, #16]
  55              		.loc 1 108 0
  56 0018 0725     		movs	r5, #7
  57              		.loc 1 103 0
ARM GAS  /tmp/ccFw5iuQ.s 			page 2


  58 001a DF68     		ldr	r7, [r3, #12]
  59 001c DC60     		str	r4, [r3, #12]
  60 001e D960     		str	r1, [r3, #12]
  61              		.loc 1 106 0
  62 0020 5660     		str	r6, [r2, #4]
  63              		.loc 1 107 0
  64 0022 9160     		str	r1, [r2, #8]
  65              		.loc 1 108 0
  66 0024 1560     		str	r5, [r2]
  67              		.loc 1 113 0
  68 0026 C268     		ldr	r2, [r0, #12]
  69              		.loc 1 114 0
  70 0028 0E49     		ldr	r1, .L2+12
  71              		.loc 1 113 0
  72 002a 42F08072 		orr	r2, r2, #16777216
  73 002e C260     		str	r2, [r0, #12]
  74              		.loc 1 114 0
  75 0030 0868     		ldr	r0, [r1]
  76              	.LBB4:
  77              	.LBB5:
  78              		.loc 1 52 0
  79 0032 0D4A     		ldr	r2, .L2+16
  80              	.LBE5:
  81              	.LBE4:
  82              		.loc 1 114 0
  83 0034 40F00100 		orr	r0, r0, #1
  84 0038 0860     		str	r0, [r1]
  85              		.loc 1 117 0
  86 003a D969     		ldr	r1, [r3, #28]
  87 003c 41F08051 		orr	r1, r1, #268435456
  88 0040 D961     		str	r1, [r3, #28]
  89              		.loc 1 118 0
  90 0042 D969     		ldr	r1, [r3, #28]
  91 0044 41F00061 		orr	r1, r1, #134217728
  92 0048 D961     		str	r1, [r3, #28]
  93              	.LBB7:
  94              	.LBB6:
  95              		.loc 1 52 0
  96 004a 1368     		ldr	r3, [r2]
  97 004c 43F48073 		orr	r3, r3, #256
  98 0050 1360     		str	r3, [r2]
  99              	.LBE6:
 100              	.LBE7:
 101              		.loc 1 131 0
 102 0052 F0BC     		pop	{r4, r5, r6, r7}
 103              		.loc 1 124 0
 104 0054 FFF7FEBF 		b	dmaInit
 105              	.LVL0:
 106              	.L3:
 107              		.align	2
 108              	.L2:
 109 0058 00100240 		.word	1073876992
 110 005c 10E000E0 		.word	-536813552
 111 0060 F0ED00E0 		.word	-536810000
 112 0064 001000E0 		.word	-536866816
 113 0068 00700040 		.word	1073770496
 114              		.cfi_endproc
ARM GAS  /tmp/ccFw5iuQ.s 			page 3


 115              	.LFE57:
 116              		.size	hal_lld_init, .-hal_lld_init
 117 006c AFF30080 		.section	.text.stm32_clock_init,"ax",%progbits
 118              		.align	2
 119              		.p2align 4,,15
 120              		.global	stm32_clock_init
 121              		.thumb
 122              		.thumb_func
 123              		.type	stm32_clock_init, %function
 124              	stm32_clock_init:
 125              	.LFB58:
 126              		.loc 1 147 0
 127              		.cfi_startproc
 128              		@ args = 0, pretend = 0, frame = 0
 129              		@ frame_needed = 0, uses_anonymous_args = 0
 130              		@ link register save eliminated.
 131              		.loc 1 152 0
 132 0000 204B     		ldr	r3, .L16
 133 0002 1A68     		ldr	r2, [r3]
 134              		.loc 1 153 0
 135 0004 1946     		mov	r1, r3
 136              		.loc 1 152 0
 137 0006 42F00102 		orr	r2, r2, #1
 138 000a 1A60     		str	r2, [r3]
 139              	.L6:
 140              		.loc 1 153 0 discriminator 1
 141 000c 0B68     		ldr	r3, [r1]
 142 000e 1D4A     		ldr	r2, .L16
 143 0010 9B07     		lsls	r3, r3, #30
 144 0012 FBD5     		bpl	.L6
 145              		.loc 1 159 0
 146 0014 5368     		ldr	r3, [r2, #4]
 147              		.loc 1 161 0
 148 0016 1146     		mov	r1, r2
 149              		.loc 1 159 0
 150 0018 23F00303 		bic	r3, r3, #3
 151 001c 5360     		str	r3, [r2, #4]
 152              		.loc 1 160 0
 153 001e 5368     		ldr	r3, [r2, #4]
 154 0020 5360     		str	r3, [r2, #4]
 155              	.L8:
 156              		.loc 1 161 0 discriminator 1
 157 0022 4B68     		ldr	r3, [r1, #4]
 158 0024 174A     		ldr	r2, .L16
 159 0026 13F00C03 		ands	r3, r3, #12
 160 002a FAD1     		bne	.L8
 161              		.loc 1 165 0
 162 002c 1068     		ldr	r0, [r2]
 163              		.loc 1 175 0
 164 002e 1146     		mov	r1, r2
 165              		.loc 1 165 0
 166 0030 00F0F900 		and	r0, r0, #249
 167 0034 1060     		str	r0, [r2]
 168              		.loc 1 166 0
 169 0036 5360     		str	r3, [r2, #4]
 170              		.loc 1 174 0
 171 0038 1368     		ldr	r3, [r2]
ARM GAS  /tmp/ccFw5iuQ.s 			page 4


 172 003a 43F48033 		orr	r3, r3, #65536
 173 003e 1360     		str	r3, [r2]
 174              	.L10:
 175              		.loc 1 175 0 discriminator 1
 176 0040 0B68     		ldr	r3, [r1]
 177 0042 104A     		ldr	r2, .L16
 178 0044 9803     		lsls	r0, r3, #14
 179 0046 FBD5     		bpl	.L10
 180              		.loc 1 188 0
 181 0048 5368     		ldr	r3, [r2, #4]
 182              		.loc 1 190 0
 183 004a 1146     		mov	r1, r2
 184              		.loc 1 188 0
 185 004c 43F4A023 		orr	r3, r3, #327680
 186 0050 5360     		str	r3, [r2, #4]
 187              		.loc 1 189 0
 188 0052 1368     		ldr	r3, [r2]
 189 0054 43F08073 		orr	r3, r3, #16777216
 190 0058 1360     		str	r3, [r2]
 191              	.L12:
 192              		.loc 1 190 0 discriminator 1
 193 005a 0B68     		ldr	r3, [r1]
 194 005c 094A     		ldr	r2, .L16
 195 005e 9B01     		lsls	r3, r3, #6
 196 0060 FBD5     		bpl	.L12
 197              		.loc 1 206 0
 198 0062 094B     		ldr	r3, .L16+4
 199              		.loc 1 196 0
 200 0064 0948     		ldr	r0, .L16+8
 201              		.loc 1 206 0
 202 0066 1021     		movs	r1, #16
 203              		.loc 1 196 0
 204 0068 5060     		str	r0, [r2, #4]
 205              		.loc 1 206 0
 206 006a 1960     		str	r1, [r3]
 207              		.loc 1 211 0
 208 006c 5368     		ldr	r3, [r2, #4]
 209              		.loc 1 212 0
 210 006e 1146     		mov	r1, r2
 211              		.loc 1 211 0
 212 0070 43F00203 		orr	r3, r3, #2
 213 0074 5360     		str	r3, [r2, #4]
 214              	.L14:
 215              		.loc 1 212 0 discriminator 1
 216 0076 4B68     		ldr	r3, [r1, #4]
 217 0078 03F00C03 		and	r3, r3, #12
 218 007c 082B     		cmp	r3, #8
 219 007e FAD1     		bne	.L14
 220              		.loc 1 220 0
 221 0080 7047     		bx	lr
 222              	.L17:
 223 0082 00BF     		.align	2
 224              	.L16:
 225 0084 00100240 		.word	1073876992
 226 0088 00200240 		.word	1073881088
 227 008c 00840500 		.word	361472
 228              		.cfi_endproc
ARM GAS  /tmp/ccFw5iuQ.s 			page 5


 229              	.LFE58:
 230              		.size	stm32_clock_init, .-stm32_clock_init
 231              		.text
 232              	.Letext0:
 233              		.file 2 "/usr/include/newlib/machine/_default_types.h"
 234              		.file 3 "/usr/include/newlib/stdint.h"
 235              		.file 4 "../os/ports/common/ARMCMx/nvic.h"
 236              		.file 5 "../os/ports/common/ARMCMx/CMSIS/include/core_cm3.h"
 237              		.file 6 "../os/hal/platforms/STM32F1xx/stm32f10x.h"
 238              		.file 7 "../os/hal/platforms/STM32F1xx/stm32_dma.h"