ARM GAS  /tmp/ccnZJr6X.s 			page 1


   1              		.syntax unified
   2              		.cpu cortex-m3
   3              		.fpu softvfp
   4              		.eabi_attribute 20, 1
   5              		.eabi_attribute 21, 1
   6              		.eabi_attribute 23, 3
   7              		.eabi_attribute 24, 1
   8              		.eabi_attribute 25, 1
   9              		.eabi_attribute 26, 1
  10              		.eabi_attribute 30, 2
  11              		.eabi_attribute 34, 1
  12              		.eabi_attribute 18, 4
  13              		.thumb
  14              		.file	"pal.c"
  15              		.text
  16              	.Ltext0:
  17              		.cfi_sections	.debug_frame
  18              		.section	.text.palReadBus,"ax",%progbits
  19              		.align	2
  20              		.p2align 4,,15
  21              		.global	palReadBus
  22              		.thumb
  23              		.thumb_func
  24              		.type	palReadBus, %function
  25              	palReadBus:
  26              	.LFB56:
  27              		.file 1 "../os/hal/src/pal.c"
  28              		.loc 1 77 0
  29              		.cfi_startproc
  30              		@ args = 0, pretend = 0, frame = 0
  31              		@ frame_needed = 0, uses_anonymous_args = 0
  32              		@ link register save eliminated.
  33              	.LVL0:
  34              		.loc 1 82 0
  35 0000 0368     		ldr	r3, [r0]
  36 0002 8268     		ldr	r2, [r0, #8]
  37 0004 9968     		ldr	r1, [r3, #8]
  38 0006 4368     		ldr	r3, [r0, #4]
  39 0008 21FA02F0 		lsr	r0, r1, r2
  40              	.LVL1:
  41              		.loc 1 83 0
  42 000c 1840     		ands	r0, r0, r3
  43 000e 7047     		bx	lr
  44              		.cfi_endproc
  45              	.LFE56:
  46              		.size	palReadBus, .-palReadBus
  47              		.section	.text.palWriteBus,"ax",%progbits
  48              		.align	2
  49              		.p2align 4,,15
  50              		.global	palWriteBus
  51              		.thumb
  52              		.thumb_func
  53              		.type	palWriteBus, %function
  54              	palWriteBus:
  55              	.LFB57:
  56              		.loc 1 103 0
  57              		.cfi_startproc
ARM GAS  /tmp/ccnZJr6X.s 			page 2


  58              		@ args = 0, pretend = 0, frame = 0
  59              		@ frame_needed = 0, uses_anonymous_args = 0
  60              		@ link register save eliminated.
  61              	.LVL2:
  62 0000 30B4     		push	{r4, r5}
  63              		.cfi_def_cfa_offset 8
  64              		.cfi_offset 4, -8
  65              		.cfi_offset 5, -4
  66              		.loc 1 108 0
  67 0002 4268     		ldr	r2, [r0, #4]
  68 0004 8368     		ldr	r3, [r0, #8]
  69 0006 22EA0105 		bic	r5, r2, r1
  70 000a 03F11004 		add	r4, r3, #16
  71 000e 0A40     		ands	r2, r2, r1
  72 0010 02FA03F3 		lsl	r3, r2, r3
  73 0014 05FA04F2 		lsl	r2, r5, r4
  74 0018 0068     		ldr	r0, [r0]
  75              	.LVL3:
  76 001a 1343     		orrs	r3, r3, r2
  77 001c 0361     		str	r3, [r0, #16]
  78              		.loc 1 109 0
  79 001e 30BC     		pop	{r4, r5}
  80 0020 7047     		bx	lr
  81              		.cfi_endproc
  82              	.LFE57:
  83              		.size	palWriteBus, .-palWriteBus
  84 0022 00BFAFF3 		.section	.text.palSetBusMode,"ax",%progbits
  84      0080AFF3 
  84      0080AFF3 
  84      0080
  85              		.align	2
  86              		.p2align 4,,15
  87              		.global	palSetBusMode
  88              		.thumb
  89              		.thumb_func
  90              		.type	palSetBusMode, %function
  91              	palSetBusMode:
  92              	.LFB58:
  93              		.loc 1 127 0
  94              		.cfi_startproc
  95              		@ args = 0, pretend = 0, frame = 0
  96              		@ frame_needed = 0, uses_anonymous_args = 0
  97              		@ link register save eliminated.
  98              	.LVL4:
  99 0000 10B4     		push	{r4}
 100              		.cfi_def_cfa_offset 4
 101              		.cfi_offset 4, -4
 102              		.loc 1 132 0
 103 0002 4468     		ldr	r4, [r0, #4]
 104 0004 8368     		ldr	r3, [r0, #8]
 105              		.loc 1 127 0
 106 0006 0A46     		mov	r2, r1
 107              		.loc 1 132 0
 108 0008 0068     		ldr	r0, [r0]
 109              	.LVL5:
 110 000a 04FA03F1 		lsl	r1, r4, r3
 111              	.LVL6:
ARM GAS  /tmp/ccnZJr6X.s 			page 3


 112              		.loc 1 133 0
 113 000e 5DF8044B 		ldr	r4, [sp], #4
 114              		.loc 1 132 0
 115 0012 FFF7FEBF 		b	_pal_lld_setgroupmode
 116              	.LVL7:
 117              		.cfi_endproc
 118              	.LFE58:
 119              		.size	palSetBusMode, .-palSetBusMode
 120 0016 00BFAFF3 		.text
 120      0080AFF3 
 120      0080
 121              	.Letext0:
 122              		.file 2 "/usr/include/newlib/machine/_default_types.h"
 123              		.file 3 "/usr/include/newlib/stdint.h"
 124              		.file 4 "../os/hal/platforms/STM32F1xx/stm32f10x.h"
 125              		.file 5 "../os/hal/platforms/STM32/GPIOv1/pal_lld.h"
 126              		.file 6 "../os/hal/include/pal.h"
 127              		.file 7 "../os/ports/common/ARMCMx/CMSIS/include/core_cm3.h"