ARM GAS  /tmp/ccroL3wm.s 			page 1


   1              		.syntax unified
   2              		.cpu cortex-m3
   3              		.fpu softvfp
   4              		.eabi_attribute 20, 1
   5              		.eabi_attribute 21, 1
   6              		.eabi_attribute 23, 3
   7              		.eabi_attribute 24, 1
   8              		.eabi_attribute 25, 1
   9              		.eabi_attribute 26, 1
  10              		.eabi_attribute 30, 2
  11              		.eabi_attribute 34, 1
  12              		.eabi_attribute 18, 4
  13              		.thumb
  14              		.file	"psock.c"
  15              		.text
  16              	.Ltext0:
  17              		.cfi_sections	.debug_frame
  18              		.section	.text.send_data,"ax",%progbits
  19              		.align	2
  20              		.p2align 4,,15
  21              		.thumb
  22              		.thumb_func
  23              		.type	send_data, %function
  24              	send_data:
  25              	.LFB3:
  26              		.file 1 "../uip/psock.c"
  27              		.loc 1 146 0
  28              		.cfi_startproc
  29              		@ args = 0, pretend = 0, frame = 0
  30              		@ frame_needed = 0, uses_anonymous_args = 0
  31              	.LVL0:
  32 0000 10B5     		push	{r4, lr}
  33              		.cfi_def_cfa_offset 8
  34              		.cfi_offset 4, -8
  35              		.cfi_offset 14, -4
  36              		.loc 1 147 0
  37 0002 90F82030 		ldrb	r3, [r0, #32]	@ zero_extendqisi2
  38              		.loc 1 146 0
  39 0006 0446     		mov	r4, r0
  40              		.loc 1 147 0
  41 0008 062B     		cmp	r3, #6
  42 000a 0ED0     		beq	.L10
  43              	.LVL1:
  44              	.L2:
  45              		.loc 1 148 0
  46 000c 0B4A     		ldr	r2, .L11
  47 000e 238A     		ldrh	r3, [r4, #16]
  48 0010 1268     		ldr	r2, [r2]
  49              		.loc 1 151 0
  50 0012 6068     		ldr	r0, [r4, #4]
  51              		.loc 1 148 0
  52 0014 518A     		ldrh	r1, [r2, #18]
  53 0016 8B42     		cmp	r3, r1
  54              		.loc 1 151 0
  55 0018 98BF     		it	ls
  56 001a 1946     		movls	r1, r3
  57 001c FFF7FEFF 		bl	uip_send
ARM GAS  /tmp/ccroL3wm.s 			page 2


  58              	.LVL2:
  59              		.loc 1 153 0
  60 0020 0623     		movs	r3, #6
  61 0022 84F82030 		strb	r3, [r4, #32]
  62              		.loc 1 154 0
  63 0026 0120     		movs	r0, #1
  64              		.loc 1 157 0
  65 0028 10BD     		pop	{r4, pc}
  66              	.LVL3:
  67              	.L10:
  68              		.loc 1 147 0 discriminator 1
  69 002a 054B     		ldr	r3, .L11+4
  70 002c 1B78     		ldrb	r3, [r3]	@ zero_extendqisi2
  71 002e 03F00403 		and	r3, r3, #4
  72 0032 03F0FF00 		and	r0, r3, #255
  73              	.LVL4:
  74 0036 002B     		cmp	r3, #0
  75 0038 E8D1     		bne	.L2
  76              		.loc 1 157 0
  77 003a 10BD     		pop	{r4, pc}
  78              	.LVL5:
  79              	.L12:
  80              		.align	2
  81              	.L11:
  82 003c 00000000 		.word	uip_conn
  83 0040 00000000 		.word	uip_flags
  84              		.cfi_endproc
  85              	.LFE3:
  86              		.size	send_data, .-send_data
  87 0044 AFF30080 		.section	.text.data_acked,"ax",%progbits
  87      AFF30080 
  87      AFF30080 
  88              		.align	2
  89              		.p2align 4,,15
  90              		.thumb
  91              		.thumb_func
  92              		.type	data_acked, %function
  93              	data_acked:
  94              	.LFB4:
  95              		.loc 1 161 0
  96              		.cfi_startproc
  97              		@ args = 0, pretend = 0, frame = 0
  98              		@ frame_needed = 0, uses_anonymous_args = 0
  99              		@ link register save eliminated.
 100              	.LVL6:
 101              		.loc 1 162 0
 102 0000 90F82030 		ldrb	r3, [r0, #32]	@ zero_extendqisi2
 103 0004 062B     		cmp	r3, #6
 104 0006 01D0     		beq	.L19
 105              		.loc 1 173 0
 106 0008 0020     		movs	r0, #0
 107              	.LVL7:
 108 000a 7047     		bx	lr
 109              	.LVL8:
 110              	.L19:
 111              		.loc 1 162 0 discriminator 1
 112 000c 104B     		ldr	r3, .L21
ARM GAS  /tmp/ccroL3wm.s 			page 3


 113 000e 1B78     		ldrb	r3, [r3]	@ zero_extendqisi2
 114 0010 13F00103 		ands	r3, r3, #1
 115 0014 1AD0     		beq	.L18
 116              	.LVL9:
 117              	.LBB20:
 118              	.LBB21:
 119              		.loc 1 163 0
 120 0016 0F4A     		ldr	r2, .L21+4
 121 0018 038A     		ldrh	r3, [r0, #16]
 122 001a 1268     		ldr	r2, [r2]
 123 001c 518A     		ldrh	r1, [r2, #18]
 124 001e 8B42     		cmp	r3, r1
 125 0020 09D8     		bhi	.L20
 126              		.loc 1 167 0
 127 0022 4268     		ldr	r2, [r0, #4]
 128              		.loc 1 168 0
 129 0024 0021     		movs	r1, #0
 130              		.loc 1 167 0
 131 0026 1344     		add	r3, r3, r2
 132 0028 4360     		str	r3, [r0, #4]
 133              		.loc 1 170 0
 134 002a 0123     		movs	r3, #1
 135              		.loc 1 168 0
 136 002c 0182     		strh	r1, [r0, #16]	@ movhi
 137              		.loc 1 170 0
 138 002e 80F82030 		strb	r3, [r0, #32]
 139 0032 1846     		mov	r0, r3
 140              	.LVL10:
 141 0034 7047     		bx	lr
 142              	.LVL11:
 143              	.L20:
 144              		.loc 1 164 0
 145 0036 5B1A     		subs	r3, r3, r1
 146 0038 0382     		strh	r3, [r0, #16]	@ movhi
 147              		.loc 1 165 0
 148 003a 528A     		ldrh	r2, [r2, #18]
 149 003c 4368     		ldr	r3, [r0, #4]
 150 003e 1344     		add	r3, r3, r2
 151 0040 4360     		str	r3, [r0, #4]
 152              		.loc 1 170 0
 153 0042 0123     		movs	r3, #1
 154 0044 80F82030 		strb	r3, [r0, #32]
 155 0048 1846     		mov	r0, r3
 156              	.LVL12:
 157 004a 7047     		bx	lr
 158              	.LVL13:
 159              	.L18:
 160              	.LBE21:
 161              	.LBE20:
 162              		.loc 1 173 0
 163 004c 1846     		mov	r0, r3
 164              	.LVL14:
 165              		.loc 1 174 0
 166 004e 7047     		bx	lr
 167              	.L22:
 168              		.align	2
 169              	.L21:
ARM GAS  /tmp/ccroL3wm.s 			page 4


 170 0050 00000000 		.word	uip_flags
 171 0054 00000000 		.word	uip_conn
 172              		.cfi_endproc
 173              	.LFE4:
 174              		.size	data_acked, .-data_acked
 175 0058 AFF30080 		.section	.text.psock_send,"ax",%progbits
 175      AFF30080 
 176              		.align	2
 177              		.p2align 4,,15
 178              		.global	psock_send
 179              		.thumb
 180              		.thumb_func
 181              		.type	psock_send, %function
 182              	psock_send:
 183              	.LFB5:
 184              		.loc 1 178 0
 185              		.cfi_startproc
 186              		@ args = 0, pretend = 0, frame = 0
 187              		@ frame_needed = 0, uses_anonymous_args = 0
 188              	.LVL15:
 189 0000 38B5     		push	{r3, r4, r5, lr}
 190              		.cfi_def_cfa_offset 16
 191              		.cfi_offset 3, -16
 192              		.cfi_offset 4, -12
 193              		.cfi_offset 5, -8
 194              		.cfi_offset 14, -4
 195              	.LBB22:
 196              		.loc 1 179 0
 197 0002 4388     		ldrh	r3, [r0, #2]
 198              	.LBE22:
 199              		.loc 1 178 0
 200 0004 0446     		mov	r4, r0
 201              	.LBB23:
 202              		.loc 1 179 0
 203 0006 A3B1     		cbz	r3, .L25
 204 0008 CF2B     		cmp	r3, #207
 205 000a 0ED1     		bne	.L24
 206              	.LVL16:
 207              	.L26:
 208              		.loc 1 207 0 discriminator 1
 209 000c 2046     		mov	r0, r4
 210 000e FFF7FEFF 		bl	data_acked
 211              	.LVL17:
 212 0012 0546     		mov	r5, r0
 213 0014 2046     		mov	r0, r4
 214 0016 FFF7FEFF 		bl	send_data
 215              	.LVL18:
 216 001a 2840     		ands	r0, r0, r5
 217 001c 10F0FF00 		ands	r0, r0, #255
 218 0020 06D0     		beq	.L28
 219 0022 228A     		ldrh	r2, [r4, #16]
 220              		.loc 1 195 0
 221 0024 6AB9     		cbnz	r2, .L30
 222              	.L36:
 223              		.loc 1 210 0
 224 0026 84F82020 		strb	r2, [r4, #32]
 225              	.L24:
ARM GAS  /tmp/ccroL3wm.s 			page 5


 226              	.LVL19:
 227              		.loc 1 212 0
 228 002a 0023     		movs	r3, #0
 229 002c 6380     		strh	r3, [r4, #2]	@ movhi
 230 002e 0220     		movs	r0, #2
 231              	.LVL20:
 232              	.L28:
 233              	.LBE23:
 234              		.loc 1 213 0
 235 0030 38BD     		pop	{r3, r4, r5, pc}
 236              	.LVL21:
 237              	.L25:
 238              	.LBB24:
 239              		.loc 1 182 0
 240 0032 4AB1     		cbz	r2, .L35
 241              		.loc 1 189 0
 242 0034 92B2     		uxth	r2, r2
 243              	.LVL22:
 244 0036 0282     		strh	r2, [r0, #16]	@ movhi
 245              		.loc 1 188 0
 246 0038 4160     		str	r1, [r0, #4]
 247              		.loc 1 191 0
 248 003a 80F82030 		strb	r3, [r0, #32]
 249              		.loc 1 195 0
 250 003e 002A     		cmp	r2, #0
 251 0040 F1D0     		beq	.L36
 252              	.LVL23:
 253              	.L30:
 254              		.loc 1 207 0
 255 0042 CF23     		movs	r3, #207
 256 0044 6380     		strh	r3, [r4, #2]	@ movhi
 257 0046 E1E7     		b	.L26
 258              	.LVL24:
 259              	.L35:
 260              		.loc 1 183 0
 261 0048 4280     		strh	r2, [r0, #2]	@ movhi
 262 004a 0120     		movs	r0, #1
 263              	.LVL25:
 264 004c 38BD     		pop	{r3, r4, r5, pc}
 265              	.LBE24:
 266              		.cfi_endproc
 267              	.LFE5:
 268              		.size	psock_send, .-psock_send
 269 004e 00BF     		.section	.text.psock_generator_send,"ax",%progbits
 270              		.align	2
 271              		.p2align 4,,15
 272              		.global	psock_generator_send
 273              		.thumb
 274              		.thumb_func
 275              		.type	psock_generator_send, %function
 276              	psock_generator_send:
 277              	.LFB6:
 278              		.loc 1 217 0
 279              		.cfi_startproc
 280              		@ args = 0, pretend = 0, frame = 0
 281              		@ frame_needed = 0, uses_anonymous_args = 0
 282              	.LVL26:
ARM GAS  /tmp/ccroL3wm.s 			page 6


 283 0000 F8B5     		push	{r3, r4, r5, r6, r7, lr}
 284              		.cfi_def_cfa_offset 24
 285              		.cfi_offset 3, -24
 286              		.cfi_offset 4, -20
 287              		.cfi_offset 5, -16
 288              		.cfi_offset 6, -12
 289              		.cfi_offset 7, -8
 290              		.cfi_offset 14, -4
 291              	.LBB25:
 292              		.loc 1 218 0
 293 0002 4588     		ldrh	r5, [r0, #2]
 294              	.LBE25:
 295              		.loc 1 217 0
 296 0004 0446     		mov	r4, r0
 297 0006 0E46     		mov	r6, r1
 298 0008 1746     		mov	r7, r2
 299              	.LBB26:
 300              		.loc 1 218 0
 301 000a 2DB1     		cbz	r5, .L39
 302 000c EE2D     		cmp	r5, #238
 303 000e 14D0     		beq	.L40
 304              	.LVL27:
 305              	.L38:
 306              		.loc 1 243 0
 307 0010 0023     		movs	r3, #0
 308 0012 6380     		strh	r3, [r4, #2]	@ movhi
 309 0014 0220     		movs	r0, #2
 310              	.LVL28:
 311              	.L42:
 312              	.LBE26:
 313              		.loc 1 244 0
 314 0016 F8BD     		pop	{r3, r4, r5, r6, r7, pc}
 315              	.LVL29:
 316              	.L39:
 317              	.LBB27:
 318              		.loc 1 221 0
 319 0018 01B3     		cbz	r1, .L52
 320              		.loc 1 227 0
 321 001a 1046     		mov	r0, r2
 322              	.LVL30:
 323 001c 8847     		blx	r1
 324              	.LVL31:
 325              		.loc 1 228 0
 326 001e 114B     		ldr	r3, .L53
 327              		.loc 1 227 0
 328 0020 2082     		strh	r0, [r4, #16]	@ movhi
 329              		.loc 1 228 0
 330 0022 1B68     		ldr	r3, [r3]
 331              		.loc 1 230 0
 332 0024 84F82050 		strb	r5, [r4, #32]
 333              		.loc 1 228 0
 334 0028 6360     		str	r3, [r4, #4]
 335              	.L44:
 336              		.loc 1 234 0
 337 002a 0F4B     		ldr	r3, .L53+4
 338 002c 1B78     		ldrb	r3, [r3]	@ zero_extendqisi2
 339 002e 5B07     		lsls	r3, r3, #29
ARM GAS  /tmp/ccroL3wm.s 			page 7


 340 0030 01D5     		bpl	.L43
 341              		.loc 1 235 0
 342 0032 3846     		mov	r0, r7
 343 0034 B047     		blx	r6
 344              	.LVL32:
 345              	.L43:
 346              		.loc 1 238 0
 347 0036 EE23     		movs	r3, #238
 348 0038 6380     		strh	r3, [r4, #2]	@ movhi
 349              	.L40:
 350              		.loc 1 238 0 is_stmt 0 discriminator 1
 351 003a 2046     		mov	r0, r4
 352 003c FFF7FEFF 		bl	data_acked
 353              	.LVL33:
 354 0040 0546     		mov	r5, r0
 355 0042 2046     		mov	r0, r4
 356 0044 FFF7FEFF 		bl	send_data
 357              	.LVL34:
 358 0048 2840     		ands	r0, r0, r5
 359 004a 10F0FF00 		ands	r0, r0, #255
 360 004e E2D0     		beq	.L42
 361              		.loc 1 239 0 is_stmt 1
 362 0050 238A     		ldrh	r3, [r4, #16]
 363 0052 002B     		cmp	r3, #0
 364 0054 E9D1     		bne	.L44
 365              		.loc 1 241 0
 366 0056 84F82030 		strb	r3, [r4, #32]
 367 005a D9E7     		b	.L38
 368              	.LVL35:
 369              	.L52:
 370              		.loc 1 222 0
 371 005c 6180     		strh	r1, [r4, #2]	@ movhi
 372 005e 0120     		movs	r0, #1
 373              	.LVL36:
 374 0060 F8BD     		pop	{r3, r4, r5, r6, r7, pc}
 375              	.LVL37:
 376              	.L54:
 377 0062 00BF     		.align	2
 378              	.L53:
 379 0064 00000000 		.word	uip_appdata
 380 0068 00000000 		.word	uip_flags
 381              	.LBE27:
 382              		.cfi_endproc
 383              	.LFE6:
 384              		.size	psock_generator_send, .-psock_generator_send
 385 006c AFF30080 		.section	.text.psock_datalen,"ax",%progbits
 386              		.align	2
 387              		.p2align 4,,15
 388              		.global	psock_datalen
 389              		.thumb
 390              		.thumb_func
 391              		.type	psock_datalen, %function
 392              	psock_datalen:
 393              	.LFB7:
 394              		.loc 1 248 0
 395              		.cfi_startproc
 396              		@ args = 0, pretend = 0, frame = 0
ARM GAS  /tmp/ccroL3wm.s 			page 8


 397              		@ frame_needed = 0, uses_anonymous_args = 0
 398              		@ link register save eliminated.
 399              	.LVL38:
 400              		.loc 1 249 0
 401 0000 C269     		ldr	r2, [r0, #28]
 402 0002 038B     		ldrh	r3, [r0, #24]
 403 0004 D01A     		subs	r0, r2, r3
 404              	.LVL39:
 405              		.loc 1 250 0
 406 0006 80B2     		uxth	r0, r0
 407 0008 7047     		bx	lr
 408              		.cfi_endproc
 409              	.LFE7:
 410              		.size	psock_datalen, .-psock_datalen
 411 000a 00BFAFF3 		.section	.text.psock_newdata,"ax",%progbits
 411      0080
 412              		.align	2
 413              		.p2align 4,,15
 414              		.global	psock_newdata
 415              		.thumb
 416              		.thumb_func
 417              		.type	psock_newdata, %function
 418              	psock_newdata:
 419              	.LFB8:
 420              		.loc 1 254 0
 421              		.cfi_startproc
 422              		@ args = 0, pretend = 0, frame = 0
 423              		@ frame_needed = 0, uses_anonymous_args = 0
 424              		@ link register save eliminated.
 425              	.LVL40:
 426              		.loc 1 254 0
 427 0000 0346     		mov	r3, r0
 428              		.loc 1 255 0
 429 0002 408A     		ldrh	r0, [r0, #18]
 430              	.LVL41:
 431 0004 40B9     		cbnz	r0, .L59
 432              		.loc 1 259 0
 433 0006 93F82020 		ldrb	r2, [r3, #32]	@ zero_extendqisi2
 434 000a 022A     		cmp	r2, #2
 435 000c 06D0     		beq	.L60
 436              	.LVL42:
 437              	.LBB30:
 438              	.LBB31:
 439              		.loc 1 263 0
 440 000e 054B     		ldr	r3, .L61
 441              	.LVL43:
 442 0010 1878     		ldrb	r0, [r3]	@ zero_extendqisi2
 443              		.loc 1 265 0
 444 0012 C0F34000 		ubfx	r0, r0, #1, #1
 445 0016 7047     		bx	lr
 446              	.LVL44:
 447              	.L59:
 448              	.LBE31:
 449              	.LBE30:
 450              		.loc 1 258 0
 451 0018 0120     		movs	r0, #1
 452              		.loc 1 270 0
ARM GAS  /tmp/ccroL3wm.s 			page 9


 453 001a 7047     		bx	lr
 454              	.L60:
 455              		.loc 1 261 0
 456 001c 0322     		movs	r2, #3
 457 001e 83F82020 		strb	r2, [r3, #32]
 458              		.loc 1 262 0
 459 0022 7047     		bx	lr
 460              	.L62:
 461              		.align	2
 462              	.L61:
 463 0024 00000000 		.word	uip_flags
 464              		.cfi_endproc
 465              	.LFE8:
 466              		.size	psock_newdata, .-psock_newdata
 467 0028 AFF30080 		.section	.text.psock_readto,"ax",%progbits
 467      AFF30080 
 468              		.align	2
 469              		.p2align 4,,15
 470              		.global	psock_readto
 471              		.thumb
 472              		.thumb_func
 473              		.type	psock_readto, %function
 474              	psock_readto:
 475              	.LFB9:
 476              		.loc 1 273 0
 477              		.cfi_startproc
 478              		@ args = 0, pretend = 0, frame = 0
 479              		@ frame_needed = 0, uses_anonymous_args = 0
 480              		@ link register save eliminated.
 481              	.LVL45:
 482 0000 70B4     		push	{r4, r5, r6}
 483              		.cfi_def_cfa_offset 12
 484              		.cfi_offset 4, -12
 485              		.cfi_offset 5, -8
 486              		.cfi_offset 6, -4
 487              	.LBB43:
 488              		.loc 1 274 0
 489 0002 4388     		ldrh	r3, [r0, #2]
 490 0004 002B     		cmp	r3, #0
 491 0006 2FD0     		beq	.L65
 492 0008 40F21B12 		movw	r2, #283
 493 000c 9342     		cmp	r3, r2
 494 000e 26D1     		bne	.L64
 495              	.LVL46:
 496              	.LBB44:
 497              	.LBB45:
 498              		.loc 1 255 0
 499 0010 438A     		ldrh	r3, [r0, #18]
 500 0012 002B     		cmp	r3, #0
 501 0014 32D0     		beq	.L68
 502              	.L67:
 503              	.LBE45:
 504              	.LBE44:
 505              		.loc 1 285 0
 506 0016 2C4A     		ldr	r2, .L91
 507              		.loc 1 286 0
 508 0018 2C4B     		ldr	r3, .L91+4
ARM GAS  /tmp/ccroL3wm.s 			page 10


 509              		.loc 1 285 0
 510 001a 1268     		ldr	r2, [r2]
 511              		.loc 1 286 0
 512 001c 1B88     		ldrh	r3, [r3]
 513              		.loc 1 284 0
 514 001e 0224     		movs	r4, #2
 515              		.loc 1 285 0
 516 0020 8260     		str	r2, [r0, #8]
 517              		.loc 1 286 0
 518 0022 4382     		strh	r3, [r0, #18]	@ movhi
 519              		.loc 1 284 0
 520 0024 80F82040 		strb	r4, [r0, #32]
 521              	.LVL47:
 522              	.L69:
 523 0028 028B     		ldrh	r2, [r0, #24]
 524              	.L73:
 525              	.LBB50:
 526              	.LBB51:
 527              		.loc 1 115 0
 528 002a 002A     		cmp	r2, #0
 529 002c 37D0     		beq	.L74
 530 002e 13B3     		cbz	r3, .L80
 531              		.loc 1 116 0
 532 0030 8268     		ldr	r2, [r0, #8]
 533 0032 4369     		ldr	r3, [r0, #20]
 534 0034 1478     		ldrb	r4, [r2]	@ zero_extendqisi2
 535 0036 1C70     		strb	r4, [r3]
 536              	.LVL48:
 537              		.loc 1 119 0
 538 0038 438A     		ldrh	r3, [r0, #18]
 539              		.loc 1 120 0
 540 003a 028B     		ldrh	r2, [r0, #24]
 541              		.loc 1 117 0
 542 003c 8668     		ldr	r6, [r0, #8]
 543              		.loc 1 118 0
 544 003e 4569     		ldr	r5, [r0, #20]
 545              		.loc 1 119 0
 546 0040 013B     		subs	r3, r3, #1
 547              		.loc 1 120 0
 548 0042 013A     		subs	r2, r2, #1
 549              		.loc 1 119 0
 550 0044 9BB2     		uxth	r3, r3
 551              		.loc 1 120 0
 552 0046 92B2     		uxth	r2, r2
 553              		.loc 1 117 0
 554 0048 0136     		adds	r6, r6, #1
 555              		.loc 1 118 0
 556 004a 0135     		adds	r5, r5, #1
 557              		.loc 1 122 0
 558 004c A142     		cmp	r1, r4
 559              		.loc 1 119 0
 560 004e 4382     		strh	r3, [r0, #18]	@ movhi
 561              		.loc 1 120 0
 562 0050 0283     		strh	r2, [r0, #24]	@ movhi
 563              		.loc 1 117 0
 564 0052 8660     		str	r6, [r0, #8]
 565              		.loc 1 118 0
ARM GAS  /tmp/ccroL3wm.s 			page 11


 566 0054 4561     		str	r5, [r0, #20]
 567              		.loc 1 122 0
 568 0056 E8D1     		bne	.L73
 569              	.LVL49:
 570              	.L72:
 571              	.LBE51:
 572              	.LBE50:
 573              		.loc 1 292 0
 574 0058 838B     		ldrh	r3, [r0, #28]
 575 005a 9A42     		cmp	r2, r3
 576 005c 2DD0     		beq	.L89
 577              	.LVL50:
 578              	.L64:
 579              		.loc 1 296 0
 580 005e 0023     		movs	r3, #0
 581 0060 4380     		strh	r3, [r0, #2]	@ movhi
 582 0062 0220     		movs	r0, #2
 583              	.LVL51:
 584              	.L86:
 585              	.LBE43:
 586              		.loc 1 297 0
 587 0064 70BC     		pop	{r4, r5, r6}
 588 0066 7047     		bx	lr
 589              	.LVL52:
 590              	.L65:
 591              	.LBB58:
 592              		.loc 1 276 0
 593 0068 848B     		ldrh	r4, [r0, #28]
 594              	.LVL53:
 595              	.LBB53:
 596              	.LBB54:
 597              		.loc 1 78 0
 598 006a C268     		ldr	r2, [r0, #12]
 599 006c 438A     		ldrh	r3, [r0, #18]
 600              		.loc 1 79 0
 601 006e 0483     		strh	r4, [r0, #24]	@ movhi
 602              		.loc 1 78 0
 603 0070 4261     		str	r2, [r0, #20]
 604              	.LBE54:
 605              	.LBE53:
 606              		.loc 1 282 0
 607 0072 002B     		cmp	r3, #0
 608 0074 D8D1     		bne	.L69
 609              	.LVL54:
 610              	.L80:
 611              		.loc 1 283 0
 612 0076 40F21B13 		movw	r3, #283
 613 007a 4380     		strh	r3, [r0, #2]	@ movhi
 614              	.LVL55:
 615              	.L68:
 616              	.LBB55:
 617              	.LBB48:
 618              		.loc 1 259 0
 619 007c 90F82030 		ldrb	r3, [r0, #32]	@ zero_extendqisi2
 620 0080 022B     		cmp	r3, #2
 621 0082 08D0     		beq	.L90
 622              	.LVL56:
ARM GAS  /tmp/ccroL3wm.s 			page 12


 623              	.LBB46:
 624              	.LBB47:
 625              		.loc 1 263 0
 626 0084 124B     		ldr	r3, .L91+8
 627 0086 1B78     		ldrb	r3, [r3]	@ zero_extendqisi2
 628 0088 03F00203 		and	r3, r3, #2
 629              	.LBE47:
 630              	.LBE46:
 631              	.LBE48:
 632              	.LBE55:
 633              		.loc 1 283 0
 634 008c 002B     		cmp	r3, #0
 635 008e C2D1     		bne	.L67
 636              	.LVL57:
 637              	.L88:
 638 0090 0020     		movs	r0, #0
 639              	.LVL58:
 640              	.LBE58:
 641              		.loc 1 297 0
 642 0092 70BC     		pop	{r4, r5, r6}
 643 0094 7047     		bx	lr
 644              	.LVL59:
 645              	.L90:
 646              	.LBB59:
 647              	.LBB56:
 648              	.LBB49:
 649              		.loc 1 261 0
 650 0096 0323     		movs	r3, #3
 651 0098 80F82030 		strb	r3, [r0, #32]
 652 009c F8E7     		b	.L88
 653              	.LVL60:
 654              	.L74:
 655              	.LBE49:
 656              	.LBE56:
 657              	.LBB57:
 658              	.LBB52:
 659              		.loc 1 127 0
 660 009e 002B     		cmp	r3, #0
 661 00a0 E9D0     		beq	.L80
 662 00a2 8468     		ldr	r4, [r0, #8]
 663              	.L81:
 664              		.loc 1 132 0
 665 00a4 14F8015B 		ldrb	r5, [r4], #1	@ zero_extendqisi2
 666              	.LVL61:
 667              		.loc 1 133 0
 668 00a8 013B     		subs	r3, r3, #1
 669 00aa 9BB2     		uxth	r3, r3
 670              		.loc 1 136 0
 671 00ac A942     		cmp	r1, r5
 672              		.loc 1 133 0
 673 00ae 4382     		strh	r3, [r0, #18]	@ movhi
 674              	.LVL62:
 675              		.loc 1 134 0
 676 00b0 8460     		str	r4, [r0, #8]
 677              		.loc 1 136 0
 678 00b2 D1D0     		beq	.L72
 679              		.loc 1 131 0
ARM GAS  /tmp/ccroL3wm.s 			page 13


 680 00b4 002B     		cmp	r3, #0
 681 00b6 F5D1     		bne	.L81
 682 00b8 DDE7     		b	.L80
 683              	.LVL63:
 684              	.L89:
 685              	.LBE52:
 686              	.LBE57:
 687              		.loc 1 293 0
 688 00ba 0023     		movs	r3, #0
 689 00bc 80F82030 		strb	r3, [r0, #32]
 690              		.loc 1 294 0
 691 00c0 4380     		strh	r3, [r0, #2]	@ movhi
 692 00c2 1846     		mov	r0, r3
 693              	.LVL64:
 694 00c4 CEE7     		b	.L86
 695              	.L92:
 696 00c6 00BF     		.align	2
 697              	.L91:
 698 00c8 00000000 		.word	uip_appdata
 699 00cc 00000000 		.word	uip_len
 700 00d0 00000000 		.word	uip_flags
 701              	.LBE59:
 702              		.cfi_endproc
 703              	.LFE9:
 704              		.size	psock_readto, .-psock_readto
 705 00d4 AFF30080 		.section	.text.psock_readbuf,"ax",%progbits
 705      AFF30080 
 705      AFF30080 
 706              		.align	2
 707              		.p2align 4,,15
 708              		.global	psock_readbuf
 709              		.thumb
 710              		.thumb_func
 711              		.type	psock_readbuf, %function
 712              	psock_readbuf:
 713              	.LFB10:
 714              		.loc 1 300 0
 715              		.cfi_startproc
 716              		@ args = 0, pretend = 0, frame = 0
 717              		@ frame_needed = 0, uses_anonymous_args = 0
 718              	.LVL65:
 719 0000 38B5     		push	{r3, r4, r5, lr}
 720              		.cfi_def_cfa_offset 16
 721              		.cfi_offset 3, -16
 722              		.cfi_offset 4, -12
 723              		.cfi_offset 5, -8
 724              		.cfi_offset 14, -4
 725              	.LBB71:
 726              		.loc 1 301 0
 727 0002 4388     		ldrh	r3, [r0, #2]
 728              	.LBE71:
 729              		.loc 1 300 0
 730 0004 0446     		mov	r4, r0
 731              	.LBB90:
 732              		.loc 1 301 0
 733 0006 002B     		cmp	r3, #0
 734 0008 2CD0     		beq	.L95
ARM GAS  /tmp/ccroL3wm.s 			page 14


 735 000a B3F59B7F 		cmp	r3, #310
 736 000e 25D1     		bne	.L94
 737              	.LVL66:
 738              	.LBB72:
 739              	.LBB73:
 740              		.loc 1 255 0
 741 0010 438A     		ldrh	r3, [r0, #18]
 742 0012 002B     		cmp	r3, #0
 743 0014 41D0     		beq	.L98
 744              	.LVL67:
 745              	.L97:
 746              	.LBE73:
 747              	.LBE72:
 748              		.loc 1 311 0
 749 0016 3348     		ldr	r0, .L116
 750 0018 FFF7FEFF 		bl	puts
 751              	.LVL68:
 752              		.loc 1 313 0
 753 001c 324A     		ldr	r2, .L116+4
 754              		.loc 1 314 0
 755 001e 334B     		ldr	r3, .L116+8
 756              		.loc 1 313 0
 757 0020 1168     		ldr	r1, [r2]
 758              		.loc 1 314 0
 759 0022 1B88     		ldrh	r3, [r3]
 760              		.loc 1 312 0
 761 0024 0222     		movs	r2, #2
 762              		.loc 1 313 0
 763 0026 A160     		str	r1, [r4, #8]
 764              		.loc 1 314 0
 765 0028 6382     		strh	r3, [r4, #18]	@ movhi
 766              		.loc 1 312 0
 767 002a 84F82020 		strb	r2, [r4, #32]
 768              	.LVL69:
 769              	.L100:
 770              	.LBB78:
 771              	.LBB79:
 772              		.loc 1 86 0
 773 002e 228B     		ldrh	r2, [r4, #24]
 774 0030 9A42     		cmp	r2, r3
 775 0032 1FD8     		bhi	.L112
 776              		.loc 1 93 0
 777 0034 43D0     		beq	.L113
 778              		.loc 1 101 0
 779 0036 6069     		ldr	r0, [r4, #20]
 780 0038 FFF7FEFF 		bl	memcpy
 781              	.LVL70:
 782              		.loc 1 102 0
 783 003c 238B     		ldrh	r3, [r4, #24]
 784 003e 6169     		ldr	r1, [r4, #20]
 785              		.loc 1 103 0
 786 0040 658A     		ldrh	r5, [r4, #18]
 787              		.loc 1 104 0
 788 0042 A268     		ldr	r2, [r4, #8]
 789              		.loc 1 102 0
 790 0044 1944     		add	r1, r1, r3
 791              		.loc 1 103 0
ARM GAS  /tmp/ccroL3wm.s 			page 15


 792 0046 ED1A     		subs	r5, r5, r3
 793              		.loc 1 105 0
 794 0048 0020     		movs	r0, #0
 795              		.loc 1 104 0
 796 004a 1344     		add	r3, r3, r2
 797              		.loc 1 102 0
 798 004c 6161     		str	r1, [r4, #20]
 799              		.loc 1 103 0
 800 004e 6582     		strh	r5, [r4, #18]	@ movhi
 801              		.loc 1 104 0
 802 0050 A360     		str	r3, [r4, #8]
 803              		.loc 1 105 0
 804 0052 2083     		strh	r0, [r4, #24]	@ movhi
 805              	.L105:
 806              	.LVL71:
 807              	.LBE79:
 808              	.LBE78:
 809              	.LBB82:
 810              	.LBB83:
 811              		.loc 1 249 0
 812 0054 E369     		ldr	r3, [r4, #28]
 813              	.LBE83:
 814              	.LBE82:
 815              		.loc 1 320 0
 816 0056 98B2     		uxth	r0, r3
 817 0058 0028     		cmp	r0, #0
 818 005a 3FD0     		beq	.L114
 819              	.LVL72:
 820              	.L94:
 821              		.loc 1 324 0
 822 005c 0023     		movs	r3, #0
 823 005e 6380     		strh	r3, [r4, #2]	@ movhi
 824 0060 0220     		movs	r0, #2
 825 0062 38BD     		pop	{r3, r4, r5, pc}
 826              	.LVL73:
 827              	.L95:
 828              		.loc 1 303 0
 829 0064 818B     		ldrh	r1, [r0, #28]
 830              	.LVL74:
 831              	.LBB84:
 832              	.LBB85:
 833              		.loc 1 78 0
 834 0066 C268     		ldr	r2, [r0, #12]
 835 0068 438A     		ldrh	r3, [r0, #18]
 836              		.loc 1 79 0
 837 006a 0183     		strh	r1, [r0, #24]	@ movhi
 838              		.loc 1 78 0
 839 006c 4261     		str	r2, [r0, #20]
 840              	.LBE85:
 841              	.LBE84:
 842              		.loc 1 309 0
 843 006e 8BB1     		cbz	r3, .L99
 844 0070 8168     		ldr	r1, [r0, #8]
 845 0072 DCE7     		b	.L100
 846              	.LVL75:
 847              	.L112:
 848              	.LBB86:
ARM GAS  /tmp/ccroL3wm.s 			page 16


 849              	.LBB80:
 850              		.loc 1 87 0
 851 0074 1A46     		mov	r2, r3
 852 0076 6069     		ldr	r0, [r4, #20]
 853 0078 FFF7FEFF 		bl	memcpy
 854              	.LVL76:
 855              		.loc 1 88 0
 856 007c 638A     		ldrh	r3, [r4, #18]
 857 007e 6169     		ldr	r1, [r4, #20]
 858              		.loc 1 89 0
 859 0080 258B     		ldrh	r5, [r4, #24]
 860              		.loc 1 90 0
 861 0082 A268     		ldr	r2, [r4, #8]
 862              		.loc 1 88 0
 863 0084 1944     		add	r1, r1, r3
 864              		.loc 1 89 0
 865 0086 ED1A     		subs	r5, r5, r3
 866              		.loc 1 91 0
 867 0088 0020     		movs	r0, #0
 868              		.loc 1 90 0
 869 008a 1344     		add	r3, r3, r2
 870              		.loc 1 88 0
 871 008c 6161     		str	r1, [r4, #20]
 872              		.loc 1 89 0
 873 008e 2583     		strh	r5, [r4, #24]	@ movhi
 874              		.loc 1 90 0
 875 0090 A360     		str	r3, [r4, #8]
 876              		.loc 1 91 0
 877 0092 6082     		strh	r0, [r4, #18]	@ movhi
 878              	.LVL77:
 879              	.L99:
 880              	.LBE80:
 881              	.LBE86:
 882              		.loc 1 310 0
 883 0094 4FF49B73 		mov	r3, #310
 884 0098 6380     		strh	r3, [r4, #2]	@ movhi
 885              	.LVL78:
 886              	.L98:
 887              	.LBB87:
 888              	.LBB76:
 889              		.loc 1 259 0
 890 009a 94F82030 		ldrb	r3, [r4, #32]	@ zero_extendqisi2
 891 009e 022B     		cmp	r3, #2
 892 00a0 08D0     		beq	.L115
 893              	.LVL79:
 894              	.LBB74:
 895              	.LBB75:
 896              		.loc 1 263 0
 897 00a2 134B     		ldr	r3, .L116+12
 898 00a4 1B78     		ldrb	r3, [r3]	@ zero_extendqisi2
 899 00a6 03F00203 		and	r3, r3, #2
 900              	.LBE75:
 901              	.LBE74:
 902              	.LBE76:
 903              	.LBE87:
 904              		.loc 1 310 0
 905 00aa 03F0FF00 		and	r0, r3, #255
ARM GAS  /tmp/ccroL3wm.s 			page 17


 906 00ae 002B     		cmp	r3, #0
 907 00b0 B1D1     		bne	.L97
 908              	.LBE90:
 909              		.loc 1 325 0
 910 00b2 38BD     		pop	{r3, r4, r5, pc}
 911              	.LVL80:
 912              	.L115:
 913              	.LBB91:
 914              	.LBB88:
 915              	.LBB77:
 916              		.loc 1 261 0
 917 00b4 0323     		movs	r3, #3
 918 00b6 84F82030 		strb	r3, [r4, #32]
 919              	.LBE77:
 920              	.LBE88:
 921              		.loc 1 310 0
 922 00ba 0020     		movs	r0, #0
 923 00bc 38BD     		pop	{r3, r4, r5, pc}
 924              	.LVL81:
 925              	.L113:
 926              	.LBB89:
 927              	.LBB81:
 928              		.loc 1 94 0
 929 00be 1A46     		mov	r2, r3
 930 00c0 6069     		ldr	r0, [r4, #20]
 931 00c2 FFF7FEFF 		bl	memcpy
 932              	.LVL82:
 933              		.loc 1 95 0
 934 00c6 638A     		ldrh	r3, [r4, #18]
 935 00c8 6169     		ldr	r1, [r4, #20]
 936              		.loc 1 97 0
 937 00ca A268     		ldr	r2, [r4, #8]
 938              		.loc 1 95 0
 939 00cc 1944     		add	r1, r1, r3
 940              		.loc 1 97 0
 941 00ce 1A44     		add	r2, r2, r3
 942              		.loc 1 96 0
 943 00d0 0023     		movs	r3, #0
 944              		.loc 1 95 0
 945 00d2 6161     		str	r1, [r4, #20]
 946              		.loc 1 97 0
 947 00d4 A260     		str	r2, [r4, #8]
 948              		.loc 1 96 0
 949 00d6 2383     		strh	r3, [r4, #24]	@ movhi
 950              		.loc 1 98 0
 951 00d8 6382     		strh	r3, [r4, #18]	@ movhi
 952 00da BBE7     		b	.L105
 953              	.LVL83:
 954              	.L114:
 955              	.LBE81:
 956              	.LBE89:
 957              		.loc 1 321 0
 958 00dc 84F82000 		strb	r0, [r4, #32]
 959              		.loc 1 322 0
 960 00e0 6380     		strh	r3, [r4, #2]	@ movhi
 961 00e2 38BD     		pop	{r3, r4, r5, pc}
 962              	.LVL84:
ARM GAS  /tmp/ccroL3wm.s 			page 18


 963              	.L117:
 964              		.align	2
 965              	.L116:
 966 00e4 00000000 		.word	.LC0
 967 00e8 00000000 		.word	uip_appdata
 968 00ec 00000000 		.word	uip_len
 969 00f0 00000000 		.word	uip_flags
 970              	.LBE91:
 971              		.cfi_endproc
 972              	.LFE10:
 973              		.size	psock_readbuf, .-psock_readbuf
 974 00f4 AFF30080 		.section	.text.psock_init,"ax",%progbits
 974      AFF30080 
 974      AFF30080 
 975              		.align	2
 976              		.p2align 4,,15
 977              		.global	psock_init
 978              		.thumb
 979              		.thumb_func
 980              		.type	psock_init, %function
 981              	psock_init:
 982              	.LFB11:
 983              		.loc 1 329 0
 984              		.cfi_startproc
 985              		@ args = 0, pretend = 0, frame = 0
 986              		@ frame_needed = 0, uses_anonymous_args = 0
 987              		@ link register save eliminated.
 988              	.LVL85:
 989              		.loc 1 330 0
 990 0000 0023     		movs	r3, #0
 991              		.loc 1 332 0
 992 0002 C160     		str	r1, [r0, #12]
 993              	.LBB92:
 994              	.LBB93:
 995              		.loc 1 78 0
 996 0004 4161     		str	r1, [r0, #20]
 997              	.LBE93:
 998              	.LBE92:
 999              		.loc 1 333 0
 1000 0006 C261     		str	r2, [r0, #28]
 1001              	.LVL86:
 1002              		.loc 1 334 0
 1003 0008 0283     		strh	r2, [r0, #24]	@ movhi
 1004              		.loc 1 330 0
 1005 000a 80F82030 		strb	r3, [r0, #32]
 1006              		.loc 1 331 0
 1007 000e 4382     		strh	r3, [r0, #18]	@ movhi
 1008              		.loc 1 335 0
 1009 0010 0380     		strh	r3, [r0]	@ movhi
 1010              		.loc 1 336 0
 1011 0012 4380     		strh	r3, [r0, #2]	@ movhi
 1012 0014 7047     		bx	lr
 1013              		.cfi_endproc
 1014              	.LFE11:
 1015              		.size	psock_init, .-psock_init
 1016 0016 00BFAFF3 		.section	.rodata.str1.4,"aMS",%progbits,1
 1016      0080AFF3 
ARM GAS  /tmp/ccroL3wm.s 			page 19


 1016      0080
 1017              		.align	2
 1018              	.LC0:
 1019 0000 57616974 		.ascii	"Waited for newdata\000"
 1019      65642066 
 1019      6F72206E 
 1019      65776461 
 1019      746100
 1020 0013 00       		.text
 1021              	.Letext0:
 1022              		.file 2 "/usr/include/newlib/machine/_default_types.h"
 1023              		.file 3 "/usr/include/newlib/stdint.h"
 1024              		.file 4 "./modbus_tcp.h"
 1025              		.file 5 "./uip-conf.h"
 1026              		.file 6 "../uip/lc-switch.h"
 1027              		.file 7 "../uip/psock.h"
 1028              		.file 8 "../uip/pt.h"
 1029              		.file 9 "../uip/uip.h"
 1030              		.file 10 "<built-in>"
 1031              		.section	.debug_info,"",%progbits
 1032              	.Ldebug_info0:
 1033 0000 E3080000 		.4byte	0x8e3
 1034 0004 0400     		.2byte	0x4
 1035 0006 00000000 		.4byte	.Ldebug_abbrev0
 1036 000a 04       		.byte	0x4
 1037 000b 01       		.uleb128 0x1
 1038 000c 52020000 		.4byte	.LASF68
 1039 0010 01       		.byte	0x1
 1040 0011 F4010000 		.4byte	.LASF69
 1041 0015 F3000000 		.4byte	.LASF70
 1042 0019 F8000000 		.4byte	.Ldebug_ranges0+0xf8
 1043 001d 00000000 		.4byte	0
 1044 0021 00000000 		.4byte	.Ldebug_line0
 1045 0025 02       		.uleb128 0x2
 1046 0026 01       		.byte	0x1
 1047 0027 06       		.byte	0x6
 1048 0028 4B000000 		.4byte	.LASF0
 1049 002c 03       		.uleb128 0x3
 1050 002d 06000000 		.4byte	.LASF3
 1051 0031 02       		.byte	0x2
 1052 0032 1D       		.byte	0x1d
 1053 0033 37000000 		.4byte	0x37
 1054 0037 02       		.uleb128 0x2
 1055 0038 01       		.byte	0x1
 1056 0039 08       		.byte	0x8
 1057 003a 1F030000 		.4byte	.LASF1
 1058 003e 02       		.uleb128 0x2
 1059 003f 02       		.byte	0x2
 1060 0040 05       		.byte	0x5
 1061 0041 34030000 		.4byte	.LASF2
 1062 0045 03       		.uleb128 0x3
 1063 0046 66030000 		.4byte	.LASF4
 1064 004a 02       		.byte	0x2
 1065 004b 2B       		.byte	0x2b
 1066 004c 50000000 		.4byte	0x50
 1067 0050 02       		.uleb128 0x2
 1068 0051 02       		.byte	0x2
ARM GAS  /tmp/ccroL3wm.s 			page 20


 1069 0052 07       		.byte	0x7
 1070 0053 89010000 		.4byte	.LASF5
 1071 0057 02       		.uleb128 0x2
 1072 0058 04       		.byte	0x4
 1073 0059 05       		.byte	0x5
 1074 005a 78000000 		.4byte	.LASF6
 1075 005e 02       		.uleb128 0x2
 1076 005f 04       		.byte	0x4
 1077 0060 07       		.byte	0x7
 1078 0061 49010000 		.4byte	.LASF7
 1079 0065 02       		.uleb128 0x2
 1080 0066 08       		.byte	0x8
 1081 0067 05       		.byte	0x5
 1082 0068 3D000000 		.4byte	.LASF8
 1083 006c 02       		.uleb128 0x2
 1084 006d 08       		.byte	0x8
 1085 006e 07       		.byte	0x7
 1086 006f 1B000000 		.4byte	.LASF9
 1087 0073 04       		.uleb128 0x4
 1088 0074 04       		.byte	0x4
 1089 0075 05       		.byte	0x5
 1090 0076 696E7400 		.ascii	"int\000"
 1091 007a 02       		.uleb128 0x2
 1092 007b 04       		.byte	0x4
 1093 007c 07       		.byte	0x7
 1094 007d E6000000 		.4byte	.LASF10
 1095 0081 05       		.uleb128 0x5
 1096 0082 04       		.byte	0x4
 1097 0083 02       		.uleb128 0x2
 1098 0084 04       		.byte	0x4
 1099 0085 07       		.byte	0x7
 1100 0086 11020000 		.4byte	.LASF11
 1101 008a 06       		.uleb128 0x6
 1102 008b 04       		.byte	0x4
 1103 008c 90000000 		.4byte	0x90
 1104 0090 02       		.uleb128 0x2
 1105 0091 01       		.byte	0x1
 1106 0092 08       		.byte	0x8
 1107 0093 59030000 		.4byte	.LASF12
 1108 0097 06       		.uleb128 0x6
 1109 0098 04       		.byte	0x4
 1110 0099 9D000000 		.4byte	0x9d
 1111 009d 07       		.uleb128 0x7
 1112 009e 90000000 		.4byte	0x90
 1113 00a2 03       		.uleb128 0x3
 1114 00a3 BB030000 		.4byte	.LASF13
 1115 00a7 03       		.byte	0x3
 1116 00a8 2A       		.byte	0x2a
 1117 00a9 2C000000 		.4byte	0x2c
 1118 00ad 03       		.uleb128 0x3
 1119 00ae 9F000000 		.4byte	.LASF14
 1120 00b2 03       		.byte	0x3
 1121 00b3 36       		.byte	0x36
 1122 00b4 45000000 		.4byte	0x45
 1123 00b8 08       		.uleb128 0x8
 1124 00b9 F5030000 		.4byte	.LASF23
 1125 00bd 0C       		.byte	0xc
ARM GAS  /tmp/ccroL3wm.s 			page 21


 1126 00be 04       		.byte	0x4
 1127 00bf 2B       		.byte	0x2b
 1128 00c0 F5000000 		.4byte	0xf5
 1129 00c4 09       		.uleb128 0x9
 1130 00c5 72000000 		.4byte	.LASF15
 1131 00c9 04       		.byte	0x4
 1132 00ca 2C       		.byte	0x2c
 1133 00cb A2000000 		.4byte	0xa2
 1134 00cf 00       		.byte	0
 1135 00d0 09       		.uleb128 0x9
 1136 00d1 00000000 		.4byte	.LASF16
 1137 00d5 04       		.byte	0x4
 1138 00d6 2D       		.byte	0x2d
 1139 00d7 AD000000 		.4byte	0xad
 1140 00db 02       		.byte	0x2
 1141 00dc 09       		.uleb128 0x9
 1142 00dd 5E030000 		.4byte	.LASF17
 1143 00e1 04       		.byte	0x4
 1144 00e2 2E       		.byte	0x2e
 1145 00e3 8A000000 		.4byte	0x8a
 1146 00e7 04       		.byte	0x4
 1147 00e8 09       		.uleb128 0x9
 1148 00e9 2D030000 		.4byte	.LASF18
 1149 00ed 04       		.byte	0x4
 1150 00ee 2F       		.byte	0x2f
 1151 00ef 8A000000 		.4byte	0x8a
 1152 00f3 08       		.byte	0x8
 1153 00f4 00       		.byte	0
 1154 00f5 03       		.uleb128 0x3
 1155 00f6 76010000 		.4byte	.LASF19
 1156 00fa 04       		.byte	0x4
 1157 00fb 39       		.byte	0x39
 1158 00fc B8000000 		.4byte	0xb8
 1159 0100 03       		.uleb128 0x3
 1160 0101 0C020000 		.4byte	.LASF20
 1161 0105 05       		.byte	0x5
 1162 0106 54       		.byte	0x54
 1163 0107 A2000000 		.4byte	0xa2
 1164 010b 03       		.uleb128 0x3
 1165 010c 95030000 		.4byte	.LASF21
 1166 0110 05       		.byte	0x5
 1167 0111 5D       		.byte	0x5d
 1168 0112 AD000000 		.4byte	0xad
 1169 0116 03       		.uleb128 0x3
 1170 0117 AE010000 		.4byte	.LASF22
 1171 011b 06       		.byte	0x6
 1172 011c 40       		.byte	0x40
 1173 011d 50000000 		.4byte	0x50
 1174 0121 0A       		.uleb128 0xa
 1175 0122 707400   		.ascii	"pt\000"
 1176 0125 02       		.byte	0x2
 1177 0126 08       		.byte	0x8
 1178 0127 36       		.byte	0x36
 1179 0128 38010000 		.4byte	0x138
 1180 012c 0B       		.uleb128 0xb
 1181 012d 6C6300   		.ascii	"lc\000"
 1182 0130 08       		.byte	0x8
ARM GAS  /tmp/ccroL3wm.s 			page 22


 1183 0131 37       		.byte	0x37
 1184 0132 16010000 		.4byte	0x116
 1185 0136 00       		.byte	0
 1186 0137 00       		.byte	0
 1187 0138 08       		.uleb128 0x8
 1188 0139 C1010000 		.4byte	.LASF24
 1189 013d 08       		.byte	0x8
 1190 013e 07       		.byte	0x7
 1191 013f 5F       		.byte	0x5f
 1192 0140 5D010000 		.4byte	0x15d
 1193 0144 0B       		.uleb128 0xb
 1194 0145 70747200 		.ascii	"ptr\000"
 1195 0149 07       		.byte	0x7
 1196 014a 60       		.byte	0x60
 1197 014b 5D010000 		.4byte	0x15d
 1198 014f 00       		.byte	0
 1199 0150 09       		.uleb128 0x9
 1200 0151 F0030000 		.4byte	.LASF25
 1201 0155 07       		.byte	0x7
 1202 0156 61       		.byte	0x61
 1203 0157 50000000 		.4byte	0x50
 1204 015b 04       		.byte	0x4
 1205 015c 00       		.byte	0
 1206 015d 06       		.uleb128 0x6
 1207 015e 04       		.byte	0x4
 1208 015f 00010000 		.4byte	0x100
 1209 0163 08       		.uleb128 0x8
 1210 0164 5B010000 		.4byte	.LASF26
 1211 0168 24       		.byte	0x24
 1212 0169 07       		.byte	0x7
 1213 016a 6A       		.byte	0x6a
 1214 016b E7010000 		.4byte	0x1e7
 1215 016f 0B       		.uleb128 0xb
 1216 0170 707400   		.ascii	"pt\000"
 1217 0173 07       		.byte	0x7
 1218 0174 6B       		.byte	0x6b
 1219 0175 21010000 		.4byte	0x121
 1220 0179 00       		.byte	0
 1221 017a 09       		.uleb128 0x9
 1222 017b E8030000 		.4byte	.LASF27
 1223 017f 07       		.byte	0x7
 1224 0180 6B       		.byte	0x6b
 1225 0181 21010000 		.4byte	0x121
 1226 0185 02       		.byte	0x2
 1227 0186 09       		.uleb128 0x9
 1228 0187 E7010000 		.4byte	.LASF28
 1229 018b 07       		.byte	0x7
 1230 018c 6E       		.byte	0x6e
 1231 018d E7010000 		.4byte	0x1e7
 1232 0191 04       		.byte	0x4
 1233 0192 09       		.uleb128 0x9
 1234 0193 71030000 		.4byte	.LASF29
 1235 0197 07       		.byte	0x7
 1236 0198 6F       		.byte	0x6f
 1237 0199 5D010000 		.4byte	0x15d
 1238 019d 08       		.byte	0x8
 1239 019e 09       		.uleb128 0x9
ARM GAS  /tmp/ccroL3wm.s 			page 23


 1240 019f E1030000 		.4byte	.LASF30
 1241 01a3 07       		.byte	0x7
 1242 01a4 71       		.byte	0x71
 1243 01a5 8A000000 		.4byte	0x8a
 1244 01a9 0C       		.byte	0xc
 1245 01aa 09       		.uleb128 0x9
 1246 01ab 97000000 		.4byte	.LASF31
 1247 01af 07       		.byte	0x7
 1248 01b0 74       		.byte	0x74
 1249 01b1 0B010000 		.4byte	0x10b
 1250 01b5 10       		.byte	0x10
 1251 01b6 09       		.uleb128 0x9
 1252 01b7 34020000 		.4byte	.LASF32
 1253 01bb 07       		.byte	0x7
 1254 01bc 75       		.byte	0x75
 1255 01bd 0B010000 		.4byte	0x10b
 1256 01c1 12       		.byte	0x12
 1257 01c2 0B       		.uleb128 0xb
 1258 01c3 62756600 		.ascii	"buf\000"
 1259 01c7 07       		.byte	0x7
 1260 01c8 77       		.byte	0x77
 1261 01c9 38010000 		.4byte	0x138
 1262 01cd 14       		.byte	0x14
 1263 01ce 09       		.uleb128 0x9
 1264 01cf A8000000 		.4byte	.LASF33
 1265 01d3 07       		.byte	0x7
 1266 01d4 79       		.byte	0x79
 1267 01d5 7A000000 		.4byte	0x7a
 1268 01d9 1C       		.byte	0x1c
 1269 01da 09       		.uleb128 0x9
 1270 01db 72000000 		.4byte	.LASF15
 1271 01df 07       		.byte	0x7
 1272 01e0 7B       		.byte	0x7b
 1273 01e1 37000000 		.4byte	0x37
 1274 01e5 20       		.byte	0x20
 1275 01e6 00       		.byte	0
 1276 01e7 06       		.uleb128 0x6
 1277 01e8 04       		.byte	0x4
 1278 01e9 ED010000 		.4byte	0x1ed
 1279 01ed 07       		.uleb128 0x7
 1280 01ee 00010000 		.4byte	0x100
 1281 01f2 03       		.uleb128 0x3
 1282 01f3 1A020000 		.4byte	.LASF34
 1283 01f7 09       		.byte	0x9
 1284 01f8 3E       		.byte	0x3e
 1285 01f9 FD010000 		.4byte	0x1fd
 1286 01fd 0C       		.uleb128 0xc
 1287 01fe 0B010000 		.4byte	0x10b
 1288 0202 0D020000 		.4byte	0x20d
 1289 0206 0D       		.uleb128 0xd
 1290 0207 83000000 		.4byte	0x83
 1291 020b 01       		.byte	0x1
 1292 020c 00       		.byte	0
 1293 020d 03       		.uleb128 0x3
 1294 020e 80030000 		.4byte	.LASF35
 1295 0212 09       		.byte	0x9
 1296 0213 43       		.byte	0x43
ARM GAS  /tmp/ccroL3wm.s 			page 24


 1297 0214 F2010000 		.4byte	0x1f2
 1298 0218 0E       		.uleb128 0xe
 1299 0219 CB010000 		.4byte	.LASF36
 1300 021d 28       		.byte	0x28
 1301 021e 09       		.byte	0x9
 1302 021f 8104     		.2byte	0x481
 1303 0221 E7020000 		.4byte	0x2e7
 1304 0225 0F       		.uleb128 0xf
 1305 0226 9C010000 		.4byte	.LASF37
 1306 022a 09       		.byte	0x9
 1307 022b 8204     		.2byte	0x482
 1308 022d 0D020000 		.4byte	0x20d
 1309 0231 00       		.byte	0
 1310 0232 0F       		.uleb128 0xf
 1311 0233 63000000 		.4byte	.LASF38
 1312 0237 09       		.byte	0x9
 1313 0238 8404     		.2byte	0x484
 1314 023a 0B010000 		.4byte	0x10b
 1315 023e 04       		.byte	0x4
 1316 023f 0F       		.uleb128 0xf
 1317 0240 BB000000 		.4byte	.LASF39
 1318 0244 09       		.byte	0x9
 1319 0245 8504     		.2byte	0x485
 1320 0247 0B010000 		.4byte	0x10b
 1321 024b 06       		.byte	0x6
 1322 024c 0F       		.uleb128 0xf
 1323 024d A9030000 		.4byte	.LASF40
 1324 0251 09       		.byte	0x9
 1325 0252 8804     		.2byte	0x488
 1326 0254 E7020000 		.4byte	0x2e7
 1327 0258 08       		.byte	0x8
 1328 0259 0F       		.uleb128 0xf
 1329 025a 17030000 		.4byte	.LASF41
 1330 025e 09       		.byte	0x9
 1331 025f 8A04     		.2byte	0x48a
 1332 0261 E7020000 		.4byte	0x2e7
 1333 0265 0C       		.byte	0xc
 1334 0266 10       		.uleb128 0x10
 1335 0267 6C656E00 		.ascii	"len\000"
 1336 026b 09       		.byte	0x9
 1337 026c 8C04     		.2byte	0x48c
 1338 026e 0B010000 		.4byte	0x10b
 1339 0272 10       		.byte	0x10
 1340 0273 10       		.uleb128 0x10
 1341 0274 6D737300 		.ascii	"mss\000"
 1342 0278 09       		.byte	0x9
 1343 0279 8D04     		.2byte	0x48d
 1344 027b 0B010000 		.4byte	0x10b
 1345 027f 12       		.byte	0x12
 1346 0280 0F       		.uleb128 0xf
 1347 0281 10000000 		.4byte	.LASF42
 1348 0285 09       		.byte	0x9
 1349 0286 8F04     		.2byte	0x48f
 1350 0288 0B010000 		.4byte	0x10b
 1351 028c 14       		.byte	0x14
 1352 028d 10       		.uleb128 0x10
 1353 028e 736100   		.ascii	"sa\000"
ARM GAS  /tmp/ccroL3wm.s 			page 25


 1354 0291 09       		.byte	0x9
 1355 0292 9104     		.2byte	0x491
 1356 0294 00010000 		.4byte	0x100
 1357 0298 16       		.byte	0x16
 1358 0299 10       		.uleb128 0x10
 1359 029a 737600   		.ascii	"sv\000"
 1360 029d 09       		.byte	0x9
 1361 029e 9304     		.2byte	0x493
 1362 02a0 00010000 		.4byte	0x100
 1363 02a4 17       		.byte	0x17
 1364 02a5 10       		.uleb128 0x10
 1365 02a6 72746F00 		.ascii	"rto\000"
 1366 02aa 09       		.byte	0x9
 1367 02ab 9504     		.2byte	0x495
 1368 02ad 00010000 		.4byte	0x100
 1369 02b1 18       		.byte	0x18
 1370 02b2 0F       		.uleb128 0xf
 1371 02b3 9B030000 		.4byte	.LASF43
 1372 02b7 09       		.byte	0x9
 1373 02b8 9604     		.2byte	0x496
 1374 02ba 00010000 		.4byte	0x100
 1375 02be 19       		.byte	0x19
 1376 02bf 0F       		.uleb128 0xf
 1377 02c0 D1030000 		.4byte	.LASF44
 1378 02c4 09       		.byte	0x9
 1379 02c5 9704     		.2byte	0x497
 1380 02c7 00010000 		.4byte	0x100
 1381 02cb 1A       		.byte	0x1a
 1382 02cc 0F       		.uleb128 0xf
 1383 02cd C1000000 		.4byte	.LASF45
 1384 02d1 09       		.byte	0x9
 1385 02d2 9804     		.2byte	0x498
 1386 02d4 00010000 		.4byte	0x100
 1387 02d8 1B       		.byte	0x1b
 1388 02d9 0F       		.uleb128 0xf
 1389 02da 03020000 		.4byte	.LASF46
 1390 02de 09       		.byte	0x9
 1391 02df 9C04     		.2byte	0x49c
 1392 02e1 F5000000 		.4byte	0xf5
 1393 02e5 1C       		.byte	0x1c
 1394 02e6 00       		.byte	0
 1395 02e7 0C       		.uleb128 0xc
 1396 02e8 00010000 		.4byte	0x100
 1397 02ec F7020000 		.4byte	0x2f7
 1398 02f0 0D       		.uleb128 0xd
 1399 02f1 83000000 		.4byte	0x83
 1400 02f5 03       		.byte	0x3
 1401 02f6 00       		.byte	0
 1402 02f7 11       		.uleb128 0x11
 1403 02f8 6B010000 		.4byte	.LASF47
 1404 02fc 01       		.byte	0x1
 1405 02fd A0       		.byte	0xa0
 1406 02fe 90000000 		.4byte	0x90
 1407 0302 01       		.byte	0x1
 1408 0303 11030000 		.4byte	0x311
 1409 0307 12       		.uleb128 0x12
 1410 0308 7300     		.ascii	"s\000"
ARM GAS  /tmp/ccroL3wm.s 			page 26


 1411 030a 01       		.byte	0x1
 1412 030b A0       		.byte	0xa0
 1413 030c 11030000 		.4byte	0x311
 1414 0310 00       		.byte	0
 1415 0311 06       		.uleb128 0x6
 1416 0312 04       		.byte	0x4
 1417 0313 63010000 		.4byte	0x163
 1418 0317 11       		.uleb128 0x11
 1419 0318 28020000 		.4byte	.LASF48
 1420 031c 01       		.byte	0x1
 1421 031d 53       		.byte	0x53
 1422 031e 00010000 		.4byte	0x100
 1423 0322 01       		.byte	0x1
 1424 0323 54030000 		.4byte	0x354
 1425 0327 12       		.uleb128 0x12
 1426 0328 62756600 		.ascii	"buf\000"
 1427 032c 01       		.byte	0x1
 1428 032d 53       		.byte	0x53
 1429 032e 54030000 		.4byte	0x354
 1430 0332 12       		.uleb128 0x12
 1431 0333 6C656E00 		.ascii	"len\000"
 1432 0337 01       		.byte	0x1
 1433 0338 53       		.byte	0x53
 1434 0339 0B010000 		.4byte	0x10b
 1435 033d 13       		.uleb128 0x13
 1436 033e 5E030000 		.4byte	.LASF17
 1437 0342 01       		.byte	0x1
 1438 0343 54       		.byte	0x54
 1439 0344 5A030000 		.4byte	0x35a
 1440 0348 13       		.uleb128 0x13
 1441 0349 4A020000 		.4byte	.LASF49
 1442 034d 01       		.byte	0x1
 1443 034e 54       		.byte	0x54
 1444 034f 60030000 		.4byte	0x360
 1445 0353 00       		.byte	0
 1446 0354 06       		.uleb128 0x6
 1447 0355 04       		.byte	0x4
 1448 0356 38010000 		.4byte	0x138
 1449 035a 06       		.uleb128 0x6
 1450 035b 04       		.byte	0x4
 1451 035c 5D010000 		.4byte	0x15d
 1452 0360 06       		.uleb128 0x6
 1453 0361 04       		.byte	0x4
 1454 0362 0B010000 		.4byte	0x10b
 1455 0366 14       		.uleb128 0x14
 1456 0367 B3010000 		.4byte	.LASF50
 1457 036b 01       		.byte	0x1
 1458 036c FD       		.byte	0xfd
 1459 036d 90000000 		.4byte	0x90
 1460 0371 01       		.byte	0x1
 1461 0372 80030000 		.4byte	0x380
 1462 0376 12       		.uleb128 0x12
 1463 0377 7300     		.ascii	"s\000"
 1464 0379 01       		.byte	0x1
 1465 037a FD       		.byte	0xfd
 1466 037b 11030000 		.4byte	0x311
 1467 037f 00       		.byte	0
ARM GAS  /tmp/ccroL3wm.s 			page 27


 1468 0380 15       		.uleb128 0x15
 1469 0381 D4010000 		.4byte	.LASF71
 1470 0385 01       		.byte	0x1
 1471 0386 4B       		.byte	0x4b
 1472 0387 01       		.byte	0x1
 1473 0388 AE030000 		.4byte	0x3ae
 1474 038c 12       		.uleb128 0x12
 1475 038d 62756600 		.ascii	"buf\000"
 1476 0391 01       		.byte	0x1
 1477 0392 4B       		.byte	0x4b
 1478 0393 54030000 		.4byte	0x354
 1479 0397 13       		.uleb128 0x13
 1480 0398 E1030000 		.4byte	.LASF30
 1481 039c 01       		.byte	0x1
 1482 039d 4C       		.byte	0x4c
 1483 039e 5D010000 		.4byte	0x15d
 1484 03a2 13       		.uleb128 0x13
 1485 03a3 A8000000 		.4byte	.LASF33
 1486 03a7 01       		.byte	0x1
 1487 03a8 4C       		.byte	0x4c
 1488 03a9 0B010000 		.4byte	0x10b
 1489 03ad 00       		.byte	0
 1490 03ae 14       		.uleb128 0x14
 1491 03af 3E030000 		.4byte	.LASF51
 1492 03b3 01       		.byte	0x1
 1493 03b4 F7       		.byte	0xf7
 1494 03b5 0B010000 		.4byte	0x10b
 1495 03b9 01       		.byte	0x1
 1496 03ba CA030000 		.4byte	0x3ca
 1497 03be 13       		.uleb128 0x13
 1498 03bf 5B010000 		.4byte	.LASF26
 1499 03c3 01       		.byte	0x1
 1500 03c4 F7       		.byte	0xf7
 1501 03c5 11030000 		.4byte	0x311
 1502 03c9 00       		.byte	0
 1503 03ca 16       		.uleb128 0x16
 1504 03cb B1030000 		.4byte	.LASF72
 1505 03cf 01       		.byte	0x1
 1506 03d0 91       		.byte	0x91
 1507 03d1 90000000 		.4byte	0x90
 1508 03d5 00000000 		.4byte	.LFB3
 1509 03d9 44000000 		.4byte	.LFE3-.LFB3
 1510 03dd 01       		.uleb128 0x1
 1511 03de 9C       		.byte	0x9c
 1512 03df FA030000 		.4byte	0x3fa
 1513 03e3 17       		.uleb128 0x17
 1514 03e4 7300     		.ascii	"s\000"
 1515 03e6 01       		.byte	0x1
 1516 03e7 91       		.byte	0x91
 1517 03e8 11030000 		.4byte	0x311
 1518 03ec 00000000 		.4byte	.LLST0
 1519 03f0 18       		.uleb128 0x18
 1520 03f1 20000000 		.4byte	.LVL2
 1521 03f5 96080000 		.4byte	0x896
 1522 03f9 00       		.byte	0
 1523 03fa 19       		.uleb128 0x19
 1524 03fb F7020000 		.4byte	0x2f7
ARM GAS  /tmp/ccroL3wm.s 			page 28


 1525 03ff 00000000 		.4byte	.LFB4
 1526 0403 58000000 		.4byte	.LFE4-.LFB4
 1527 0407 01       		.uleb128 0x1
 1528 0408 9C       		.byte	0x9c
 1529 0409 2A040000 		.4byte	0x42a
 1530 040d 1A       		.uleb128 0x1a
 1531 040e 07030000 		.4byte	0x307
 1532 0412 42000000 		.4byte	.LLST1
 1533 0416 1B       		.uleb128 0x1b
 1534 0417 16000000 		.4byte	.LBB20
 1535 041b 36000000 		.4byte	.LBE20-.LBB20
 1536 041f 1A       		.uleb128 0x1a
 1537 0420 07030000 		.4byte	0x307
 1538 0424 AE000000 		.4byte	.LLST2
 1539 0428 00       		.byte	0
 1540 0429 00       		.byte	0
 1541 042a 1C       		.uleb128 0x1c
 1542 042b DB000000 		.4byte	.LASF52
 1543 042f 01       		.byte	0x1
 1544 0430 B0       		.byte	0xb0
 1545 0431 90000000 		.4byte	0x90
 1546 0435 00000000 		.4byte	.LFB5
 1547 0439 4E000000 		.4byte	.LFE5-.LFB5
 1548 043d 01       		.uleb128 0x1
 1549 043e 9C       		.byte	0x9c
 1550 043f A8040000 		.4byte	0x4a8
 1551 0443 17       		.uleb128 0x17
 1552 0444 7300     		.ascii	"s\000"
 1553 0446 01       		.byte	0x1
 1554 0447 B0       		.byte	0xb0
 1555 0448 11030000 		.4byte	0x311
 1556 044c E8000000 		.4byte	.LLST3
 1557 0450 17       		.uleb128 0x17
 1558 0451 62756600 		.ascii	"buf\000"
 1559 0455 01       		.byte	0x1
 1560 0456 B0       		.byte	0xb0
 1561 0457 97000000 		.4byte	0x97
 1562 045b 32010000 		.4byte	.LLST4
 1563 045f 17       		.uleb128 0x17
 1564 0460 6C656E00 		.ascii	"len\000"
 1565 0464 01       		.byte	0x1
 1566 0465 B0       		.byte	0xb0
 1567 0466 7A000000 		.4byte	0x7a
 1568 046a 77010000 		.4byte	.LLST5
 1569 046e 1D       		.uleb128 0x1d
 1570 046f 00000000 		.4byte	.Ldebug_ranges0+0
 1571 0473 1E       		.uleb128 0x1e
 1572 0474 C3030000 		.4byte	.LASF55
 1573 0478 01       		.byte	0x1
 1574 0479 B3       		.byte	0xb3
 1575 047a 90000000 		.4byte	0x90
 1576 047e BC010000 		.4byte	.LLST6
 1577 0482 1F       		.uleb128 0x1f
 1578 0483 12000000 		.4byte	.LVL17
 1579 0487 F7020000 		.4byte	0x2f7
 1580 048b 96040000 		.4byte	0x496
 1581 048f 20       		.uleb128 0x20
ARM GAS  /tmp/ccroL3wm.s 			page 29


 1582 0490 01       		.uleb128 0x1
 1583 0491 50       		.byte	0x50
 1584 0492 02       		.uleb128 0x2
 1585 0493 74       		.byte	0x74
 1586 0494 00       		.sleb128 0
 1587 0495 00       		.byte	0
 1588 0496 21       		.uleb128 0x21
 1589 0497 1A000000 		.4byte	.LVL18
 1590 049b CA030000 		.4byte	0x3ca
 1591 049f 20       		.uleb128 0x20
 1592 04a0 01       		.uleb128 0x1
 1593 04a1 50       		.byte	0x50
 1594 04a2 02       		.uleb128 0x2
 1595 04a3 74       		.byte	0x74
 1596 04a4 00       		.sleb128 0
 1597 04a5 00       		.byte	0
 1598 04a6 00       		.byte	0
 1599 04a7 00       		.byte	0
 1600 04a8 1C       		.uleb128 0x1c
 1601 04a9 C6000000 		.4byte	.LASF53
 1602 04ad 01       		.byte	0x1
 1603 04ae D7       		.byte	0xd7
 1604 04af 90000000 		.4byte	0x90
 1605 04b3 00000000 		.4byte	.LFB6
 1606 04b7 6C000000 		.4byte	.LFE6-.LFB6
 1607 04bb 01       		.uleb128 0x1
 1608 04bc 9C       		.byte	0x9c
 1609 04bd 46050000 		.4byte	0x546
 1610 04c1 17       		.uleb128 0x17
 1611 04c2 7300     		.ascii	"s\000"
 1612 04c4 01       		.byte	0x1
 1613 04c5 D7       		.byte	0xd7
 1614 04c6 11030000 		.4byte	0x311
 1615 04ca E8010000 		.4byte	.LLST7
 1616 04ce 22       		.uleb128 0x22
 1617 04cf 69000000 		.4byte	.LASF54
 1618 04d3 01       		.byte	0x1
 1619 04d4 D7       		.byte	0xd7
 1620 04d5 55050000 		.4byte	0x555
 1621 04d9 40020000 		.4byte	.LLST8
 1622 04dd 17       		.uleb128 0x17
 1623 04de 61726700 		.ascii	"arg\000"
 1624 04e2 01       		.byte	0x1
 1625 04e3 D7       		.byte	0xd7
 1626 04e4 81000000 		.4byte	0x81
 1627 04e8 7F020000 		.4byte	.LLST9
 1628 04ec 1D       		.uleb128 0x1d
 1629 04ed 20000000 		.4byte	.Ldebug_ranges0+0x20
 1630 04f1 1E       		.uleb128 0x1e
 1631 04f2 C3030000 		.4byte	.LASF55
 1632 04f6 01       		.byte	0x1
 1633 04f7 DA       		.byte	0xda
 1634 04f8 90000000 		.4byte	0x90
 1635 04fc BE020000 		.4byte	.LLST10
 1636 0500 23       		.uleb128 0x23
 1637 0501 1E000000 		.4byte	.LVL31
 1638 0505 10050000 		.4byte	0x510
ARM GAS  /tmp/ccroL3wm.s 			page 30


 1639 0509 20       		.uleb128 0x20
 1640 050a 01       		.uleb128 0x1
 1641 050b 50       		.byte	0x50
 1642 050c 02       		.uleb128 0x2
 1643 050d 77       		.byte	0x77
 1644 050e 00       		.sleb128 0
 1645 050f 00       		.byte	0
 1646 0510 23       		.uleb128 0x23
 1647 0511 36000000 		.4byte	.LVL32
 1648 0515 20050000 		.4byte	0x520
 1649 0519 20       		.uleb128 0x20
 1650 051a 01       		.uleb128 0x1
 1651 051b 50       		.byte	0x50
 1652 051c 02       		.uleb128 0x2
 1653 051d 77       		.byte	0x77
 1654 051e 00       		.sleb128 0
 1655 051f 00       		.byte	0
 1656 0520 1F       		.uleb128 0x1f
 1657 0521 40000000 		.4byte	.LVL33
 1658 0525 F7020000 		.4byte	0x2f7
 1659 0529 34050000 		.4byte	0x534
 1660 052d 20       		.uleb128 0x20
 1661 052e 01       		.uleb128 0x1
 1662 052f 50       		.byte	0x50
 1663 0530 02       		.uleb128 0x2
 1664 0531 74       		.byte	0x74
 1665 0532 00       		.sleb128 0
 1666 0533 00       		.byte	0
 1667 0534 21       		.uleb128 0x21
 1668 0535 48000000 		.4byte	.LVL34
 1669 0539 CA030000 		.4byte	0x3ca
 1670 053d 20       		.uleb128 0x20
 1671 053e 01       		.uleb128 0x1
 1672 053f 50       		.byte	0x50
 1673 0540 02       		.uleb128 0x2
 1674 0541 74       		.byte	0x74
 1675 0542 00       		.sleb128 0
 1676 0543 00       		.byte	0
 1677 0544 00       		.byte	0
 1678 0545 00       		.byte	0
 1679 0546 24       		.uleb128 0x24
 1680 0547 50000000 		.4byte	0x50
 1681 054b 55050000 		.4byte	0x555
 1682 054f 25       		.uleb128 0x25
 1683 0550 81000000 		.4byte	0x81
 1684 0554 00       		.byte	0
 1685 0555 06       		.uleb128 0x6
 1686 0556 04       		.byte	0x4
 1687 0557 46050000 		.4byte	0x546
 1688 055b 19       		.uleb128 0x19
 1689 055c AE030000 		.4byte	0x3ae
 1690 0560 00000000 		.4byte	.LFB7
 1691 0564 0A000000 		.4byte	.LFE7-.LFB7
 1692 0568 01       		.uleb128 0x1
 1693 0569 9C       		.byte	0x9c
 1694 056a 78050000 		.4byte	0x578
 1695 056e 1A       		.uleb128 0x1a
ARM GAS  /tmp/ccroL3wm.s 			page 31


 1696 056f BE030000 		.4byte	0x3be
 1697 0573 EA020000 		.4byte	.LLST11
 1698 0577 00       		.byte	0
 1699 0578 19       		.uleb128 0x19
 1700 0579 66030000 		.4byte	0x366
 1701 057d 00000000 		.4byte	.LFB8
 1702 0581 28000000 		.4byte	.LFE8-.LFB8
 1703 0585 01       		.uleb128 0x1
 1704 0586 9C       		.byte	0x9c
 1705 0587 A8050000 		.4byte	0x5a8
 1706 058b 1A       		.uleb128 0x1a
 1707 058c 76030000 		.4byte	0x376
 1708 0590 0B030000 		.4byte	.LLST12
 1709 0594 1B       		.uleb128 0x1b
 1710 0595 0E000000 		.4byte	.LBB30
 1711 0599 0A000000 		.4byte	.LBE30-.LBB30
 1712 059d 1A       		.uleb128 0x1a
 1713 059e 76030000 		.4byte	0x376
 1714 05a2 42030000 		.4byte	.LLST13
 1715 05a6 00       		.byte	0
 1716 05a7 00       		.byte	0
 1717 05a8 11       		.uleb128 0x11
 1718 05a9 D7030000 		.4byte	.LASF56
 1719 05ad 01       		.byte	0x1
 1720 05ae 6F       		.byte	0x6f
 1721 05af 00010000 		.4byte	0x100
 1722 05b3 01       		.byte	0x1
 1723 05b4 EE050000 		.4byte	0x5ee
 1724 05b8 12       		.uleb128 0x12
 1725 05b9 62756600 		.ascii	"buf\000"
 1726 05bd 01       		.byte	0x1
 1727 05be 6F       		.byte	0x6f
 1728 05bf 54030000 		.4byte	0x354
 1729 05c3 13       		.uleb128 0x13
 1730 05c4 61010000 		.4byte	.LASF57
 1731 05c8 01       		.byte	0x1
 1732 05c9 6F       		.byte	0x6f
 1733 05ca 00010000 		.4byte	0x100
 1734 05ce 13       		.uleb128 0x13
 1735 05cf 5E030000 		.4byte	.LASF17
 1736 05d3 01       		.byte	0x1
 1737 05d4 70       		.byte	0x70
 1738 05d5 5A030000 		.4byte	0x35a
 1739 05d9 13       		.uleb128 0x13
 1740 05da 4A020000 		.4byte	.LASF49
 1741 05de 01       		.byte	0x1
 1742 05df 70       		.byte	0x70
 1743 05e0 60030000 		.4byte	0x360
 1744 05e4 26       		.uleb128 0x26
 1745 05e5 6300     		.ascii	"c\000"
 1746 05e7 01       		.byte	0x1
 1747 05e8 72       		.byte	0x72
 1748 05e9 00010000 		.4byte	0x100
 1749 05ed 00       		.byte	0
 1750 05ee 27       		.uleb128 0x27
 1751 05ef 4C030000 		.4byte	.LASF58
 1752 05f3 01       		.byte	0x1
ARM GAS  /tmp/ccroL3wm.s 			page 32


 1753 05f4 1001     		.2byte	0x110
 1754 05f6 90000000 		.4byte	0x90
 1755 05fa 00000000 		.4byte	.LFB9
 1756 05fe D4000000 		.4byte	.LFE9-.LFB9
 1757 0602 01       		.uleb128 0x1
 1758 0603 9C       		.byte	0x9c
 1759 0604 D0060000 		.4byte	0x6d0
 1760 0608 28       		.uleb128 0x28
 1761 0609 5B010000 		.4byte	.LASF26
 1762 060d 01       		.byte	0x1
 1763 060e 1001     		.2byte	0x110
 1764 0610 11030000 		.4byte	0x311
 1765 0614 63030000 		.4byte	.LLST14
 1766 0618 29       		.uleb128 0x29
 1767 0619 6300     		.ascii	"c\000"
 1768 061b 01       		.byte	0x1
 1769 061c 1001     		.2byte	0x110
 1770 061e 37000000 		.4byte	0x37
 1771 0622 01       		.uleb128 0x1
 1772 0623 51       		.byte	0x51
 1773 0624 1D       		.uleb128 0x1d
 1774 0625 40000000 		.4byte	.Ldebug_ranges0+0x40
 1775 0629 2A       		.uleb128 0x2a
 1776 062a C3030000 		.4byte	.LASF55
 1777 062e 01       		.byte	0x1
 1778 062f 1201     		.2byte	0x112
 1779 0631 90000000 		.4byte	0x90
 1780 0635 B6030000 		.4byte	.LLST15
 1781 0639 2B       		.uleb128 0x2b
 1782 063a 66030000 		.4byte	0x366
 1783 063e 10000000 		.4byte	.LBB44
 1784 0642 60000000 		.4byte	.Ldebug_ranges0+0x60
 1785 0646 01       		.byte	0x1
 1786 0647 1B01     		.2byte	0x11b
 1787 0649 6A060000 		.4byte	0x66a
 1788 064d 1A       		.uleb128 0x1a
 1789 064e 76030000 		.4byte	0x376
 1790 0652 E2030000 		.4byte	.LLST16
 1791 0656 1B       		.uleb128 0x1b
 1792 0657 84000000 		.4byte	.LBB46
 1793 065b 08000000 		.4byte	.LBE46-.LBB46
 1794 065f 1A       		.uleb128 0x1a
 1795 0660 76030000 		.4byte	0x376
 1796 0664 19040000 		.4byte	.LLST17
 1797 0668 00       		.byte	0
 1798 0669 00       		.byte	0
 1799 066a 2B       		.uleb128 0x2b
 1800 066b A8050000 		.4byte	0x5a8
 1801 066f 2A000000 		.4byte	.LBB50
 1802 0673 80000000 		.4byte	.Ldebug_ranges0+0x80
 1803 0677 01       		.byte	0x1
 1804 0678 2001     		.2byte	0x120
 1805 067a A2060000 		.4byte	0x6a2
 1806 067e 2C       		.uleb128 0x2c
 1807 067f D9050000 		.4byte	0x5d9
 1808 0683 2C       		.uleb128 0x2c
 1809 0684 CE050000 		.4byte	0x5ce
ARM GAS  /tmp/ccroL3wm.s 			page 33


 1810 0688 2C       		.uleb128 0x2c
 1811 0689 C3050000 		.4byte	0x5c3
 1812 068d 2C       		.uleb128 0x2c
 1813 068e B8050000 		.4byte	0x5b8
 1814 0692 1D       		.uleb128 0x1d
 1815 0693 80000000 		.4byte	.Ldebug_ranges0+0x80
 1816 0697 2D       		.uleb128 0x2d
 1817 0698 E4050000 		.4byte	0x5e4
 1818 069c 2C040000 		.4byte	.LLST18
 1819 06a0 00       		.byte	0
 1820 06a1 00       		.byte	0
 1821 06a2 2E       		.uleb128 0x2e
 1822 06a3 80030000 		.4byte	0x380
 1823 06a7 6A000000 		.4byte	.LBB53
 1824 06ab 08000000 		.4byte	.LBE53-.LBB53
 1825 06af 01       		.byte	0x1
 1826 06b0 1401     		.2byte	0x114
 1827 06b2 1A       		.uleb128 0x1a
 1828 06b3 A2030000 		.4byte	0x3a2
 1829 06b7 56040000 		.4byte	.LLST19
 1830 06bb 1A       		.uleb128 0x1a
 1831 06bc 97030000 		.4byte	0x397
 1832 06c0 6A040000 		.4byte	.LLST20
 1833 06c4 1A       		.uleb128 0x1a
 1834 06c5 8C030000 		.4byte	0x38c
 1835 06c9 7E040000 		.4byte	.LLST21
 1836 06cd 00       		.byte	0
 1837 06ce 00       		.byte	0
 1838 06cf 00       		.byte	0
 1839 06d0 27       		.uleb128 0x27
 1840 06d1 3C020000 		.4byte	.LASF59
 1841 06d5 01       		.byte	0x1
 1842 06d6 2B01     		.2byte	0x12b
 1843 06d8 90000000 		.4byte	0x90
 1844 06dc 00000000 		.4byte	.LFB10
 1845 06e0 F4000000 		.4byte	.LFE10-.LFB10
 1846 06e4 01       		.uleb128 0x1
 1847 06e5 9C       		.byte	0x9c
 1848 06e6 F7070000 		.4byte	0x7f7
 1849 06ea 28       		.uleb128 0x28
 1850 06eb 5B010000 		.4byte	.LASF26
 1851 06ef 01       		.byte	0x1
 1852 06f0 2B01     		.2byte	0x12b
 1853 06f2 11030000 		.4byte	0x311
 1854 06f6 93040000 		.4byte	.LLST22
 1855 06fa 1D       		.uleb128 0x1d
 1856 06fb 98000000 		.4byte	.Ldebug_ranges0+0x98
 1857 06ff 2A       		.uleb128 0x2a
 1858 0700 C3030000 		.4byte	.LASF55
 1859 0704 01       		.byte	0x1
 1860 0705 2D01     		.2byte	0x12d
 1861 0707 90000000 		.4byte	0x90
 1862 070b D5040000 		.4byte	.LLST23
 1863 070f 2B       		.uleb128 0x2b
 1864 0710 66030000 		.4byte	0x366
 1865 0714 10000000 		.4byte	.LBB72
 1866 0718 B8000000 		.4byte	.Ldebug_ranges0+0xb8
ARM GAS  /tmp/ccroL3wm.s 			page 34


 1867 071c 01       		.byte	0x1
 1868 071d 3601     		.2byte	0x136
 1869 071f 40070000 		.4byte	0x740
 1870 0723 1A       		.uleb128 0x1a
 1871 0724 76030000 		.4byte	0x376
 1872 0728 01050000 		.4byte	.LLST24
 1873 072c 1B       		.uleb128 0x1b
 1874 072d A2000000 		.4byte	.LBB74
 1875 0731 08000000 		.4byte	.LBE74-.LBB74
 1876 0735 1A       		.uleb128 0x1a
 1877 0736 76030000 		.4byte	0x376
 1878 073a 2A050000 		.4byte	.LLST25
 1879 073e 00       		.byte	0
 1880 073f 00       		.byte	0
 1881 0740 2B       		.uleb128 0x2b
 1882 0741 17030000 		.4byte	0x317
 1883 0745 2E000000 		.4byte	.LBB78
 1884 0749 D8000000 		.4byte	.Ldebug_ranges0+0xd8
 1885 074d 01       		.byte	0x1
 1886 074e 3C01     		.2byte	0x13c
 1887 0750 94070000 		.4byte	0x794
 1888 0754 1A       		.uleb128 0x1a
 1889 0755 32030000 		.4byte	0x332
 1890 0759 3D050000 		.4byte	.LLST26
 1891 075d 1A       		.uleb128 0x1a
 1892 075e 48030000 		.4byte	0x348
 1893 0762 69050000 		.4byte	.LLST27
 1894 0766 1A       		.uleb128 0x1a
 1895 0767 3D030000 		.4byte	0x33d
 1896 076b A8050000 		.4byte	.LLST28
 1897 076f 1A       		.uleb128 0x1a
 1898 0770 27030000 		.4byte	0x327
 1899 0774 E7050000 		.4byte	.LLST29
 1900 0778 18       		.uleb128 0x18
 1901 0779 3C000000 		.4byte	.LVL70
 1902 077d B4080000 		.4byte	0x8b4
 1903 0781 18       		.uleb128 0x18
 1904 0782 7C000000 		.4byte	.LVL76
 1905 0786 B4080000 		.4byte	0x8b4
 1906 078a 18       		.uleb128 0x18
 1907 078b C6000000 		.4byte	.LVL82
 1908 078f B4080000 		.4byte	0x8b4
 1909 0793 00       		.byte	0
 1910 0794 2F       		.uleb128 0x2f
 1911 0795 AE030000 		.4byte	0x3ae
 1912 0799 54000000 		.4byte	.LBB82
 1913 079d 02000000 		.4byte	.LBE82-.LBB82
 1914 07a1 01       		.byte	0x1
 1915 07a2 4001     		.2byte	0x140
 1916 07a4 B2070000 		.4byte	0x7b2
 1917 07a8 1A       		.uleb128 0x1a
 1918 07a9 BE030000 		.4byte	0x3be
 1919 07ad 26060000 		.4byte	.LLST30
 1920 07b1 00       		.byte	0
 1921 07b2 2F       		.uleb128 0x2f
 1922 07b3 80030000 		.4byte	0x380
 1923 07b7 66000000 		.4byte	.LBB84
ARM GAS  /tmp/ccroL3wm.s 			page 35


 1924 07bb 08000000 		.4byte	.LBE84-.LBB84
 1925 07bf 01       		.byte	0x1
 1926 07c0 2F01     		.2byte	0x12f
 1927 07c2 E2070000 		.4byte	0x7e2
 1928 07c6 1A       		.uleb128 0x1a
 1929 07c7 A2030000 		.4byte	0x3a2
 1930 07cb 52060000 		.4byte	.LLST31
 1931 07cf 1A       		.uleb128 0x1a
 1932 07d0 97030000 		.4byte	0x397
 1933 07d4 66060000 		.4byte	.LLST32
 1934 07d8 1A       		.uleb128 0x1a
 1935 07d9 8C030000 		.4byte	0x38c
 1936 07dd 7A060000 		.4byte	.LLST33
 1937 07e1 00       		.byte	0
 1938 07e2 21       		.uleb128 0x21
 1939 07e3 1C000000 		.4byte	.LVL68
 1940 07e7 D1080000 		.4byte	0x8d1
 1941 07eb 20       		.uleb128 0x20
 1942 07ec 01       		.uleb128 0x1
 1943 07ed 50       		.byte	0x50
 1944 07ee 05       		.uleb128 0x5
 1945 07ef 03       		.byte	0x3
 1946 07f0 00000000 		.4byte	.LC0
 1947 07f4 00       		.byte	0
 1948 07f5 00       		.byte	0
 1949 07f6 00       		.byte	0
 1950 07f7 30       		.uleb128 0x30
 1951 07f8 32000000 		.4byte	.LASF73
 1952 07fc 01       		.byte	0x1
 1953 07fd 4801     		.2byte	0x148
 1954 07ff 00000000 		.4byte	.LFB11
 1955 0803 16000000 		.4byte	.LFE11-.LFB11
 1956 0807 01       		.uleb128 0x1
 1957 0808 9C       		.byte	0x9c
 1958 0809 60080000 		.4byte	0x860
 1959 080d 31       		.uleb128 0x31
 1960 080e 5B010000 		.4byte	.LASF26
 1961 0812 01       		.byte	0x1
 1962 0813 4801     		.2byte	0x148
 1963 0815 11030000 		.4byte	0x311
 1964 0819 01       		.uleb128 0x1
 1965 081a 50       		.byte	0x50
 1966 081b 31       		.uleb128 0x31
 1967 081c 79030000 		.4byte	.LASF60
 1968 0820 01       		.byte	0x1
 1969 0821 4801     		.2byte	0x148
 1970 0823 8A000000 		.4byte	0x8a
 1971 0827 01       		.uleb128 0x1
 1972 0828 51       		.byte	0x51
 1973 0829 31       		.uleb128 0x31
 1974 082a B0000000 		.4byte	.LASF61
 1975 082e 01       		.byte	0x1
 1976 082f 4801     		.2byte	0x148
 1977 0831 7A000000 		.4byte	0x7a
 1978 0835 01       		.uleb128 0x1
 1979 0836 52       		.byte	0x52
 1980 0837 2E       		.uleb128 0x2e
ARM GAS  /tmp/ccroL3wm.s 			page 36


 1981 0838 80030000 		.4byte	0x380
 1982 083c 04000000 		.4byte	.LBB92
 1983 0840 02000000 		.4byte	.LBE92-.LBB92
 1984 0844 01       		.byte	0x1
 1985 0845 4E01     		.2byte	0x14e
 1986 0847 32       		.uleb128 0x32
 1987 0848 A2030000 		.4byte	0x3a2
 1988 084c 01       		.uleb128 0x1
 1989 084d 52       		.byte	0x52
 1990 084e 32       		.uleb128 0x32
 1991 084f 97030000 		.4byte	0x397
 1992 0853 01       		.uleb128 0x1
 1993 0854 51       		.byte	0x51
 1994 0855 32       		.uleb128 0x32
 1995 0856 8C030000 		.4byte	0x38c
 1996 085a 03       		.uleb128 0x3
 1997 085b 70       		.byte	0x70
 1998 085c 14       		.sleb128 20
 1999 085d 9F       		.byte	0x9f
 2000 085e 00       		.byte	0
 2001 085f 00       		.byte	0
 2002 0860 33       		.uleb128 0x33
 2003 0861 57000000 		.4byte	.LASF62
 2004 0865 09       		.byte	0x9
 2005 0866 4B04     		.2byte	0x44b
 2006 0868 81000000 		.4byte	0x81
 2007 086c 33       		.uleb128 0x33
 2008 086d 8D030000 		.4byte	.LASF63
 2009 0871 09       		.byte	0x9
 2010 0872 6E04     		.2byte	0x46e
 2011 0874 0B010000 		.4byte	0x10b
 2012 0878 33       		.uleb128 0x33
 2013 0879 CB010000 		.4byte	.LASF36
 2014 087d 09       		.byte	0x9
 2015 087e A604     		.2byte	0x4a6
 2016 0880 84080000 		.4byte	0x884
 2017 0884 06       		.uleb128 0x6
 2018 0885 04       		.byte	0x4
 2019 0886 18020000 		.4byte	0x218
 2020 088a 33       		.uleb128 0x33
 2021 088b A4010000 		.4byte	.LASF64
 2022 088f 09       		.byte	0x9
 2023 0890 1905     		.2byte	0x519
 2024 0892 00010000 		.4byte	0x100
 2025 0896 34       		.uleb128 0x34
 2026 0897 DE010000 		.4byte	.LASF65
 2027 089b 09       		.byte	0x9
 2028 089c 1A02     		.2byte	0x21a
 2029 089e AD080000 		.4byte	0x8ad
 2030 08a2 25       		.uleb128 0x25
 2031 08a3 AD080000 		.4byte	0x8ad
 2032 08a7 25       		.uleb128 0x25
 2033 08a8 73000000 		.4byte	0x73
 2034 08ac 00       		.byte	0
 2035 08ad 06       		.uleb128 0x6
 2036 08ae 04       		.byte	0x4
 2037 08af B3080000 		.4byte	0x8b3
ARM GAS  /tmp/ccroL3wm.s 			page 37


 2038 08b3 35       		.uleb128 0x35
 2039 08b4 36       		.uleb128 0x36
 2040 08b5 90000000 		.4byte	.LASF66
 2041 08b9 81000000 		.4byte	0x81
 2042 08bd D1080000 		.4byte	0x8d1
 2043 08c1 25       		.uleb128 0x25
 2044 08c2 81000000 		.4byte	0x81
 2045 08c6 25       		.uleb128 0x25
 2046 08c7 AD080000 		.4byte	0x8ad
 2047 08cb 25       		.uleb128 0x25
 2048 08cc 83000000 		.4byte	0x83
 2049 08d0 00       		.byte	0
 2050 08d1 37       		.uleb128 0x37
 2051 08d2 81000000 		.4byte	.LASF67
 2052 08d6 0A       		.byte	0xa
 2053 08d7 00       		.byte	0
 2054 08d8 EF010000 		.4byte	.LASF74
 2055 08dc 73000000 		.4byte	0x73
 2056 08e0 25       		.uleb128 0x25
 2057 08e1 97000000 		.4byte	0x97
 2058 08e5 00       		.byte	0
 2059 08e6 00       		.byte	0
 2060              		.section	.debug_abbrev,"",%progbits
 2061              	.Ldebug_abbrev0:
 2062 0000 01       		.uleb128 0x1
 2063 0001 11       		.uleb128 0x11
 2064 0002 01       		.byte	0x1
 2065 0003 25       		.uleb128 0x25
 2066 0004 0E       		.uleb128 0xe
 2067 0005 13       		.uleb128 0x13
 2068 0006 0B       		.uleb128 0xb
 2069 0007 03       		.uleb128 0x3
 2070 0008 0E       		.uleb128 0xe
 2071 0009 1B       		.uleb128 0x1b
 2072 000a 0E       		.uleb128 0xe
 2073 000b 55       		.uleb128 0x55
 2074 000c 17       		.uleb128 0x17
 2075 000d 11       		.uleb128 0x11
 2076 000e 01       		.uleb128 0x1
 2077 000f 10       		.uleb128 0x10
 2078 0010 17       		.uleb128 0x17
 2079 0011 00       		.byte	0
 2080 0012 00       		.byte	0
 2081 0013 02       		.uleb128 0x2
 2082 0014 24       		.uleb128 0x24
 2083 0015 00       		.byte	0
 2084 0016 0B       		.uleb128 0xb
 2085 0017 0B       		.uleb128 0xb
 2086 0018 3E       		.uleb128 0x3e
 2087 0019 0B       		.uleb128 0xb
 2088 001a 03       		.uleb128 0x3
 2089 001b 0E       		.uleb128 0xe
 2090 001c 00       		.byte	0
 2091 001d 00       		.byte	0
 2092 001e 03       		.uleb128 0x3
 2093 001f 16       		.uleb128 0x16
 2094 0020 00       		.byte	0
ARM GAS  /tmp/ccroL3wm.s 			page 38


 2095 0021 03       		.uleb128 0x3
 2096 0022 0E       		.uleb128 0xe
 2097 0023 3A       		.uleb128 0x3a
 2098 0024 0B       		.uleb128 0xb
 2099 0025 3B       		.uleb128 0x3b
 2100 0026 0B       		.uleb128 0xb
 2101 0027 49       		.uleb128 0x49
 2102 0028 13       		.uleb128 0x13
 2103 0029 00       		.byte	0
 2104 002a 00       		.byte	0
 2105 002b 04       		.uleb128 0x4
 2106 002c 24       		.uleb128 0x24
 2107 002d 00       		.byte	0
 2108 002e 0B       		.uleb128 0xb
 2109 002f 0B       		.uleb128 0xb
 2110 0030 3E       		.uleb128 0x3e
 2111 0031 0B       		.uleb128 0xb
 2112 0032 03       		.uleb128 0x3
 2113 0033 08       		.uleb128 0x8
 2114 0034 00       		.byte	0
 2115 0035 00       		.byte	0
 2116 0036 05       		.uleb128 0x5
 2117 0037 0F       		.uleb128 0xf
 2118 0038 00       		.byte	0
 2119 0039 0B       		.uleb128 0xb
 2120 003a 0B       		.uleb128 0xb
 2121 003b 00       		.byte	0
 2122 003c 00       		.byte	0
 2123 003d 06       		.uleb128 0x6
 2124 003e 0F       		.uleb128 0xf
 2125 003f 00       		.byte	0
 2126 0040 0B       		.uleb128 0xb
 2127 0041 0B       		.uleb128 0xb
 2128 0042 49       		.uleb128 0x49
 2129 0043 13       		.uleb128 0x13
 2130 0044 00       		.byte	0
 2131 0045 00       		.byte	0
 2132 0046 07       		.uleb128 0x7
 2133 0047 26       		.uleb128 0x26
 2134 0048 00       		.byte	0
 2135 0049 49       		.uleb128 0x49
 2136 004a 13       		.uleb128 0x13
 2137 004b 00       		.byte	0
 2138 004c 00       		.byte	0
 2139 004d 08       		.uleb128 0x8
 2140 004e 13       		.uleb128 0x13
 2141 004f 01       		.byte	0x1
 2142 0050 03       		.uleb128 0x3
 2143 0051 0E       		.uleb128 0xe
 2144 0052 0B       		.uleb128 0xb
 2145 0053 0B       		.uleb128 0xb
 2146 0054 3A       		.uleb128 0x3a
 2147 0055 0B       		.uleb128 0xb
 2148 0056 3B       		.uleb128 0x3b
 2149 0057 0B       		.uleb128 0xb
 2150 0058 01       		.uleb128 0x1
 2151 0059 13       		.uleb128 0x13
ARM GAS  /tmp/ccroL3wm.s 			page 39


 2152 005a 00       		.byte	0
 2153 005b 00       		.byte	0
 2154 005c 09       		.uleb128 0x9
 2155 005d 0D       		.uleb128 0xd
 2156 005e 00       		.byte	0
 2157 005f 03       		.uleb128 0x3
 2158 0060 0E       		.uleb128 0xe
 2159 0061 3A       		.uleb128 0x3a
 2160 0062 0B       		.uleb128 0xb
 2161 0063 3B       		.uleb128 0x3b
 2162 0064 0B       		.uleb128 0xb
 2163 0065 49       		.uleb128 0x49
 2164 0066 13       		.uleb128 0x13
 2165 0067 38       		.uleb128 0x38
 2166 0068 0B       		.uleb128 0xb
 2167 0069 00       		.byte	0
 2168 006a 00       		.byte	0
 2169 006b 0A       		.uleb128 0xa
 2170 006c 13       		.uleb128 0x13
 2171 006d 01       		.byte	0x1
 2172 006e 03       		.uleb128 0x3
 2173 006f 08       		.uleb128 0x8
 2174 0070 0B       		.uleb128 0xb
 2175 0071 0B       		.uleb128 0xb
 2176 0072 3A       		.uleb128 0x3a
 2177 0073 0B       		.uleb128 0xb
 2178 0074 3B       		.uleb128 0x3b
 2179 0075 0B       		.uleb128 0xb
 2180 0076 01       		.uleb128 0x1
 2181 0077 13       		.uleb128 0x13
 2182 0078 00       		.byte	0
 2183 0079 00       		.byte	0
 2184 007a 0B       		.uleb128 0xb
 2185 007b 0D       		.uleb128 0xd
 2186 007c 00       		.byte	0
 2187 007d 03       		.uleb128 0x3
 2188 007e 08       		.uleb128 0x8
 2189 007f 3A       		.uleb128 0x3a
 2190 0080 0B       		.uleb128 0xb
 2191 0081 3B       		.uleb128 0x3b
 2192 0082 0B       		.uleb128 0xb
 2193 0083 49       		.uleb128 0x49
 2194 0084 13       		.uleb128 0x13
 2195 0085 38       		.uleb128 0x38
 2196 0086 0B       		.uleb128 0xb
 2197 0087 00       		.byte	0
 2198 0088 00       		.byte	0
 2199 0089 0C       		.uleb128 0xc
 2200 008a 01       		.uleb128 0x1
 2201 008b 01       		.byte	0x1
 2202 008c 49       		.uleb128 0x49
 2203 008d 13       		.uleb128 0x13
 2204 008e 01       		.uleb128 0x1
 2205 008f 13       		.uleb128 0x13
 2206 0090 00       		.byte	0
 2207 0091 00       		.byte	0
 2208 0092 0D       		.uleb128 0xd
ARM GAS  /tmp/ccroL3wm.s 			page 40


 2209 0093 21       		.uleb128 0x21
 2210 0094 00       		.byte	0
 2211 0095 49       		.uleb128 0x49
 2212 0096 13       		.uleb128 0x13
 2213 0097 2F       		.uleb128 0x2f
 2214 0098 0B       		.uleb128 0xb
 2215 0099 00       		.byte	0
 2216 009a 00       		.byte	0
 2217 009b 0E       		.uleb128 0xe
 2218 009c 13       		.uleb128 0x13
 2219 009d 01       		.byte	0x1
 2220 009e 03       		.uleb128 0x3
 2221 009f 0E       		.uleb128 0xe
 2222 00a0 0B       		.uleb128 0xb
 2223 00a1 0B       		.uleb128 0xb
 2224 00a2 3A       		.uleb128 0x3a
 2225 00a3 0B       		.uleb128 0xb
 2226 00a4 3B       		.uleb128 0x3b
 2227 00a5 05       		.uleb128 0x5
 2228 00a6 01       		.uleb128 0x1
 2229 00a7 13       		.uleb128 0x13
 2230 00a8 00       		.byte	0
 2231 00a9 00       		.byte	0
 2232 00aa 0F       		.uleb128 0xf
 2233 00ab 0D       		.uleb128 0xd
 2234 00ac 00       		.byte	0
 2235 00ad 03       		.uleb128 0x3
 2236 00ae 0E       		.uleb128 0xe
 2237 00af 3A       		.uleb128 0x3a
 2238 00b0 0B       		.uleb128 0xb
 2239 00b1 3B       		.uleb128 0x3b
 2240 00b2 05       		.uleb128 0x5
 2241 00b3 49       		.uleb128 0x49
 2242 00b4 13       		.uleb128 0x13
 2243 00b5 38       		.uleb128 0x38
 2244 00b6 0B       		.uleb128 0xb
 2245 00b7 00       		.byte	0
 2246 00b8 00       		.byte	0
 2247 00b9 10       		.uleb128 0x10
 2248 00ba 0D       		.uleb128 0xd
 2249 00bb 00       		.byte	0
 2250 00bc 03       		.uleb128 0x3
 2251 00bd 08       		.uleb128 0x8
 2252 00be 3A       		.uleb128 0x3a
 2253 00bf 0B       		.uleb128 0xb
 2254 00c0 3B       		.uleb128 0x3b
 2255 00c1 05       		.uleb128 0x5
 2256 00c2 49       		.uleb128 0x49
 2257 00c3 13       		.uleb128 0x13
 2258 00c4 38       		.uleb128 0x38
 2259 00c5 0B       		.uleb128 0xb
 2260 00c6 00       		.byte	0
 2261 00c7 00       		.byte	0
 2262 00c8 11       		.uleb128 0x11
 2263 00c9 2E       		.uleb128 0x2e
 2264 00ca 01       		.byte	0x1
 2265 00cb 03       		.uleb128 0x3
ARM GAS  /tmp/ccroL3wm.s 			page 41


 2266 00cc 0E       		.uleb128 0xe
 2267 00cd 3A       		.uleb128 0x3a
 2268 00ce 0B       		.uleb128 0xb
 2269 00cf 3B       		.uleb128 0x3b
 2270 00d0 0B       		.uleb128 0xb
 2271 00d1 27       		.uleb128 0x27
 2272 00d2 19       		.uleb128 0x19
 2273 00d3 49       		.uleb128 0x49
 2274 00d4 13       		.uleb128 0x13
 2275 00d5 20       		.uleb128 0x20
 2276 00d6 0B       		.uleb128 0xb
 2277 00d7 01       		.uleb128 0x1
 2278 00d8 13       		.uleb128 0x13
 2279 00d9 00       		.byte	0
 2280 00da 00       		.byte	0
 2281 00db 12       		.uleb128 0x12
 2282 00dc 05       		.uleb128 0x5
 2283 00dd 00       		.byte	0
 2284 00de 03       		.uleb128 0x3
 2285 00df 08       		.uleb128 0x8
 2286 00e0 3A       		.uleb128 0x3a
 2287 00e1 0B       		.uleb128 0xb
 2288 00e2 3B       		.uleb128 0x3b
 2289 00e3 0B       		.uleb128 0xb
 2290 00e4 49       		.uleb128 0x49
 2291 00e5 13       		.uleb128 0x13
 2292 00e6 00       		.byte	0
 2293 00e7 00       		.byte	0
 2294 00e8 13       		.uleb128 0x13
 2295 00e9 05       		.uleb128 0x5
 2296 00ea 00       		.byte	0
 2297 00eb 03       		.uleb128 0x3
 2298 00ec 0E       		.uleb128 0xe
 2299 00ed 3A       		.uleb128 0x3a
 2300 00ee 0B       		.uleb128 0xb
 2301 00ef 3B       		.uleb128 0x3b
 2302 00f0 0B       		.uleb128 0xb
 2303 00f1 49       		.uleb128 0x49
 2304 00f2 13       		.uleb128 0x13
 2305 00f3 00       		.byte	0
 2306 00f4 00       		.byte	0
 2307 00f5 14       		.uleb128 0x14
 2308 00f6 2E       		.uleb128 0x2e
 2309 00f7 01       		.byte	0x1
 2310 00f8 3F       		.uleb128 0x3f
 2311 00f9 19       		.uleb128 0x19
 2312 00fa 03       		.uleb128 0x3
 2313 00fb 0E       		.uleb128 0xe
 2314 00fc 3A       		.uleb128 0x3a
 2315 00fd 0B       		.uleb128 0xb
 2316 00fe 3B       		.uleb128 0x3b
 2317 00ff 0B       		.uleb128 0xb
 2318 0100 27       		.uleb128 0x27
 2319 0101 19       		.uleb128 0x19
 2320 0102 49       		.uleb128 0x49
 2321 0103 13       		.uleb128 0x13
 2322 0104 20       		.uleb128 0x20
ARM GAS  /tmp/ccroL3wm.s 			page 42


 2323 0105 0B       		.uleb128 0xb
 2324 0106 01       		.uleb128 0x1
 2325 0107 13       		.uleb128 0x13
 2326 0108 00       		.byte	0
 2327 0109 00       		.byte	0
 2328 010a 15       		.uleb128 0x15
 2329 010b 2E       		.uleb128 0x2e
 2330 010c 01       		.byte	0x1
 2331 010d 03       		.uleb128 0x3
 2332 010e 0E       		.uleb128 0xe
 2333 010f 3A       		.uleb128 0x3a
 2334 0110 0B       		.uleb128 0xb
 2335 0111 3B       		.uleb128 0x3b
 2336 0112 0B       		.uleb128 0xb
 2337 0113 27       		.uleb128 0x27
 2338 0114 19       		.uleb128 0x19
 2339 0115 20       		.uleb128 0x20
 2340 0116 0B       		.uleb128 0xb
 2341 0117 01       		.uleb128 0x1
 2342 0118 13       		.uleb128 0x13
 2343 0119 00       		.byte	0
 2344 011a 00       		.byte	0
 2345 011b 16       		.uleb128 0x16
 2346 011c 2E       		.uleb128 0x2e
 2347 011d 01       		.byte	0x1
 2348 011e 03       		.uleb128 0x3
 2349 011f 0E       		.uleb128 0xe
 2350 0120 3A       		.uleb128 0x3a
 2351 0121 0B       		.uleb128 0xb
 2352 0122 3B       		.uleb128 0x3b
 2353 0123 0B       		.uleb128 0xb
 2354 0124 27       		.uleb128 0x27
 2355 0125 19       		.uleb128 0x19
 2356 0126 49       		.uleb128 0x49
 2357 0127 13       		.uleb128 0x13
 2358 0128 11       		.uleb128 0x11
 2359 0129 01       		.uleb128 0x1
 2360 012a 12       		.uleb128 0x12
 2361 012b 06       		.uleb128 0x6
 2362 012c 40       		.uleb128 0x40
 2363 012d 18       		.uleb128 0x18
 2364 012e 9742     		.uleb128 0x2117
 2365 0130 19       		.uleb128 0x19
 2366 0131 01       		.uleb128 0x1
 2367 0132 13       		.uleb128 0x13
 2368 0133 00       		.byte	0
 2369 0134 00       		.byte	0
 2370 0135 17       		.uleb128 0x17
 2371 0136 05       		.uleb128 0x5
 2372 0137 00       		.byte	0
 2373 0138 03       		.uleb128 0x3
 2374 0139 08       		.uleb128 0x8
 2375 013a 3A       		.uleb128 0x3a
 2376 013b 0B       		.uleb128 0xb
 2377 013c 3B       		.uleb128 0x3b
 2378 013d 0B       		.uleb128 0xb
 2379 013e 49       		.uleb128 0x49
ARM GAS  /tmp/ccroL3wm.s 			page 43


 2380 013f 13       		.uleb128 0x13
 2381 0140 02       		.uleb128 0x2
 2382 0141 17       		.uleb128 0x17
 2383 0142 00       		.byte	0
 2384 0143 00       		.byte	0
 2385 0144 18       		.uleb128 0x18
 2386 0145 898201   		.uleb128 0x4109
 2387 0148 00       		.byte	0
 2388 0149 11       		.uleb128 0x11
 2389 014a 01       		.uleb128 0x1
 2390 014b 31       		.uleb128 0x31
 2391 014c 13       		.uleb128 0x13
 2392 014d 00       		.byte	0
 2393 014e 00       		.byte	0
 2394 014f 19       		.uleb128 0x19
 2395 0150 2E       		.uleb128 0x2e
 2396 0151 01       		.byte	0x1
 2397 0152 31       		.uleb128 0x31
 2398 0153 13       		.uleb128 0x13
 2399 0154 11       		.uleb128 0x11
 2400 0155 01       		.uleb128 0x1
 2401 0156 12       		.uleb128 0x12
 2402 0157 06       		.uleb128 0x6
 2403 0158 40       		.uleb128 0x40
 2404 0159 18       		.uleb128 0x18
 2405 015a 9742     		.uleb128 0x2117
 2406 015c 19       		.uleb128 0x19
 2407 015d 01       		.uleb128 0x1
 2408 015e 13       		.uleb128 0x13
 2409 015f 00       		.byte	0
 2410 0160 00       		.byte	0
 2411 0161 1A       		.uleb128 0x1a
 2412 0162 05       		.uleb128 0x5
 2413 0163 00       		.byte	0
 2414 0164 31       		.uleb128 0x31
 2415 0165 13       		.uleb128 0x13
 2416 0166 02       		.uleb128 0x2
 2417 0167 17       		.uleb128 0x17
 2418 0168 00       		.byte	0
 2419 0169 00       		.byte	0
 2420 016a 1B       		.uleb128 0x1b
 2421 016b 0B       		.uleb128 0xb
 2422 016c 01       		.byte	0x1
 2423 016d 11       		.uleb128 0x11
 2424 016e 01       		.uleb128 0x1
 2425 016f 12       		.uleb128 0x12
 2426 0170 06       		.uleb128 0x6
 2427 0171 00       		.byte	0
 2428 0172 00       		.byte	0
 2429 0173 1C       		.uleb128 0x1c
 2430 0174 2E       		.uleb128 0x2e
 2431 0175 01       		.byte	0x1
 2432 0176 3F       		.uleb128 0x3f
 2433 0177 19       		.uleb128 0x19
 2434 0178 03       		.uleb128 0x3
 2435 0179 0E       		.uleb128 0xe
 2436 017a 3A       		.uleb128 0x3a
ARM GAS  /tmp/ccroL3wm.s 			page 44


 2437 017b 0B       		.uleb128 0xb
 2438 017c 3B       		.uleb128 0x3b
 2439 017d 0B       		.uleb128 0xb
 2440 017e 27       		.uleb128 0x27
 2441 017f 19       		.uleb128 0x19
 2442 0180 49       		.uleb128 0x49
 2443 0181 13       		.uleb128 0x13
 2444 0182 11       		.uleb128 0x11
 2445 0183 01       		.uleb128 0x1
 2446 0184 12       		.uleb128 0x12
 2447 0185 06       		.uleb128 0x6
 2448 0186 40       		.uleb128 0x40
 2449 0187 18       		.uleb128 0x18
 2450 0188 9742     		.uleb128 0x2117
 2451 018a 19       		.uleb128 0x19
 2452 018b 01       		.uleb128 0x1
 2453 018c 13       		.uleb128 0x13
 2454 018d 00       		.byte	0
 2455 018e 00       		.byte	0
 2456 018f 1D       		.uleb128 0x1d
 2457 0190 0B       		.uleb128 0xb
 2458 0191 01       		.byte	0x1
 2459 0192 55       		.uleb128 0x55
 2460 0193 17       		.uleb128 0x17
 2461 0194 00       		.byte	0
 2462 0195 00       		.byte	0
 2463 0196 1E       		.uleb128 0x1e
 2464 0197 34       		.uleb128 0x34
 2465 0198 00       		.byte	0
 2466 0199 03       		.uleb128 0x3
 2467 019a 0E       		.uleb128 0xe
 2468 019b 3A       		.uleb128 0x3a
 2469 019c 0B       		.uleb128 0xb
 2470 019d 3B       		.uleb128 0x3b
 2471 019e 0B       		.uleb128 0xb
 2472 019f 49       		.uleb128 0x49
 2473 01a0 13       		.uleb128 0x13
 2474 01a1 02       		.uleb128 0x2
 2475 01a2 17       		.uleb128 0x17
 2476 01a3 00       		.byte	0
 2477 01a4 00       		.byte	0
 2478 01a5 1F       		.uleb128 0x1f
 2479 01a6 898201   		.uleb128 0x4109
 2480 01a9 01       		.byte	0x1
 2481 01aa 11       		.uleb128 0x11
 2482 01ab 01       		.uleb128 0x1
 2483 01ac 31       		.uleb128 0x31
 2484 01ad 13       		.uleb128 0x13
 2485 01ae 01       		.uleb128 0x1
 2486 01af 13       		.uleb128 0x13
 2487 01b0 00       		.byte	0
 2488 01b1 00       		.byte	0
 2489 01b2 20       		.uleb128 0x20
 2490 01b3 8A8201   		.uleb128 0x410a
 2491 01b6 00       		.byte	0
 2492 01b7 02       		.uleb128 0x2
 2493 01b8 18       		.uleb128 0x18
ARM GAS  /tmp/ccroL3wm.s 			page 45


 2494 01b9 9142     		.uleb128 0x2111
 2495 01bb 18       		.uleb128 0x18
 2496 01bc 00       		.byte	0
 2497 01bd 00       		.byte	0
 2498 01be 21       		.uleb128 0x21
 2499 01bf 898201   		.uleb128 0x4109
 2500 01c2 01       		.byte	0x1
 2501 01c3 11       		.uleb128 0x11
 2502 01c4 01       		.uleb128 0x1
 2503 01c5 31       		.uleb128 0x31
 2504 01c6 13       		.uleb128 0x13
 2505 01c7 00       		.byte	0
 2506 01c8 00       		.byte	0
 2507 01c9 22       		.uleb128 0x22
 2508 01ca 05       		.uleb128 0x5
 2509 01cb 00       		.byte	0
 2510 01cc 03       		.uleb128 0x3
 2511 01cd 0E       		.uleb128 0xe
 2512 01ce 3A       		.uleb128 0x3a
 2513 01cf 0B       		.uleb128 0xb
 2514 01d0 3B       		.uleb128 0x3b
 2515 01d1 0B       		.uleb128 0xb
 2516 01d2 49       		.uleb128 0x49
 2517 01d3 13       		.uleb128 0x13
 2518 01d4 02       		.uleb128 0x2
 2519 01d5 17       		.uleb128 0x17
 2520 01d6 00       		.byte	0
 2521 01d7 00       		.byte	0
 2522 01d8 23       		.uleb128 0x23
 2523 01d9 898201   		.uleb128 0x4109
 2524 01dc 01       		.byte	0x1
 2525 01dd 11       		.uleb128 0x11
 2526 01de 01       		.uleb128 0x1
 2527 01df 01       		.uleb128 0x1
 2528 01e0 13       		.uleb128 0x13
 2529 01e1 00       		.byte	0
 2530 01e2 00       		.byte	0
 2531 01e3 24       		.uleb128 0x24
 2532 01e4 15       		.uleb128 0x15
 2533 01e5 01       		.byte	0x1
 2534 01e6 27       		.uleb128 0x27
 2535 01e7 19       		.uleb128 0x19
 2536 01e8 49       		.uleb128 0x49
 2537 01e9 13       		.uleb128 0x13
 2538 01ea 01       		.uleb128 0x1
 2539 01eb 13       		.uleb128 0x13
 2540 01ec 00       		.byte	0
 2541 01ed 00       		.byte	0
 2542 01ee 25       		.uleb128 0x25
 2543 01ef 05       		.uleb128 0x5
 2544 01f0 00       		.byte	0
 2545 01f1 49       		.uleb128 0x49
 2546 01f2 13       		.uleb128 0x13
 2547 01f3 00       		.byte	0
 2548 01f4 00       		.byte	0
 2549 01f5 26       		.uleb128 0x26
 2550 01f6 34       		.uleb128 0x34
ARM GAS  /tmp/ccroL3wm.s 			page 46


 2551 01f7 00       		.byte	0
 2552 01f8 03       		.uleb128 0x3
 2553 01f9 08       		.uleb128 0x8
 2554 01fa 3A       		.uleb128 0x3a
 2555 01fb 0B       		.uleb128 0xb
 2556 01fc 3B       		.uleb128 0x3b
 2557 01fd 0B       		.uleb128 0xb
 2558 01fe 49       		.uleb128 0x49
 2559 01ff 13       		.uleb128 0x13
 2560 0200 00       		.byte	0
 2561 0201 00       		.byte	0
 2562 0202 27       		.uleb128 0x27
 2563 0203 2E       		.uleb128 0x2e
 2564 0204 01       		.byte	0x1
 2565 0205 3F       		.uleb128 0x3f
 2566 0206 19       		.uleb128 0x19
 2567 0207 03       		.uleb128 0x3
 2568 0208 0E       		.uleb128 0xe
 2569 0209 3A       		.uleb128 0x3a
 2570 020a 0B       		.uleb128 0xb
 2571 020b 3B       		.uleb128 0x3b
 2572 020c 05       		.uleb128 0x5
 2573 020d 27       		.uleb128 0x27
 2574 020e 19       		.uleb128 0x19
 2575 020f 49       		.uleb128 0x49
 2576 0210 13       		.uleb128 0x13
 2577 0211 11       		.uleb128 0x11
 2578 0212 01       		.uleb128 0x1
 2579 0213 12       		.uleb128 0x12
 2580 0214 06       		.uleb128 0x6
 2581 0215 40       		.uleb128 0x40
 2582 0216 18       		.uleb128 0x18
 2583 0217 9742     		.uleb128 0x2117
 2584 0219 19       		.uleb128 0x19
 2585 021a 01       		.uleb128 0x1
 2586 021b 13       		.uleb128 0x13
 2587 021c 00       		.byte	0
 2588 021d 00       		.byte	0
 2589 021e 28       		.uleb128 0x28
 2590 021f 05       		.uleb128 0x5
 2591 0220 00       		.byte	0
 2592 0221 03       		.uleb128 0x3
 2593 0222 0E       		.uleb128 0xe
 2594 0223 3A       		.uleb128 0x3a
 2595 0224 0B       		.uleb128 0xb
 2596 0225 3B       		.uleb128 0x3b
 2597 0226 05       		.uleb128 0x5
 2598 0227 49       		.uleb128 0x49
 2599 0228 13       		.uleb128 0x13
 2600 0229 02       		.uleb128 0x2
 2601 022a 17       		.uleb128 0x17
 2602 022b 00       		.byte	0
 2603 022c 00       		.byte	0
 2604 022d 29       		.uleb128 0x29
 2605 022e 05       		.uleb128 0x5
 2606 022f 00       		.byte	0
 2607 0230 03       		.uleb128 0x3
ARM GAS  /tmp/ccroL3wm.s 			page 47


 2608 0231 08       		.uleb128 0x8
 2609 0232 3A       		.uleb128 0x3a
 2610 0233 0B       		.uleb128 0xb
 2611 0234 3B       		.uleb128 0x3b
 2612 0235 05       		.uleb128 0x5
 2613 0236 49       		.uleb128 0x49
 2614 0237 13       		.uleb128 0x13
 2615 0238 02       		.uleb128 0x2
 2616 0239 18       		.uleb128 0x18
 2617 023a 00       		.byte	0
 2618 023b 00       		.byte	0
 2619 023c 2A       		.uleb128 0x2a
 2620 023d 34       		.uleb128 0x34
 2621 023e 00       		.byte	0
 2622 023f 03       		.uleb128 0x3
 2623 0240 0E       		.uleb128 0xe
 2624 0241 3A       		.uleb128 0x3a
 2625 0242 0B       		.uleb128 0xb
 2626 0243 3B       		.uleb128 0x3b
 2627 0244 05       		.uleb128 0x5
 2628 0245 49       		.uleb128 0x49
 2629 0246 13       		.uleb128 0x13
 2630 0247 02       		.uleb128 0x2
 2631 0248 17       		.uleb128 0x17
 2632 0249 00       		.byte	0
 2633 024a 00       		.byte	0
 2634 024b 2B       		.uleb128 0x2b
 2635 024c 1D       		.uleb128 0x1d
 2636 024d 01       		.byte	0x1
 2637 024e 31       		.uleb128 0x31
 2638 024f 13       		.uleb128 0x13
 2639 0250 52       		.uleb128 0x52
 2640 0251 01       		.uleb128 0x1
 2641 0252 55       		.uleb128 0x55
 2642 0253 17       		.uleb128 0x17
 2643 0254 58       		.uleb128 0x58
 2644 0255 0B       		.uleb128 0xb
 2645 0256 59       		.uleb128 0x59
 2646 0257 05       		.uleb128 0x5
 2647 0258 01       		.uleb128 0x1
 2648 0259 13       		.uleb128 0x13
 2649 025a 00       		.byte	0
 2650 025b 00       		.byte	0
 2651 025c 2C       		.uleb128 0x2c
 2652 025d 05       		.uleb128 0x5
 2653 025e 00       		.byte	0
 2654 025f 31       		.uleb128 0x31
 2655 0260 13       		.uleb128 0x13
 2656 0261 00       		.byte	0
 2657 0262 00       		.byte	0
 2658 0263 2D       		.uleb128 0x2d
 2659 0264 34       		.uleb128 0x34
 2660 0265 00       		.byte	0
 2661 0266 31       		.uleb128 0x31
 2662 0267 13       		.uleb128 0x13
 2663 0268 02       		.uleb128 0x2
 2664 0269 17       		.uleb128 0x17
ARM GAS  /tmp/ccroL3wm.s 			page 48


 2665 026a 00       		.byte	0
 2666 026b 00       		.byte	0
 2667 026c 2E       		.uleb128 0x2e
 2668 026d 1D       		.uleb128 0x1d
 2669 026e 01       		.byte	0x1
 2670 026f 31       		.uleb128 0x31
 2671 0270 13       		.uleb128 0x13
 2672 0271 11       		.uleb128 0x11
 2673 0272 01       		.uleb128 0x1
 2674 0273 12       		.uleb128 0x12
 2675 0274 06       		.uleb128 0x6
 2676 0275 58       		.uleb128 0x58
 2677 0276 0B       		.uleb128 0xb
 2678 0277 59       		.uleb128 0x59
 2679 0278 05       		.uleb128 0x5
 2680 0279 00       		.byte	0
 2681 027a 00       		.byte	0
 2682 027b 2F       		.uleb128 0x2f
 2683 027c 1D       		.uleb128 0x1d
 2684 027d 01       		.byte	0x1
 2685 027e 31       		.uleb128 0x31
 2686 027f 13       		.uleb128 0x13
 2687 0280 11       		.uleb128 0x11
 2688 0281 01       		.uleb128 0x1
 2689 0282 12       		.uleb128 0x12
 2690 0283 06       		.uleb128 0x6
 2691 0284 58       		.uleb128 0x58
 2692 0285 0B       		.uleb128 0xb
 2693 0286 59       		.uleb128 0x59
 2694 0287 05       		.uleb128 0x5
 2695 0288 01       		.uleb128 0x1
 2696 0289 13       		.uleb128 0x13
 2697 028a 00       		.byte	0
 2698 028b 00       		.byte	0
 2699 028c 30       		.uleb128 0x30
 2700 028d 2E       		.uleb128 0x2e
 2701 028e 01       		.byte	0x1
 2702 028f 3F       		.uleb128 0x3f
 2703 0290 19       		.uleb128 0x19
 2704 0291 03       		.uleb128 0x3
 2705 0292 0E       		.uleb128 0xe
 2706 0293 3A       		.uleb128 0x3a
 2707 0294 0B       		.uleb128 0xb
 2708 0295 3B       		.uleb128 0x3b
 2709 0296 05       		.uleb128 0x5
 2710 0297 27       		.uleb128 0x27
 2711 0298 19       		.uleb128 0x19
 2712 0299 11       		.uleb128 0x11
 2713 029a 01       		.uleb128 0x1
 2714 029b 12       		.uleb128 0x12
 2715 029c 06       		.uleb128 0x6
 2716 029d 40       		.uleb128 0x40
 2717 029e 18       		.uleb128 0x18
 2718 029f 9742     		.uleb128 0x2117
 2719 02a1 19       		.uleb128 0x19
 2720 02a2 01       		.uleb128 0x1
 2721 02a3 13       		.uleb128 0x13
ARM GAS  /tmp/ccroL3wm.s 			page 49


 2722 02a4 00       		.byte	0
 2723 02a5 00       		.byte	0
 2724 02a6 31       		.uleb128 0x31
 2725 02a7 05       		.uleb128 0x5
 2726 02a8 00       		.byte	0
 2727 02a9 03       		.uleb128 0x3
 2728 02aa 0E       		.uleb128 0xe
 2729 02ab 3A       		.uleb128 0x3a
 2730 02ac 0B       		.uleb128 0xb
 2731 02ad 3B       		.uleb128 0x3b
 2732 02ae 05       		.uleb128 0x5
 2733 02af 49       		.uleb128 0x49
 2734 02b0 13       		.uleb128 0x13
 2735 02b1 02       		.uleb128 0x2
 2736 02b2 18       		.uleb128 0x18
 2737 02b3 00       		.byte	0
 2738 02b4 00       		.byte	0
 2739 02b5 32       		.uleb128 0x32
 2740 02b6 05       		.uleb128 0x5
 2741 02b7 00       		.byte	0
 2742 02b8 31       		.uleb128 0x31
 2743 02b9 13       		.uleb128 0x13
 2744 02ba 02       		.uleb128 0x2
 2745 02bb 18       		.uleb128 0x18
 2746 02bc 00       		.byte	0
 2747 02bd 00       		.byte	0
 2748 02be 33       		.uleb128 0x33
 2749 02bf 34       		.uleb128 0x34
 2750 02c0 00       		.byte	0
 2751 02c1 03       		.uleb128 0x3
 2752 02c2 0E       		.uleb128 0xe
 2753 02c3 3A       		.uleb128 0x3a
 2754 02c4 0B       		.uleb128 0xb
 2755 02c5 3B       		.uleb128 0x3b
 2756 02c6 05       		.uleb128 0x5
 2757 02c7 49       		.uleb128 0x49
 2758 02c8 13       		.uleb128 0x13
 2759 02c9 3F       		.uleb128 0x3f
 2760 02ca 19       		.uleb128 0x19
 2761 02cb 3C       		.uleb128 0x3c
 2762 02cc 19       		.uleb128 0x19
 2763 02cd 00       		.byte	0
 2764 02ce 00       		.byte	0
 2765 02cf 34       		.uleb128 0x34
 2766 02d0 2E       		.uleb128 0x2e
 2767 02d1 01       		.byte	0x1
 2768 02d2 3F       		.uleb128 0x3f
 2769 02d3 19       		.uleb128 0x19
 2770 02d4 03       		.uleb128 0x3
 2771 02d5 0E       		.uleb128 0xe
 2772 02d6 3A       		.uleb128 0x3a
 2773 02d7 0B       		.uleb128 0xb
 2774 02d8 3B       		.uleb128 0x3b
 2775 02d9 05       		.uleb128 0x5
 2776 02da 27       		.uleb128 0x27
 2777 02db 19       		.uleb128 0x19
 2778 02dc 3C       		.uleb128 0x3c
ARM GAS  /tmp/ccroL3wm.s 			page 50


 2779 02dd 19       		.uleb128 0x19
 2780 02de 01       		.uleb128 0x1
 2781 02df 13       		.uleb128 0x13
 2782 02e0 00       		.byte	0
 2783 02e1 00       		.byte	0
 2784 02e2 35       		.uleb128 0x35
 2785 02e3 26       		.uleb128 0x26
 2786 02e4 00       		.byte	0
 2787 02e5 00       		.byte	0
 2788 02e6 00       		.byte	0
 2789 02e7 36       		.uleb128 0x36
 2790 02e8 2E       		.uleb128 0x2e
 2791 02e9 01       		.byte	0x1
 2792 02ea 3F       		.uleb128 0x3f
 2793 02eb 19       		.uleb128 0x19
 2794 02ec 03       		.uleb128 0x3
 2795 02ed 0E       		.uleb128 0xe
 2796 02ee 27       		.uleb128 0x27
 2797 02ef 19       		.uleb128 0x19
 2798 02f0 49       		.uleb128 0x49
 2799 02f1 13       		.uleb128 0x13
 2800 02f2 34       		.uleb128 0x34
 2801 02f3 19       		.uleb128 0x19
 2802 02f4 3C       		.uleb128 0x3c
 2803 02f5 19       		.uleb128 0x19
 2804 02f6 01       		.uleb128 0x1
 2805 02f7 13       		.uleb128 0x13
 2806 02f8 00       		.byte	0
 2807 02f9 00       		.byte	0
 2808 02fa 37       		.uleb128 0x37
 2809 02fb 2E       		.uleb128 0x2e
 2810 02fc 01       		.byte	0x1
 2811 02fd 3F       		.uleb128 0x3f
 2812 02fe 19       		.uleb128 0x19
 2813 02ff 03       		.uleb128 0x3
 2814 0300 0E       		.uleb128 0xe
 2815 0301 3A       		.uleb128 0x3a
 2816 0302 0B       		.uleb128 0xb
 2817 0303 3B       		.uleb128 0x3b
 2818 0304 0B       		.uleb128 0xb
 2819 0305 6E       		.uleb128 0x6e
 2820 0306 0E       		.uleb128 0xe
 2821 0307 27       		.uleb128 0x27
 2822 0308 19       		.uleb128 0x19
 2823 0309 49       		.uleb128 0x49
 2824 030a 13       		.uleb128 0x13
 2825 030b 3C       		.uleb128 0x3c
 2826 030c 19       		.uleb128 0x19
 2827 030d 00       		.byte	0
 2828 030e 00       		.byte	0
 2829 030f 00       		.byte	0
 2830              		.section	.debug_loc,"",%progbits
 2831              	.Ldebug_loc0:
 2832              	.LLST0:
 2833 0000 00000000 		.4byte	.LVL0
 2834 0004 0C000000 		.4byte	.LVL1
 2835 0008 0100     		.2byte	0x1
ARM GAS  /tmp/ccroL3wm.s 			page 51


 2836 000a 50       		.byte	0x50
 2837 000b 0C000000 		.4byte	.LVL1
 2838 000f 2A000000 		.4byte	.LVL3
 2839 0013 0100     		.2byte	0x1
 2840 0015 54       		.byte	0x54
 2841 0016 2A000000 		.4byte	.LVL3
 2842 001a 36000000 		.4byte	.LVL4
 2843 001e 0100     		.2byte	0x1
 2844 0020 50       		.byte	0x50
 2845 0021 36000000 		.4byte	.LVL4
 2846 0025 3C000000 		.4byte	.LVL5
 2847 0029 0100     		.2byte	0x1
 2848 002b 54       		.byte	0x54
 2849 002c 3C000000 		.4byte	.LVL5
 2850 0030 44000000 		.4byte	.LFE3
 2851 0034 0400     		.2byte	0x4
 2852 0036 F3       		.byte	0xf3
 2853 0037 01       		.uleb128 0x1
 2854 0038 50       		.byte	0x50
 2855 0039 9F       		.byte	0x9f
 2856 003a 00000000 		.4byte	0
 2857 003e 00000000 		.4byte	0
 2858              	.LLST1:
 2859 0042 00000000 		.4byte	.LVL6
 2860 0046 0A000000 		.4byte	.LVL7
 2861 004a 0100     		.2byte	0x1
 2862 004c 50       		.byte	0x50
 2863 004d 0A000000 		.4byte	.LVL7
 2864 0051 0C000000 		.4byte	.LVL8
 2865 0055 0400     		.2byte	0x4
 2866 0057 F3       		.byte	0xf3
 2867 0058 01       		.uleb128 0x1
 2868 0059 50       		.byte	0x50
 2869 005a 9F       		.byte	0x9f
 2870 005b 0C000000 		.4byte	.LVL8
 2871 005f 34000000 		.4byte	.LVL10
 2872 0063 0100     		.2byte	0x1
 2873 0065 50       		.byte	0x50
 2874 0066 34000000 		.4byte	.LVL10
 2875 006a 36000000 		.4byte	.LVL11
 2876 006e 0400     		.2byte	0x4
 2877 0070 F3       		.byte	0xf3
 2878 0071 01       		.uleb128 0x1
 2879 0072 50       		.byte	0x50
 2880 0073 9F       		.byte	0x9f
 2881 0074 36000000 		.4byte	.LVL11
 2882 0078 4A000000 		.4byte	.LVL12
 2883 007c 0100     		.2byte	0x1
 2884 007e 50       		.byte	0x50
 2885 007f 4A000000 		.4byte	.LVL12
 2886 0083 4C000000 		.4byte	.LVL13
 2887 0087 0400     		.2byte	0x4
 2888 0089 F3       		.byte	0xf3
 2889 008a 01       		.uleb128 0x1
 2890 008b 50       		.byte	0x50
 2891 008c 9F       		.byte	0x9f
 2892 008d 4C000000 		.4byte	.LVL13
ARM GAS  /tmp/ccroL3wm.s 			page 52


 2893 0091 4E000000 		.4byte	.LVL14
 2894 0095 0100     		.2byte	0x1
 2895 0097 50       		.byte	0x50
 2896 0098 4E000000 		.4byte	.LVL14
 2897 009c 58000000 		.4byte	.LFE4
 2898 00a0 0400     		.2byte	0x4
 2899 00a2 F3       		.byte	0xf3
 2900 00a3 01       		.uleb128 0x1
 2901 00a4 50       		.byte	0x50
 2902 00a5 9F       		.byte	0x9f
 2903 00a6 00000000 		.4byte	0
 2904 00aa 00000000 		.4byte	0
 2905              	.LLST2:
 2906 00ae 16000000 		.4byte	.LVL9
 2907 00b2 34000000 		.4byte	.LVL10
 2908 00b6 0100     		.2byte	0x1
 2909 00b8 50       		.byte	0x50
 2910 00b9 34000000 		.4byte	.LVL10
 2911 00bd 36000000 		.4byte	.LVL11
 2912 00c1 0400     		.2byte	0x4
 2913 00c3 F3       		.byte	0xf3
 2914 00c4 01       		.uleb128 0x1
 2915 00c5 50       		.byte	0x50
 2916 00c6 9F       		.byte	0x9f
 2917 00c7 36000000 		.4byte	.LVL11
 2918 00cb 4A000000 		.4byte	.LVL12
 2919 00cf 0100     		.2byte	0x1
 2920 00d1 50       		.byte	0x50
 2921 00d2 4A000000 		.4byte	.LVL12
 2922 00d6 4C000000 		.4byte	.LVL13
 2923 00da 0400     		.2byte	0x4
 2924 00dc F3       		.byte	0xf3
 2925 00dd 01       		.uleb128 0x1
 2926 00de 50       		.byte	0x50
 2927 00df 9F       		.byte	0x9f
 2928 00e0 00000000 		.4byte	0
 2929 00e4 00000000 		.4byte	0
 2930              	.LLST3:
 2931 00e8 00000000 		.4byte	.LVL15
 2932 00ec 0C000000 		.4byte	.LVL16
 2933 00f0 0100     		.2byte	0x1
 2934 00f2 50       		.byte	0x50
 2935 00f3 0C000000 		.4byte	.LVL16
 2936 00f7 32000000 		.4byte	.LVL21
 2937 00fb 0100     		.2byte	0x1
 2938 00fd 54       		.byte	0x54
 2939 00fe 32000000 		.4byte	.LVL21
 2940 0102 42000000 		.4byte	.LVL23
 2941 0106 0100     		.2byte	0x1
 2942 0108 50       		.byte	0x50
 2943 0109 42000000 		.4byte	.LVL23
 2944 010d 48000000 		.4byte	.LVL24
 2945 0111 0100     		.2byte	0x1
 2946 0113 54       		.byte	0x54
 2947 0114 48000000 		.4byte	.LVL24
 2948 0118 4C000000 		.4byte	.LVL25
 2949 011c 0100     		.2byte	0x1
ARM GAS  /tmp/ccroL3wm.s 			page 53


 2950 011e 50       		.byte	0x50
 2951 011f 4C000000 		.4byte	.LVL25
 2952 0123 4E000000 		.4byte	.LFE5
 2953 0127 0100     		.2byte	0x1
 2954 0129 54       		.byte	0x54
 2955 012a 00000000 		.4byte	0
 2956 012e 00000000 		.4byte	0
 2957              	.LLST4:
 2958 0132 00000000 		.4byte	.LVL15
 2959 0136 0C000000 		.4byte	.LVL16
 2960 013a 0100     		.2byte	0x1
 2961 013c 51       		.byte	0x51
 2962 013d 0C000000 		.4byte	.LVL16
 2963 0141 32000000 		.4byte	.LVL21
 2964 0145 0400     		.2byte	0x4
 2965 0147 F3       		.byte	0xf3
 2966 0148 01       		.uleb128 0x1
 2967 0149 51       		.byte	0x51
 2968 014a 9F       		.byte	0x9f
 2969 014b 32000000 		.4byte	.LVL21
 2970 014f 42000000 		.4byte	.LVL23
 2971 0153 0100     		.2byte	0x1
 2972 0155 51       		.byte	0x51
 2973 0156 42000000 		.4byte	.LVL23
 2974 015a 48000000 		.4byte	.LVL24
 2975 015e 0400     		.2byte	0x4
 2976 0160 F3       		.byte	0xf3
 2977 0161 01       		.uleb128 0x1
 2978 0162 51       		.byte	0x51
 2979 0163 9F       		.byte	0x9f
 2980 0164 48000000 		.4byte	.LVL24
 2981 0168 4E000000 		.4byte	.LFE5
 2982 016c 0100     		.2byte	0x1
 2983 016e 51       		.byte	0x51
 2984 016f 00000000 		.4byte	0
 2985 0173 00000000 		.4byte	0
 2986              	.LLST5:
 2987 0177 00000000 		.4byte	.LVL15
 2988 017b 0C000000 		.4byte	.LVL16
 2989 017f 0100     		.2byte	0x1
 2990 0181 52       		.byte	0x52
 2991 0182 0C000000 		.4byte	.LVL16
 2992 0186 32000000 		.4byte	.LVL21
 2993 018a 0400     		.2byte	0x4
 2994 018c F3       		.byte	0xf3
 2995 018d 01       		.uleb128 0x1
 2996 018e 52       		.byte	0x52
 2997 018f 9F       		.byte	0x9f
 2998 0190 32000000 		.4byte	.LVL21
 2999 0194 36000000 		.4byte	.LVL22
 3000 0198 0100     		.2byte	0x1
 3001 019a 52       		.byte	0x52
 3002 019b 36000000 		.4byte	.LVL22
 3003 019f 48000000 		.4byte	.LVL24
 3004 01a3 0400     		.2byte	0x4
 3005 01a5 F3       		.byte	0xf3
 3006 01a6 01       		.uleb128 0x1
ARM GAS  /tmp/ccroL3wm.s 			page 54


 3007 01a7 52       		.byte	0x52
 3008 01a8 9F       		.byte	0x9f
 3009 01a9 48000000 		.4byte	.LVL24
 3010 01ad 4E000000 		.4byte	.LFE5
 3011 01b1 0100     		.2byte	0x1
 3012 01b3 52       		.byte	0x52
 3013 01b4 00000000 		.4byte	0
 3014 01b8 00000000 		.4byte	0
 3015              	.LLST6:
 3016 01bc 00000000 		.4byte	.LVL15
 3017 01c0 2A000000 		.4byte	.LVL19
 3018 01c4 0200     		.2byte	0x2
 3019 01c6 31       		.byte	0x31
 3020 01c7 9F       		.byte	0x9f
 3021 01c8 2A000000 		.4byte	.LVL19
 3022 01cc 30000000 		.4byte	.LVL20
 3023 01d0 0200     		.2byte	0x2
 3024 01d2 30       		.byte	0x30
 3025 01d3 9F       		.byte	0x9f
 3026 01d4 32000000 		.4byte	.LVL21
 3027 01d8 4E000000 		.4byte	.LFE5
 3028 01dc 0200     		.2byte	0x2
 3029 01de 31       		.byte	0x31
 3030 01df 9F       		.byte	0x9f
 3031 01e0 00000000 		.4byte	0
 3032 01e4 00000000 		.4byte	0
 3033              	.LLST7:
 3034 01e8 00000000 		.4byte	.LVL26
 3035 01ec 10000000 		.4byte	.LVL27
 3036 01f0 0100     		.2byte	0x1
 3037 01f2 50       		.byte	0x50
 3038 01f3 10000000 		.4byte	.LVL27
 3039 01f7 18000000 		.4byte	.LVL29
 3040 01fb 0100     		.2byte	0x1
 3041 01fd 54       		.byte	0x54
 3042 01fe 18000000 		.4byte	.LVL29
 3043 0202 1C000000 		.4byte	.LVL30
 3044 0206 0100     		.2byte	0x1
 3045 0208 50       		.byte	0x50
 3046 0209 1C000000 		.4byte	.LVL30
 3047 020d 5C000000 		.4byte	.LVL35
 3048 0211 0100     		.2byte	0x1
 3049 0213 54       		.byte	0x54
 3050 0214 5C000000 		.4byte	.LVL35
 3051 0218 60000000 		.4byte	.LVL36
 3052 021c 0100     		.2byte	0x1
 3053 021e 50       		.byte	0x50
 3054 021f 60000000 		.4byte	.LVL36
 3055 0223 62000000 		.4byte	.LVL37
 3056 0227 0100     		.2byte	0x1
 3057 0229 54       		.byte	0x54
 3058 022a 62000000 		.4byte	.LVL37
 3059 022e 6C000000 		.4byte	.LFE6
 3060 0232 0400     		.2byte	0x4
 3061 0234 F3       		.byte	0xf3
 3062 0235 01       		.uleb128 0x1
 3063 0236 50       		.byte	0x50
ARM GAS  /tmp/ccroL3wm.s 			page 55


 3064 0237 9F       		.byte	0x9f
 3065 0238 00000000 		.4byte	0
 3066 023c 00000000 		.4byte	0
 3067              	.LLST8:
 3068 0240 00000000 		.4byte	.LVL26
 3069 0244 10000000 		.4byte	.LVL27
 3070 0248 0100     		.2byte	0x1
 3071 024a 51       		.byte	0x51
 3072 024b 10000000 		.4byte	.LVL27
 3073 024f 18000000 		.4byte	.LVL29
 3074 0253 0100     		.2byte	0x1
 3075 0255 56       		.byte	0x56
 3076 0256 18000000 		.4byte	.LVL29
 3077 025a 1D000000 		.4byte	.LVL31-1
 3078 025e 0100     		.2byte	0x1
 3079 0260 51       		.byte	0x51
 3080 0261 1D000000 		.4byte	.LVL31-1
 3081 0265 5C000000 		.4byte	.LVL35
 3082 0269 0100     		.2byte	0x1
 3083 026b 56       		.byte	0x56
 3084 026c 5C000000 		.4byte	.LVL35
 3085 0270 6C000000 		.4byte	.LFE6
 3086 0274 0100     		.2byte	0x1
 3087 0276 51       		.byte	0x51
 3088 0277 00000000 		.4byte	0
 3089 027b 00000000 		.4byte	0
 3090              	.LLST9:
 3091 027f 00000000 		.4byte	.LVL26
 3092 0283 10000000 		.4byte	.LVL27
 3093 0287 0100     		.2byte	0x1
 3094 0289 52       		.byte	0x52
 3095 028a 10000000 		.4byte	.LVL27
 3096 028e 18000000 		.4byte	.LVL29
 3097 0292 0100     		.2byte	0x1
 3098 0294 57       		.byte	0x57
 3099 0295 18000000 		.4byte	.LVL29
 3100 0299 1D000000 		.4byte	.LVL31-1
 3101 029d 0100     		.2byte	0x1
 3102 029f 52       		.byte	0x52
 3103 02a0 1D000000 		.4byte	.LVL31-1
 3104 02a4 5C000000 		.4byte	.LVL35
 3105 02a8 0100     		.2byte	0x1
 3106 02aa 57       		.byte	0x57
 3107 02ab 5C000000 		.4byte	.LVL35
 3108 02af 6C000000 		.4byte	.LFE6
 3109 02b3 0100     		.2byte	0x1
 3110 02b5 52       		.byte	0x52
 3111 02b6 00000000 		.4byte	0
 3112 02ba 00000000 		.4byte	0
 3113              	.LLST10:
 3114 02be 00000000 		.4byte	.LVL26
 3115 02c2 10000000 		.4byte	.LVL27
 3116 02c6 0200     		.2byte	0x2
 3117 02c8 31       		.byte	0x31
 3118 02c9 9F       		.byte	0x9f
 3119 02ca 10000000 		.4byte	.LVL27
 3120 02ce 16000000 		.4byte	.LVL28
ARM GAS  /tmp/ccroL3wm.s 			page 56


 3121 02d2 0200     		.2byte	0x2
 3122 02d4 30       		.byte	0x30
 3123 02d5 9F       		.byte	0x9f
 3124 02d6 18000000 		.4byte	.LVL29
 3125 02da 6C000000 		.4byte	.LFE6
 3126 02de 0200     		.2byte	0x2
 3127 02e0 31       		.byte	0x31
 3128 02e1 9F       		.byte	0x9f
 3129 02e2 00000000 		.4byte	0
 3130 02e6 00000000 		.4byte	0
 3131              	.LLST11:
 3132 02ea 00000000 		.4byte	.LVL38
 3133 02ee 06000000 		.4byte	.LVL39
 3134 02f2 0100     		.2byte	0x1
 3135 02f4 50       		.byte	0x50
 3136 02f5 06000000 		.4byte	.LVL39
 3137 02f9 0A000000 		.4byte	.LFE7
 3138 02fd 0400     		.2byte	0x4
 3139 02ff F3       		.byte	0xf3
 3140 0300 01       		.uleb128 0x1
 3141 0301 50       		.byte	0x50
 3142 0302 9F       		.byte	0x9f
 3143 0303 00000000 		.4byte	0
 3144 0307 00000000 		.4byte	0
 3145              	.LLST12:
 3146 030b 00000000 		.4byte	.LVL40
 3147 030f 04000000 		.4byte	.LVL41
 3148 0313 0100     		.2byte	0x1
 3149 0315 50       		.byte	0x50
 3150 0316 04000000 		.4byte	.LVL41
 3151 031a 10000000 		.4byte	.LVL43
 3152 031e 0100     		.2byte	0x1
 3153 0320 53       		.byte	0x53
 3154 0321 10000000 		.4byte	.LVL43
 3155 0325 18000000 		.4byte	.LVL44
 3156 0329 0400     		.2byte	0x4
 3157 032b F3       		.byte	0xf3
 3158 032c 01       		.uleb128 0x1
 3159 032d 50       		.byte	0x50
 3160 032e 9F       		.byte	0x9f
 3161 032f 18000000 		.4byte	.LVL44
 3162 0333 28000000 		.4byte	.LFE8
 3163 0337 0100     		.2byte	0x1
 3164 0339 53       		.byte	0x53
 3165 033a 00000000 		.4byte	0
 3166 033e 00000000 		.4byte	0
 3167              	.LLST13:
 3168 0342 0E000000 		.4byte	.LVL42
 3169 0346 10000000 		.4byte	.LVL43
 3170 034a 0100     		.2byte	0x1
 3171 034c 53       		.byte	0x53
 3172 034d 10000000 		.4byte	.LVL43
 3173 0351 18000000 		.4byte	.LVL44
 3174 0355 0400     		.2byte	0x4
 3175 0357 F3       		.byte	0xf3
 3176 0358 01       		.uleb128 0x1
 3177 0359 50       		.byte	0x50
ARM GAS  /tmp/ccroL3wm.s 			page 57


 3178 035a 9F       		.byte	0x9f
 3179 035b 00000000 		.4byte	0
 3180 035f 00000000 		.4byte	0
 3181              	.LLST14:
 3182 0363 00000000 		.4byte	.LVL45
 3183 0367 64000000 		.4byte	.LVL51
 3184 036b 0100     		.2byte	0x1
 3185 036d 50       		.byte	0x50
 3186 036e 64000000 		.4byte	.LVL51
 3187 0372 68000000 		.4byte	.LVL52
 3188 0376 0400     		.2byte	0x4
 3189 0378 F3       		.byte	0xf3
 3190 0379 01       		.uleb128 0x1
 3191 037a 50       		.byte	0x50
 3192 037b 9F       		.byte	0x9f
 3193 037c 68000000 		.4byte	.LVL52
 3194 0380 92000000 		.4byte	.LVL58
 3195 0384 0100     		.2byte	0x1
 3196 0386 50       		.byte	0x50
 3197 0387 92000000 		.4byte	.LVL58
 3198 038b 96000000 		.4byte	.LVL59
 3199 038f 0400     		.2byte	0x4
 3200 0391 F3       		.byte	0xf3
 3201 0392 01       		.uleb128 0x1
 3202 0393 50       		.byte	0x50
 3203 0394 9F       		.byte	0x9f
 3204 0395 96000000 		.4byte	.LVL59
 3205 0399 C4000000 		.4byte	.LVL64
 3206 039d 0100     		.2byte	0x1
 3207 039f 50       		.byte	0x50
 3208 03a0 C4000000 		.4byte	.LVL64
 3209 03a4 D4000000 		.4byte	.LFE9
 3210 03a8 0400     		.2byte	0x4
 3211 03aa F3       		.byte	0xf3
 3212 03ab 01       		.uleb128 0x1
 3213 03ac 50       		.byte	0x50
 3214 03ad 9F       		.byte	0x9f
 3215 03ae 00000000 		.4byte	0
 3216 03b2 00000000 		.4byte	0
 3217              	.LLST15:
 3218 03b6 00000000 		.4byte	.LVL45
 3219 03ba 5E000000 		.4byte	.LVL50
 3220 03be 0200     		.2byte	0x2
 3221 03c0 31       		.byte	0x31
 3222 03c1 9F       		.byte	0x9f
 3223 03c2 5E000000 		.4byte	.LVL50
 3224 03c6 64000000 		.4byte	.LVL51
 3225 03ca 0200     		.2byte	0x2
 3226 03cc 30       		.byte	0x30
 3227 03cd 9F       		.byte	0x9f
 3228 03ce 68000000 		.4byte	.LVL52
 3229 03d2 D4000000 		.4byte	.LFE9
 3230 03d6 0200     		.2byte	0x2
 3231 03d8 31       		.byte	0x31
 3232 03d9 9F       		.byte	0x9f
 3233 03da 00000000 		.4byte	0
 3234 03de 00000000 		.4byte	0
ARM GAS  /tmp/ccroL3wm.s 			page 58


 3235              	.LLST16:
 3236 03e2 10000000 		.4byte	.LVL46
 3237 03e6 28000000 		.4byte	.LVL47
 3238 03ea 0100     		.2byte	0x1
 3239 03ec 50       		.byte	0x50
 3240 03ed 7C000000 		.4byte	.LVL55
 3241 03f1 92000000 		.4byte	.LVL58
 3242 03f5 0100     		.2byte	0x1
 3243 03f7 50       		.byte	0x50
 3244 03f8 92000000 		.4byte	.LVL58
 3245 03fc 96000000 		.4byte	.LVL59
 3246 0400 0400     		.2byte	0x4
 3247 0402 F3       		.byte	0xf3
 3248 0403 01       		.uleb128 0x1
 3249 0404 50       		.byte	0x50
 3250 0405 9F       		.byte	0x9f
 3251 0406 96000000 		.4byte	.LVL59
 3252 040a 9E000000 		.4byte	.LVL60
 3253 040e 0100     		.2byte	0x1
 3254 0410 50       		.byte	0x50
 3255 0411 00000000 		.4byte	0
 3256 0415 00000000 		.4byte	0
 3257              	.LLST17:
 3258 0419 84000000 		.4byte	.LVL56
 3259 041d 90000000 		.4byte	.LVL57
 3260 0421 0100     		.2byte	0x1
 3261 0423 50       		.byte	0x50
 3262 0424 00000000 		.4byte	0
 3263 0428 00000000 		.4byte	0
 3264              	.LLST18:
 3265 042c 38000000 		.4byte	.LVL48
 3266 0430 58000000 		.4byte	.LVL49
 3267 0434 0100     		.2byte	0x1
 3268 0436 54       		.byte	0x54
 3269 0437 A8000000 		.4byte	.LVL61
 3270 043b B0000000 		.4byte	.LVL62
 3271 043f 0200     		.2byte	0x2
 3272 0441 74       		.byte	0x74
 3273 0442 7F       		.sleb128 -1
 3274 0443 B0000000 		.4byte	.LVL62
 3275 0447 BA000000 		.4byte	.LVL63
 3276 044b 0100     		.2byte	0x1
 3277 044d 55       		.byte	0x55
 3278 044e 00000000 		.4byte	0
 3279 0452 00000000 		.4byte	0
 3280              	.LLST19:
 3281 0456 6A000000 		.4byte	.LVL53
 3282 045a 76000000 		.4byte	.LVL54
 3283 045e 0200     		.2byte	0x2
 3284 0460 70       		.byte	0x70
 3285 0461 1C       		.sleb128 28
 3286 0462 00000000 		.4byte	0
 3287 0466 00000000 		.4byte	0
 3288              	.LLST20:
 3289 046a 6A000000 		.4byte	.LVL53
 3290 046e 76000000 		.4byte	.LVL54
 3291 0472 0200     		.2byte	0x2
ARM GAS  /tmp/ccroL3wm.s 			page 59


 3292 0474 70       		.byte	0x70
 3293 0475 0C       		.sleb128 12
 3294 0476 00000000 		.4byte	0
 3295 047a 00000000 		.4byte	0
 3296              	.LLST21:
 3297 047e 6A000000 		.4byte	.LVL53
 3298 0482 76000000 		.4byte	.LVL54
 3299 0486 0300     		.2byte	0x3
 3300 0488 70       		.byte	0x70
 3301 0489 14       		.sleb128 20
 3302 048a 9F       		.byte	0x9f
 3303 048b 00000000 		.4byte	0
 3304 048f 00000000 		.4byte	0
 3305              	.LLST22:
 3306 0493 00000000 		.4byte	.LVL65
 3307 0497 16000000 		.4byte	.LVL67
 3308 049b 0100     		.2byte	0x1
 3309 049d 50       		.byte	0x50
 3310 049e 16000000 		.4byte	.LVL67
 3311 04a2 64000000 		.4byte	.LVL73
 3312 04a6 0100     		.2byte	0x1
 3313 04a8 54       		.byte	0x54
 3314 04a9 64000000 		.4byte	.LVL73
 3315 04ad 74000000 		.4byte	.LVL75
 3316 04b1 0100     		.2byte	0x1
 3317 04b3 50       		.byte	0x50
 3318 04b4 74000000 		.4byte	.LVL75
 3319 04b8 E4000000 		.4byte	.LVL84
 3320 04bc 0100     		.2byte	0x1
 3321 04be 54       		.byte	0x54
 3322 04bf E4000000 		.4byte	.LVL84
 3323 04c3 F4000000 		.4byte	.LFE10
 3324 04c7 0400     		.2byte	0x4
 3325 04c9 F3       		.byte	0xf3
 3326 04ca 01       		.uleb128 0x1
 3327 04cb 50       		.byte	0x50
 3328 04cc 9F       		.byte	0x9f
 3329 04cd 00000000 		.4byte	0
 3330 04d1 00000000 		.4byte	0
 3331              	.LLST23:
 3332 04d5 00000000 		.4byte	.LVL65
 3333 04d9 5C000000 		.4byte	.LVL72
 3334 04dd 0200     		.2byte	0x2
 3335 04df 31       		.byte	0x31
 3336 04e0 9F       		.byte	0x9f
 3337 04e1 5C000000 		.4byte	.LVL72
 3338 04e5 64000000 		.4byte	.LVL73
 3339 04e9 0200     		.2byte	0x2
 3340 04eb 30       		.byte	0x30
 3341 04ec 9F       		.byte	0x9f
 3342 04ed 64000000 		.4byte	.LVL73
 3343 04f1 F4000000 		.4byte	.LFE10
 3344 04f5 0200     		.2byte	0x2
 3345 04f7 31       		.byte	0x31
 3346 04f8 9F       		.byte	0x9f
 3347 04f9 00000000 		.4byte	0
 3348 04fd 00000000 		.4byte	0
ARM GAS  /tmp/ccroL3wm.s 			page 60


 3349              	.LLST24:
 3350 0501 10000000 		.4byte	.LVL66
 3351 0505 16000000 		.4byte	.LVL67
 3352 0509 0100     		.2byte	0x1
 3353 050b 50       		.byte	0x50
 3354 050c 16000000 		.4byte	.LVL67
 3355 0510 2E000000 		.4byte	.LVL69
 3356 0514 0100     		.2byte	0x1
 3357 0516 54       		.byte	0x54
 3358 0517 9A000000 		.4byte	.LVL78
 3359 051b BE000000 		.4byte	.LVL81
 3360 051f 0100     		.2byte	0x1
 3361 0521 54       		.byte	0x54
 3362 0522 00000000 		.4byte	0
 3363 0526 00000000 		.4byte	0
 3364              	.LLST25:
 3365 052a A2000000 		.4byte	.LVL79
 3366 052e B4000000 		.4byte	.LVL80
 3367 0532 0100     		.2byte	0x1
 3368 0534 54       		.byte	0x54
 3369 0535 00000000 		.4byte	0
 3370 0539 00000000 		.4byte	0
 3371              	.LLST26:
 3372 053d 2E000000 		.4byte	.LVL69
 3373 0541 3B000000 		.4byte	.LVL70-1
 3374 0545 0200     		.2byte	0x2
 3375 0547 74       		.byte	0x74
 3376 0548 1C       		.sleb128 28
 3377 0549 74000000 		.4byte	.LVL75
 3378 054d 7B000000 		.4byte	.LVL76-1
 3379 0551 0200     		.2byte	0x2
 3380 0553 74       		.byte	0x74
 3381 0554 1C       		.sleb128 28
 3382 0555 BE000000 		.4byte	.LVL81
 3383 0559 C5000000 		.4byte	.LVL82-1
 3384 055d 0200     		.2byte	0x2
 3385 055f 74       		.byte	0x74
 3386 0560 1C       		.sleb128 28
 3387 0561 00000000 		.4byte	0
 3388 0565 00000000 		.4byte	0
 3389              	.LLST27:
 3390 0569 2E000000 		.4byte	.LVL69
 3391 056d 5C000000 		.4byte	.LVL72
 3392 0571 0300     		.2byte	0x3
 3393 0573 74       		.byte	0x74
 3394 0574 12       		.sleb128 18
 3395 0575 9F       		.byte	0x9f
 3396 0576 74000000 		.4byte	.LVL75
 3397 057a 94000000 		.4byte	.LVL77
 3398 057e 0300     		.2byte	0x3
 3399 0580 74       		.byte	0x74
 3400 0581 12       		.sleb128 18
 3401 0582 9F       		.byte	0x9f
 3402 0583 BE000000 		.4byte	.LVL81
 3403 0587 E4000000 		.4byte	.LVL84
 3404 058b 0300     		.2byte	0x3
 3405 058d 74       		.byte	0x74
ARM GAS  /tmp/ccroL3wm.s 			page 61


 3406 058e 12       		.sleb128 18
 3407 058f 9F       		.byte	0x9f
 3408 0590 E4000000 		.4byte	.LVL84
 3409 0594 F4000000 		.4byte	.LFE10
 3410 0598 0600     		.2byte	0x6
 3411 059a F3       		.byte	0xf3
 3412 059b 01       		.uleb128 0x1
 3413 059c 50       		.byte	0x50
 3414 059d 23       		.byte	0x23
 3415 059e 12       		.uleb128 0x12
 3416 059f 9F       		.byte	0x9f
 3417 05a0 00000000 		.4byte	0
 3418 05a4 00000000 		.4byte	0
 3419              	.LLST28:
 3420 05a8 2E000000 		.4byte	.LVL69
 3421 05ac 5C000000 		.4byte	.LVL72
 3422 05b0 0300     		.2byte	0x3
 3423 05b2 74       		.byte	0x74
 3424 05b3 08       		.sleb128 8
 3425 05b4 9F       		.byte	0x9f
 3426 05b5 74000000 		.4byte	.LVL75
 3427 05b9 94000000 		.4byte	.LVL77
 3428 05bd 0300     		.2byte	0x3
 3429 05bf 74       		.byte	0x74
 3430 05c0 08       		.sleb128 8
 3431 05c1 9F       		.byte	0x9f
 3432 05c2 BE000000 		.4byte	.LVL81
 3433 05c6 E4000000 		.4byte	.LVL84
 3434 05ca 0300     		.2byte	0x3
 3435 05cc 74       		.byte	0x74
 3436 05cd 08       		.sleb128 8
 3437 05ce 9F       		.byte	0x9f
 3438 05cf E4000000 		.4byte	.LVL84
 3439 05d3 F4000000 		.4byte	.LFE10
 3440 05d7 0600     		.2byte	0x6
 3441 05d9 F3       		.byte	0xf3
 3442 05da 01       		.uleb128 0x1
 3443 05db 50       		.byte	0x50
 3444 05dc 23       		.byte	0x23
 3445 05dd 08       		.uleb128 0x8
 3446 05de 9F       		.byte	0x9f
 3447 05df 00000000 		.4byte	0
 3448 05e3 00000000 		.4byte	0
 3449              	.LLST29:
 3450 05e7 2E000000 		.4byte	.LVL69
 3451 05eb 5C000000 		.4byte	.LVL72
 3452 05ef 0300     		.2byte	0x3
 3453 05f1 74       		.byte	0x74
 3454 05f2 14       		.sleb128 20
 3455 05f3 9F       		.byte	0x9f
 3456 05f4 74000000 		.4byte	.LVL75
 3457 05f8 94000000 		.4byte	.LVL77
 3458 05fc 0300     		.2byte	0x3
 3459 05fe 74       		.byte	0x74
 3460 05ff 14       		.sleb128 20
 3461 0600 9F       		.byte	0x9f
 3462 0601 BE000000 		.4byte	.LVL81
ARM GAS  /tmp/ccroL3wm.s 			page 62


 3463 0605 E4000000 		.4byte	.LVL84
 3464 0609 0300     		.2byte	0x3
 3465 060b 74       		.byte	0x74
 3466 060c 14       		.sleb128 20
 3467 060d 9F       		.byte	0x9f
 3468 060e E4000000 		.4byte	.LVL84
 3469 0612 F4000000 		.4byte	.LFE10
 3470 0616 0600     		.2byte	0x6
 3471 0618 F3       		.byte	0xf3
 3472 0619 01       		.uleb128 0x1
 3473 061a 50       		.byte	0x50
 3474 061b 23       		.byte	0x23
 3475 061c 14       		.uleb128 0x14
 3476 061d 9F       		.byte	0x9f
 3477 061e 00000000 		.4byte	0
 3478 0622 00000000 		.4byte	0
 3479              	.LLST30:
 3480 0626 54000000 		.4byte	.LVL71
 3481 062a 5C000000 		.4byte	.LVL72
 3482 062e 0100     		.2byte	0x1
 3483 0630 54       		.byte	0x54
 3484 0631 DC000000 		.4byte	.LVL83
 3485 0635 E4000000 		.4byte	.LVL84
 3486 0639 0100     		.2byte	0x1
 3487 063b 54       		.byte	0x54
 3488 063c E4000000 		.4byte	.LVL84
 3489 0640 F4000000 		.4byte	.LFE10
 3490 0644 0400     		.2byte	0x4
 3491 0646 F3       		.byte	0xf3
 3492 0647 01       		.uleb128 0x1
 3493 0648 50       		.byte	0x50
 3494 0649 9F       		.byte	0x9f
 3495 064a 00000000 		.4byte	0
 3496 064e 00000000 		.4byte	0
 3497              	.LLST31:
 3498 0652 66000000 		.4byte	.LVL74
 3499 0656 74000000 		.4byte	.LVL75
 3500 065a 0200     		.2byte	0x2
 3501 065c 70       		.byte	0x70
 3502 065d 1C       		.sleb128 28
 3503 065e 00000000 		.4byte	0
 3504 0662 00000000 		.4byte	0
 3505              	.LLST32:
 3506 0666 66000000 		.4byte	.LVL74
 3507 066a 74000000 		.4byte	.LVL75
 3508 066e 0200     		.2byte	0x2
 3509 0670 70       		.byte	0x70
 3510 0671 0C       		.sleb128 12
 3511 0672 00000000 		.4byte	0
 3512 0676 00000000 		.4byte	0
 3513              	.LLST33:
 3514 067a 66000000 		.4byte	.LVL74
 3515 067e 74000000 		.4byte	.LVL75
 3516 0682 0300     		.2byte	0x3
 3517 0684 70       		.byte	0x70
 3518 0685 14       		.sleb128 20
 3519 0686 9F       		.byte	0x9f
ARM GAS  /tmp/ccroL3wm.s 			page 63


 3520 0687 00000000 		.4byte	0
 3521 068b 00000000 		.4byte	0
 3522              		.section	.debug_aranges,"",%progbits
 3523 0000 5C000000 		.4byte	0x5c
 3524 0004 0200     		.2byte	0x2
 3525 0006 00000000 		.4byte	.Ldebug_info0
 3526 000a 04       		.byte	0x4
 3527 000b 00       		.byte	0
 3528 000c 0000     		.2byte	0
 3529 000e 0000     		.2byte	0
 3530 0010 00000000 		.4byte	.LFB3
 3531 0014 44000000 		.4byte	.LFE3-.LFB3
 3532 0018 00000000 		.4byte	.LFB4
 3533 001c 58000000 		.4byte	.LFE4-.LFB4
 3534 0020 00000000 		.4byte	.LFB5
 3535 0024 4E000000 		.4byte	.LFE5-.LFB5
 3536 0028 00000000 		.4byte	.LFB6
 3537 002c 6C000000 		.4byte	.LFE6-.LFB6
 3538 0030 00000000 		.4byte	.LFB7
 3539 0034 0A000000 		.4byte	.LFE7-.LFB7
 3540 0038 00000000 		.4byte	.LFB8
 3541 003c 28000000 		.4byte	.LFE8-.LFB8
 3542 0040 00000000 		.4byte	.LFB9
 3543 0044 D4000000 		.4byte	.LFE9-.LFB9
 3544 0048 00000000 		.4byte	.LFB10
 3545 004c F4000000 		.4byte	.LFE10-.LFB10
 3546 0050 00000000 		.4byte	.LFB11
 3547 0054 16000000 		.4byte	.LFE11-.LFB11
 3548 0058 00000000 		.4byte	0
 3549 005c 00000000 		.4byte	0
 3550              		.section	.debug_ranges,"",%progbits
 3551              	.Ldebug_ranges0:
 3552 0000 02000000 		.4byte	.LBB22
 3553 0004 04000000 		.4byte	.LBE22
 3554 0008 06000000 		.4byte	.LBB23
 3555 000c 30000000 		.4byte	.LBE23
 3556 0010 32000000 		.4byte	.LBB24
 3557 0014 4E000000 		.4byte	.LBE24
 3558 0018 00000000 		.4byte	0
 3559 001c 00000000 		.4byte	0
 3560 0020 02000000 		.4byte	.LBB25
 3561 0024 04000000 		.4byte	.LBE25
 3562 0028 0A000000 		.4byte	.LBB26
 3563 002c 16000000 		.4byte	.LBE26
 3564 0030 18000000 		.4byte	.LBB27
 3565 0034 6C000000 		.4byte	.LBE27
 3566 0038 00000000 		.4byte	0
 3567 003c 00000000 		.4byte	0
 3568 0040 02000000 		.4byte	.LBB43
 3569 0044 64000000 		.4byte	.LBE43
 3570 0048 68000000 		.4byte	.LBB58
 3571 004c 92000000 		.4byte	.LBE58
 3572 0050 96000000 		.4byte	.LBB59
 3573 0054 D4000000 		.4byte	.LBE59
 3574 0058 00000000 		.4byte	0
 3575 005c 00000000 		.4byte	0
 3576 0060 10000000 		.4byte	.LBB44
ARM GAS  /tmp/ccroL3wm.s 			page 64


 3577 0064 16000000 		.4byte	.LBE44
 3578 0068 7C000000 		.4byte	.LBB55
 3579 006c 8C000000 		.4byte	.LBE55
 3580 0070 96000000 		.4byte	.LBB56
 3581 0074 9E000000 		.4byte	.LBE56
 3582 0078 00000000 		.4byte	0
 3583 007c 00000000 		.4byte	0
 3584 0080 2A000000 		.4byte	.LBB50
 3585 0084 58000000 		.4byte	.LBE50
 3586 0088 9E000000 		.4byte	.LBB57
 3587 008c BA000000 		.4byte	.LBE57
 3588 0090 00000000 		.4byte	0
 3589 0094 00000000 		.4byte	0
 3590 0098 02000000 		.4byte	.LBB71
 3591 009c 04000000 		.4byte	.LBE71
 3592 00a0 06000000 		.4byte	.LBB90
 3593 00a4 B2000000 		.4byte	.LBE90
 3594 00a8 B4000000 		.4byte	.LBB91
 3595 00ac F4000000 		.4byte	.LBE91
 3596 00b0 00000000 		.4byte	0
 3597 00b4 00000000 		.4byte	0
 3598 00b8 10000000 		.4byte	.LBB72
 3599 00bc 16000000 		.4byte	.LBE72
 3600 00c0 9A000000 		.4byte	.LBB87
 3601 00c4 AA000000 		.4byte	.LBE87
 3602 00c8 B4000000 		.4byte	.LBB88
 3603 00cc BA000000 		.4byte	.LBE88
 3604 00d0 00000000 		.4byte	0
 3605 00d4 00000000 		.4byte	0
 3606 00d8 2E000000 		.4byte	.LBB78
 3607 00dc 54000000 		.4byte	.LBE78
 3608 00e0 74000000 		.4byte	.LBB86
 3609 00e4 94000000 		.4byte	.LBE86
 3610 00e8 BE000000 		.4byte	.LBB89
 3611 00ec DC000000 		.4byte	.LBE89
 3612 00f0 00000000 		.4byte	0
 3613 00f4 00000000 		.4byte	0
 3614 00f8 00000000 		.4byte	.LFB3
 3615 00fc 44000000 		.4byte	.LFE3
 3616 0100 00000000 		.4byte	.LFB4
 3617 0104 58000000 		.4byte	.LFE4
 3618 0108 00000000 		.4byte	.LFB5
 3619 010c 4E000000 		.4byte	.LFE5
 3620 0110 00000000 		.4byte	.LFB6
 3621 0114 6C000000 		.4byte	.LFE6
 3622 0118 00000000 		.4byte	.LFB7
 3623 011c 0A000000 		.4byte	.LFE7
 3624 0120 00000000 		.4byte	.LFB8
 3625 0124 28000000 		.4byte	.LFE8
 3626 0128 00000000 		.4byte	.LFB9
 3627 012c D4000000 		.4byte	.LFE9
 3628 0130 00000000 		.4byte	.LFB10
 3629 0134 F4000000 		.4byte	.LFE10
 3630 0138 00000000 		.4byte	.LFB11
 3631 013c 16000000 		.4byte	.LFE11
 3632 0140 00000000 		.4byte	0
 3633 0144 00000000 		.4byte	0
ARM GAS  /tmp/ccroL3wm.s 			page 65


 3634              		.section	.debug_line,"",%progbits
 3635              	.Ldebug_line0:
 3636 0000 B0020000 		.section	.debug_str,"MS",%progbits,1
 3636      0200CE00 
 3636      00000201 
 3636      FB0E0D00 
 3636      01010101 
 3637              	.LASF16:
 3638 0000 636F756E 		.ascii	"count\000"
 3638      7400
 3639              	.LASF3:
 3640 0006 5F5F7569 		.ascii	"__uint8_t\000"
 3640      6E74385F 
 3640      7400
 3641              	.LASF42:
 3642 0010 696E6974 		.ascii	"initialmss\000"
 3642      69616C6D 
 3642      737300
 3643              	.LASF9:
 3644 001b 6C6F6E67 		.ascii	"long long unsigned int\000"
 3644      206C6F6E 
 3644      6720756E 
 3644      7369676E 
 3644      65642069 
 3645              	.LASF73:
 3646 0032 70736F63 		.ascii	"psock_init\000"
 3646      6B5F696E 
 3646      697400
 3647              	.LASF8:
 3648 003d 6C6F6E67 		.ascii	"long long int\000"
 3648      206C6F6E 
 3648      6720696E 
 3648      7400
 3649              	.LASF0:
 3650 004b 7369676E 		.ascii	"signed char\000"
 3650      65642063 
 3650      68617200 
 3651              	.LASF62:
 3652 0057 7569705F 		.ascii	"uip_appdata\000"
 3652      61707064 
 3652      61746100 
 3653              	.LASF38:
 3654 0063 6C706F72 		.ascii	"lport\000"
 3654      7400
 3655              	.LASF54:
 3656 0069 67656E65 		.ascii	"generate\000"
 3656      72617465 
 3656      00
 3657              	.LASF15:
 3658 0072 73746174 		.ascii	"state\000"
 3658      6500
 3659              	.LASF6:
 3660 0078 6C6F6E67 		.ascii	"long int\000"
 3660      20696E74 
 3660      00
 3661              	.LASF67:
 3662 0081 5F5F6275 		.ascii	"__builtin_puts\000"
ARM GAS  /tmp/ccroL3wm.s 			page 66


 3662      696C7469 
 3662      6E5F7075 
 3662      747300
 3663              	.LASF66:
 3664 0090 6D656D63 		.ascii	"memcpy\000"
 3664      707900
 3665              	.LASF31:
 3666 0097 73656E64 		.ascii	"sendlen\000"
 3666      6C656E00 
 3667              	.LASF14:
 3668 009f 75696E74 		.ascii	"uint16_t\000"
 3668      31365F74 
 3668      00
 3669              	.LASF33:
 3670 00a8 62756673 		.ascii	"bufsize\000"
 3670      697A6500 
 3671              	.LASF61:
 3672 00b0 62756666 		.ascii	"buffersize\000"
 3672      65727369 
 3672      7A6500
 3673              	.LASF39:
 3674 00bb 72706F72 		.ascii	"rport\000"
 3674      7400
 3675              	.LASF45:
 3676 00c1 6E727478 		.ascii	"nrtx\000"
 3676      00
 3677              	.LASF53:
 3678 00c6 70736F63 		.ascii	"psock_generator_send\000"
 3678      6B5F6765 
 3678      6E657261 
 3678      746F725F 
 3678      73656E64 
 3679              	.LASF52:
 3680 00db 70736F63 		.ascii	"psock_send\000"
 3680      6B5F7365 
 3680      6E6400
 3681              	.LASF10:
 3682 00e6 756E7369 		.ascii	"unsigned int\000"
 3682      676E6564 
 3682      20696E74 
 3682      00
 3683              	.LASF70:
 3684 00f3 2F686F6D 		.ascii	"/home/dltech-deb/gdrive/Projects/RFM_to_Modbus_TCP/"
 3684      652F646C 
 3684      74656368 
 3684      2D646562 
 3684      2F676472 
 3685 0126 43686962 		.ascii	"ChibiOS/F103_ChibiOS_ENC60J28/main\000"
 3685      694F532F 
 3685      46313033 
 3685      5F436869 
 3685      62694F53 
 3686              	.LASF7:
 3687 0149 6C6F6E67 		.ascii	"long unsigned int\000"
 3687      20756E73 
 3687      69676E65 
 3687      6420696E 
ARM GAS  /tmp/ccroL3wm.s 			page 67


 3687      7400
 3688              	.LASF26:
 3689 015b 70736F63 		.ascii	"psock\000"
 3689      6B00
 3690              	.LASF57:
 3691 0161 656E646D 		.ascii	"endmarker\000"
 3691      61726B65 
 3691      7200
 3692              	.LASF47:
 3693 016b 64617461 		.ascii	"data_acked\000"
 3693      5F61636B 
 3693      656400
 3694              	.LASF19:
 3695 0176 7569705F 		.ascii	"uip_tcp_appstate_t\000"
 3695      7463705F 
 3695      61707073 
 3695      74617465 
 3695      5F7400
 3696              	.LASF5:
 3697 0189 73686F72 		.ascii	"short unsigned int\000"
 3697      7420756E 
 3697      7369676E 
 3697      65642069 
 3697      6E7400
 3698              	.LASF37:
 3699 019c 72697061 		.ascii	"ripaddr\000"
 3699      64647200 
 3700              	.LASF64:
 3701 01a4 7569705F 		.ascii	"uip_flags\000"
 3701      666C6167 
 3701      7300
 3702              	.LASF22:
 3703 01ae 6C635F74 		.ascii	"lc_t\000"
 3703      00
 3704              	.LASF50:
 3705 01b3 70736F63 		.ascii	"psock_newdata\000"
 3705      6B5F6E65 
 3705      77646174 
 3705      6100
 3706              	.LASF24:
 3707 01c1 70736F63 		.ascii	"psock_buf\000"
 3707      6B5F6275 
 3707      6600
 3708              	.LASF36:
 3709 01cb 7569705F 		.ascii	"uip_conn\000"
 3709      636F6E6E 
 3709      00
 3710              	.LASF71:
 3711 01d4 6275665F 		.ascii	"buf_setup\000"
 3711      73657475 
 3711      7000
 3712              	.LASF65:
 3713 01de 7569705F 		.ascii	"uip_send\000"
 3713      73656E64 
 3713      00
 3714              	.LASF28:
 3715 01e7 73656E64 		.ascii	"sendptr\000"
ARM GAS  /tmp/ccroL3wm.s 			page 68


 3715      70747200 
 3716              	.LASF74:
 3717 01ef 70757473 		.ascii	"puts\000"
 3717      00
 3718              	.LASF69:
 3719 01f4 2E2E2F75 		.ascii	"../uip/psock.c\000"
 3719      69702F70 
 3719      736F636B 
 3719      2E6300
 3720              	.LASF46:
 3721 0203 61707073 		.ascii	"appstate\000"
 3721      74617465 
 3721      00
 3722              	.LASF20:
 3723 020c 75385F74 		.ascii	"u8_t\000"
 3723      00
 3724              	.LASF11:
 3725 0211 73697A65 		.ascii	"sizetype\000"
 3725      74797065 
 3725      00
 3726              	.LASF34:
 3727 021a 7569705F 		.ascii	"uip_ip4addr_t\000"
 3727      69703461 
 3727      6464725F 
 3727      7400
 3728              	.LASF48:
 3729 0228 6275665F 		.ascii	"buf_bufdata\000"
 3729      62756664 
 3729      61746100 
 3730              	.LASF32:
 3731 0234 72656164 		.ascii	"readlen\000"
 3731      6C656E00 
 3732              	.LASF59:
 3733 023c 70736F63 		.ascii	"psock_readbuf\000"
 3733      6B5F7265 
 3733      61646275 
 3733      6600
 3734              	.LASF49:
 3735 024a 64617461 		.ascii	"datalen\000"
 3735      6C656E00 
 3736              	.LASF68:
 3737 0252 474E5520 		.ascii	"GNU C 4.8.4 20141219 (release) -mcpu=cortex-m3 -mno"
 3737      4320342E 
 3737      382E3420 
 3737      32303134 
 3737      31323139 
 3738 0285 2D746875 		.ascii	"-thumb-interwork -mthumb -ggdb -O2 -fomit-frame-poi"
 3738      6D622D69 
 3738      6E746572 
 3738      776F726B 
 3738      202D6D74 
 3739 02b8 6E746572 		.ascii	"nter -falign-functions=16 -ffunction-sections -fdat"
 3739      202D6661 
 3739      6C69676E 
 3739      2D66756E 
 3739      6374696F 
 3740 02eb 612D7365 		.ascii	"a-sections -fno-common -fno-strict-aliasing\000"
ARM GAS  /tmp/ccroL3wm.s 			page 69


 3740      6374696F 
 3740      6E73202D 
 3740      666E6F2D 
 3740      636F6D6D 
 3741              	.LASF41:
 3742 0317 736E645F 		.ascii	"snd_nxt\000"
 3742      6E787400 
 3743              	.LASF1:
 3744 031f 756E7369 		.ascii	"unsigned char\000"
 3744      676E6564 
 3744      20636861 
 3744      7200
 3745              	.LASF18:
 3746 032d 73637269 		.ascii	"script\000"
 3746      707400
 3747              	.LASF2:
 3748 0334 73686F72 		.ascii	"short int\000"
 3748      7420696E 
 3748      7400
 3749              	.LASF51:
 3750 033e 70736F63 		.ascii	"psock_datalen\000"
 3750      6B5F6461 
 3750      74616C65 
 3750      6E00
 3751              	.LASF58:
 3752 034c 70736F63 		.ascii	"psock_readto\000"
 3752      6B5F7265 
 3752      6164746F 
 3752      00
 3753              	.LASF12:
 3754 0359 63686172 		.ascii	"char\000"
 3754      00
 3755              	.LASF17:
 3756 035e 64617461 		.ascii	"dataptr\000"
 3756      70747200 
 3757              	.LASF4:
 3758 0366 5F5F7569 		.ascii	"__uint16_t\000"
 3758      6E743136 
 3758      5F7400
 3759              	.LASF29:
 3760 0371 72656164 		.ascii	"readptr\000"
 3760      70747200 
 3761              	.LASF60:
 3762 0379 62756666 		.ascii	"buffer\000"
 3762      657200
 3763              	.LASF35:
 3764 0380 7569705F 		.ascii	"uip_ipaddr_t\000"
 3764      69706164 
 3764      64725F74 
 3764      00
 3765              	.LASF63:
 3766 038d 7569705F 		.ascii	"uip_len\000"
 3766      6C656E00 
 3767              	.LASF21:
 3768 0395 7531365F 		.ascii	"u16_t\000"
 3768      7400
 3769              	.LASF43:
ARM GAS  /tmp/ccroL3wm.s 			page 70


 3770 039b 74637073 		.ascii	"tcpstateflags\000"
 3770      74617465 
 3770      666C6167 
 3770      7300
 3771              	.LASF40:
 3772 03a9 7263765F 		.ascii	"rcv_nxt\000"
 3772      6E787400 
 3773              	.LASF72:
 3774 03b1 73656E64 		.ascii	"send_data\000"
 3774      5F646174 
 3774      6100
 3775              	.LASF13:
 3776 03bb 75696E74 		.ascii	"uint8_t\000"
 3776      385F7400 
 3777              	.LASF55:
 3778 03c3 50545F59 		.ascii	"PT_YIELD_FLAG\000"
 3778      49454C44 
 3778      5F464C41 
 3778      4700
 3779              	.LASF44:
 3780 03d1 74696D65 		.ascii	"timer\000"
 3780      7200
 3781              	.LASF56:
 3782 03d7 6275665F 		.ascii	"buf_bufto\000"
 3782      62756674 
 3782      6F00
 3783              	.LASF30:
 3784 03e1 62756670 		.ascii	"bufptr\000"
 3784      747200
 3785              	.LASF27:
 3786 03e8 70736F63 		.ascii	"psockpt\000"
 3786      6B707400 
 3787              	.LASF25:
 3788 03f0 6C656674 		.ascii	"left\000"
 3788      00
 3789              	.LASF23:
 3790 03f5 6D6F6462 		.ascii	"modbus_tcp_states\000"
 3790      75735F74 
 3790      63705F73 
 3790      74617465 
 3790      7300
 3791              		.ident	"GCC: (4.8.4-1+11-1) 4.8.4 20141219 (release)"
ARM GAS  /tmp/ccroL3wm.s 			page 71


DEFINED SYMBOLS
                            *ABS*:0000000000000000 psock.c
     /tmp/ccroL3wm.s:19     .text.send_data:0000000000000000 $t
     /tmp/ccroL3wm.s:24     .text.send_data:0000000000000000 send_data
     /tmp/ccroL3wm.s:82     .text.send_data:000000000000003c $d
     /tmp/ccroL3wm.s:88     .text.data_acked:0000000000000000 $t
     /tmp/ccroL3wm.s:93     .text.data_acked:0000000000000000 data_acked
     /tmp/ccroL3wm.s:170    .text.data_acked:0000000000000050 $d
     /tmp/ccroL3wm.s:176    .text.psock_send:0000000000000000 $t
     /tmp/ccroL3wm.s:182    .text.psock_send:0000000000000000 psock_send
     /tmp/ccroL3wm.s:270    .text.psock_generator_send:0000000000000000 $t
     /tmp/ccroL3wm.s:276    .text.psock_generator_send:0000000000000000 psock_generator_send
     /tmp/ccroL3wm.s:379    .text.psock_generator_send:0000000000000064 $d
     /tmp/ccroL3wm.s:386    .text.psock_datalen:0000000000000000 $t
     /tmp/ccroL3wm.s:392    .text.psock_datalen:0000000000000000 psock_datalen
     /tmp/ccroL3wm.s:412    .text.psock_newdata:0000000000000000 $t
     /tmp/ccroL3wm.s:418    .text.psock_newdata:0000000000000000 psock_newdata
     /tmp/ccroL3wm.s:463    .text.psock_newdata:0000000000000024 $d
     /tmp/ccroL3wm.s:468    .text.psock_readto:0000000000000000 $t
     /tmp/ccroL3wm.s:474    .text.psock_readto:0000000000000000 psock_readto
     /tmp/ccroL3wm.s:698    .text.psock_readto:00000000000000c8 $d
     /tmp/ccroL3wm.s:706    .text.psock_readbuf:0000000000000000 $t
     /tmp/ccroL3wm.s:712    .text.psock_readbuf:0000000000000000 psock_readbuf
     /tmp/ccroL3wm.s:966    .text.psock_readbuf:00000000000000e4 $d
     /tmp/ccroL3wm.s:975    .text.psock_init:0000000000000000 $t
     /tmp/ccroL3wm.s:981    .text.psock_init:0000000000000000 psock_init
     /tmp/ccroL3wm.s:1017   .rodata.str1.4:0000000000000000 $d
                     .debug_frame:0000000000000010 $d
     /tmp/ccroL3wm.s:87     .text.send_data:0000000000000044 $t
     /tmp/ccroL3wm.s:175    .text.data_acked:0000000000000058 $t
     /tmp/ccroL3wm.s:385    .text.psock_generator_send:000000000000006c $t
     /tmp/ccroL3wm.s:467    .text.psock_newdata:0000000000000028 $t
     /tmp/ccroL3wm.s:705    .text.psock_readto:00000000000000d4 $t
     /tmp/ccroL3wm.s:974    .text.psock_readbuf:00000000000000f4 $t

UNDEFINED SYMBOLS
uip_send
uip_conn
uip_flags
uip_appdata
uip_len
puts
memcpy
