ARM GAS  /tmp/ccroL3wm.s 			page 1


   1              		.syntax unified
   2              		.cpu cortex-m3
   3              		.fpu softvfp
   4              		.eabi_attribute 20, 1
   5              		.eabi_attribute 21, 1
   6              		.eabi_attribute 23, 3
   7              		.eabi_attribute 24, 1
   8              		.eabi_attribute 25, 1
   9              		.eabi_attribute 26, 1
  10              		.eabi_attribute 30, 2
  11              		.eabi_attribute 34, 1
  12              		.eabi_attribute 18, 4
  13              		.thumb
  14              		.file	"psock.c"
  15              		.text
  16              	.Ltext0:
  17              		.cfi_sections	.debug_frame
  18              		.section	.text.send_data,"ax",%progbits
  19              		.align	2
  20              		.p2align 4,,15
  21              		.thumb
  22              		.thumb_func
  23              		.type	send_data, %function
  24              	send_data:
  25              	.LFB3:
  26              		.file 1 "../uip/psock.c"
  27              		.loc 1 146 0
  28              		.cfi_startproc
  29              		@ args = 0, pretend = 0, frame = 0
  30              		@ frame_needed = 0, uses_anonymous_args = 0
  31              	.LVL0:
  32 0000 10B5     		push	{r4, lr}
  33              		.cfi_def_cfa_offset 8
  34              		.cfi_offset 4, -8
  35              		.cfi_offset 14, -4
  36              		.loc 1 147 0
  37 0002 90F82030 		ldrb	r3, [r0, #32]	@ zero_extendqisi2
  38              		.loc 1 146 0
  39 0006 0446     		mov	r4, r0
  40              		.loc 1 147 0
  41 0008 062B     		cmp	r3, #6
  42 000a 0ED0     		beq	.L10
  43              	.LVL1:
  44              	.L2:
  45              		.loc 1 148 0
  46 000c 0B4A     		ldr	r2, .L11
  47 000e 238A     		ldrh	r3, [r4, #16]
  48 0010 1268     		ldr	r2, [r2]
  49              		.loc 1 151 0
  50 0012 6068     		ldr	r0, [r4, #4]
  51              		.loc 1 148 0
  52 0014 518A     		ldrh	r1, [r2, #18]
  53 0016 8B42     		cmp	r3, r1
  54              		.loc 1 151 0
  55 0018 98BF     		it	ls
  56 001a 1946     		movls	r1, r3
  57 001c FFF7FEFF 		bl	uip_send
ARM GAS  /tmp/ccroL3wm.s 			page 2


  58              	.LVL2:
  59              		.loc 1 153 0
  60 0020 0623     		movs	r3, #6
  61 0022 84F82030 		strb	r3, [r4, #32]
  62              		.loc 1 154 0
  63 0026 0120     		movs	r0, #1
  64              		.loc 1 157 0
  65 0028 10BD     		pop	{r4, pc}
  66              	.LVL3:
  67              	.L10:
  68              		.loc 1 147 0 discriminator 1
  69 002a 054B     		ldr	r3, .L11+4
  70 002c 1B78     		ldrb	r3, [r3]	@ zero_extendqisi2
  71 002e 03F00403 		and	r3, r3, #4
  72 0032 03F0FF00 		and	r0, r3, #255
  73              	.LVL4:
  74 0036 002B     		cmp	r3, #0
  75 0038 E8D1     		bne	.L2
  76              		.loc 1 157 0
  77 003a 10BD     		pop	{r4, pc}
  78              	.LVL5:
  79              	.L12:
  80              		.align	2
  81              	.L11:
  82 003c 00000000 		.word	uip_conn
  83 0040 00000000 		.word	uip_flags
  84              		.cfi_endproc
  85              	.LFE3:
  86              		.size	send_data, .-send_data
  87 0044 AFF30080 		.section	.text.data_acked,"ax",%progbits
  87      AFF30080 
  87      AFF30080 
  88              		.align	2
  89              		.p2align 4,,15
  90              		.thumb
  91              		.thumb_func
  92              		.type	data_acked, %function
  93              	data_acked:
  94              	.LFB4:
  95              		.loc 1 161 0
  96              		.cfi_startproc
  97              		@ args = 0, pretend = 0, frame = 0
  98              		@ frame_needed = 0, uses_anonymous_args = 0
  99              		@ link register save eliminated.
 100              	.LVL6:
 101              		.loc 1 162 0
 102 0000 90F82030 		ldrb	r3, [r0, #32]	@ zero_extendqisi2
 103 0004 062B     		cmp	r3, #6
 104 0006 01D0     		beq	.L19
 105              		.loc 1 173 0
 106 0008 0020     		movs	r0, #0
 107              	.LVL7:
 108 000a 7047     		bx	lr
 109              	.LVL8:
 110              	.L19:
 111              		.loc 1 162 0 discriminator 1
 112 000c 104B     		ldr	r3, .L21
ARM GAS  /tmp/ccroL3wm.s 			page 3


 113 000e 1B78     		ldrb	r3, [r3]	@ zero_extendqisi2
 114 0010 13F00103 		ands	r3, r3, #1
 115 0014 1AD0     		beq	.L18
 116              	.LVL9:
 117              	.LBB20:
 118              	.LBB21:
 119              		.loc 1 163 0
 120 0016 0F4A     		ldr	r2, .L21+4
 121 0018 038A     		ldrh	r3, [r0, #16]
 122 001a 1268     		ldr	r2, [r2]
 123 001c 518A     		ldrh	r1, [r2, #18]
 124 001e 8B42     		cmp	r3, r1
 125 0020 09D8     		bhi	.L20
 126              		.loc 1 167 0
 127 0022 4268     		ldr	r2, [r0, #4]
 128              		.loc 1 168 0
 129 0024 0021     		movs	r1, #0
 130              		.loc 1 167 0
 131 0026 1344     		add	r3, r3, r2
 132 0028 4360     		str	r3, [r0, #4]
 133              		.loc 1 170 0
 134 002a 0123     		movs	r3, #1
 135              		.loc 1 168 0
 136 002c 0182     		strh	r1, [r0, #16]	@ movhi
 137              		.loc 1 170 0
 138 002e 80F82030 		strb	r3, [r0, #32]
 139 0032 1846     		mov	r0, r3
 140              	.LVL10:
 141 0034 7047     		bx	lr
 142              	.LVL11:
 143              	.L20:
 144              		.loc 1 164 0
 145 0036 5B1A     		subs	r3, r3, r1
 146 0038 0382     		strh	r3, [r0, #16]	@ movhi
 147              		.loc 1 165 0
 148 003a 528A     		ldrh	r2, [r2, #18]
 149 003c 4368     		ldr	r3, [r0, #4]
 150 003e 1344     		add	r3, r3, r2
 151 0040 4360     		str	r3, [r0, #4]
 152              		.loc 1 170 0
 153 0042 0123     		movs	r3, #1
 154 0044 80F82030 		strb	r3, [r0, #32]
 155 0048 1846     		mov	r0, r3
 156              	.LVL12:
 157 004a 7047     		bx	lr
 158              	.LVL13:
 159              	.L18:
 160              	.LBE21:
 161              	.LBE20:
 162              		.loc 1 173 0
 163 004c 1846     		mov	r0, r3
 164              	.LVL14:
 165              		.loc 1 174 0
 166 004e 7047     		bx	lr
 167              	.L22:
 168              		.align	2
 169              	.L21:
ARM GAS  /tmp/ccroL3wm.s 			page 4


 170 0050 00000000 		.word	uip_flags
 171 0054 00000000 		.word	uip_conn
 172              		.cfi_endproc
 173              	.LFE4:
 174              		.size	data_acked, .-data_acked
 175 0058 AFF30080 		.section	.text.psock_send,"ax",%progbits
 175      AFF30080 
 176              		.align	2
 177              		.p2align 4,,15
 178              		.global	psock_send
 179              		.thumb
 180              		.thumb_func
 181              		.type	psock_send, %function
 182              	psock_send:
 183              	.LFB5:
 184              		.loc 1 178 0
 185              		.cfi_startproc
 186              		@ args = 0, pretend = 0, frame = 0
 187              		@ frame_needed = 0, uses_anonymous_args = 0
 188              	.LVL15:
 189 0000 38B5     		push	{r3, r4, r5, lr}
 190              		.cfi_def_cfa_offset 16
 191              		.cfi_offset 3, -16
 192              		.cfi_offset 4, -12
 193              		.cfi_offset 5, -8
 194              		.cfi_offset 14, -4
 195              	.LBB22:
 196              		.loc 1 179 0
 197 0002 4388     		ldrh	r3, [r0, #2]
 198              	.LBE22:
 199              		.loc 1 178 0
 200 0004 0446     		mov	r4, r0
 201              	.LBB23:
 202              		.loc 1 179 0
 203 0006 A3B1     		cbz	r3, .L25
 204 0008 CF2B     		cmp	r3, #207
 205 000a 0ED1     		bne	.L24
 206              	.LVL16:
 207              	.L26:
 208              		.loc 1 207 0 discriminator 1
 209 000c 2046     		mov	r0, r4
 210 000e FFF7FEFF 		bl	data_acked
 211              	.LVL17:
 212 0012 0546     		mov	r5, r0
 213 0014 2046     		mov	r0, r4
 214 0016 FFF7FEFF 		bl	send_data
 215              	.LVL18:
 216 001a 2840     		ands	r0, r0, r5
 217 001c 10F0FF00 		ands	r0, r0, #255
 218 0020 06D0     		beq	.L28
 219 0022 228A     		ldrh	r2, [r4, #16]
 220              		.loc 1 195 0
 221 0024 6AB9     		cbnz	r2, .L30
 222              	.L36:
 223              		.loc 1 210 0
 224 0026 84F82020 		strb	r2, [r4, #32]
 225              	.L24:
ARM GAS  /tmp/ccroL3wm.s 			page 5


 226              	.LVL19:
 227              		.loc 1 212 0
 228 002a 0023     		movs	r3, #0
 229 002c 6380     		strh	r3, [r4, #2]	@ movhi
 230 002e 0220     		movs	r0, #2
 231              	.LVL20:
 232              	.L28:
 233              	.LBE23:
 234              		.loc 1 213 0
 235 0030 38BD     		pop	{r3, r4, r5, pc}
 236              	.LVL21:
 237              	.L25:
 238              	.LBB24:
 239              		.loc 1 182 0
 240 0032 4AB1     		cbz	r2, .L35
 241              		.loc 1 189 0
 242 0034 92B2     		uxth	r2, r2
 243              	.LVL22:
 244 0036 0282     		strh	r2, [r0, #16]	@ movhi
 245              		.loc 1 188 0
 246 0038 4160     		str	r1, [r0, #4]
 247              		.loc 1 191 0
 248 003a 80F82030 		strb	r3, [r0, #32]
 249              		.loc 1 195 0
 250 003e 002A     		cmp	r2, #0
 251 0040 F1D0     		beq	.L36
 252              	.LVL23:
 253              	.L30:
 254              		.loc 1 207 0
 255 0042 CF23     		movs	r3, #207
 256 0044 6380     		strh	r3, [r4, #2]	@ movhi
 257 0046 E1E7     		b	.L26
 258              	.LVL24:
 259              	.L35:
 260              		.loc 1 183 0
 261 0048 4280     		strh	r2, [r0, #2]	@ movhi
 262 004a 0120     		movs	r0, #1
 263              	.LVL25:
 264 004c 38BD     		pop	{r3, r4, r5, pc}
 265              	.LBE24:
 266              		.cfi_endproc
 267              	.LFE5:
 268              		.size	psock_send, .-psock_send
 269 004e 00BF     		.section	.text.psock_generator_send,"ax",%progbits
 270              		.align	2
 271              		.p2align 4,,15
 272              		.global	psock_generator_send
 273              		.thumb
 274              		.thumb_func
 275              		.type	psock_generator_send, %function
 276              	psock_generator_send:
 277              	.LFB6:
 278              		.loc 1 217 0
 279              		.cfi_startproc
 280              		@ args = 0, pretend = 0, frame = 0
 281              		@ frame_needed = 0, uses_anonymous_args = 0
 282              	.LVL26:
ARM GAS  /tmp/ccroL3wm.s 			page 6


 283 0000 F8B5     		push	{r3, r4, r5, r6, r7, lr}
 284              		.cfi_def_cfa_offset 24
 285              		.cfi_offset 3, -24
 286              		.cfi_offset 4, -20
 287              		.cfi_offset 5, -16
 288              		.cfi_offset 6, -12
 289              		.cfi_offset 7, -8
 290              		.cfi_offset 14, -4
 291              	.LBB25:
 292              		.loc 1 218 0
 293 0002 4588     		ldrh	r5, [r0, #2]
 294              	.LBE25:
 295              		.loc 1 217 0
 296 0004 0446     		mov	r4, r0
 297 0006 0E46     		mov	r6, r1
 298 0008 1746     		mov	r7, r2
 299              	.LBB26:
 300              		.loc 1 218 0
 301 000a 2DB1     		cbz	r5, .L39
 302 000c EE2D     		cmp	r5, #238
 303 000e 14D0     		beq	.L40
 304              	.LVL27:
 305              	.L38:
 306              		.loc 1 243 0
 307 0010 0023     		movs	r3, #0
 308 0012 6380     		strh	r3, [r4, #2]	@ movhi
 309 0014 0220     		movs	r0, #2
 310              	.LVL28:
 311              	.L42:
 312              	.LBE26:
 313              		.loc 1 244 0
 314 0016 F8BD     		pop	{r3, r4, r5, r6, r7, pc}
 315              	.LVL29:
 316              	.L39:
 317              	.LBB27:
 318              		.loc 1 221 0
 319 0018 01B3     		cbz	r1, .L52
 320              		.loc 1 227 0
 321 001a 1046     		mov	r0, r2
 322              	.LVL30:
 323 001c 8847     		blx	r1
 324              	.LVL31:
 325              		.loc 1 228 0
 326 001e 114B     		ldr	r3, .L53
 327              		.loc 1 227 0
 328 0020 2082     		strh	r0, [r4, #16]	@ movhi
 329              		.loc 1 228 0
 330 0022 1B68     		ldr	r3, [r3]
 331              		.loc 1 230 0
 332 0024 84F82050 		strb	r5, [r4, #32]
 333              		.loc 1 228 0
 334 0028 6360     		str	r3, [r4, #4]
 335              	.L44:
 336              		.loc 1 234 0
 337 002a 0F4B     		ldr	r3, .L53+4
 338 002c 1B78     		ldrb	r3, [r3]	@ zero_extendqisi2
 339 002e 5B07     		lsls	r3, r3, #29
ARM GAS  /tmp/ccroL3wm.s 			page 7


 340 0030 01D5     		bpl	.L43
 341              		.loc 1 235 0
 342 0032 3846     		mov	r0, r7
 343 0034 B047     		blx	r6
 344              	.LVL32:
 345              	.L43:
 346              		.loc 1 238 0
 347 0036 EE23     		movs	r3, #238
 348 0038 6380     		strh	r3, [r4, #2]	@ movhi
 349              	.L40:
 350              		.loc 1 238 0 is_stmt 0 discriminator 1
 351 003a 2046     		mov	r0, r4
 352 003c FFF7FEFF 		bl	data_acked
 353              	.LVL33:
 354 0040 0546     		mov	r5, r0
 355 0042 2046     		mov	r0, r4
 356 0044 FFF7FEFF 		bl	send_data
 357              	.LVL34:
 358 0048 2840     		ands	r0, r0, r5
 359 004a 10F0FF00 		ands	r0, r0, #255
 360 004e E2D0     		beq	.L42
 361              		.loc 1 239 0 is_stmt 1
 362 0050 238A     		ldrh	r3, [r4, #16]
 363 0052 002B     		cmp	r3, #0
 364 0054 E9D1     		bne	.L44
 365              		.loc 1 241 0
 366 0056 84F82030 		strb	r3, [r4, #32]
 367 005a D9E7     		b	.L38
 368              	.LVL35:
 369              	.L52:
 370              		.loc 1 222 0
 371 005c 6180     		strh	r1, [r4, #2]	@ movhi
 372 005e 0120     		movs	r0, #1
 373              	.LVL36:
 374 0060 F8BD     		pop	{r3, r4, r5, r6, r7, pc}
 375              	.LVL37:
 376              	.L54:
 377 0062 00BF     		.align	2
 378              	.L53:
 379 0064 00000000 		.word	uip_appdata
 380 0068 00000000 		.word	uip_flags
 381              	.LBE27:
 382              		.cfi_endproc
 383              	.LFE6:
 384              		.size	psock_generator_send, .-psock_generator_send
 385 006c AFF30080 		.section	.text.psock_datalen,"ax",%progbits
 386              		.align	2
 387              		.p2align 4,,15
 388              		.global	psock_datalen
 389              		.thumb
 390              		.thumb_func
 391              		.type	psock_datalen, %function
 392              	psock_datalen:
 393              	.LFB7:
 394              		.loc 1 248 0
 395              		.cfi_startproc
 396              		@ args = 0, pretend = 0, frame = 0
ARM GAS  /tmp/ccroL3wm.s 			page 8


 397              		@ frame_needed = 0, uses_anonymous_args = 0
 398              		@ link register save eliminated.
 399              	.LVL38:
 400              		.loc 1 249 0
 401 0000 C269     		ldr	r2, [r0, #28]
 402 0002 038B     		ldrh	r3, [r0, #24]
 403 0004 D01A     		subs	r0, r2, r3
 404              	.LVL39:
 405              		.loc 1 250 0
 406 0006 80B2     		uxth	r0, r0
 407 0008 7047     		bx	lr
 408              		.cfi_endproc
 409              	.LFE7:
 410              		.size	psock_datalen, .-psock_datalen
 411 000a 00BFAFF3 		.section	.text.psock_newdata,"ax",%progbits
 411      0080
 412              		.align	2
 413              		.p2align 4,,15
 414              		.global	psock_newdata
 415              		.thumb
 416              		.thumb_func
 417              		.type	psock_newdata, %function
 418              	psock_newdata:
 419              	.LFB8:
 420              		.loc 1 254 0
 421              		.cfi_startproc
 422              		@ args = 0, pretend = 0, frame = 0
 423              		@ frame_needed = 0, uses_anonymous_args = 0
 424              		@ link register save eliminated.
 425              	.LVL40:
 426              		.loc 1 254 0
 427 0000 0346     		mov	r3, r0
 428              		.loc 1 255 0
 429 0002 408A     		ldrh	r0, [r0, #18]
 430              	.LVL41:
 431 0004 40B9     		cbnz	r0, .L59
 432              		.loc 1 259 0
 433 0006 93F82020 		ldrb	r2, [r3, #32]	@ zero_extendqisi2
 434 000a 022A     		cmp	r2, #2
 435 000c 06D0     		beq	.L60
 436              	.LVL42:
 437              	.LBB30:
 438              	.LBB31:
 439              		.loc 1 263 0
 440 000e 054B     		ldr	r3, .L61
 441              	.LVL43:
 442 0010 1878     		ldrb	r0, [r3]	@ zero_extendqisi2
 443              		.loc 1 265 0
 444 0012 C0F34000 		ubfx	r0, r0, #1, #1
 445 0016 7047     		bx	lr
 446              	.LVL44:
 447              	.L59:
 448              	.LBE31:
 449              	.LBE30:
 450              		.loc 1 258 0
 451 0018 0120     		movs	r0, #1
 452              		.loc 1 270 0
ARM GAS  /tmp/ccroL3wm.s 			page 9


 453 001a 7047     		bx	lr
 454              	.L60:
 455              		.loc 1 261 0
 456 001c 0322     		movs	r2, #3
 457 001e 83F82020 		strb	r2, [r3, #32]
 458              		.loc 1 262 0
 459 0022 7047     		bx	lr
 460              	.L62:
 461              		.align	2
 462              	.L61:
 463 0024 00000000 		.word	uip_flags
 464              		.cfi_endproc
 465              	.LFE8:
 466              		.size	psock_newdata, .-psock_newdata
 467 0028 AFF30080 		.section	.text.psock_readto,"ax",%progbits
 467      AFF30080 
 468              		.align	2
 469              		.p2align 4,,15
 470              		.global	psock_readto
 471              		.thumb
 472              		.thumb_func
 473              		.type	psock_readto, %function
 474              	psock_readto:
 475              	.LFB9:
 476              		.loc 1 273 0
 477              		.cfi_startproc
 478              		@ args = 0, pretend = 0, frame = 0
 479              		@ frame_needed = 0, uses_anonymous_args = 0
 480              		@ link register save eliminated.
 481              	.LVL45:
 482 0000 70B4     		push	{r4, r5, r6}
 483              		.cfi_def_cfa_offset 12
 484              		.cfi_offset 4, -12
 485              		.cfi_offset 5, -8
 486              		.cfi_offset 6, -4
 487              	.LBB43:
 488              		.loc 1 274 0
 489 0002 4388     		ldrh	r3, [r0, #2]
 490 0004 002B     		cmp	r3, #0
 491 0006 2FD0     		beq	.L65
 492 0008 40F21B12 		movw	r2, #283
 493 000c 9342     		cmp	r3, r2
 494 000e 26D1     		bne	.L64
 495              	.LVL46:
 496              	.LBB44:
 497              	.LBB45:
 498              		.loc 1 255 0
 499 0010 438A     		ldrh	r3, [r0, #18]
 500 0012 002B     		cmp	r3, #0
 501 0014 32D0     		beq	.L68
 502              	.L67:
 503              	.LBE45:
 504              	.LBE44:
 505              		.loc 1 285 0
 506 0016 2C4A     		ldr	r2, .L91
 507              		.loc 1 286 0
 508 0018 2C4B     		ldr	r3, .L91+4
ARM GAS  /tmp/ccroL3wm.s 			page 10


 509              		.loc 1 285 0
 510 001a 1268     		ldr	r2, [r2]
 511              		.loc 1 286 0
 512 001c 1B88     		ldrh	r3, [r3]
 513              		.loc 1 284 0
 514 001e 0224     		movs	r4, #2
 515              		.loc 1 285 0
 516 0020 8260     		str	r2, [r0, #8]
 517              		.loc 1 286 0
 518 0022 4382     		strh	r3, [r0, #18]	@ movhi
 519              		.loc 1 284 0
 520 0024 80F82040 		strb	r4, [r0, #32]
 521              	.LVL47:
 522              	.L69:
 523 0028 028B     		ldrh	r2, [r0, #24]
 524              	.L73:
 525              	.LBB50:
 526              	.LBB51:
 527              		.loc 1 115 0
 528 002a 002A     		cmp	r2, #0
 529 002c 37D0     		beq	.L74
 530 002e 13B3     		cbz	r3, .L80
 531              		.loc 1 116 0
 532 0030 8268     		ldr	r2, [r0, #8]
 533 0032 4369     		ldr	r3, [r0, #20]
 534 0034 1478     		ldrb	r4, [r2]	@ zero_extendqisi2
 535 0036 1C70     		strb	r4, [r3]
 536              	.LVL48:
 537              		.loc 1 119 0
 538 0038 438A     		ldrh	r3, [r0, #18]
 539              		.loc 1 120 0
 540 003a 028B     		ldrh	r2, [r0, #24]
 541              		.loc 1 117 0
 542 003c 8668     		ldr	r6, [r0, #8]
 543              		.loc 1 118 0
 544 003e 4569     		ldr	r5, [r0, #20]
 545              		.loc 1 119 0
 546 0040 013B     		subs	r3, r3, #1
 547              		.loc 1 120 0
 548 0042 013A     		subs	r2, r2, #1
 549              		.loc 1 119 0
 550 0044 9BB2     		uxth	r3, r3
 551              		.loc 1 120 0
 552 0046 92B2     		uxth	r2, r2
 553              		.loc 1 117 0
 554 0048 0136     		adds	r6, r6, #1
 555              		.loc 1 118 0
 556 004a 0135     		adds	r5, r5, #1
 557              		.loc 1 122 0
 558 004c A142     		cmp	r1, r4
 559              		.loc 1 119 0
 560 004e 4382     		strh	r3, [r0, #18]	@ movhi
 561              		.loc 1 120 0
 562 0050 0283     		strh	r2, [r0, #24]	@ movhi
 563              		.loc 1 117 0
 564 0052 8660     		str	r6, [r0, #8]
 565              		.loc 1 118 0
ARM GAS  /tmp/ccroL3wm.s 			page 11


 566 0054 4561     		str	r5, [r0, #20]
 567              		.loc 1 122 0
 568 0056 E8D1     		bne	.L73
 569              	.LVL49:
 570              	.L72:
 571              	.LBE51:
 572              	.LBE50:
 573              		.loc 1 292 0
 574 0058 838B     		ldrh	r3, [r0, #28]
 575 005a 9A42     		cmp	r2, r3
 576 005c 2DD0     		beq	.L89
 577              	.LVL50:
 578              	.L64:
 579              		.loc 1 296 0
 580 005e 0023     		movs	r3, #0
 581 0060 4380     		strh	r3, [r0, #2]	@ movhi
 582 0062 0220     		movs	r0, #2
 583              	.LVL51:
 584              	.L86:
 585              	.LBE43:
 586              		.loc 1 297 0
 587 0064 70BC     		pop	{r4, r5, r6}
 588 0066 7047     		bx	lr
 589              	.LVL52:
 590              	.L65:
 591              	.LBB58:
 592              		.loc 1 276 0
 593 0068 848B     		ldrh	r4, [r0, #28]
 594              	.LVL53:
 595              	.LBB53:
 596              	.LBB54:
 597              		.loc 1 78 0
 598 006a C268     		ldr	r2, [r0, #12]
 599 006c 438A     		ldrh	r3, [r0, #18]
 600              		.loc 1 79 0
 601 006e 0483     		strh	r4, [r0, #24]	@ movhi
 602              		.loc 1 78 0
 603 0070 4261     		str	r2, [r0, #20]
 604              	.LBE54:
 605              	.LBE53:
 606              		.loc 1 282 0
 607 0072 002B     		cmp	r3, #0
 608 0074 D8D1     		bne	.L69
 609              	.LVL54:
 610              	.L80:
 611              		.loc 1 283 0
 612 0076 40F21B13 		movw	r3, #283
 613 007a 4380     		strh	r3, [r0, #2]	@ movhi
 614              	.LVL55:
 615              	.L68:
 616              	.LBB55:
 617              	.LBB48:
 618              		.loc 1 259 0
 619 007c 90F82030 		ldrb	r3, [r0, #32]	@ zero_extendqisi2
 620 0080 022B     		cmp	r3, #2
 621 0082 08D0     		beq	.L90
 622              	.LVL56:
ARM GAS  /tmp/ccroL3wm.s 			page 12


 623              	.LBB46:
 624              	.LBB47:
 625              		.loc 1 263 0
 626 0084 124B     		ldr	r3, .L91+8
 627 0086 1B78     		ldrb	r3, [r3]	@ zero_extendqisi2
 628 0088 03F00203 		and	r3, r3, #2
 629              	.LBE47:
 630              	.LBE46:
 631              	.LBE48:
 632              	.LBE55:
 633              		.loc 1 283 0
 634 008c 002B     		cmp	r3, #0
 635 008e C2D1     		bne	.L67
 636              	.LVL57:
 637              	.L88:
 638 0090 0020     		movs	r0, #0
 639              	.LVL58:
 640              	.LBE58:
 641              		.loc 1 297 0
 642 0092 70BC     		pop	{r4, r5, r6}
 643 0094 7047     		bx	lr
 644              	.LVL59:
 645              	.L90:
 646              	.LBB59:
 647              	.LBB56:
 648              	.LBB49:
 649              		.loc 1 261 0
 650 0096 0323     		movs	r3, #3
 651 0098 80F82030 		strb	r3, [r0, #32]
 652 009c F8E7     		b	.L88
 653              	.LVL60:
 654              	.L74:
 655              	.LBE49:
 656              	.LBE56:
 657              	.LBB57:
 658              	.LBB52:
 659              		.loc 1 127 0
 660 009e 002B     		cmp	r3, #0
 661 00a0 E9D0     		beq	.L80
 662 00a2 8468     		ldr	r4, [r0, #8]
 663              	.L81:
 664              		.loc 1 132 0
 665 00a4 14F8015B 		ldrb	r5, [r4], #1	@ zero_extendqisi2
 666              	.LVL61:
 667              		.loc 1 133 0
 668 00a8 013B     		subs	r3, r3, #1
 669 00aa 9BB2     		uxth	r3, r3
 670              		.loc 1 136 0
 671 00ac A942     		cmp	r1, r5
 672              		.loc 1 133 0
 673 00ae 4382     		strh	r3, [r0, #18]	@ movhi
 674              	.LVL62:
 675              		.loc 1 134 0
 676 00b0 8460     		str	r4, [r0, #8]
 677              		.loc 1 136 0
 678 00b2 D1D0     		beq	.L72
 679              		.loc 1 131 0
ARM GAS  /tmp/ccroL3wm.s 			page 13


 680 00b4 002B     		cmp	r3, #0
 681 00b6 F5D1     		bne	.L81
 682 00b8 DDE7     		b	.L80
 683              	.LVL63:
 684              	.L89:
 685              	.LBE52:
 686              	.LBE57:
 687              		.loc 1 293 0
 688 00ba 0023     		movs	r3, #0
 689 00bc 80F82030 		strb	r3, [r0, #32]
 690              		.loc 1 294 0
 691 00c0 4380     		strh	r3, [r0, #2]	@ movhi
 692 00c2 1846     		mov	r0, r3
 693              	.LVL64:
 694 00c4 CEE7     		b	.L86
 695              	.L92:
 696 00c6 00BF     		.align	2
 697              	.L91:
 698 00c8 00000000 		.word	uip_appdata
 699 00cc 00000000 		.word	uip_len
 700 00d0 00000000 		.word	uip_flags
 701              	.LBE59:
 702              		.cfi_endproc
 703              	.LFE9:
 704              		.size	psock_readto, .-psock_readto
 705 00d4 AFF30080 		.section	.text.psock_readbuf,"ax",%progbits
 705      AFF30080 
 705      AFF30080 
 706              		.align	2
 707              		.p2align 4,,15
 708              		.global	psock_readbuf
 709              		.thumb
 710              		.thumb_func
 711              		.type	psock_readbuf, %function
 712              	psock_readbuf:
 713              	.LFB10:
 714              		.loc 1 300 0
 715              		.cfi_startproc
 716              		@ args = 0, pretend = 0, frame = 0
 717              		@ frame_needed = 0, uses_anonymous_args = 0
 718              	.LVL65:
 719 0000 38B5     		push	{r3, r4, r5, lr}
 720              		.cfi_def_cfa_offset 16
 721              		.cfi_offset 3, -16
 722              		.cfi_offset 4, -12
 723              		.cfi_offset 5, -8
 724              		.cfi_offset 14, -4
 725              	.LBB71:
 726              		.loc 1 301 0
 727 0002 4388     		ldrh	r3, [r0, #2]
 728              	.LBE71:
 729              		.loc 1 300 0
 730 0004 0446     		mov	r4, r0
 731              	.LBB90:
 732              		.loc 1 301 0
 733 0006 002B     		cmp	r3, #0
 734 0008 2CD0     		beq	.L95
ARM GAS  /tmp/ccroL3wm.s 			page 14


 735 000a B3F59B7F 		cmp	r3, #310
 736 000e 25D1     		bne	.L94
 737              	.LVL66:
 738              	.LBB72:
 739              	.LBB73:
 740              		.loc 1 255 0
 741 0010 438A     		ldrh	r3, [r0, #18]
 742 0012 002B     		cmp	r3, #0
 743 0014 41D0     		beq	.L98
 744              	.LVL67:
 745              	.L97:
 746              	.LBE73:
 747              	.LBE72:
 748              		.loc 1 311 0
 749 0016 3348     		ldr	r0, .L116
 750 0018 FFF7FEFF 		bl	puts
 751              	.LVL68:
 752              		.loc 1 313 0
 753 001c 324A     		ldr	r2, .L116+4
 754              		.loc 1 314 0
 755 001e 334B     		ldr	r3, .L116+8
 756              		.loc 1 313 0
 757 0020 1168     		ldr	r1, [r2]
 758              		.loc 1 314 0
 759 0022 1B88     		ldrh	r3, [r3]
 760              		.loc 1 312 0
 761 0024 0222     		movs	r2, #2
 762              		.loc 1 313 0
 763 0026 A160     		str	r1, [r4, #8]
 764              		.loc 1 314 0
 765 0028 6382     		strh	r3, [r4, #18]	@ movhi
 766              		.loc 1 312 0
 767 002a 84F82020 		strb	r2, [r4, #32]
 768              	.LVL69:
 769              	.L100:
 770              	.LBB78:
 771              	.LBB79:
 772              		.loc 1 86 0
 773 002e 228B     		ldrh	r2, [r4, #24]
 774 0030 9A42     		cmp	r2, r3
 775 0032 1FD8     		bhi	.L112
 776              		.loc 1 93 0
 777 0034 43D0     		beq	.L113
 778              		.loc 1 101 0
 779 0036 6069     		ldr	r0, [r4, #20]
 780 0038 FFF7FEFF 		bl	memcpy
 781              	.LVL70:
 782              		.loc 1 102 0
 783 003c 238B     		ldrh	r3, [r4, #24]
 784 003e 6169     		ldr	r1, [r4, #20]
 785              		.loc 1 103 0
 786 0040 658A     		ldrh	r5, [r4, #18]
 787              		.loc 1 104 0
 788 0042 A268     		ldr	r2, [r4, #8]
 789              		.loc 1 102 0
 790 0044 1944     		add	r1, r1, r3
 791              		.loc 1 103 0
ARM GAS  /tmp/ccroL3wm.s 			page 15


 792 0046 ED1A     		subs	r5, r5, r3
 793              		.loc 1 105 0
 794 0048 0020     		movs	r0, #0
 795              		.loc 1 104 0
 796 004a 1344     		add	r3, r3, r2
 797              		.loc 1 102 0
 798 004c 6161     		str	r1, [r4, #20]
 799              		.loc 1 103 0
 800 004e 6582     		strh	r5, [r4, #18]	@ movhi
 801              		.loc 1 104 0
 802 0050 A360     		str	r3, [r4, #8]
 803              		.loc 1 105 0
 804 0052 2083     		strh	r0, [r4, #24]	@ movhi
 805              	.L105:
 806              	.LVL71:
 807              	.LBE79:
 808              	.LBE78:
 809              	.LBB82:
 810              	.LBB83:
 811              		.loc 1 249 0
 812 0054 E369     		ldr	r3, [r4, #28]
 813              	.LBE83:
 814              	.LBE82:
 815              		.loc 1 320 0
 816 0056 98B2     		uxth	r0, r3
 817 0058 0028     		cmp	r0, #0
 818 005a 3FD0     		beq	.L114
 819              	.LVL72:
 820              	.L94:
 821              		.loc 1 324 0
 822 005c 0023     		movs	r3, #0
 823 005e 6380     		strh	r3, [r4, #2]	@ movhi
 824 0060 0220     		movs	r0, #2
 825 0062 38BD     		pop	{r3, r4, r5, pc}
 826              	.LVL73:
 827              	.L95:
 828              		.loc 1 303 0
 829 0064 818B     		ldrh	r1, [r0, #28]
 830              	.LVL74:
 831              	.LBB84:
 832              	.LBB85:
 833              		.loc 1 78 0
 834 0066 C268     		ldr	r2, [r0, #12]
 835 0068 438A     		ldrh	r3, [r0, #18]
 836              		.loc 1 79 0
 837 006a 0183     		strh	r1, [r0, #24]	@ movhi
 838              		.loc 1 78 0
 839 006c 4261     		str	r2, [r0, #20]
 840              	.LBE85:
 841              	.LBE84:
 842              		.loc 1 309 0
 843 006e 8BB1     		cbz	r3, .L99
 844 0070 8168     		ldr	r1, [r0, #8]
 845 0072 DCE7     		b	.L100
 846              	.LVL75:
 847              	.L112:
 848              	.LBB86:
ARM GAS  /tmp/ccroL3wm.s 			page 16


 849              	.LBB80:
 850              		.loc 1 87 0
 851 0074 1A46     		mov	r2, r3
 852 0076 6069     		ldr	r0, [r4, #20]
 853 0078 FFF7FEFF 		bl	memcpy
 854              	.LVL76:
 855              		.loc 1 88 0
 856 007c 638A     		ldrh	r3, [r4, #18]
 857 007e 6169     		ldr	r1, [r4, #20]
 858              		.loc 1 89 0
 859 0080 258B     		ldrh	r5, [r4, #24]
 860              		.loc 1 90 0
 861 0082 A268     		ldr	r2, [r4, #8]
 862              		.loc 1 88 0
 863 0084 1944     		add	r1, r1, r3
 864              		.loc 1 89 0
 865 0086 ED1A     		subs	r5, r5, r3
 866              		.loc 1 91 0
 867 0088 0020     		movs	r0, #0
 868              		.loc 1 90 0
 869 008a 1344     		add	r3, r3, r2
 870              		.loc 1 88 0
 871 008c 6161     		str	r1, [r4, #20]
 872              		.loc 1 89 0
 873 008e 2583     		strh	r5, [r4, #24]	@ movhi
 874              		.loc 1 90 0
 875 0090 A360     		str	r3, [r4, #8]
 876              		.loc 1 91 0
 877 0092 6082     		strh	r0, [r4, #18]	@ movhi
 878              	.LVL77:
 879              	.L99:
 880              	.LBE80:
 881              	.LBE86:
 882              		.loc 1 310 0
 883 0094 4FF49B73 		mov	r3, #310
 884 0098 6380     		strh	r3, [r4, #2]	@ movhi
 885              	.LVL78:
 886              	.L98:
 887              	.LBB87:
 888              	.LBB76:
 889              		.loc 1 259 0
 890 009a 94F82030 		ldrb	r3, [r4, #32]	@ zero_extendqisi2
 891 009e 022B     		cmp	r3, #2
 892 00a0 08D0     		beq	.L115
 893              	.LVL79:
 894              	.LBB74:
 895              	.LBB75:
 896              		.loc 1 263 0
 897 00a2 134B     		ldr	r3, .L116+12
 898 00a4 1B78     		ldrb	r3, [r3]	@ zero_extendqisi2
 899 00a6 03F00203 		and	r3, r3, #2
 900              	.LBE75:
 901              	.LBE74:
 902              	.LBE76:
 903              	.LBE87:
 904              		.loc 1 310 0
 905 00aa 03F0FF00 		and	r0, r3, #255
ARM GAS  /tmp/ccroL3wm.s 			page 17


 906 00ae 002B     		cmp	r3, #0
 907 00b0 B1D1     		bne	.L97
 908              	.LBE90:
 909              		.loc 1 325 0
 910 00b2 38BD     		pop	{r3, r4, r5, pc}
 911              	.LVL80:
 912              	.L115:
 913              	.LBB91:
 914              	.LBB88:
 915              	.LBB77:
 916              		.loc 1 261 0
 917 00b4 0323     		movs	r3, #3
 918 00b6 84F82030 		strb	r3, [r4, #32]
 919              	.LBE77:
 920              	.LBE88:
 921              		.loc 1 310 0
 922 00ba 0020     		movs	r0, #0
 923 00bc 38BD     		pop	{r3, r4, r5, pc}
 924              	.LVL81:
 925              	.L113:
 926              	.LBB89:
 927              	.LBB81:
 928              		.loc 1 94 0
 929 00be 1A46     		mov	r2, r3
 930 00c0 6069     		ldr	r0, [r4, #20]
 931 00c2 FFF7FEFF 		bl	memcpy
 932              	.LVL82:
 933              		.loc 1 95 0
 934 00c6 638A     		ldrh	r3, [r4, #18]
 935 00c8 6169     		ldr	r1, [r4, #20]
 936              		.loc 1 97 0
 937 00ca A268     		ldr	r2, [r4, #8]
 938              		.loc 1 95 0
 939 00cc 1944     		add	r1, r1, r3
 940              		.loc 1 97 0
 941 00ce 1A44     		add	r2, r2, r3
 942              		.loc 1 96 0
 943 00d0 0023     		movs	r3, #0
 944              		.loc 1 95 0
 945 00d2 6161     		str	r1, [r4, #20]
 946              		.loc 1 97 0
 947 00d4 A260     		str	r2, [r4, #8]
 948              		.loc 1 96 0
 949 00d6 2383     		strh	r3, [r4, #24]	@ movhi
 950              		.loc 1 98 0
 951 00d8 6382     		strh	r3, [r4, #18]	@ movhi
 952 00da BBE7     		b	.L105
 953              	.LVL83:
 954              	.L114:
 955              	.LBE81:
 956              	.LBE89:
 957              		.loc 1 321 0
 958 00dc 84F82000 		strb	r0, [r4, #32]
 959              		.loc 1 322 0
 960 00e0 6380     		strh	r3, [r4, #2]	@ movhi
 961 00e2 38BD     		pop	{r3, r4, r5, pc}
 962              	.LVL84:
ARM GAS  /tmp/ccroL3wm.s 			page 18


 963              	.L117:
 964              		.align	2
 965              	.L116:
 966 00e4 00000000 		.word	.LC0
 967 00e8 00000000 		.word	uip_appdata
 968 00ec 00000000 		.word	uip_len
 969 00f0 00000000 		.word	uip_flags
 970              	.LBE91:
 971              		.cfi_endproc
 972              	.LFE10:
 973              		.size	psock_readbuf, .-psock_readbuf
 974 00f4 AFF30080 		.section	.text.psock_init,"ax",%progbits
 974      AFF30080 
 974      AFF30080 
 975              		.align	2
 976              		.p2align 4,,15
 977              		.global	psock_init
 978              		.thumb
 979              		.thumb_func
 980              		.type	psock_init, %function
 981              	psock_init:
 982              	.LFB11:
 983              		.loc 1 329 0
 984              		.cfi_startproc
 985              		@ args = 0, pretend = 0, frame = 0
 986              		@ frame_needed = 0, uses_anonymous_args = 0
 987              		@ link register save eliminated.
 988              	.LVL85:
 989              		.loc 1 330 0
 990 0000 0023     		movs	r3, #0
 991              		.loc 1 332 0
 992 0002 C160     		str	r1, [r0, #12]
 993              	.LBB92:
 994              	.LBB93:
 995              		.loc 1 78 0
 996 0004 4161     		str	r1, [r0, #20]
 997              	.LBE93:
 998              	.LBE92:
 999              		.loc 1 333 0
 1000 0006 C261     		str	r2, [r0, #28]
 1001              	.LVL86:
 1002              		.loc 1 334 0
 1003 0008 0283     		strh	r2, [r0, #24]	@ movhi
 1004              		.loc 1 330 0
 1005 000a 80F82030 		strb	r3, [r0, #32]
 1006              		.loc 1 331 0
 1007 000e 4382     		strh	r3, [r0, #18]	@ movhi
 1008              		.loc 1 335 0
 1009 0010 0380     		strh	r3, [r0]	@ movhi
 1010              		.loc 1 336 0
 1011 0012 4380     		strh	r3, [r0, #2]	@ movhi
 1012 0014 7047     		bx	lr
 1013              		.cfi_endproc
 1014              	.LFE11:
 1015              		.size	psock_init, .-psock_init
 1016 0016 00BFAFF3 		.section	.rodata.str1.4,"aMS",%progbits,1
 1016      0080AFF3 
ARM GAS  /tmp/ccroL3wm.s 			page 19


 1016      0080
 1017              		.align	2
 1018              	.LC0:
 1019 0000 57616974 		.ascii	"Waited for newdata\000"
 1019      65642066 
 1019      6F72206E 
 1019      65776461 
 1019      746100
 1020 0013 00       		.text
 1021              	.Letext0:
 1022              		.file 2 "/usr/include/newlib/machine/_default_types.h"
 1023              		.file 3 "/usr/include/newlib/stdint.h"
 1024              		.file 4 "./modbus_tcp.h"
 1025              		.file 5 "./uip-conf.h"
 1026              		.file 6 "../uip/lc-switch.h"
 1027              		.file 7 "../uip/psock.h"
 1028              		.file 8 "../uip/pt.h"
 1029              		.file 9 "../uip/uip.h"
 1030              		.file 10 "<built-in>"