ARM GAS  /tmp/cczUXB2K.s 			page 1


   1              		.syntax unified
   2              		.cpu cortex-m3
   3              		.fpu softvfp
   4              		.eabi_attribute 20, 1
   5              		.eabi_attribute 21, 1
   6              		.eabi_attribute 23, 3
   7              		.eabi_attribute 24, 1
   8              		.eabi_attribute 25, 1
   9              		.eabi_attribute 26, 1
  10              		.eabi_attribute 30, 2
  11              		.eabi_attribute 34, 1
  12              		.eabi_attribute 18, 4
  13              		.thumb
  14              		.file	"rfm.c"
  15              		.text
  16              	.Ltext0:
  17              		.cfi_sections	.debug_frame
  18              		.section	.text.rfm_write.isra.0,"ax",%progbits
  19              		.align	2
  20              		.p2align 4,,15
  21              		.thumb
  22              		.thumb_func
  23              		.type	rfm_write.isra.0, %function
  24              	rfm_write.isra.0:
  25              	.LFB66:
  26              		.file 1 "rfm.c"
  27              		.loc 1 26 0
  28              		.cfi_startproc
  29              		@ args = 0, pretend = 0, frame = 16
  30              		@ frame_needed = 0, uses_anonymous_args = 0
  31              	.LVL0:
  32 0000 30B5     		push	{r4, r5, lr}
  33              		.cfi_def_cfa_offset 12
  34              		.cfi_offset 4, -12
  35              		.cfi_offset 5, -8
  36              		.cfi_offset 14, -4
  37 0002 85B0     		sub	sp, sp, #20
  38              		.cfi_def_cfa_offset 32
  39              		.loc 1 28 0
  40 0004 61F07F01 		orn	r1, r1, #127
  41              	.LVL1:
  42 0008 04AD     		add	r5, sp, #16
  43              		.loc 1 26 0
  44 000a 0446     		mov	r4, r0
  45              		.loc 1 28 0
  46 000c 05F8011D 		strb	r1, [r5, #-1]!
  47              		.loc 1 30 0
  48 0010 0068     		ldr	r0, [r0]
  49              		.loc 1 26 0
  50 0012 8DF80720 		strb	r2, [sp, #7]
  51              		.loc 1 30 0
  52 0016 FFF7FEFF 		bl	spiSelect
  53              	.LVL2:
  54              		.loc 1 31 0
  55 001a 2A46     		mov	r2, r5
  56 001c 2068     		ldr	r0, [r4]
  57 001e 0121     		movs	r1, #1
ARM GAS  /tmp/cczUXB2K.s 			page 2


  58 0020 FFF7FEFF 		bl	spiSend
  59              	.LVL3:
  60              		.loc 1 32 0
  61 0024 2068     		ldr	r0, [r4]
  62 0026 0121     		movs	r1, #1
  63 0028 0DF10702 		add	r2, sp, #7
  64              	.LVL4:
  65 002c FFF7FEFF 		bl	spiSend
  66              	.LVL5:
  67              		.loc 1 33 0
  68 0030 2068     		ldr	r0, [r4]
  69 0032 FFF7FEFF 		bl	spiUnselect
  70              	.LVL6:
  71              		.loc 1 34 0
  72 0036 05B0     		add	sp, sp, #20
  73              		@ sp needed
  74 0038 30BD     		pop	{r4, r5, pc}
  75              		.cfi_endproc
  76              	.LFE66:
  77              		.size	rfm_write.isra.0, .-rfm_write.isra.0
  78 003a 00BFAFF3 		.section	.text.rfm_read.isra.1,"ax",%progbits
  78      0080
  79              		.align	2
  80              		.p2align 4,,15
  81              		.thumb
  82              		.thumb_func
  83              		.type	rfm_read.isra.1, %function
  84              	rfm_read.isra.1:
  85              	.LFB67:
  86              		.loc 1 36 0
  87              		.cfi_startproc
  88              		@ args = 0, pretend = 0, frame = 16
  89              		@ frame_needed = 0, uses_anonymous_args = 0
  90              	.LVL7:
  91 0000 30B5     		push	{r4, r5, lr}
  92              		.cfi_def_cfa_offset 12
  93              		.cfi_offset 4, -12
  94              		.cfi_offset 5, -8
  95              		.cfi_offset 14, -4
  96 0002 85B0     		sub	sp, sp, #20
  97              		.cfi_def_cfa_offset 32
  98              		.loc 1 36 0
  99 0004 04AD     		add	r5, sp, #16
 100 0006 0446     		mov	r4, r0
 101 0008 05F8091D 		strb	r1, [r5, #-9]!
 102              		.loc 1 40 0
 103 000c 0068     		ldr	r0, [r0]
 104 000e FFF7FEFF 		bl	spiSelect
 105              	.LVL8:
 106              		.loc 1 41 0
 107 0012 2A46     		mov	r2, r5
 108 0014 2068     		ldr	r0, [r4]
 109 0016 0121     		movs	r1, #1
 110 0018 FFF7FEFF 		bl	spiSend
 111              	.LVL9:
 112              		.loc 1 42 0
 113 001c 2068     		ldr	r0, [r4]
ARM GAS  /tmp/cczUXB2K.s 			page 3


 114 001e 0121     		movs	r1, #1
 115 0020 0DF10F02 		add	r2, sp, #15
 116 0024 FFF7FEFF 		bl	spiReceive
 117              	.LVL10:
 118              		.loc 1 43 0
 119 0028 2068     		ldr	r0, [r4]
 120 002a FFF7FEFF 		bl	spiUnselect
 121              	.LVL11:
 122              		.loc 1 46 0
 123 002e 9DF80F00 		ldrb	r0, [sp, #15]	@ zero_extendqisi2
 124 0032 05B0     		add	sp, sp, #20
 125              		@ sp needed
 126 0034 30BD     		pop	{r4, r5, pc}
 127              		.cfi_endproc
 128              	.LFE67:
 129              		.size	rfm_read.isra.1, .-rfm_read.isra.1
 130 0036 00BFAFF3 		.section	.text.rfm_init,"ax",%progbits
 130      0080AFF3 
 130      0080
 131              		.align	2
 132              		.p2align 4,,15
 133              		.global	rfm_init
 134              		.thumb
 135              		.thumb_func
 136              		.type	rfm_init, %function
 137              	rfm_init:
 138              	.LFB59:
 139              		.loc 1 97 0
 140              		.cfi_startproc
 141              		@ args = 0, pretend = 0, frame = 0
 142              		@ frame_needed = 0, uses_anonymous_args = 0
 143              	.LVL12:
 144 0000 70B5     		push	{r4, r5, r6, lr}
 145              		.cfi_def_cfa_offset 16
 146              		.cfi_offset 4, -16
 147              		.cfi_offset 5, -12
 148              		.cfi_offset 6, -8
 149              		.cfi_offset 14, -4
 150              		.loc 1 97 0
 151 0002 0446     		mov	r4, r0
 152              	.LBB4:
 153              	.LBB5:
 154              		.loc 1 17 0
 155              	@ 17 "rfm.c" 1
 156 0004 FFF7FEFF 		bl      _port_lock
 157              	@ 0 "" 2
 158              		.loc 1 18 0
 159              		.thumb
 160 0008 704D     		ldr	r5, .L7
 161 000a 4FF40076 		mov	r6, #512
 162 000e 2E61     		str	r6, [r5, #16]
 163              		.loc 1 19 0
 164 0010 0120     		movs	r0, #1
 165              	.LVL13:
 166 0012 FFF7FEFF 		bl	chThdSleep
 167              	.LVL14:
 168              		.loc 1 20 0
ARM GAS  /tmp/cczUXB2K.s 			page 4


 169 0016 6E61     		str	r6, [r5, #20]
 170              		.loc 1 21 0
 171              	@ 21 "rfm.c" 1
 172 0018 FFF7FEFF 		bl      _port_unlock
 173              	@ 0 "" 2
 174              		.loc 1 23 0
 175              		.thumb
 176 001c 0520     		movs	r0, #5
 177 001e FFF7FEFF 		bl	chThdSleep
 178              	.LVL15:
 179              	.LBE5:
 180              	.LBE4:
 181              		.loc 1 105 0
 182 0022 2046     		mov	r0, r4
 183 0024 0121     		movs	r1, #1
 184 0026 0422     		movs	r2, #4
 185 0028 FFF7FEFF 		bl	rfm_write.isra.0
 186              	.LVL16:
 187              		.loc 1 106 0
 188 002c 2046     		mov	r0, r4
 189 002e 0221     		movs	r1, #2
 190 0030 0122     		movs	r2, #1
 191 0032 FFF7FEFF 		bl	rfm_write.isra.0
 192              	.LVL17:
 193              		.loc 1 108 0
 194 0036 2046     		mov	r0, r4
 195 0038 0521     		movs	r1, #5
 196 003a 0022     		movs	r2, #0
 197 003c FFF7FEFF 		bl	rfm_write.isra.0
 198              	.LVL18:
 199              		.loc 1 109 0
 200 0040 2046     		mov	r0, r4
 201 0042 0621     		movs	r1, #6
 202 0044 A322     		movs	r2, #163
 203 0046 FFF7FEFF 		bl	rfm_write.isra.0
 204              	.LVL19:
 205              		.loc 1 111 0
 206 004a 2046     		mov	r0, r4
 207 004c 0321     		movs	r1, #3
 208 004e 0D22     		movs	r2, #13
 209 0050 FFF7FEFF 		bl	rfm_write.isra.0
 210              	.LVL20:
 211              		.loc 1 112 0
 212 0054 2046     		mov	r0, r4
 213 0056 0421     		movs	r1, #4
 214 0058 0522     		movs	r2, #5
 215 005a FFF7FEFF 		bl	rfm_write.isra.0
 216              	.LVL21:
 217              		.loc 1 114 0
 218 005e 2046     		mov	r0, r4
 219 0060 0721     		movs	r1, #7
 220 0062 D922     		movs	r2, #217
 221 0064 FFF7FEFF 		bl	rfm_write.isra.0
 222              	.LVL22:
 223              		.loc 1 115 0
 224 0068 2046     		mov	r0, r4
 225 006a 0821     		movs	r1, #8
ARM GAS  /tmp/cczUXB2K.s 			page 5


 226 006c 3022     		movs	r2, #48
 227 006e FFF7FEFF 		bl	rfm_write.isra.0
 228              	.LVL23:
 229              		.loc 1 116 0
 230 0072 2046     		mov	r0, r4
 231 0074 0921     		movs	r1, #9
 232 0076 0622     		movs	r2, #6
 233 0078 FFF7FEFF 		bl	rfm_write.isra.0
 234              	.LVL24:
 235              		.loc 1 118 0
 236 007c 2046     		mov	r0, r4
 237 007e 0B21     		movs	r1, #11
 238 0080 0022     		movs	r2, #0
 239 0082 FFF7FEFF 		bl	rfm_write.isra.0
 240              	.LVL25:
 241              		.loc 1 124 0
 242 0086 2046     		mov	r0, r4
 243 0088 1121     		movs	r1, #17
 244 008a 9F22     		movs	r2, #159
 245 008c FFF7FEFF 		bl	rfm_write.isra.0
 246              	.LVL26:
 247              		.loc 1 125 0
 248 0090 2046     		mov	r0, r4
 249 0092 1221     		movs	r1, #18
 250 0094 0822     		movs	r2, #8
 251 0096 FFF7FEFF 		bl	rfm_write.isra.0
 252              	.LVL27:
 253              		.loc 1 126 0
 254 009a 2046     		mov	r0, r4
 255 009c 1321     		movs	r1, #19
 256 009e 1A22     		movs	r2, #26
 257 00a0 FFF7FEFF 		bl	rfm_write.isra.0
 258              	.LVL28:
 259              		.loc 1 127 0
 260 00a4 2046     		mov	r0, r4
 261 00a6 1821     		movs	r1, #24
 262 00a8 8022     		movs	r2, #128
 263 00aa FFF7FEFF 		bl	rfm_write.isra.0
 264              	.LVL29:
 265              		.loc 1 129 0
 266 00ae 2046     		mov	r0, r4
 267 00b0 1921     		movs	r1, #25
 268 00b2 4322     		movs	r2, #67
 269 00b4 FFF7FEFF 		bl	rfm_write.isra.0
 270              	.LVL30:
 271              		.loc 1 130 0
 272 00b8 2046     		mov	r0, r4
 273 00ba 1A21     		movs	r1, #26
 274 00bc 4222     		movs	r2, #66
 275 00be FFF7FEFF 		bl	rfm_write.isra.0
 276              	.LVL31:
 277              		.loc 1 136 0
 278 00c2 2046     		mov	r0, r4
 279 00c4 1E21     		movs	r1, #30
 280 00c6 0822     		movs	r2, #8
 281 00c8 FFF7FEFF 		bl	rfm_write.isra.0
 282              	.LVL32:
ARM GAS  /tmp/cczUXB2K.s 			page 6


 283              		.loc 1 138 0
 284 00cc 2046     		mov	r0, r4
 285 00ce 2521     		movs	r1, #37
 286 00d0 0922     		movs	r2, #9
 287 00d2 FFF7FEFF 		bl	rfm_write.isra.0
 288              	.LVL33:
 289              		.loc 1 139 0
 290 00d6 2046     		mov	r0, r4
 291 00d8 2621     		movs	r1, #38
 292 00da 0222     		movs	r2, #2
 293 00dc FFF7FEFF 		bl	rfm_write.isra.0
 294              	.LVL34:
 295              		.loc 1 141 0
 296 00e0 2046     		mov	r0, r4
 297 00e2 2921     		movs	r1, #41
 298 00e4 B022     		movs	r2, #176
 299 00e6 FFF7FEFF 		bl	rfm_write.isra.0
 300              	.LVL35:
 301              		.loc 1 143 0
 302 00ea 2046     		mov	r0, r4
 303 00ec 2C21     		movs	r1, #44
 304 00ee 0022     		movs	r2, #0
 305 00f0 FFF7FEFF 		bl	rfm_write.isra.0
 306              	.LVL36:
 307              		.loc 1 144 0
 308 00f4 2046     		mov	r0, r4
 309 00f6 2D21     		movs	r1, #45
 310 00f8 0422     		movs	r2, #4
 311 00fa FFF7FEFF 		bl	rfm_write.isra.0
 312              	.LVL37:
 313              		.loc 1 146 0
 314 00fe 2046     		mov	r0, r4
 315 0100 2E21     		movs	r1, #46
 316 0102 9A22     		movs	r2, #154
 317 0104 FFF7FEFF 		bl	rfm_write.isra.0
 318              	.LVL38:
 319              		.loc 1 147 0
 320 0108 2046     		mov	r0, r4
 321 010a 2F21     		movs	r1, #47
 322 010c CA22     		movs	r2, #202
 323 010e FFF7FEFF 		bl	rfm_write.isra.0
 324              	.LVL39:
 325              		.loc 1 148 0
 326 0112 2046     		mov	r0, r4
 327 0114 3021     		movs	r1, #48
 328 0116 E122     		movs	r2, #225
 329 0118 FFF7FEFF 		bl	rfm_write.isra.0
 330              	.LVL40:
 331              		.loc 1 149 0
 332 011c 2046     		mov	r0, r4
 333 011e 3121     		movs	r1, #49
 334 0120 3B22     		movs	r2, #59
 335 0122 FFF7FEFF 		bl	rfm_write.isra.0
 336              	.LVL41:
 337              		.loc 1 150 0
 338 0126 2046     		mov	r0, r4
 339 0128 3221     		movs	r1, #50
ARM GAS  /tmp/cczUXB2K.s 			page 7


 340 012a 7522     		movs	r2, #117
 341 012c FFF7FEFF 		bl	rfm_write.isra.0
 342              	.LVL42:
 343              		.loc 1 151 0
 344 0130 2046     		mov	r0, r4
 345 0132 3321     		movs	r1, #51
 346 0134 CA22     		movs	r2, #202
 347 0136 FFF7FEFF 		bl	rfm_write.isra.0
 348              	.LVL43:
 349              		.loc 1 152 0
 350 013a 2046     		mov	r0, r4
 351 013c 3421     		movs	r1, #52
 352 013e E122     		movs	r2, #225
 353 0140 FFF7FEFF 		bl	rfm_write.isra.0
 354              	.LVL44:
 355              		.loc 1 153 0
 356 0144 2046     		mov	r0, r4
 357 0146 3521     		movs	r1, #53
 358 0148 3B22     		movs	r2, #59
 359 014a FFF7FEFF 		bl	rfm_write.isra.0
 360              	.LVL45:
 361              		.loc 1 154 0
 362 014e 2046     		mov	r0, r4
 363 0150 3621     		movs	r1, #54
 364 0152 7522     		movs	r2, #117
 365 0154 FFF7FEFF 		bl	rfm_write.isra.0
 366              	.LVL46:
 367              		.loc 1 156 0
 368 0158 2046     		mov	r0, r4
 369 015a 3721     		movs	r1, #55
 370 015c 9422     		movs	r2, #148
 371 015e FFF7FEFF 		bl	rfm_write.isra.0
 372              	.LVL47:
 373              		.loc 1 157 0
 374 0162 2046     		mov	r0, r4
 375 0164 3821     		movs	r1, #56
 376 0166 FF22     		movs	r2, #255
 377 0168 FFF7FEFF 		bl	rfm_write.isra.0
 378              	.LVL48:
 379              		.loc 1 158 0
 380 016c 2046     		mov	r0, r4
 381 016e 3921     		movs	r1, #57
 382 0170 0522     		movs	r2, #5
 383 0172 FFF7FEFF 		bl	rfm_write.isra.0
 384              	.LVL49:
 385              		.loc 1 159 0
 386 0176 2046     		mov	r0, r4
 387 0178 3A21     		movs	r1, #58
 388 017a FF22     		movs	r2, #255
 389 017c FFF7FEFF 		bl	rfm_write.isra.0
 390              	.LVL50:
 391              		.loc 1 160 0
 392 0180 2046     		mov	r0, r4
 393 0182 3B21     		movs	r1, #59
 394 0184 0022     		movs	r2, #0
 395 0186 FFF7FEFF 		bl	rfm_write.isra.0
 396              	.LVL51:
ARM GAS  /tmp/cczUXB2K.s 			page 8


 397              		.loc 1 162 0
 398 018a 2046     		mov	r0, r4
 399 018c 3C21     		movs	r1, #60
 400 018e A022     		movs	r2, #160
 401 0190 FFF7FEFF 		bl	rfm_write.isra.0
 402              	.LVL52:
 403              		.loc 1 163 0
 404 0194 2046     		mov	r0, r4
 405 0196 3D21     		movs	r1, #61
 406 0198 3222     		movs	r2, #50
 407 019a FFF7FEFF 		bl	rfm_write.isra.0
 408              	.LVL53:
 409              		.loc 1 182 0
 410 019e 2046     		mov	r0, r4
 411 01a0 6F21     		movs	r1, #111
 412 01a2 3022     		movs	r2, #48
 413 01a4 FFF7FEFF 		bl	rfm_write.isra.0
 414              	.LVL54:
 415              		.loc 1 183 0
 416 01a8 2046     		mov	r0, r4
 417 01aa 2821     		movs	r1, #40
 418 01ac 1022     		movs	r2, #16
 419 01ae FFF7FEFF 		bl	rfm_write.isra.0
 420              	.LVL55:
 421              		.loc 1 188 0
 422 01b2 2046     		mov	r0, r4
 423 01b4 1921     		movs	r1, #25
 424 01b6 FFF7FEFF 		bl	rfm_read.isra.1
 425              	.LVL56:
 426 01ba 4328     		cmp	r0, #67
 427 01bc 04D0     		beq	.L5
 428              		.loc 1 190 0
 429 01be 044B     		ldr	r3, .L7+4
 430 01c0 0122     		movs	r2, #1
 431 01c2 1A70     		strb	r2, [r3]
 432              		.loc 1 191 0
 433 01c4 FF20     		movs	r0, #255
 434 01c6 70BD     		pop	{r4, r5, r6, pc}
 435              	.LVL57:
 436              	.L5:
 437              		.loc 1 193 0
 438 01c8 0020     		movs	r0, #0
 439              		.loc 1 194 0
 440 01ca 70BD     		pop	{r4, r5, r6, pc}
 441              	.LVL58:
 442              	.L8:
 443              		.align	2
 444              	.L7:
 445 01cc 00080140 		.word	1073809408
 446 01d0 00000000 		.word	.LANCHOR0
 447              		.cfi_endproc
 448              	.LFE59:
 449              		.size	rfm_init, .-rfm_init
 450 01d4 AFF30080 		.section	.text.rfm_transmit_start,"ax",%progbits
 450      AFF30080 
 450      AFF30080 
 451              		.align	2
ARM GAS  /tmp/cczUXB2K.s 			page 9


 452              		.p2align 4,,15
 453              		.global	rfm_transmit_start
 454              		.thumb
 455              		.thumb_func
 456              		.type	rfm_transmit_start, %function
 457              	rfm_transmit_start:
 458              	.LFB60:
 459              		.loc 1 197 0
 460              		.cfi_startproc
 461              		@ args = 0, pretend = 0, frame = 0
 462              		@ frame_needed = 0, uses_anonymous_args = 0
 463              	.LVL59:
 464 0000 F8B5     		push	{r3, r4, r5, r6, r7, lr}
 465              		.cfi_def_cfa_offset 24
 466              		.cfi_offset 3, -24
 467              		.cfi_offset 4, -20
 468              		.cfi_offset 5, -16
 469              		.cfi_offset 6, -12
 470              		.cfi_offset 7, -8
 471              		.cfi_offset 14, -4
 472              		.loc 1 200 0
 473 0002 154D     		ldr	r5, .L15
 474              		.loc 1 201 0
 475 0004 4229     		cmp	r1, #66
 476              		.loc 1 197 0
 477 0006 1446     		mov	r4, r2
 478              		.loc 1 200 0
 479 0008 2970     		strb	r1, [r5]
 480              		.loc 1 197 0
 481 000a 0646     		mov	r6, r0
 482              		.loc 1 201 0
 483 000c 21D8     		bhi	.L14
 484              		.loc 1 203 0
 485 000e 134B     		ldr	r3, .L15+4
 486              		.loc 1 204 0
 487 0010 0121     		movs	r1, #1
 488              	.LVL60:
 489 0012 0C22     		movs	r2, #12
 490              	.LVL61:
 491              		.loc 1 203 0
 492 0014 0527     		movs	r7, #5
 493 0016 1F70     		strb	r7, [r3]
 494              		.loc 1 204 0
 495 0018 FFF7FEFF 		bl	rfm_write.isra.0
 496              	.LVL62:
 497              		.loc 1 206 0
 498 001c 2A78     		ldrb	r2, [r5]	@ zero_extendqisi2
 499 001e 3046     		mov	r0, r6
 500 0020 0132     		adds	r2, r2, #1
 501 0022 D2B2     		uxtb	r2, r2
 502 0024 0021     		movs	r1, #0
 503 0026 FFF7FEFF 		bl	rfm_write.isra.0
 504              	.LVL63:
 505              		.loc 1 207 0
 506 002a 3046     		mov	r0, r6
 507 002c 2246     		mov	r2, r4
 508 002e 0021     		movs	r1, #0
ARM GAS  /tmp/cczUXB2K.s 			page 10


 509 0030 FFF7FEFF 		bl	rfm_write.isra.0
 510              	.LVL64:
 511              		.loc 1 209 0
 512 0034 2B78     		ldrb	r3, [r5]	@ zero_extendqisi2
 513 0036 53B1     		cbz	r3, .L12
 514 0038 094F     		ldr	r7, .L15+8
 515 003a 0024     		movs	r4, #0
 516              	.LVL65:
 517              	.L13:
 518              		.loc 1 211 0 discriminator 2
 519 003c 3A5D     		ldrb	r2, [r7, r4]	@ zero_extendqisi2
 520 003e 3046     		mov	r0, r6
 521 0040 0021     		movs	r1, #0
 522 0042 FFF7FEFF 		bl	rfm_write.isra.0
 523              	.LVL66:
 524              		.loc 1 209 0 discriminator 2
 525 0046 2B78     		ldrb	r3, [r5]	@ zero_extendqisi2
 526 0048 0134     		adds	r4, r4, #1
 527              	.LVL67:
 528 004a A342     		cmp	r3, r4
 529 004c F6DC     		bgt	.L13
 530              	.LVL68:
 531              	.L12:
 532              		.loc 1 214 0
 533 004e 0020     		movs	r0, #0
 534 0050 F8BD     		pop	{r3, r4, r5, r6, r7, pc}
 535              	.LVL69:
 536              	.L14:
 537              		.loc 1 201 0
 538 0052 4FF0FF30 		mov	r0, #-1
 539              	.LVL70:
 540              		.loc 1 215 0
 541 0056 F8BD     		pop	{r3, r4, r5, r6, r7, pc}
 542              	.LVL71:
 543              	.L16:
 544              		.align	2
 545              	.L15:
 546 0058 00000000 		.word	.LANCHOR1
 547 005c 00000000 		.word	.LANCHOR0
 548 0060 00000000 		.word	.LANCHOR2
 549              		.cfi_endproc
 550              	.LFE60:
 551              		.size	rfm_transmit_start, .-rfm_transmit_start
 552 0064 AFF30080 		.section	.text.rfm_receive_start,"ax",%progbits
 552      AFF30080 
 552      AFF30080 
 553              		.align	2
 554              		.p2align 4,,15
 555              		.global	rfm_receive_start
 556              		.thumb
 557              		.thumb_func
 558              		.type	rfm_receive_start, %function
 559              	rfm_receive_start:
 560              	.LFB61:
 561              		.loc 1 218 0
 562              		.cfi_startproc
 563              		@ args = 0, pretend = 0, frame = 0
ARM GAS  /tmp/cczUXB2K.s 			page 11


 564              		@ frame_needed = 0, uses_anonymous_args = 0
 565              		@ link register save eliminated.
 566              	.LVL72:
 567              		.loc 1 219 0
 568 0000 044B     		ldr	r3, .L18
 569              		.loc 1 218 0
 570 0002 10B4     		push	{r4}
 571              		.cfi_def_cfa_offset 4
 572              		.cfi_offset 4, -4
 573              		.loc 1 219 0
 574 0004 0424     		movs	r4, #4
 575 0006 1C70     		strb	r4, [r3]
 576              		.loc 1 220 0
 577 0008 0121     		movs	r1, #1
 578 000a 1022     		movs	r2, #16
 579              		.loc 1 221 0
 580 000c 5DF8044B 		ldr	r4, [sp], #4
 581              		.loc 1 220 0
 582 0010 FFF7FEBF 		b	rfm_write.isra.0
 583              	.LVL73:
 584              	.L19:
 585              		.align	2
 586              	.L18:
 587 0014 00000000 		.word	.LANCHOR0
 588              		.cfi_endproc
 589              	.LFE61:
 590              		.size	rfm_receive_start, .-rfm_receive_start
 591 0018 AFF30080 		.section	.text.rfm_receive_small_packet,"ax",%progbits
 591      AFF30080 
 592              		.align	2
 593              		.p2align 4,,15
 594              		.global	rfm_receive_small_packet
 595              		.thumb
 596              		.thumb_func
 597              		.type	rfm_receive_small_packet, %function
 598              	rfm_receive_small_packet:
 599              	.LFB62:
 600              		.loc 1 224 0
 601              		.cfi_startproc
 602              		@ args = 0, pretend = 0, frame = 0
 603              		@ frame_needed = 0, uses_anonymous_args = 0
 604              	.LVL74:
 605 0000 F8B5     		push	{r3, r4, r5, r6, r7, lr}
 606              		.cfi_def_cfa_offset 24
 607              		.cfi_offset 3, -24
 608              		.cfi_offset 4, -20
 609              		.cfi_offset 5, -16
 610              		.cfi_offset 6, -12
 611              		.cfi_offset 7, -8
 612              		.cfi_offset 14, -4
 613              		.loc 1 227 0
 614 0002 0021     		movs	r1, #0
 615              		.loc 1 224 0
 616 0004 0646     		mov	r6, r0
 617              		.loc 1 227 0
 618 0006 FFF7FEFF 		bl	rfm_read.isra.1
 619              	.LVL75:
ARM GAS  /tmp/cczUXB2K.s 			page 12


 620 000a 0E4D     		ldr	r5, .L25
 621              		.loc 1 228 0
 622 000c 4228     		cmp	r0, #66
 623              		.loc 1 227 0
 624 000e 2870     		strb	r0, [r5]
 625              		.loc 1 228 0
 626 0010 15D8     		bhi	.L23
 627              		.loc 1 230 0
 628 0012 3046     		mov	r0, r6
 629 0014 0021     		movs	r1, #0
 630 0016 FFF7FEFF 		bl	rfm_read.isra.1
 631              	.LVL76:
 632              		.loc 1 231 0
 633 001a 2B78     		ldrb	r3, [r5]	@ zero_extendqisi2
 634 001c 013B     		subs	r3, r3, #1
 635 001e DBB2     		uxtb	r3, r3
 636 0020 2B70     		strb	r3, [r5]
 637              	.LVL77:
 638              		.loc 1 233 0
 639 0022 53B1     		cbz	r3, .L21
 640 0024 084F     		ldr	r7, .L25+4
 641 0026 0024     		movs	r4, #0
 642              	.LVL78:
 643              	.L22:
 644              		.loc 1 235 0 discriminator 2
 645 0028 3046     		mov	r0, r6
 646 002a 0021     		movs	r1, #0
 647 002c FFF7FEFF 		bl	rfm_read.isra.1
 648              	.LVL79:
 649              		.loc 1 233 0 discriminator 2
 650 0030 2B78     		ldrb	r3, [r5]	@ zero_extendqisi2
 651              		.loc 1 235 0 discriminator 2
 652 0032 3855     		strb	r0, [r7, r4]
 653              		.loc 1 233 0 discriminator 2
 654 0034 0134     		adds	r4, r4, #1
 655              	.LVL80:
 656 0036 A342     		cmp	r3, r4
 657 0038 F6DC     		bgt	.L22
 658              	.LVL81:
 659              	.L21:
 660              		.loc 1 239 0
 661 003a 1846     		mov	r0, r3
 662 003c F8BD     		pop	{r3, r4, r5, r6, r7, pc}
 663              	.LVL82:
 664              	.L23:
 665              		.loc 1 228 0
 666 003e 4FF0FF33 		mov	r3, #-1
 667 0042 FAE7     		b	.L21
 668              	.L26:
 669              		.align	2
 670              	.L25:
 671 0044 00000000 		.word	.LANCHOR1
 672 0048 00000000 		.word	.LANCHOR2
 673              		.cfi_endproc
 674              	.LFE62:
 675              		.size	rfm_receive_small_packet, .-rfm_receive_small_packet
 676 004c AFF30080 		.section	.text.rfm_sleep,"ax",%progbits
ARM GAS  /tmp/cczUXB2K.s 			page 13


 677              		.align	2
 678              		.p2align 4,,15
 679              		.global	rfm_sleep
 680              		.thumb
 681              		.thumb_func
 682              		.type	rfm_sleep, %function
 683              	rfm_sleep:
 684              	.LFB63:
 685              		.loc 1 242 0
 686              		.cfi_startproc
 687              		@ args = 0, pretend = 0, frame = 0
 688              		@ frame_needed = 0, uses_anonymous_args = 0
 689              	.LVL83:
 690 0000 08B5     		push	{r3, lr}
 691              		.cfi_def_cfa_offset 8
 692              		.cfi_offset 3, -8
 693              		.cfi_offset 14, -4
 694              		.loc 1 243 0
 695 0002 0022     		movs	r2, #0
 696 0004 0121     		movs	r1, #1
 697 0006 FFF7FEFF 		bl	rfm_write.isra.0
 698              	.LVL84:
 699              		.loc 1 244 0
 700 000a 024B     		ldr	r3, .L28
 701 000c 0222     		movs	r2, #2
 702 000e 1A70     		strb	r2, [r3]
 703 0010 08BD     		pop	{r3, pc}
 704              	.L29:
 705 0012 00BF     		.align	2
 706              	.L28:
 707 0014 00000000 		.word	.LANCHOR0
 708              		.cfi_endproc
 709              	.LFE63:
 710              		.size	rfm_sleep, .-rfm_sleep
 711 0018 AFF30080 		.section	.text.rfm_stby,"ax",%progbits
 711      AFF30080 
 712              		.align	2
 713              		.p2align 4,,15
 714              		.global	rfm_stby
 715              		.thumb
 716              		.thumb_func
 717              		.type	rfm_stby, %function
 718              	rfm_stby:
 719              	.LFB64:
 720              		.loc 1 248 0
 721              		.cfi_startproc
 722              		@ args = 0, pretend = 0, frame = 0
 723              		@ frame_needed = 0, uses_anonymous_args = 0
 724              	.LVL85:
 725 0000 08B5     		push	{r3, lr}
 726              		.cfi_def_cfa_offset 8
 727              		.cfi_offset 3, -8
 728              		.cfi_offset 14, -4
 729              		.loc 1 249 0
 730 0002 0422     		movs	r2, #4
 731 0004 0121     		movs	r1, #1
 732 0006 FFF7FEFF 		bl	rfm_write.isra.0
ARM GAS  /tmp/cczUXB2K.s 			page 14


 733              	.LVL86:
 734              		.loc 1 250 0
 735 000a 024B     		ldr	r3, .L31
 736 000c 0322     		movs	r2, #3
 737 000e 1A70     		strb	r2, [r3]
 738 0010 08BD     		pop	{r3, pc}
 739              	.L32:
 740 0012 00BF     		.align	2
 741              	.L31:
 742 0014 00000000 		.word	.LANCHOR0
 743              		.cfi_endproc
 744              	.LFE64:
 745              		.size	rfm_stby, .-rfm_stby
 746 0018 AFF30080 		.section	.text.rfm_clear_fifo,"ax",%progbits
 746      AFF30080 
 747              		.align	2
 748              		.p2align 4,,15
 749              		.global	rfm_clear_fifo
 750              		.thumb
 751              		.thumb_func
 752              		.type	rfm_clear_fifo, %function
 753              	rfm_clear_fifo:
 754              	.LFB65:
 755              		.loc 1 254 0
 756              		.cfi_startproc
 757              		@ args = 0, pretend = 0, frame = 0
 758              		@ frame_needed = 0, uses_anonymous_args = 0
 759              	.LVL87:
 760 0000 38B5     		push	{r3, r4, r5, lr}
 761              		.cfi_def_cfa_offset 16
 762              		.cfi_offset 3, -16
 763              		.cfi_offset 4, -12
 764              		.cfi_offset 5, -8
 765              		.cfi_offset 14, -4
 766              		.loc 1 254 0
 767 0002 0546     		mov	r5, r0
 768 0004 4224     		movs	r4, #66
 769              	.LVL88:
 770              	.L35:
 771              		.loc 1 258 0 discriminator 2
 772 0006 2846     		mov	r0, r5
 773 0008 0021     		movs	r1, #0
 774 000a FFF7FEFF 		bl	rfm_read.isra.1
 775              	.LVL89:
 776              		.loc 1 256 0 discriminator 2
 777 000e 013C     		subs	r4, r4, #1
 778              	.LVL90:
 779 0010 F9D1     		bne	.L35
 780              		.loc 1 260 0
 781 0012 2846     		mov	r0, r5
 782 0014 2821     		movs	r1, #40
 783 0016 1022     		movs	r2, #16
 784              		.loc 1 261 0
 785 0018 BDE83840 		pop	{r3, r4, r5, lr}
 786              	.LVL91:
 787              		.loc 1 260 0
 788 001c FFF7FEBF 		b	rfm_write.isra.0
ARM GAS  /tmp/cczUXB2K.s 			page 15


 789              	.LVL92:
 790              		.cfi_endproc
 791              	.LFE65:
 792              		.size	rfm_clear_fifo, .-rfm_clear_fifo
 793              		.global	packet_size
 794              		.global	rfm69_condition
 795              		.global	packet_buffer
 796              		.section	.bss.packet_buffer,"aw",%nobits
 797              		.align	2
 798              		.set	.LANCHOR2,. + 0
 799              		.type	packet_buffer, %object
 800              		.size	packet_buffer, 64
 801              	packet_buffer:
 802 0000 00000000 		.space	64
 802      00000000 
 802      00000000 
 802      00000000 
 802      00000000 
 803              		.section	.bss.rfm69_condition,"aw",%nobits
 804              		.set	.LANCHOR0,. + 0
 805              		.type	rfm69_condition, %object
 806              		.size	rfm69_condition, 1
 807              	rfm69_condition:
 808 0000 00       		.space	1
 809              		.section	.bss.packet_size,"aw",%nobits
 810              		.set	.LANCHOR1,. + 0
 811              		.type	packet_size, %object
 812              		.size	packet_size, 1
 813              	packet_size:
 814 0000 00       		.space	1
 815              		.text
 816              	.Letext0:
 817              		.file 2 "/usr/lib/gcc/arm-none-eabi/4.8/include/stddef.h"
 818              		.file 3 "/usr/include/newlib/machine/_default_types.h"
 819              		.file 4 "/usr/include/newlib/stdint.h"
 820              		.file 5 "../os/ports/GCC/ARMCMx/chtypes.h"
 821              		.file 6 "../os/kernel/include/chlists.h"
 822              		.file 7 "../os/kernel/include/chthreads.h"
 823              		.file 8 "../os/ports/GCC/ARMCMx/chcore_v7m.h"
 824              		.file 9 "../os/kernel/include/chmtx.h"
 825              		.file 10 "../os/hal/platforms/STM32F1xx/stm32f10x.h"
 826              		.file 11 "../os/hal/platforms/STM32F1xx/stm32_dma.h"
 827              		.file 12 "../os/hal/platforms/STM32/GPIOv1/pal_lld.h"
 828              		.file 13 "../os/hal/include/spi.h"
 829              		.file 14 "../os/hal/platforms/STM32/SPIv1/spi_lld.h"
 830              		.file 15 "rfm.h"
 831              		.file 16 "../os/ports/common/ARMCMx/CMSIS/include/core_cm3.h"