ARM GAS  /tmp/ccNKEMry.s 			page 1


   1              		.syntax unified
   2              		.cpu cortex-m3
   3              		.fpu softvfp
   4              		.eabi_attribute 20, 1
   5              		.eabi_attribute 21, 1
   6              		.eabi_attribute 23, 3
   7              		.eabi_attribute 24, 1
   8              		.eabi_attribute 25, 1
   9              		.eabi_attribute 26, 1
  10              		.eabi_attribute 30, 2
  11              		.eabi_attribute 34, 1
  12              		.eabi_attribute 18, 4
  13              		.thumb
  14              		.file	"spi_lld.c"
  15              		.text
  16              	.Ltext0:
  17              		.cfi_sections	.debug_frame
  18              		.section	.text.spi_lld_serve_tx_interrupt,"ax",%progbits
  19              		.align	2
  20              		.p2align 4,,15
  21              		.thumb
  22              		.thumb_func
  23              		.type	spi_lld_serve_tx_interrupt, %function
  24              	spi_lld_serve_tx_interrupt:
  25              	.LFB57:
  26              		.file 1 "../os/hal/platforms/STM32/SPIv1/spi_lld.c"
  27              		.loc 1 159 0
  28              		.cfi_startproc
  29              		@ args = 0, pretend = 0, frame = 0
  30              		@ frame_needed = 0, uses_anonymous_args = 0
  31              		@ link register save eliminated.
  32              	.LVL0:
  33              		.loc 1 164 0
  34 0000 0B07     		lsls	r3, r1, #28
  35 0002 00D4     		bmi	.L4
  36 0004 7047     		bx	lr
  37              	.L4:
  38              		.loc 1 165 0
  39 0006 FFF7FEBF 		b	port_halt
  40              	.LVL1:
  41              		.cfi_endproc
  42              	.LFE57:
  43              		.size	spi_lld_serve_tx_interrupt, .-spi_lld_serve_tx_interrupt
  44 000a 00BFAFF3 		.section	.text.spi_lld_serve_rx_interrupt,"ax",%progbits
  44      0080
  45              		.align	2
  46              		.p2align 4,,15
  47              		.thumb
  48              		.thumb_func
  49              		.type	spi_lld_serve_rx_interrupt, %function
  50              	spi_lld_serve_rx_interrupt:
  51              	.LFB56:
  52              		.loc 1 133 0
  53              		.cfi_startproc
  54              		@ args = 0, pretend = 0, frame = 0
  55              		@ frame_needed = 0, uses_anonymous_args = 0
  56              	.LVL2:
ARM GAS  /tmp/ccNKEMry.s 			page 2


  57              		.loc 1 137 0
  58 0000 0B07     		lsls	r3, r1, #28
  59              		.loc 1 133 0
  60 0002 10B5     		push	{r4, lr}
  61              		.cfi_def_cfa_offset 8
  62              		.cfi_offset 4, -8
  63              		.cfi_offset 14, -4
  64              		.loc 1 133 0
  65 0004 0446     		mov	r4, r0
  66              		.loc 1 137 0
  67 0006 32D4     		bmi	.L19
  68              	.LVL3:
  69              	.L6:
  70              		.loc 1 145 0
  71 0008 626A     		ldr	r2, [r4, #36]
  72 000a 0F23     		movs	r3, #15
  73 000c 1268     		ldr	r2, [r2]
  74 000e 1168     		ldr	r1, [r2]
  75 0010 21F00F01 		bic	r1, r1, #15
  76 0014 1160     		str	r1, [r2]
  77 0016 626A     		ldr	r2, [r4, #36]
  78 0018 117A     		ldrb	r1, [r2, #8]	@ zero_extendqisi2
  79 001a 5268     		ldr	r2, [r2, #4]
  80 001c 03FA01F1 		lsl	r1, r3, r1
  81 0020 1160     		str	r1, [r2]
  82              		.loc 1 146 0
  83 0022 226A     		ldr	r2, [r4, #32]
  84 0024 1268     		ldr	r2, [r2]
  85 0026 1168     		ldr	r1, [r2]
  86 0028 21F00F01 		bic	r1, r1, #15
  87 002c 1160     		str	r1, [r2]
  88 002e 226A     		ldr	r2, [r4, #32]
  89 0030 117A     		ldrb	r1, [r2, #8]	@ zero_extendqisi2
  90 0032 5268     		ldr	r2, [r2, #4]
  91 0034 8B40     		lsls	r3, r3, r1
  92 0036 1360     		str	r3, [r2]
  93              		.loc 1 150 0
  94 0038 6368     		ldr	r3, [r4, #4]
  95 003a 1A68     		ldr	r2, [r3]
  96 003c A2B1     		cbz	r2, .L7
  97              		.loc 1 150 0 is_stmt 0 discriminator 1
  98 003e 0422     		movs	r2, #4
  99 0040 2270     		strb	r2, [r4]
 100 0042 1B68     		ldr	r3, [r3]
 101 0044 2046     		mov	r0, r4
 102 0046 9847     		blx	r3
 103              	.LVL4:
 104 0048 2378     		ldrb	r3, [r4]	@ zero_extendqisi2
 105 004a 042B     		cmp	r3, #4
 106 004c 0CD0     		beq	.L7
 107              	.L8:
 108              	@ 150 "../os/hal/platforms/STM32/SPIv1/spi_lld.c" 1
 109 004e FFF7FEFF 		bl      _port_lock
 110              	@ 0 "" 2
 111              		.thumb
 112 0052 A368     		ldr	r3, [r4, #8]
 113 0054 2BB1     		cbz	r3, .L9
ARM GAS  /tmp/ccNKEMry.s 			page 3


 114              	.LVL5:
 115              	.LBB2:
 116 0056 0022     		movs	r2, #0
 117 0058 A260     		str	r2, [r4, #8]
 118 005a 1846     		mov	r0, r3
 119 005c 5A61     		str	r2, [r3, #20]
 120 005e FFF7FEFF 		bl	chSchReadyI
 121              	.LVL6:
 122              	.L9:
 123              	.LBE2:
 124              		.loc 1 150 0 discriminator 2
 125              	@ 150 "../os/hal/platforms/STM32/SPIv1/spi_lld.c" 1
 126 0062 FFF7FEFF 		bl      _port_unlock
 127              	@ 0 "" 2
 128              		.thumb
 129 0066 10BD     		pop	{r4, pc}
 130              	.LVL7:
 131              	.L7:
 132              		.loc 1 150 0 discriminator 1
 133 0068 0223     		movs	r3, #2
 134 006a 2370     		strb	r3, [r4]
 135 006c EFE7     		b	.L8
 136              	.LVL8:
 137              	.L19:
 138              		.loc 1 138 0 is_stmt 1
 139 006e FFF7FEFF 		bl	port_halt
 140              	.LVL9:
 141 0072 C9E7     		b	.L6
 142              		.cfi_endproc
 143              	.LFE56:
 144              		.size	spi_lld_serve_rx_interrupt, .-spi_lld_serve_rx_interrupt
 145 0074 AFF30080 		.section	.text.spi_lld_init,"ax",%progbits
 145      AFF30080 
 145      AFF30080 
 146              		.align	2
 147              		.p2align 4,,15
 148              		.global	spi_lld_init
 149              		.thumb
 150              		.thumb_func
 151              		.type	spi_lld_init, %function
 152              	spi_lld_init:
 153              	.LFB58:
 154              		.loc 1 186 0
 155              		.cfi_startproc
 156              		@ args = 0, pretend = 0, frame = 0
 157              		@ frame_needed = 0, uses_anonymous_args = 0
 158 0000 2DE9F041 		push	{r4, r5, r6, r7, r8, lr}
 159              		.cfi_def_cfa_offset 24
 160              		.cfi_offset 4, -24
 161              		.cfi_offset 5, -20
 162              		.cfi_offset 6, -16
 163              		.cfi_offset 7, -12
 164              		.cfi_offset 8, -8
 165              		.cfi_offset 14, -4
 166              		.loc 1 191 0
 167 0004 124D     		ldr	r5, .L21
 168              		.loc 1 188 0
ARM GAS  /tmp/ccNKEMry.s 			page 4


 169 0006 134B     		ldr	r3, .L21+4
 170              		.loc 1 209 0
 171 0008 134C     		ldr	r4, .L21+8
 172              		.loc 1 193 0
 173 000a 144E     		ldr	r6, .L21+12
 174              		.loc 1 188 0
 175 000c 4FF6FF72 		movw	r2, #65535
 176              		.loc 1 191 0
 177 0010 2846     		mov	r0, r5
 178              		.loc 1 188 0
 179 0012 1A80     		strh	r2, [r3]	@ movhi
 180              		.loc 1 191 0
 181 0014 FFF7FEFF 		bl	spiObjectInit
 182              	.LVL10:
 183              		.loc 1 192 0
 184 0018 114A     		ldr	r2, .L21+16
 185              		.loc 1 194 0
 186 001a 06F10C03 		add	r3, r6, #12
 187              		.loc 1 195 0
 188 001e 41F20A08 		movw	r8, #4106
 189              		.loc 1 201 0
 190 0022 41F21807 		movw	r7, #4120
 191              		.loc 1 209 0
 192 0026 2046     		mov	r0, r4
 193              		.loc 1 192 0
 194 0028 EA61     		str	r2, [r5, #28]
 195              		.loc 1 193 0
 196 002a 2E62     		str	r6, [r5, #32]
 197              		.loc 1 194 0
 198 002c 6B62     		str	r3, [r5, #36]
 199              		.loc 1 195 0
 200 002e C5F82880 		str	r8, [r5, #40]
 201              		.loc 1 201 0
 202 0032 EF62     		str	r7, [r5, #44]
 203              		.loc 1 209 0
 204 0034 FFF7FEFF 		bl	spiObjectInit
 205              	.LVL11:
 206              		.loc 1 210 0
 207 0038 0A4A     		ldr	r2, .L21+20
 208              		.loc 1 211 0
 209 003a 06F11803 		add	r3, r6, #24
 210              		.loc 1 212 0
 211 003e 2436     		adds	r6, r6, #36
 212              		.loc 1 213 0
 213 0040 C4F82880 		str	r8, [r4, #40]
 214              		.loc 1 219 0
 215 0044 E762     		str	r7, [r4, #44]
 216              		.loc 1 210 0
 217 0046 E261     		str	r2, [r4, #28]
 218              		.loc 1 211 0
 219 0048 2362     		str	r3, [r4, #32]
 220              		.loc 1 212 0
 221 004a 6662     		str	r6, [r4, #36]
 222 004c BDE8F081 		pop	{r4, r5, r6, r7, r8, pc}
 223              	.L22:
 224              		.align	2
 225              	.L21:
ARM GAS  /tmp/ccNKEMry.s 			page 5


 226 0050 00000000 		.word	.LANCHOR1
 227 0054 00000000 		.word	.LANCHOR0
 228 0058 00000000 		.word	.LANCHOR2
 229 005c 0C000000 		.word	_stm32_dma_streams+12
 230 0060 00300140 		.word	1073819648
 231 0064 00380040 		.word	1073756160
 232              		.cfi_endproc
 233              	.LFE58:
 234              		.size	spi_lld_init, .-spi_lld_init
 235 0068 AFF30080 		.section	.text.spi_lld_start,"ax",%progbits
 235      AFF30080 
 236              		.align	2
 237              		.p2align 4,,15
 238              		.global	spi_lld_start
 239              		.thumb
 240              		.thumb_func
 241              		.type	spi_lld_start, %function
 242              	spi_lld_start:
 243              	.LFB59:
 244              		.loc 1 306 0
 245              		.cfi_startproc
 246              		@ args = 0, pretend = 0, frame = 0
 247              		@ frame_needed = 0, uses_anonymous_args = 0
 248              	.LVL12:
 249 0000 10B5     		push	{r4, lr}
 250              		.cfi_def_cfa_offset 8
 251              		.cfi_offset 4, -8
 252              		.cfi_offset 14, -4
 253              		.loc 1 309 0
 254 0002 0378     		ldrb	r3, [r0]	@ zero_extendqisi2
 255              		.loc 1 306 0
 256 0004 0446     		mov	r4, r0
 257              		.loc 1 309 0
 258 0006 012B     		cmp	r3, #1
 259 0008 25D0     		beq	.L30
 260              	.LVL13:
 261              	.L24:
 262              		.loc 1 413 0
 263 000a 6368     		ldr	r3, [r4, #4]
 264              		.loc 1 416 0
 265 000c A26A     		ldr	r2, [r4, #40]
 266              		.loc 1 413 0
 267 000e 5B89     		ldrh	r3, [r3, #10]
 268              		.loc 1 416 0
 269 0010 22F47062 		bic	r2, r2, #3840
 270              		.loc 1 413 0
 271 0014 13F4006F 		tst	r3, #2048
 272              		.loc 1 418 0
 273 0018 E36A     		ldr	r3, [r4, #44]
 274              		.loc 1 423 0
 275 001a 18BF     		it	ne
 276 001c 42F4A062 		orrne	r2, r2, #1280
 277              		.loc 1 418 0
 278 0020 23F47063 		bic	r3, r3, #3840
 279              		.loc 1 425 0
 280 0024 18BF     		it	ne
 281 0026 43F4A063 		orrne	r3, r3, #1280
ARM GAS  /tmp/ccNKEMry.s 			page 6


 282              		.loc 1 424 0
 283 002a E362     		str	r3, [r4, #44]
 284              		.loc 1 428 0
 285 002c E369     		ldr	r3, [r4, #28]
 286              		.loc 1 422 0
 287 002e A262     		str	r2, [r4, #40]
 288              		.loc 1 428 0
 289 0030 0022     		movs	r2, #0
 290 0032 1A80     		strh	r2, [r3]	@ movhi
 291              		.loc 1 429 0
 292 0034 6268     		ldr	r2, [r4, #4]
 293 0036 E369     		ldr	r3, [r4, #28]
 294 0038 5189     		ldrh	r1, [r2, #10]
 295              		.loc 1 431 0
 296 003a 0722     		movs	r2, #7
 297              		.loc 1 429 0
 298 003c 41F44171 		orr	r1, r1, #772
 299 0040 89B2     		uxth	r1, r1
 300 0042 1980     		strh	r1, [r3]	@ movhi
 301              		.loc 1 431 0
 302 0044 E369     		ldr	r3, [r4, #28]
 303 0046 9A80     		strh	r2, [r3, #4]	@ movhi
 304              		.loc 1 432 0
 305 0048 E369     		ldr	r3, [r4, #28]
 306 004a 1A88     		ldrh	r2, [r3]
 307 004c 92B2     		uxth	r2, r2
 308 004e 42F04002 		orr	r2, r2, #64
 309 0052 1A80     		strh	r2, [r3]	@ movhi
 310 0054 10BD     		pop	{r4, pc}
 311              	.LVL14:
 312              	.L30:
 313              		.loc 1 311 0
 314 0056 1A4B     		ldr	r3, .L33
 315 0058 9842     		cmp	r0, r3
 316 005a 0DD0     		beq	.L31
 317              		.loc 1 327 0
 318 005c 194B     		ldr	r3, .L33+4
 319 005e 9842     		cmp	r0, r3
 320 0060 1CD0     		beq	.L32
 321              	.LVL15:
 322              	.L26:
 323              		.loc 1 408 0
 324 0062 226A     		ldr	r2, [r4, #32]
 325 0064 E369     		ldr	r3, [r4, #28]
 326 0066 1268     		ldr	r2, [r2]
 327 0068 0C33     		adds	r3, r3, #12
 328 006a 9360     		str	r3, [r2, #8]
 329              		.loc 1 409 0
 330 006c 626A     		ldr	r2, [r4, #36]
 331 006e E369     		ldr	r3, [r4, #28]
 332 0070 1268     		ldr	r2, [r2]
 333 0072 0C33     		adds	r3, r3, #12
 334 0074 9360     		str	r3, [r2, #8]
 335 0076 C8E7     		b	.L24
 336              	.LVL16:
 337              	.L31:
 338              	.LBB3:
ARM GAS  /tmp/ccNKEMry.s 			page 7


 339              		.loc 1 313 0
 340 0078 0A21     		movs	r1, #10
 341 007a 134A     		ldr	r2, .L33+8
 342 007c 2346     		mov	r3, r4
 343 007e 006A     		ldr	r0, [r0, #32]
 344              	.LVL17:
 345 0080 FFF7FEFF 		bl	dmaStreamAllocate
 346              	.LVL18:
 347              		.loc 1 318 0
 348 0084 114A     		ldr	r2, .L33+12
 349 0086 2346     		mov	r3, r4
 350 0088 606A     		ldr	r0, [r4, #36]
 351 008a 0A21     		movs	r1, #10
 352 008c FFF7FEFF 		bl	dmaStreamAllocate
 353              	.LVL19:
 354              		.loc 1 323 0
 355 0090 0F4B     		ldr	r3, .L33+16
 356 0092 9A69     		ldr	r2, [r3, #24]
 357 0094 42F48052 		orr	r2, r2, #4096
 358 0098 9A61     		str	r2, [r3, #24]
 359 009a E2E7     		b	.L26
 360              	.LVL20:
 361              	.L32:
 362              	.LBE3:
 363              	.LBB4:
 364              		.loc 1 329 0
 365 009c 0A21     		movs	r1, #10
 366 009e 0A4A     		ldr	r2, .L33+8
 367 00a0 2346     		mov	r3, r4
 368 00a2 006A     		ldr	r0, [r0, #32]
 369              	.LVL21:
 370 00a4 FFF7FEFF 		bl	dmaStreamAllocate
 371              	.LVL22:
 372              		.loc 1 334 0
 373 00a8 084A     		ldr	r2, .L33+12
 374 00aa 2346     		mov	r3, r4
 375 00ac 606A     		ldr	r0, [r4, #36]
 376 00ae 0A21     		movs	r1, #10
 377 00b0 FFF7FEFF 		bl	dmaStreamAllocate
 378              	.LVL23:
 379              		.loc 1 339 0
 380 00b4 064B     		ldr	r3, .L33+16
 381 00b6 DA69     		ldr	r2, [r3, #28]
 382 00b8 42F48042 		orr	r2, r2, #16384
 383 00bc DA61     		str	r2, [r3, #28]
 384 00be D0E7     		b	.L26
 385              	.L34:
 386              		.align	2
 387              	.L33:
 388 00c0 00000000 		.word	.LANCHOR1
 389 00c4 00000000 		.word	.LANCHOR2
 390 00c8 00000000 		.word	spi_lld_serve_rx_interrupt
 391 00cc 00000000 		.word	spi_lld_serve_tx_interrupt
 392 00d0 00100240 		.word	1073876992
 393              	.LBE4:
 394              		.cfi_endproc
 395              	.LFE59:
ARM GAS  /tmp/ccNKEMry.s 			page 8


 396              		.size	spi_lld_start, .-spi_lld_start
 397 00d4 AFF30080 		.section	.text.spi_lld_stop,"ax",%progbits
 397      AFF30080 
 397      AFF30080 
 398              		.align	2
 399              		.p2align 4,,15
 400              		.global	spi_lld_stop
 401              		.thumb
 402              		.thumb_func
 403              		.type	spi_lld_stop, %function
 404              	spi_lld_stop:
 405              	.LFB60:
 406              		.loc 1 442 0
 407              		.cfi_startproc
 408              		@ args = 0, pretend = 0, frame = 0
 409              		@ frame_needed = 0, uses_anonymous_args = 0
 410              	.LVL24:
 411 0000 10B5     		push	{r4, lr}
 412              		.cfi_def_cfa_offset 8
 413              		.cfi_offset 4, -8
 414              		.cfi_offset 14, -4
 415              		.loc 1 445 0
 416 0002 0378     		ldrb	r3, [r0]	@ zero_extendqisi2
 417              		.loc 1 442 0
 418 0004 0446     		mov	r4, r0
 419              		.loc 1 445 0
 420 0006 022B     		cmp	r3, #2
 421 0008 00D0     		beq	.L40
 422              	.LVL25:
 423              	.L35:
 424 000a 10BD     		pop	{r4, pc}
 425              	.LVL26:
 426              	.L40:
 427              		.loc 1 448 0
 428 000c C269     		ldr	r2, [r0, #28]
 429 000e 0023     		movs	r3, #0
 430 0010 1380     		strh	r3, [r2]	@ movhi
 431              		.loc 1 449 0
 432 0012 C269     		ldr	r2, [r0, #28]
 433 0014 9380     		strh	r3, [r2, #4]	@ movhi
 434              		.loc 1 450 0
 435 0016 006A     		ldr	r0, [r0, #32]
 436              	.LVL27:
 437 0018 FFF7FEFF 		bl	dmaStreamRelease
 438              	.LVL28:
 439              		.loc 1 451 0
 440 001c 606A     		ldr	r0, [r4, #36]
 441 001e FFF7FEFF 		bl	dmaStreamRelease
 442              	.LVL29:
 443              		.loc 1 454 0
 444 0022 094B     		ldr	r3, .L42
 445 0024 9C42     		cmp	r4, r3
 446 0026 08D0     		beq	.L41
 447              		.loc 1 458 0
 448 0028 084B     		ldr	r3, .L42+4
 449 002a 9C42     		cmp	r4, r3
 450 002c EDD1     		bne	.L35
ARM GAS  /tmp/ccNKEMry.s 			page 9


 451              		.loc 1 459 0
 452 002e 084B     		ldr	r3, .L42+8
 453 0030 DA69     		ldr	r2, [r3, #28]
 454 0032 22F48042 		bic	r2, r2, #16384
 455 0036 DA61     		str	r2, [r3, #28]
 456 0038 E7E7     		b	.L35
 457              	.L41:
 458              		.loc 1 455 0
 459 003a 054B     		ldr	r3, .L42+8
 460 003c 9A69     		ldr	r2, [r3, #24]
 461 003e 22F48052 		bic	r2, r2, #4096
 462 0042 9A61     		str	r2, [r3, #24]
 463 0044 10BD     		pop	{r4, pc}
 464              	.LVL30:
 465              	.L43:
 466 0046 00BF     		.align	2
 467              	.L42:
 468 0048 00000000 		.word	.LANCHOR1
 469 004c 00000000 		.word	.LANCHOR2
 470 0050 00100240 		.word	1073876992
 471              		.cfi_endproc
 472              	.LFE60:
 473              		.size	spi_lld_stop, .-spi_lld_stop
 474 0054 AFF30080 		.section	.text.spi_lld_select,"ax",%progbits
 474      AFF30080 
 474      AFF30080 
 475              		.align	2
 476              		.p2align 4,,15
 477              		.global	spi_lld_select
 478              		.thumb
 479              		.thumb_func
 480              		.type	spi_lld_select, %function
 481              	spi_lld_select:
 482              	.LFB61:
 483              		.loc 1 487 0
 484              		.cfi_startproc
 485              		@ args = 0, pretend = 0, frame = 0
 486              		@ frame_needed = 0, uses_anonymous_args = 0
 487              		@ link register save eliminated.
 488              	.LVL31:
 489              		.loc 1 489 0
 490 0000 4368     		ldr	r3, [r0, #4]
 491 0002 0121     		movs	r1, #1
 492 0004 1A89     		ldrh	r2, [r3, #8]
 493 0006 5B68     		ldr	r3, [r3, #4]
 494 0008 01FA02F2 		lsl	r2, r1, r2
 495 000c 5A61     		str	r2, [r3, #20]
 496 000e 7047     		bx	lr
 497              		.cfi_endproc
 498              	.LFE61:
 499              		.size	spi_lld_select, .-spi_lld_select
 500              		.section	.text.spi_lld_unselect,"ax",%progbits
 501              		.align	2
 502              		.p2align 4,,15
 503              		.global	spi_lld_unselect
 504              		.thumb
 505              		.thumb_func
ARM GAS  /tmp/ccNKEMry.s 			page 10


 506              		.type	spi_lld_unselect, %function
 507              	spi_lld_unselect:
 508              	.LFB62:
 509              		.loc 1 500 0
 510              		.cfi_startproc
 511              		@ args = 0, pretend = 0, frame = 0
 512              		@ frame_needed = 0, uses_anonymous_args = 0
 513              		@ link register save eliminated.
 514              	.LVL32:
 515              		.loc 1 502 0
 516 0000 4368     		ldr	r3, [r0, #4]
 517 0002 0121     		movs	r1, #1
 518 0004 1A89     		ldrh	r2, [r3, #8]
 519 0006 5B68     		ldr	r3, [r3, #4]
 520 0008 01FA02F2 		lsl	r2, r1, r2
 521 000c 1A61     		str	r2, [r3, #16]
 522 000e 7047     		bx	lr
 523              		.cfi_endproc
 524              	.LFE62:
 525              		.size	spi_lld_unselect, .-spi_lld_unselect
 526              		.section	.text.spi_lld_ignore,"ax",%progbits
 527              		.align	2
 528              		.p2align 4,,15
 529              		.global	spi_lld_ignore
 530              		.thumb
 531              		.thumb_func
 532              		.type	spi_lld_ignore, %function
 533              	spi_lld_ignore:
 534              	.LFB63:
 535              		.loc 1 516 0
 536              		.cfi_startproc
 537              		@ args = 0, pretend = 0, frame = 0
 538              		@ frame_needed = 0, uses_anonymous_args = 0
 539              		@ link register save eliminated.
 540              	.LVL33:
 541 0000 10B4     		push	{r4}
 542              		.cfi_def_cfa_offset 4
 543              		.cfi_offset 4, -4
 544              		.loc 1 518 0
 545 0002 036A     		ldr	r3, [r0, #32]
 546 0004 114A     		ldr	r2, .L47
 547 0006 1B68     		ldr	r3, [r3]
 548              		.loc 1 522 0
 549 0008 114C     		ldr	r4, .L47+4
 550              		.loc 1 518 0
 551 000a DA60     		str	r2, [r3, #12]
 552              		.loc 1 519 0
 553 000c 036A     		ldr	r3, [r0, #32]
 554 000e 1B68     		ldr	r3, [r3]
 555 0010 5960     		str	r1, [r3, #4]
 556              		.loc 1 520 0
 557 0012 026A     		ldr	r2, [r0, #32]
 558 0014 836A     		ldr	r3, [r0, #40]
 559 0016 1268     		ldr	r2, [r2]
 560 0018 1360     		str	r3, [r2]
 561              		.loc 1 522 0
 562 001a 436A     		ldr	r3, [r0, #36]
ARM GAS  /tmp/ccNKEMry.s 			page 11


 563 001c 1B68     		ldr	r3, [r3]
 564 001e DC60     		str	r4, [r3, #12]
 565              		.loc 1 523 0
 566 0020 436A     		ldr	r3, [r0, #36]
 567 0022 1B68     		ldr	r3, [r3]
 568 0024 5960     		str	r1, [r3, #4]
 569              		.loc 1 524 0
 570 0026 426A     		ldr	r2, [r0, #36]
 571 0028 C36A     		ldr	r3, [r0, #44]
 572 002a 1268     		ldr	r2, [r2]
 573 002c 1360     		str	r3, [r2]
 574              		.loc 1 526 0
 575 002e 036A     		ldr	r3, [r0, #32]
 576 0030 1B68     		ldr	r3, [r3]
 577 0032 1A68     		ldr	r2, [r3]
 578 0034 42F00102 		orr	r2, r2, #1
 579 0038 1A60     		str	r2, [r3]
 580              		.loc 1 527 0
 581 003a 436A     		ldr	r3, [r0, #36]
 582 003c 1B68     		ldr	r3, [r3]
 583 003e 1A68     		ldr	r2, [r3]
 584 0040 42F00102 		orr	r2, r2, #1
 585 0044 1A60     		str	r2, [r3]
 586              		.loc 1 528 0
 587 0046 5DF8044B 		ldr	r4, [sp], #4
 588 004a 7047     		bx	lr
 589              	.L48:
 590              		.align	2
 591              	.L47:
 592 004c 00000000 		.word	.LANCHOR3
 593 0050 00000000 		.word	.LANCHOR0
 594              		.cfi_endproc
 595              	.LFE63:
 596              		.size	spi_lld_ignore, .-spi_lld_ignore
 597 0054 AFF30080 		.section	.text.spi_lld_exchange,"ax",%progbits
 597      AFF30080 
 597      AFF30080 
 598              		.align	2
 599              		.p2align 4,,15
 600              		.global	spi_lld_exchange
 601              		.thumb
 602              		.thumb_func
 603              		.type	spi_lld_exchange, %function
 604              	spi_lld_exchange:
 605              	.LFB64:
 606              		.loc 1 546 0
 607              		.cfi_startproc
 608              		@ args = 0, pretend = 0, frame = 0
 609              		@ frame_needed = 0, uses_anonymous_args = 0
 610              		@ link register save eliminated.
 611              	.LVL34:
 612 0000 10B4     		push	{r4}
 613              		.cfi_def_cfa_offset 4
 614              		.cfi_offset 4, -4
 615              		.loc 1 548 0
 616 0002 046A     		ldr	r4, [r0, #32]
 617 0004 2468     		ldr	r4, [r4]
ARM GAS  /tmp/ccNKEMry.s 			page 12


 618 0006 E360     		str	r3, [r4, #12]
 619              		.loc 1 549 0
 620 0008 036A     		ldr	r3, [r0, #32]
 621              	.LVL35:
 622 000a 1B68     		ldr	r3, [r3]
 623 000c 5960     		str	r1, [r3, #4]
 624              	.LVL36:
 625              		.loc 1 550 0
 626 000e 046A     		ldr	r4, [r0, #32]
 627 0010 836A     		ldr	r3, [r0, #40]
 628 0012 2468     		ldr	r4, [r4]
 629 0014 43F08003 		orr	r3, r3, #128
 630 0018 2360     		str	r3, [r4]
 631              		.loc 1 552 0
 632 001a 436A     		ldr	r3, [r0, #36]
 633 001c 1B68     		ldr	r3, [r3]
 634 001e DA60     		str	r2, [r3, #12]
 635              		.loc 1 553 0
 636 0020 436A     		ldr	r3, [r0, #36]
 637 0022 1B68     		ldr	r3, [r3]
 638 0024 5960     		str	r1, [r3, #4]
 639              		.loc 1 554 0
 640 0026 426A     		ldr	r2, [r0, #36]
 641              	.LVL37:
 642 0028 C36A     		ldr	r3, [r0, #44]
 643 002a 1268     		ldr	r2, [r2]
 644 002c 43F08003 		orr	r3, r3, #128
 645 0030 1360     		str	r3, [r2]
 646              		.loc 1 556 0
 647 0032 036A     		ldr	r3, [r0, #32]
 648 0034 1B68     		ldr	r3, [r3]
 649 0036 1A68     		ldr	r2, [r3]
 650 0038 42F00102 		orr	r2, r2, #1
 651 003c 1A60     		str	r2, [r3]
 652              		.loc 1 557 0
 653 003e 436A     		ldr	r3, [r0, #36]
 654 0040 1B68     		ldr	r3, [r3]
 655 0042 1A68     		ldr	r2, [r3]
 656 0044 42F00102 		orr	r2, r2, #1
 657 0048 1A60     		str	r2, [r3]
 658              		.loc 1 558 0
 659 004a 5DF8044B 		ldr	r4, [sp], #4
 660 004e 7047     		bx	lr
 661              		.cfi_endproc
 662              	.LFE64:
 663              		.size	spi_lld_exchange, .-spi_lld_exchange
 664              		.section	.text.spi_lld_send,"ax",%progbits
 665              		.align	2
 666              		.p2align 4,,15
 667              		.global	spi_lld_send
 668              		.thumb
 669              		.thumb_func
 670              		.type	spi_lld_send, %function
 671              	spi_lld_send:
 672              	.LFB65:
 673              		.loc 1 573 0
 674              		.cfi_startproc
ARM GAS  /tmp/ccNKEMry.s 			page 13


 675              		@ args = 0, pretend = 0, frame = 0
 676              		@ frame_needed = 0, uses_anonymous_args = 0
 677              		@ link register save eliminated.
 678              	.LVL38:
 679 0000 10B4     		push	{r4}
 680              		.cfi_def_cfa_offset 4
 681              		.cfi_offset 4, -4
 682              		.loc 1 575 0
 683 0002 036A     		ldr	r3, [r0, #32]
 684 0004 124C     		ldr	r4, .L51
 685 0006 1B68     		ldr	r3, [r3]
 686 0008 DC60     		str	r4, [r3, #12]
 687              		.loc 1 576 0
 688 000a 036A     		ldr	r3, [r0, #32]
 689 000c 1B68     		ldr	r3, [r3]
 690 000e 5960     		str	r1, [r3, #4]
 691              		.loc 1 577 0
 692 0010 046A     		ldr	r4, [r0, #32]
 693 0012 836A     		ldr	r3, [r0, #40]
 694 0014 2468     		ldr	r4, [r4]
 695 0016 2360     		str	r3, [r4]
 696              		.loc 1 579 0
 697 0018 436A     		ldr	r3, [r0, #36]
 698 001a 1B68     		ldr	r3, [r3]
 699 001c DA60     		str	r2, [r3, #12]
 700              		.loc 1 580 0
 701 001e 436A     		ldr	r3, [r0, #36]
 702 0020 1B68     		ldr	r3, [r3]
 703 0022 5960     		str	r1, [r3, #4]
 704              		.loc 1 581 0
 705 0024 426A     		ldr	r2, [r0, #36]
 706              	.LVL39:
 707 0026 C36A     		ldr	r3, [r0, #44]
 708 0028 1268     		ldr	r2, [r2]
 709 002a 43F08003 		orr	r3, r3, #128
 710 002e 1360     		str	r3, [r2]
 711              		.loc 1 583 0
 712 0030 036A     		ldr	r3, [r0, #32]
 713 0032 1B68     		ldr	r3, [r3]
 714 0034 1A68     		ldr	r2, [r3]
 715 0036 42F00102 		orr	r2, r2, #1
 716 003a 1A60     		str	r2, [r3]
 717              		.loc 1 584 0
 718 003c 436A     		ldr	r3, [r0, #36]
 719 003e 1B68     		ldr	r3, [r3]
 720 0040 1A68     		ldr	r2, [r3]
 721 0042 42F00102 		orr	r2, r2, #1
 722 0046 1A60     		str	r2, [r3]
 723              		.loc 1 585 0
 724 0048 5DF8044B 		ldr	r4, [sp], #4
 725 004c 7047     		bx	lr
 726              	.L52:
 727 004e 00BF     		.align	2
 728              	.L51:
 729 0050 00000000 		.word	.LANCHOR3
 730              		.cfi_endproc
 731              	.LFE65:
ARM GAS  /tmp/ccNKEMry.s 			page 14


 732              		.size	spi_lld_send, .-spi_lld_send
 733 0054 AFF30080 		.section	.text.spi_lld_receive,"ax",%progbits
 733      AFF30080 
 733      AFF30080 
 734              		.align	2
 735              		.p2align 4,,15
 736              		.global	spi_lld_receive
 737              		.thumb
 738              		.thumb_func
 739              		.type	spi_lld_receive, %function
 740              	spi_lld_receive:
 741              	.LFB66:
 742              		.loc 1 600 0
 743              		.cfi_startproc
 744              		@ args = 0, pretend = 0, frame = 0
 745              		@ frame_needed = 0, uses_anonymous_args = 0
 746              		@ link register save eliminated.
 747              	.LVL40:
 748 0000 10B4     		push	{r4}
 749              		.cfi_def_cfa_offset 4
 750              		.cfi_offset 4, -4
 751              		.loc 1 602 0
 752 0002 036A     		ldr	r3, [r0, #32]
 753              		.loc 1 606 0
 754 0004 124C     		ldr	r4, .L54
 755              		.loc 1 602 0
 756 0006 1B68     		ldr	r3, [r3]
 757 0008 DA60     		str	r2, [r3, #12]
 758              		.loc 1 603 0
 759 000a 036A     		ldr	r3, [r0, #32]
 760 000c 1B68     		ldr	r3, [r3]
 761 000e 5960     		str	r1, [r3, #4]
 762              		.loc 1 604 0
 763 0010 026A     		ldr	r2, [r0, #32]
 764              	.LVL41:
 765 0012 836A     		ldr	r3, [r0, #40]
 766 0014 1268     		ldr	r2, [r2]
 767 0016 43F08003 		orr	r3, r3, #128
 768 001a 1360     		str	r3, [r2]
 769              		.loc 1 606 0
 770 001c 436A     		ldr	r3, [r0, #36]
 771 001e 1B68     		ldr	r3, [r3]
 772 0020 DC60     		str	r4, [r3, #12]
 773              		.loc 1 607 0
 774 0022 436A     		ldr	r3, [r0, #36]
 775 0024 1B68     		ldr	r3, [r3]
 776 0026 5960     		str	r1, [r3, #4]
 777              		.loc 1 608 0
 778 0028 426A     		ldr	r2, [r0, #36]
 779 002a C36A     		ldr	r3, [r0, #44]
 780 002c 1268     		ldr	r2, [r2]
 781 002e 1360     		str	r3, [r2]
 782              		.loc 1 610 0
 783 0030 036A     		ldr	r3, [r0, #32]
 784 0032 1B68     		ldr	r3, [r3]
 785 0034 1A68     		ldr	r2, [r3]
 786 0036 42F00102 		orr	r2, r2, #1
ARM GAS  /tmp/ccNKEMry.s 			page 15


 787 003a 1A60     		str	r2, [r3]
 788              		.loc 1 611 0
 789 003c 436A     		ldr	r3, [r0, #36]
 790 003e 1B68     		ldr	r3, [r3]
 791 0040 1A68     		ldr	r2, [r3]
 792 0042 42F00102 		orr	r2, r2, #1
 793 0046 1A60     		str	r2, [r3]
 794              		.loc 1 612 0
 795 0048 5DF8044B 		ldr	r4, [sp], #4
 796 004c 7047     		bx	lr
 797              	.L55:
 798 004e 00BF     		.align	2
 799              	.L54:
 800 0050 00000000 		.word	.LANCHOR0
 801              		.cfi_endproc
 802              	.LFE66:
 803              		.size	spi_lld_receive, .-spi_lld_receive
 804 0054 AFF30080 		.section	.text.spi_lld_polled_exchange,"ax",%progbits
 804      AFF30080 
 804      AFF30080 
 805              		.align	2
 806              		.p2align 4,,15
 807              		.global	spi_lld_polled_exchange
 808              		.thumb
 809              		.thumb_func
 810              		.type	spi_lld_polled_exchange, %function
 811              	spi_lld_polled_exchange:
 812              	.LFB67:
 813              		.loc 1 626 0
 814              		.cfi_startproc
 815              		@ args = 0, pretend = 0, frame = 0
 816              		@ frame_needed = 0, uses_anonymous_args = 0
 817              		@ link register save eliminated.
 818              	.LVL42:
 819              		.loc 1 628 0
 820 0000 C369     		ldr	r3, [r0, #28]
 821 0002 9981     		strh	r1, [r3, #12]	@ movhi
 822 0004 C269     		ldr	r2, [r0, #28]
 823              	.L58:
 824              		.loc 1 629 0 discriminator 1
 825 0006 1389     		ldrh	r3, [r2, #8]
 826 0008 DB07     		lsls	r3, r3, #31
 827 000a FCD5     		bpl	.L58
 828              		.loc 1 631 0
 829 000c 9089     		ldrh	r0, [r2, #12]
 830              	.LVL43:
 831              		.loc 1 632 0
 832 000e 80B2     		uxth	r0, r0
 833 0010 7047     		bx	lr
 834              		.cfi_endproc
 835              	.LFE67:
 836              		.size	spi_lld_polled_exchange, .-spi_lld_polled_exchange
 837              		.global	SPID2
 838              		.global	SPID1
 839 0012 00BFAFF3 		.section	.bss.dummytx,"aw",%nobits
 839      0080AFF3 
 839      0080AFF3 
ARM GAS  /tmp/ccNKEMry.s 			page 16


 839      0080
 840              		.align	1
 841              		.set	.LANCHOR0,. + 0
 842              		.type	dummytx, %object
 843              		.size	dummytx, 2
 844              	dummytx:
 845 0000 0000     		.space	2
 846              		.section	.bss.SPID1,"aw",%nobits
 847              		.align	2
 848              		.set	.LANCHOR1,. + 0
 849              		.type	SPID1, %object
 850              		.size	SPID1, 48
 851              	SPID1:
 852 0000 00000000 		.space	48
 852      00000000 
 852      00000000 
 852      00000000 
 852      00000000 
 853              		.section	.bss.SPID2,"aw",%nobits
 854              		.align	2
 855              		.set	.LANCHOR2,. + 0
 856              		.type	SPID2, %object
 857              		.size	SPID2, 48
 858              	SPID2:
 859 0000 00000000 		.space	48
 859      00000000 
 859      00000000 
 859      00000000 
 859      00000000 
 860              		.section	.bss.dummyrx,"aw",%nobits
 861              		.align	1
 862              		.set	.LANCHOR3,. + 0
 863              		.type	dummyrx, %object
 864              		.size	dummyrx, 2
 865              	dummyrx:
 866 0000 0000     		.space	2
 867              		.text
 868              	.Letext0:
 869              		.file 2 "/usr/lib/gcc/arm-none-eabi/4.8/include/stddef.h"
 870              		.file 3 "/usr/include/newlib/machine/_default_types.h"
 871              		.file 4 "/usr/include/newlib/stdint.h"
 872              		.file 5 "../os/ports/GCC/ARMCMx/chtypes.h"
 873              		.file 6 "../os/kernel/include/chlists.h"
 874              		.file 7 "../os/kernel/include/chthreads.h"
 875              		.file 8 "../os/ports/GCC/ARMCMx/chcore_v7m.h"
 876              		.file 9 "../os/kernel/include/chmtx.h"
 877              		.file 10 "../os/hal/platforms/STM32F1xx/stm32f10x.h"
 878              		.file 11 "../os/hal/platforms/STM32F1xx/stm32_dma.h"
 879              		.file 12 "../os/hal/platforms/STM32/GPIOv1/pal_lld.h"
 880              		.file 13 "../os/hal/include/spi.h"
 881              		.file 14 "../os/hal/platforms/STM32/SPIv1/spi_lld.h"
 882              		.file 15 "../os/ports/common/ARMCMx/CMSIS/include/core_cm3.h"
 883              		.file 16 "../os/kernel/include/chschd.h"
 884              		.section	.debug_info,"",%progbits
 885              	.Ldebug_info0:
 886 0000 F70B0000 		.4byte	0xbf7
 887 0004 0400     		.2byte	0x4
ARM GAS  /tmp/ccNKEMry.s 			page 17


 888 0006 00000000 		.4byte	.Ldebug_abbrev0
 889 000a 04       		.byte	0x4
 890 000b 01       		.uleb128 0x1
 891 000c B6030000 		.4byte	.LASF137
 892 0010 01       		.byte	0x1
 893 0011 AD020000 		.4byte	.LASF138
 894 0015 CA010000 		.4byte	.LASF139
 895 0019 00000000 		.4byte	.Ldebug_ranges0+0
 896 001d 00000000 		.4byte	0
 897 0021 00000000 		.4byte	.Ldebug_line0
 898 0025 02       		.uleb128 0x2
 899 0026 04       		.byte	0x4
 900 0027 05       		.byte	0x5
 901 0028 696E7400 		.ascii	"int\000"
 902 002c 03       		.uleb128 0x3
 903 002d 00000000 		.4byte	.LASF2
 904 0031 02       		.byte	0x2
 905 0032 D4       		.byte	0xd4
 906 0033 37000000 		.4byte	0x37
 907 0037 04       		.uleb128 0x4
 908 0038 04       		.byte	0x4
 909 0039 07       		.byte	0x7
 910 003a A6010000 		.4byte	.LASF0
 911 003e 04       		.uleb128 0x4
 912 003f 01       		.byte	0x1
 913 0040 06       		.byte	0x6
 914 0041 BB000000 		.4byte	.LASF1
 915 0045 03       		.uleb128 0x3
 916 0046 0E000000 		.4byte	.LASF3
 917 004a 03       		.byte	0x3
 918 004b 1D       		.byte	0x1d
 919 004c 50000000 		.4byte	0x50
 920 0050 04       		.uleb128 0x4
 921 0051 01       		.byte	0x1
 922 0052 08       		.byte	0x8
 923 0053 8F040000 		.4byte	.LASF4
 924 0057 04       		.uleb128 0x4
 925 0058 02       		.byte	0x2
 926 0059 05       		.byte	0x5
 927 005a D6040000 		.4byte	.LASF5
 928 005e 03       		.uleb128 0x3
 929 005f 9B050000 		.4byte	.LASF6
 930 0063 03       		.byte	0x3
 931 0064 2B       		.byte	0x2b
 932 0065 69000000 		.4byte	0x69
 933 0069 04       		.uleb128 0x4
 934 006a 02       		.byte	0x2
 935 006b 07       		.byte	0x7
 936 006c 6C020000 		.4byte	.LASF7
 937 0070 03       		.uleb128 0x3
 938 0071 C3050000 		.4byte	.LASF8
 939 0075 03       		.byte	0x3
 940 0076 3F       		.byte	0x3f
 941 0077 7B000000 		.4byte	0x7b
 942 007b 04       		.uleb128 0x4
 943 007c 04       		.byte	0x4
 944 007d 05       		.byte	0x5
ARM GAS  /tmp/ccNKEMry.s 			page 18


 945 007e FC000000 		.4byte	.LASF9
 946 0082 03       		.uleb128 0x3
 947 0083 6D010000 		.4byte	.LASF10
 948 0087 03       		.byte	0x3
 949 0088 41       		.byte	0x41
 950 0089 8D000000 		.4byte	0x8d
 951 008d 04       		.uleb128 0x4
 952 008e 04       		.byte	0x4
 953 008f 07       		.byte	0x7
 954 0090 4B050000 		.4byte	.LASF11
 955 0094 04       		.uleb128 0x4
 956 0095 08       		.byte	0x8
 957 0096 05       		.byte	0x5
 958 0097 AD000000 		.4byte	.LASF12
 959 009b 04       		.uleb128 0x4
 960 009c 08       		.byte	0x8
 961 009d 07       		.byte	0x7
 962 009e 3C000000 		.4byte	.LASF13
 963 00a2 03       		.uleb128 0x3
 964 00a3 41060000 		.4byte	.LASF14
 965 00a7 04       		.byte	0x4
 966 00a8 2A       		.byte	0x2a
 967 00a9 45000000 		.4byte	0x45
 968 00ad 03       		.uleb128 0x3
 969 00ae 43010000 		.4byte	.LASF15
 970 00b2 04       		.byte	0x4
 971 00b3 36       		.byte	0x36
 972 00b4 5E000000 		.4byte	0x5e
 973 00b8 03       		.uleb128 0x3
 974 00b9 87040000 		.4byte	.LASF16
 975 00bd 04       		.byte	0x4
 976 00be 41       		.byte	0x41
 977 00bf 70000000 		.4byte	0x70
 978 00c3 03       		.uleb128 0x3
 979 00c4 36050000 		.4byte	.LASF17
 980 00c8 04       		.byte	0x4
 981 00c9 42       		.byte	0x42
 982 00ca 82000000 		.4byte	0x82
 983 00ce 03       		.uleb128 0x3
 984 00cf DD000000 		.4byte	.LASF18
 985 00d3 05       		.byte	0x5
 986 00d4 2B       		.byte	0x2b
 987 00d5 D9000000 		.4byte	0xd9
 988 00d9 04       		.uleb128 0x4
 989 00da 01       		.byte	0x1
 990 00db 02       		.byte	0x2
 991 00dc 81040000 		.4byte	.LASF19
 992 00e0 03       		.uleb128 0x3
 993 00e1 8D020000 		.4byte	.LASF20
 994 00e5 05       		.byte	0x5
 995 00e6 2C       		.byte	0x2c
 996 00e7 A2000000 		.4byte	0xa2
 997 00eb 03       		.uleb128 0x3
 998 00ec 29010000 		.4byte	.LASF21
 999 00f0 05       		.byte	0x5
 1000 00f1 2D       		.byte	0x2d
 1001 00f2 A2000000 		.4byte	0xa2
ARM GAS  /tmp/ccNKEMry.s 			page 19


 1002 00f6 03       		.uleb128 0x3
 1003 00f7 EC000000 		.4byte	.LASF22
 1004 00fb 05       		.byte	0x5
 1005 00fc 2F       		.byte	0x2f
 1006 00fd A2000000 		.4byte	0xa2
 1007 0101 03       		.uleb128 0x3
 1008 0102 AE030000 		.4byte	.LASF23
 1009 0106 05       		.byte	0x5
 1010 0107 30       		.byte	0x30
 1011 0108 C3000000 		.4byte	0xc3
 1012 010c 03       		.uleb128 0x3
 1013 010d 7F020000 		.4byte	.LASF24
 1014 0111 05       		.byte	0x5
 1015 0112 31       		.byte	0x31
 1016 0113 B8000000 		.4byte	0xb8
 1017 0117 03       		.uleb128 0x3
 1018 0118 A1020000 		.4byte	.LASF25
 1019 011c 05       		.byte	0x5
 1020 011d 33       		.byte	0x33
 1021 011e C3000000 		.4byte	0xc3
 1022 0122 03       		.uleb128 0x3
 1023 0123 E9020000 		.4byte	.LASF26
 1024 0127 06       		.byte	0x6
 1025 0128 2A       		.byte	0x2a
 1026 0129 2D010000 		.4byte	0x12d
 1027 012d 05       		.uleb128 0x5
 1028 012e E9020000 		.4byte	.LASF26
 1029 0132 34       		.byte	0x34
 1030 0133 07       		.byte	0x7
 1031 0134 5E       		.byte	0x5e
 1032 0135 E2010000 		.4byte	0x1e2
 1033 0139 06       		.uleb128 0x6
 1034 013a 15030000 		.4byte	.LASF27
 1035 013e 07       		.byte	0x7
 1036 013f 5F       		.byte	0x5f
 1037 0140 03020000 		.4byte	0x203
 1038 0144 00       		.byte	0
 1039 0145 06       		.uleb128 0x6
 1040 0146 89030000 		.4byte	.LASF28
 1041 014a 07       		.byte	0x7
 1042 014b 61       		.byte	0x61
 1043 014c 03020000 		.4byte	0x203
 1044 0150 04       		.byte	0x4
 1045 0151 06       		.uleb128 0x6
 1046 0152 A6000000 		.4byte	.LASF29
 1047 0156 07       		.byte	0x7
 1048 0157 63       		.byte	0x63
 1049 0158 01010000 		.4byte	0x101
 1050 015c 08       		.byte	0x8
 1051 015d 06       		.uleb128 0x6
 1052 015e B8060000 		.4byte	.LASF30
 1053 0162 07       		.byte	0x7
 1054 0163 64       		.byte	0x64
 1055 0164 BD020000 		.4byte	0x2bd
 1056 0168 0C       		.byte	0xc
 1057 0169 06       		.uleb128 0x6
 1058 016a C4040000 		.4byte	.LASF31
ARM GAS  /tmp/ccNKEMry.s 			page 20


 1059 016e 07       		.byte	0x7
 1060 016f 79       		.byte	0x79
 1061 0170 EB000000 		.4byte	0xeb
 1062 0174 10       		.byte	0x10
 1063 0175 06       		.uleb128 0x6
 1064 0176 FF040000 		.4byte	.LASF32
 1065 017a 07       		.byte	0x7
 1066 017b 7D       		.byte	0x7d
 1067 017c E0000000 		.4byte	0xe0
 1068 0180 11       		.byte	0x11
 1069 0181 06       		.uleb128 0x6
 1070 0182 E0040000 		.4byte	.LASF33
 1071 0186 07       		.byte	0x7
 1072 0187 88       		.byte	0x88
 1073 0188 F6000000 		.4byte	0xf6
 1074 018c 12       		.byte	0x12
 1075 018d 07       		.uleb128 0x7
 1076 018e 705F7500 		.ascii	"p_u\000"
 1077 0192 07       		.byte	0x7
 1078 0193 B4       		.byte	0xb4
 1079 0194 2C030000 		.4byte	0x32c
 1080 0198 14       		.byte	0x14
 1081 0199 06       		.uleb128 0x6
 1082 019a BE060000 		.4byte	.LASF34
 1083 019e 07       		.byte	0x7
 1084 019f B9       		.byte	0xb9
 1085 01a0 29020000 		.4byte	0x229
 1086 01a4 18       		.byte	0x18
 1087 01a5 06       		.uleb128 0x6
 1088 01a6 34020000 		.4byte	.LASF35
 1089 01aa 07       		.byte	0x7
 1090 01ab BF       		.byte	0xbf
 1091 01ac 09020000 		.4byte	0x209
 1092 01b0 1C       		.byte	0x1c
 1093 01b1 06       		.uleb128 0x6
 1094 01b2 98060000 		.4byte	.LASF36
 1095 01b6 07       		.byte	0x7
 1096 01b7 C3       		.byte	0xc3
 1097 01b8 0C010000 		.4byte	0x10c
 1098 01bc 24       		.byte	0x24
 1099 01bd 06       		.uleb128 0x6
 1100 01be 17050000 		.4byte	.LASF37
 1101 01c2 07       		.byte	0x7
 1102 01c3 C9       		.byte	0xc9
 1103 01c4 17010000 		.4byte	0x117
 1104 01c8 28       		.byte	0x28
 1105 01c9 06       		.uleb128 0x6
 1106 01ca CC040000 		.4byte	.LASF38
 1107 01ce 07       		.byte	0x7
 1108 01cf D0       		.byte	0xd0
 1109 01d0 61030000 		.4byte	0x361
 1110 01d4 2C       		.byte	0x2c
 1111 01d5 06       		.uleb128 0x6
 1112 01d6 B8050000 		.4byte	.LASF39
 1113 01da 07       		.byte	0x7
 1114 01db D4       		.byte	0xd4
 1115 01dc 01010000 		.4byte	0x101
ARM GAS  /tmp/ccNKEMry.s 			page 21


 1116 01e0 30       		.byte	0x30
 1117 01e1 00       		.byte	0
 1118 01e2 08       		.uleb128 0x8
 1119 01e3 08       		.byte	0x8
 1120 01e4 06       		.byte	0x6
 1121 01e5 61       		.byte	0x61
 1122 01e6 03020000 		.4byte	0x203
 1123 01ea 06       		.uleb128 0x6
 1124 01eb 15030000 		.4byte	.LASF27
 1125 01ef 06       		.byte	0x6
 1126 01f0 62       		.byte	0x62
 1127 01f1 03020000 		.4byte	0x203
 1128 01f5 00       		.byte	0
 1129 01f6 06       		.uleb128 0x6
 1130 01f7 89030000 		.4byte	.LASF28
 1131 01fb 06       		.byte	0x6
 1132 01fc 64       		.byte	0x64
 1133 01fd 03020000 		.4byte	0x203
 1134 0201 04       		.byte	0x4
 1135 0202 00       		.byte	0
 1136 0203 09       		.uleb128 0x9
 1137 0204 04       		.byte	0x4
 1138 0205 22010000 		.4byte	0x122
 1139 0209 03       		.uleb128 0x3
 1140 020a 1C030000 		.4byte	.LASF40
 1141 020e 06       		.byte	0x6
 1142 020f 66       		.byte	0x66
 1143 0210 E2010000 		.4byte	0x1e2
 1144 0214 08       		.uleb128 0x8
 1145 0215 04       		.byte	0x4
 1146 0216 06       		.byte	0x6
 1147 0217 6B       		.byte	0x6b
 1148 0218 29020000 		.4byte	0x229
 1149 021c 06       		.uleb128 0x6
 1150 021d 15030000 		.4byte	.LASF27
 1151 0221 06       		.byte	0x6
 1152 0222 6D       		.byte	0x6d
 1153 0223 03020000 		.4byte	0x203
 1154 0227 00       		.byte	0
 1155 0228 00       		.byte	0
 1156 0229 03       		.uleb128 0x3
 1157 022a 95020000 		.4byte	.LASF41
 1158 022e 06       		.byte	0x6
 1159 022f 70       		.byte	0x70
 1160 0230 14020000 		.4byte	0x214
 1161 0234 03       		.uleb128 0x3
 1162 0235 78010000 		.4byte	.LASF42
 1163 0239 08       		.byte	0x8
 1164 023a E5       		.byte	0xe5
 1165 023b 3F020000 		.4byte	0x23f
 1166 023f 0A       		.uleb128 0xa
 1167 0240 04       		.byte	0x4
 1168 0241 0B       		.uleb128 0xb
 1169 0242 F6050000 		.4byte	.LASF43
 1170 0246 24       		.byte	0x24
 1171 0247 08       		.byte	0x8
 1172 0248 0C01     		.2byte	0x10c
ARM GAS  /tmp/ccNKEMry.s 			page 22


 1173 024a BD020000 		.4byte	0x2bd
 1174 024e 0C       		.uleb128 0xc
 1175 024f 723400   		.ascii	"r4\000"
 1176 0252 08       		.byte	0x8
 1177 0253 1F01     		.2byte	0x11f
 1178 0255 34020000 		.4byte	0x234
 1179 0259 00       		.byte	0
 1180 025a 0C       		.uleb128 0xc
 1181 025b 723500   		.ascii	"r5\000"
 1182 025e 08       		.byte	0x8
 1183 025f 2001     		.2byte	0x120
 1184 0261 34020000 		.4byte	0x234
 1185 0265 04       		.byte	0x4
 1186 0266 0C       		.uleb128 0xc
 1187 0267 723600   		.ascii	"r6\000"
 1188 026a 08       		.byte	0x8
 1189 026b 2101     		.2byte	0x121
 1190 026d 34020000 		.4byte	0x234
 1191 0271 08       		.byte	0x8
 1192 0272 0C       		.uleb128 0xc
 1193 0273 723700   		.ascii	"r7\000"
 1194 0276 08       		.byte	0x8
 1195 0277 2201     		.2byte	0x122
 1196 0279 34020000 		.4byte	0x234
 1197 027d 0C       		.byte	0xc
 1198 027e 0C       		.uleb128 0xc
 1199 027f 723800   		.ascii	"r8\000"
 1200 0282 08       		.byte	0x8
 1201 0283 2301     		.2byte	0x123
 1202 0285 34020000 		.4byte	0x234
 1203 0289 10       		.byte	0x10
 1204 028a 0C       		.uleb128 0xc
 1205 028b 723900   		.ascii	"r9\000"
 1206 028e 08       		.byte	0x8
 1207 028f 2401     		.2byte	0x124
 1208 0291 34020000 		.4byte	0x234
 1209 0295 14       		.byte	0x14
 1210 0296 0C       		.uleb128 0xc
 1211 0297 72313000 		.ascii	"r10\000"
 1212 029b 08       		.byte	0x8
 1213 029c 2501     		.2byte	0x125
 1214 029e 34020000 		.4byte	0x234
 1215 02a2 18       		.byte	0x18
 1216 02a3 0C       		.uleb128 0xc
 1217 02a4 72313100 		.ascii	"r11\000"
 1218 02a8 08       		.byte	0x8
 1219 02a9 2601     		.2byte	0x126
 1220 02ab 34020000 		.4byte	0x234
 1221 02af 1C       		.byte	0x1c
 1222 02b0 0C       		.uleb128 0xc
 1223 02b1 6C7200   		.ascii	"lr\000"
 1224 02b4 08       		.byte	0x8
 1225 02b5 2701     		.2byte	0x127
 1226 02b7 34020000 		.4byte	0x234
 1227 02bb 20       		.byte	0x20
 1228 02bc 00       		.byte	0
 1229 02bd 0B       		.uleb128 0xb
ARM GAS  /tmp/ccNKEMry.s 			page 23


 1230 02be 64020000 		.4byte	.LASF44
 1231 02c2 04       		.byte	0x4
 1232 02c3 08       		.byte	0x8
 1233 02c4 3101     		.2byte	0x131
 1234 02c6 D8020000 		.4byte	0x2d8
 1235 02ca 0C       		.uleb128 0xc
 1236 02cb 72313300 		.ascii	"r13\000"
 1237 02cf 08       		.byte	0x8
 1238 02d0 3201     		.2byte	0x132
 1239 02d2 D8020000 		.4byte	0x2d8
 1240 02d6 00       		.byte	0
 1241 02d7 00       		.byte	0
 1242 02d8 09       		.uleb128 0x9
 1243 02d9 04       		.byte	0x4
 1244 02da 41020000 		.4byte	0x241
 1245 02de 0D       		.uleb128 0xd
 1246 02df C3000000 		.4byte	0xc3
 1247 02e3 04       		.uleb128 0x4
 1248 02e4 04       		.byte	0x4
 1249 02e5 07       		.byte	0x7
 1250 02e6 06030000 		.4byte	.LASF45
 1251 02ea 05       		.uleb128 0x5
 1252 02eb 0F030000 		.4byte	.LASF46
 1253 02ef 10       		.byte	0x10
 1254 02f0 09       		.byte	0x9
 1255 02f1 2C       		.byte	0x2c
 1256 02f2 1B030000 		.4byte	0x31b
 1257 02f6 06       		.uleb128 0x6
 1258 02f7 E4000000 		.4byte	.LASF47
 1259 02fb 09       		.byte	0x9
 1260 02fc 2D       		.byte	0x2d
 1261 02fd 09020000 		.4byte	0x209
 1262 0301 00       		.byte	0
 1263 0302 06       		.uleb128 0x6
 1264 0303 9E060000 		.4byte	.LASF48
 1265 0307 09       		.byte	0x9
 1266 0308 2F       		.byte	0x2f
 1267 0309 03020000 		.4byte	0x203
 1268 030d 08       		.byte	0x8
 1269 030e 06       		.uleb128 0x6
 1270 030f B1050000 		.4byte	.LASF49
 1271 0313 09       		.byte	0x9
 1272 0314 31       		.byte	0x31
 1273 0315 1B030000 		.4byte	0x31b
 1274 0319 0C       		.byte	0xc
 1275 031a 00       		.byte	0
 1276 031b 09       		.uleb128 0x9
 1277 031c 04       		.byte	0x4
 1278 031d EA020000 		.4byte	0x2ea
 1279 0321 03       		.uleb128 0x3
 1280 0322 0F030000 		.4byte	.LASF46
 1281 0326 09       		.byte	0x9
 1282 0327 33       		.byte	0x33
 1283 0328 EA020000 		.4byte	0x2ea
 1284 032c 0E       		.uleb128 0xe
 1285 032d 04       		.byte	0x4
 1286 032e 07       		.byte	0x7
ARM GAS  /tmp/ccNKEMry.s 			page 24


 1287 032f 96       		.byte	0x96
 1288 0330 61030000 		.4byte	0x361
 1289 0334 0F       		.uleb128 0xf
 1290 0335 07000000 		.4byte	.LASF50
 1291 0339 07       		.byte	0x7
 1292 033a 9D       		.byte	0x9d
 1293 033b 0C010000 		.4byte	0x10c
 1294 033f 0F       		.uleb128 0xf
 1295 0340 5F000000 		.4byte	.LASF51
 1296 0344 07       		.byte	0x7
 1297 0345 A4       		.byte	0xa4
 1298 0346 0C010000 		.4byte	0x10c
 1299 034a 0F       		.uleb128 0xf
 1300 034b 54060000 		.4byte	.LASF52
 1301 034f 07       		.byte	0x7
 1302 0350 AB       		.byte	0xab
 1303 0351 3F020000 		.4byte	0x23f
 1304 0355 0F       		.uleb128 0xf
 1305 0356 F8040000 		.4byte	.LASF53
 1306 035a 07       		.byte	0x7
 1307 035b B2       		.byte	0xb2
 1308 035c 17010000 		.4byte	0x117
 1309 0360 00       		.byte	0
 1310 0361 09       		.uleb128 0x9
 1311 0362 04       		.byte	0x4
 1312 0363 21030000 		.4byte	0x321
 1313 0367 0D       		.uleb128 0xd
 1314 0368 AD000000 		.4byte	0xad
 1315 036c 0D       		.uleb128 0xd
 1316 036d B8000000 		.4byte	0xb8
 1317 0371 10       		.uleb128 0x10
 1318 0372 10       		.byte	0x10
 1319 0373 0A       		.byte	0xa
 1320 0374 2D03     		.2byte	0x32d
 1321 0376 AF030000 		.4byte	0x3af
 1322 037a 0C       		.uleb128 0xc
 1323 037b 43435200 		.ascii	"CCR\000"
 1324 037f 0A       		.byte	0xa
 1325 0380 2F03     		.2byte	0x32f
 1326 0382 DE020000 		.4byte	0x2de
 1327 0386 00       		.byte	0
 1328 0387 11       		.uleb128 0x11
 1329 0388 21060000 		.4byte	.LASF54
 1330 038c 0A       		.byte	0xa
 1331 038d 3003     		.2byte	0x330
 1332 038f DE020000 		.4byte	0x2de
 1333 0393 04       		.byte	0x4
 1334 0394 11       		.uleb128 0x11
 1335 0395 20020000 		.4byte	.LASF55
 1336 0399 0A       		.byte	0xa
 1337 039a 3103     		.2byte	0x331
 1338 039c DE020000 		.4byte	0x2de
 1339 03a0 08       		.byte	0x8
 1340 03a1 11       		.uleb128 0x11
 1341 03a2 D7020000 		.4byte	.LASF56
 1342 03a6 0A       		.byte	0xa
 1343 03a7 3203     		.2byte	0x332
ARM GAS  /tmp/ccNKEMry.s 			page 25


 1344 03a9 DE020000 		.4byte	0x2de
 1345 03ad 0C       		.byte	0xc
 1346 03ae 00       		.byte	0
 1347 03af 12       		.uleb128 0x12
 1348 03b0 3C030000 		.4byte	.LASF57
 1349 03b4 0A       		.byte	0xa
 1350 03b5 3303     		.2byte	0x333
 1351 03b7 71030000 		.4byte	0x371
 1352 03bb 10       		.uleb128 0x10
 1353 03bc 1C       		.byte	0x1c
 1354 03bd 0A       		.byte	0xa
 1355 03be F803     		.2byte	0x3f8
 1356 03c0 20040000 		.4byte	0x420
 1357 03c4 0C       		.uleb128 0xc
 1358 03c5 43524C00 		.ascii	"CRL\000"
 1359 03c9 0A       		.byte	0xa
 1360 03ca FA03     		.2byte	0x3fa
 1361 03cc DE020000 		.4byte	0x2de
 1362 03d0 00       		.byte	0
 1363 03d1 0C       		.uleb128 0xc
 1364 03d2 43524800 		.ascii	"CRH\000"
 1365 03d6 0A       		.byte	0xa
 1366 03d7 FB03     		.2byte	0x3fb
 1367 03d9 DE020000 		.4byte	0x2de
 1368 03dd 04       		.byte	0x4
 1369 03de 0C       		.uleb128 0xc
 1370 03df 49445200 		.ascii	"IDR\000"
 1371 03e3 0A       		.byte	0xa
 1372 03e4 FC03     		.2byte	0x3fc
 1373 03e6 DE020000 		.4byte	0x2de
 1374 03ea 08       		.byte	0x8
 1375 03eb 0C       		.uleb128 0xc
 1376 03ec 4F445200 		.ascii	"ODR\000"
 1377 03f0 0A       		.byte	0xa
 1378 03f1 FD03     		.2byte	0x3fd
 1379 03f3 DE020000 		.4byte	0x2de
 1380 03f7 0C       		.byte	0xc
 1381 03f8 11       		.uleb128 0x11
 1382 03f9 C7000000 		.4byte	.LASF58
 1383 03fd 0A       		.byte	0xa
 1384 03fe FE03     		.2byte	0x3fe
 1385 0400 DE020000 		.4byte	0x2de
 1386 0404 10       		.byte	0x10
 1387 0405 0C       		.uleb128 0xc
 1388 0406 42525200 		.ascii	"BRR\000"
 1389 040a 0A       		.byte	0xa
 1390 040b FF03     		.2byte	0x3ff
 1391 040d DE020000 		.4byte	0x2de
 1392 0411 14       		.byte	0x14
 1393 0412 11       		.uleb128 0x11
 1394 0413 58020000 		.4byte	.LASF59
 1395 0417 0A       		.byte	0xa
 1396 0418 0004     		.2byte	0x400
 1397 041a DE020000 		.4byte	0x2de
 1398 041e 18       		.byte	0x18
 1399 041f 00       		.byte	0
 1400 0420 12       		.uleb128 0x12
ARM GAS  /tmp/ccNKEMry.s 			page 26


 1401 0421 3F020000 		.4byte	.LASF60
 1402 0425 0A       		.byte	0xa
 1403 0426 0104     		.2byte	0x401
 1404 0428 BB030000 		.4byte	0x3bb
 1405 042c 10       		.uleb128 0x10
 1406 042d 28       		.byte	0x28
 1407 042e 0A       		.byte	0xa
 1408 042f 4304     		.2byte	0x443
 1409 0431 B7040000 		.4byte	0x4b7
 1410 0435 0C       		.uleb128 0xc
 1411 0436 435200   		.ascii	"CR\000"
 1412 0439 0A       		.byte	0xa
 1413 043a 4504     		.2byte	0x445
 1414 043c DE020000 		.4byte	0x2de
 1415 0440 00       		.byte	0
 1416 0441 11       		.uleb128 0x11
 1417 0442 27050000 		.4byte	.LASF61
 1418 0446 0A       		.byte	0xa
 1419 0447 4604     		.2byte	0x446
 1420 0449 DE020000 		.4byte	0x2de
 1421 044d 04       		.byte	0x4
 1422 044e 0C       		.uleb128 0xc
 1423 044f 43495200 		.ascii	"CIR\000"
 1424 0453 0A       		.byte	0xa
 1425 0454 4704     		.2byte	0x447
 1426 0456 DE020000 		.4byte	0x2de
 1427 045a 08       		.byte	0x8
 1428 045b 11       		.uleb128 0x11
 1429 045c 20010000 		.4byte	.LASF62
 1430 0460 0A       		.byte	0xa
 1431 0461 4804     		.2byte	0x448
 1432 0463 DE020000 		.4byte	0x2de
 1433 0467 0C       		.byte	0xc
 1434 0468 11       		.uleb128 0x11
 1435 0469 33030000 		.4byte	.LASF63
 1436 046d 0A       		.byte	0xa
 1437 046e 4904     		.2byte	0x449
 1438 0470 DE020000 		.4byte	0x2de
 1439 0474 10       		.byte	0x10
 1440 0475 11       		.uleb128 0x11
 1441 0476 C8060000 		.4byte	.LASF64
 1442 047a 0A       		.byte	0xa
 1443 047b 4A04     		.2byte	0x44a
 1444 047d DE020000 		.4byte	0x2de
 1445 0481 14       		.byte	0x14
 1446 0482 11       		.uleb128 0x11
 1447 0483 07050000 		.4byte	.LASF65
 1448 0487 0A       		.byte	0xa
 1449 0488 4B04     		.2byte	0x44b
 1450 048a DE020000 		.4byte	0x2de
 1451 048e 18       		.byte	0x18
 1452 048f 11       		.uleb128 0x11
 1453 0490 D4050000 		.4byte	.LASF66
 1454 0494 0A       		.byte	0xa
 1455 0495 4C04     		.2byte	0x44c
 1456 0497 DE020000 		.4byte	0x2de
 1457 049b 1C       		.byte	0x1c
ARM GAS  /tmp/ccNKEMry.s 			page 27


 1458 049c 11       		.uleb128 0x11
 1459 049d 27060000 		.4byte	.LASF67
 1460 04a1 0A       		.byte	0xa
 1461 04a2 4D04     		.2byte	0x44d
 1462 04a4 DE020000 		.4byte	0x2de
 1463 04a8 20       		.byte	0x20
 1464 04a9 0C       		.uleb128 0xc
 1465 04aa 43535200 		.ascii	"CSR\000"
 1466 04ae 0A       		.byte	0xa
 1467 04af 4E04     		.2byte	0x44e
 1468 04b1 DE020000 		.4byte	0x2de
 1469 04b5 24       		.byte	0x24
 1470 04b6 00       		.byte	0
 1471 04b7 12       		.uleb128 0x12
 1472 04b8 4C020000 		.4byte	.LASF68
 1473 04bc 0A       		.byte	0xa
 1474 04bd 5904     		.2byte	0x459
 1475 04bf 2C040000 		.4byte	0x42c
 1476 04c3 10       		.uleb128 0x10
 1477 04c4 24       		.byte	0x24
 1478 04c5 0A       		.byte	0xa
 1479 04c6 9704     		.2byte	0x497
 1480 04c8 B5050000 		.4byte	0x5b5
 1481 04cc 0C       		.uleb128 0xc
 1482 04cd 43523100 		.ascii	"CR1\000"
 1483 04d1 0A       		.byte	0xa
 1484 04d2 9904     		.2byte	0x499
 1485 04d4 67030000 		.4byte	0x367
 1486 04d8 00       		.byte	0
 1487 04d9 11       		.uleb128 0x11
 1488 04da 57030000 		.4byte	.LASF69
 1489 04de 0A       		.byte	0xa
 1490 04df 9A04     		.2byte	0x49a
 1491 04e1 AD000000 		.4byte	0xad
 1492 04e5 02       		.byte	0x2
 1493 04e6 0C       		.uleb128 0xc
 1494 04e7 43523200 		.ascii	"CR2\000"
 1495 04eb 0A       		.byte	0xa
 1496 04ec 9B04     		.2byte	0x49b
 1497 04ee 67030000 		.4byte	0x367
 1498 04f2 04       		.byte	0x4
 1499 04f3 11       		.uleb128 0x11
 1500 04f4 61030000 		.4byte	.LASF70
 1501 04f8 0A       		.byte	0xa
 1502 04f9 9C04     		.2byte	0x49c
 1503 04fb AD000000 		.4byte	0xad
 1504 04ff 06       		.byte	0x6
 1505 0500 0C       		.uleb128 0xc
 1506 0501 535200   		.ascii	"SR\000"
 1507 0504 0A       		.byte	0xa
 1508 0505 9D04     		.2byte	0x49d
 1509 0507 67030000 		.4byte	0x367
 1510 050b 08       		.byte	0x8
 1511 050c 11       		.uleb128 0x11
 1512 050d 6B030000 		.4byte	.LASF71
 1513 0511 0A       		.byte	0xa
 1514 0512 9E04     		.2byte	0x49e
ARM GAS  /tmp/ccNKEMry.s 			page 28


 1515 0514 AD000000 		.4byte	0xad
 1516 0518 0A       		.byte	0xa
 1517 0519 0C       		.uleb128 0xc
 1518 051a 445200   		.ascii	"DR\000"
 1519 051d 0A       		.byte	0xa
 1520 051e 9F04     		.2byte	0x49f
 1521 0520 67030000 		.4byte	0x367
 1522 0524 0C       		.byte	0xc
 1523 0525 11       		.uleb128 0x11
 1524 0526 75030000 		.4byte	.LASF72
 1525 052a 0A       		.byte	0xa
 1526 052b A004     		.2byte	0x4a0
 1527 052d AD000000 		.4byte	0xad
 1528 0531 0E       		.byte	0xe
 1529 0532 11       		.uleb128 0x11
 1530 0533 53000000 		.4byte	.LASF73
 1531 0537 0A       		.byte	0xa
 1532 0538 A104     		.2byte	0x4a1
 1533 053a 67030000 		.4byte	0x367
 1534 053e 10       		.byte	0x10
 1535 053f 11       		.uleb128 0x11
 1536 0540 7F030000 		.4byte	.LASF74
 1537 0544 0A       		.byte	0xa
 1538 0545 A204     		.2byte	0x4a2
 1539 0547 AD000000 		.4byte	0xad
 1540 054b 12       		.byte	0x12
 1541 054c 11       		.uleb128 0x11
 1542 054d 2C060000 		.4byte	.LASF75
 1543 0551 0A       		.byte	0xa
 1544 0552 A304     		.2byte	0x4a3
 1545 0554 67030000 		.4byte	0x367
 1546 0558 14       		.byte	0x14
 1547 0559 11       		.uleb128 0x11
 1548 055a 2C050000 		.4byte	.LASF76
 1549 055e 0A       		.byte	0xa
 1550 055f A404     		.2byte	0x4a4
 1551 0561 AD000000 		.4byte	0xad
 1552 0565 16       		.byte	0x16
 1553 0566 11       		.uleb128 0x11
 1554 0567 50030000 		.4byte	.LASF77
 1555 056b 0A       		.byte	0xa
 1556 056c A504     		.2byte	0x4a5
 1557 056e 67030000 		.4byte	0x367
 1558 0572 18       		.byte	0x18
 1559 0573 11       		.uleb128 0x11
 1560 0574 90030000 		.4byte	.LASF78
 1561 0578 0A       		.byte	0xa
 1562 0579 A604     		.2byte	0x4a6
 1563 057b AD000000 		.4byte	0xad
 1564 057f 1A       		.byte	0x1a
 1565 0580 11       		.uleb128 0x11
 1566 0581 D5000000 		.4byte	.LASF79
 1567 0585 0A       		.byte	0xa
 1568 0586 A704     		.2byte	0x4a7
 1569 0588 67030000 		.4byte	0x367
 1570 058c 1C       		.byte	0x1c
 1571 058d 11       		.uleb128 0x11
ARM GAS  /tmp/ccNKEMry.s 			page 29


 1572 058e 9A030000 		.4byte	.LASF80
 1573 0592 0A       		.byte	0xa
 1574 0593 A804     		.2byte	0x4a8
 1575 0595 AD000000 		.4byte	0xad
 1576 0599 1E       		.byte	0x1e
 1577 059a 11       		.uleb128 0x11
 1578 059b 00030000 		.4byte	.LASF81
 1579 059f 0A       		.byte	0xa
 1580 05a0 A904     		.2byte	0x4a9
 1581 05a2 67030000 		.4byte	0x367
 1582 05a6 20       		.byte	0x20
 1583 05a7 11       		.uleb128 0x11
 1584 05a8 A4030000 		.4byte	.LASF82
 1585 05ac 0A       		.byte	0xa
 1586 05ad AA04     		.2byte	0x4aa
 1587 05af AD000000 		.4byte	0xad
 1588 05b3 22       		.byte	0x22
 1589 05b4 00       		.byte	0
 1590 05b5 12       		.uleb128 0x12
 1591 05b6 5D050000 		.4byte	.LASF83
 1592 05ba 0A       		.byte	0xa
 1593 05bb AB04     		.2byte	0x4ab
 1594 05bd C3040000 		.4byte	0x4c3
 1595 05c1 08       		.uleb128 0x8
 1596 05c2 0C       		.byte	0xc
 1597 05c3 0B       		.byte	0xb
 1598 05c4 C1       		.byte	0xc1
 1599 05c5 06060000 		.4byte	0x606
 1600 05c9 06       		.uleb128 0x6
 1601 05ca 0F050000 		.4byte	.LASF84
 1602 05ce 0B       		.byte	0xb
 1603 05cf C2       		.byte	0xc2
 1604 05d0 06060000 		.4byte	0x606
 1605 05d4 00       		.byte	0
 1606 05d5 06       		.uleb128 0x6
 1607 05d6 22050000 		.4byte	.LASF85
 1608 05da 0B       		.byte	0xb
 1609 05db C3       		.byte	0xc3
 1610 05dc 0C060000 		.4byte	0x60c
 1611 05e0 04       		.byte	0x4
 1612 05e1 06       		.uleb128 0x6
 1613 05e2 5D020000 		.4byte	.LASF86
 1614 05e6 0B       		.byte	0xb
 1615 05e7 C4       		.byte	0xc4
 1616 05e8 A2000000 		.4byte	0xa2
 1617 05ec 08       		.byte	0x8
 1618 05ed 06       		.uleb128 0x6
 1619 05ee 81010000 		.4byte	.LASF87
 1620 05f2 0B       		.byte	0xb
 1621 05f3 C6       		.byte	0xc6
 1622 05f4 A2000000 		.4byte	0xa2
 1623 05f8 09       		.byte	0x9
 1624 05f9 06       		.uleb128 0x6
 1625 05fa 68000000 		.4byte	.LASF88
 1626 05fe 0B       		.byte	0xb
 1627 05ff C7       		.byte	0xc7
 1628 0600 A2000000 		.4byte	0xa2
ARM GAS  /tmp/ccNKEMry.s 			page 30


 1629 0604 0A       		.byte	0xa
 1630 0605 00       		.byte	0
 1631 0606 09       		.uleb128 0x9
 1632 0607 04       		.byte	0x4
 1633 0608 AF030000 		.4byte	0x3af
 1634 060c 09       		.uleb128 0x9
 1635 060d 04       		.byte	0x4
 1636 060e DE020000 		.4byte	0x2de
 1637 0612 03       		.uleb128 0x3
 1638 0613 9D040000 		.4byte	.LASF89
 1639 0617 0B       		.byte	0xb
 1640 0618 C8       		.byte	0xc8
 1641 0619 C1050000 		.4byte	0x5c1
 1642 061d 03       		.uleb128 0x3
 1643 061e 25020000 		.4byte	.LASF90
 1644 0622 0B       		.byte	0xb
 1645 0623 D1       		.byte	0xd1
 1646 0624 28060000 		.4byte	0x628
 1647 0628 09       		.uleb128 0x9
 1648 0629 04       		.byte	0x4
 1649 062a 2E060000 		.4byte	0x62e
 1650 062e 13       		.uleb128 0x13
 1651 062f 3E060000 		.4byte	0x63e
 1652 0633 14       		.uleb128 0x14
 1653 0634 3F020000 		.4byte	0x23f
 1654 0638 14       		.uleb128 0x14
 1655 0639 C3000000 		.4byte	0xc3
 1656 063d 00       		.byte	0
 1657 063e 03       		.uleb128 0x3
 1658 063f 23000000 		.4byte	.LASF91
 1659 0643 0C       		.byte	0xc
 1660 0644 6D       		.byte	0x6d
 1661 0645 C3000000 		.4byte	0xc3
 1662 0649 03       		.uleb128 0x3
 1663 064a DC050000 		.4byte	.LASF92
 1664 064e 0C       		.byte	0xc
 1665 064f 7A       		.byte	0x7a
 1666 0650 54060000 		.4byte	0x654
 1667 0654 09       		.uleb128 0x9
 1668 0655 04       		.byte	0x4
 1669 0656 20040000 		.4byte	0x420
 1670 065a 15       		.uleb128 0x15
 1671 065b 01       		.byte	0x1
 1672 065c 0D       		.byte	0xd
 1673 065d 55       		.byte	0x55
 1674 065e 81060000 		.4byte	0x681
 1675 0662 16       		.uleb128 0x16
 1676 0663 07060000 		.4byte	.LASF93
 1677 0667 00       		.sleb128 0
 1678 0668 16       		.uleb128 0x16
 1679 0669 CC000000 		.4byte	.LASF94
 1680 066d 01       		.sleb128 1
 1681 066e 16       		.uleb128 0x16
 1682 066f FD050000 		.4byte	.LASF95
 1683 0673 02       		.sleb128 2
 1684 0674 16       		.uleb128 0x16
 1685 0675 18000000 		.4byte	.LASF96
ARM GAS  /tmp/ccNKEMry.s 			page 31


 1686 0679 03       		.sleb128 3
 1687 067a 16       		.uleb128 0x16
 1688 067b 87050000 		.4byte	.LASF97
 1689 067f 04       		.sleb128 4
 1690 0680 00       		.byte	0
 1691 0681 03       		.uleb128 0x3
 1692 0682 A6050000 		.4byte	.LASF98
 1693 0686 0D       		.byte	0xd
 1694 0687 5B       		.byte	0x5b
 1695 0688 5A060000 		.4byte	0x65a
 1696 068c 12       		.uleb128 0x12
 1697 068d 82000000 		.4byte	.LASF99
 1698 0691 0E       		.byte	0xe
 1699 0692 E701     		.2byte	0x1e7
 1700 0694 98060000 		.4byte	0x698
 1701 0698 0B       		.uleb128 0xb
 1702 0699 82000000 		.4byte	.LASF99
 1703 069d 30       		.byte	0x30
 1704 069e 0E       		.byte	0xe
 1705 069f 0B02     		.2byte	0x20b
 1706 06a1 1B070000 		.4byte	0x71b
 1707 06a5 11       		.uleb128 0x11
 1708 06a6 F6000000 		.4byte	.LASF100
 1709 06aa 0E       		.byte	0xe
 1710 06ab 0F02     		.2byte	0x20f
 1711 06ad 81060000 		.4byte	0x681
 1712 06b1 00       		.byte	0
 1713 06b2 11       		.uleb128 0x11
 1714 06b3 94050000 		.4byte	.LASF101
 1715 06b7 0E       		.byte	0xe
 1716 06b8 1302     		.2byte	0x213
 1717 06ba 88070000 		.4byte	0x788
 1718 06be 04       		.byte	0x4
 1719 06bf 11       		.uleb128 0x11
 1720 06c0 CD050000 		.4byte	.LASF102
 1721 06c4 0E       		.byte	0xe
 1722 06c5 1802     		.2byte	0x218
 1723 06c7 03020000 		.4byte	0x203
 1724 06cb 08       		.byte	0x8
 1725 06cc 11       		.uleb128 0x11
 1726 06cd 7B040000 		.4byte	.LASF103
 1727 06d1 0E       		.byte	0xe
 1728 06d2 1F02     		.2byte	0x21f
 1729 06d4 21030000 		.4byte	0x321
 1730 06d8 0C       		.byte	0xc
 1731 06d9 0C       		.uleb128 0xc
 1732 06da 73706900 		.ascii	"spi\000"
 1733 06de 0E       		.byte	0xe
 1734 06df 2B02     		.2byte	0x22b
 1735 06e1 93070000 		.4byte	0x793
 1736 06e5 1C       		.byte	0x1c
 1737 06e6 11       		.uleb128 0x11
 1738 06e7 30000000 		.4byte	.LASF104
 1739 06eb 0E       		.byte	0xe
 1740 06ec 2F02     		.2byte	0x22f
 1741 06ee 99070000 		.4byte	0x799
 1742 06f2 20       		.byte	0x20
ARM GAS  /tmp/ccNKEMry.s 			page 32


 1743 06f3 11       		.uleb128 0x11
 1744 06f4 67010000 		.4byte	.LASF105
 1745 06f8 0E       		.byte	0xe
 1746 06f9 3302     		.2byte	0x233
 1747 06fb 99070000 		.4byte	0x799
 1748 06ff 24       		.byte	0x24
 1749 0700 11       		.uleb128 0x11
 1750 0701 5D010000 		.4byte	.LASF106
 1751 0705 0E       		.byte	0xe
 1752 0706 3702     		.2byte	0x237
 1753 0708 C3000000 		.4byte	0xc3
 1754 070c 28       		.byte	0x28
 1755 070d 11       		.uleb128 0x11
 1756 070e 29030000 		.4byte	.LASF107
 1757 0712 0E       		.byte	0xe
 1758 0713 3B02     		.2byte	0x23b
 1759 0715 C3000000 		.4byte	0xc3
 1760 0719 2C       		.byte	0x2c
 1761 071a 00       		.byte	0
 1762 071b 12       		.uleb128 0x12
 1763 071c 8B010000 		.4byte	.LASF108
 1764 0720 0E       		.byte	0xe
 1765 0721 EF01     		.2byte	0x1ef
 1766 0723 27070000 		.4byte	0x727
 1767 0727 09       		.uleb128 0x9
 1768 0728 04       		.byte	0x4
 1769 0729 2D070000 		.4byte	0x72d
 1770 072d 13       		.uleb128 0x13
 1771 072e 38070000 		.4byte	0x738
 1772 0732 14       		.uleb128 0x14
 1773 0733 38070000 		.4byte	0x738
 1774 0737 00       		.byte	0
 1775 0738 09       		.uleb128 0x9
 1776 0739 04       		.byte	0x4
 1777 073a 8C060000 		.4byte	0x68c
 1778 073e 10       		.uleb128 0x10
 1779 073f 0C       		.byte	0xc
 1780 0740 0E       		.byte	0xe
 1781 0741 F401     		.2byte	0x1f4
 1782 0743 7C070000 		.4byte	0x77c
 1783 0747 11       		.uleb128 0x11
 1784 0748 56010000 		.4byte	.LASF109
 1785 074c 0E       		.byte	0xe
 1786 074d F801     		.2byte	0x1f8
 1787 074f 1B070000 		.4byte	0x71b
 1788 0753 00       		.byte	0
 1789 0754 11       		.uleb128 0x11
 1790 0755 8C000000 		.4byte	.LASF110
 1791 0759 0E       		.byte	0xe
 1792 075a FD01     		.2byte	0x1fd
 1793 075c 49060000 		.4byte	0x649
 1794 0760 04       		.byte	0x4
 1795 0761 11       		.uleb128 0x11
 1796 0762 36000000 		.4byte	.LASF111
 1797 0766 0E       		.byte	0xe
 1798 0767 0102     		.2byte	0x201
 1799 0769 AD000000 		.4byte	0xad
ARM GAS  /tmp/ccNKEMry.s 			page 33


 1800 076d 08       		.byte	0x8
 1801 076e 0C       		.uleb128 0xc
 1802 076f 63723100 		.ascii	"cr1\000"
 1803 0773 0E       		.byte	0xe
 1804 0774 0502     		.2byte	0x205
 1805 0776 AD000000 		.4byte	0xad
 1806 077a 0A       		.byte	0xa
 1807 077b 00       		.byte	0
 1808 077c 12       		.uleb128 0x12
 1809 077d 8E060000 		.4byte	.LASF112
 1810 0781 0E       		.byte	0xe
 1811 0782 0602     		.2byte	0x206
 1812 0784 3E070000 		.4byte	0x73e
 1813 0788 09       		.uleb128 0x9
 1814 0789 04       		.byte	0x4
 1815 078a 8E070000 		.4byte	0x78e
 1816 078e 17       		.uleb128 0x17
 1817 078f 7C070000 		.4byte	0x77c
 1818 0793 09       		.uleb128 0x9
 1819 0794 04       		.byte	0x4
 1820 0795 B5050000 		.4byte	0x5b5
 1821 0799 09       		.uleb128 0x9
 1822 079a 04       		.byte	0x4
 1823 079b 9F070000 		.4byte	0x79f
 1824 079f 17       		.uleb128 0x17
 1825 07a0 12060000 		.4byte	0x612
 1826 07a4 18       		.uleb128 0x18
 1827 07a5 5B060000 		.4byte	.LASF115
 1828 07a9 01       		.byte	0x1
 1829 07aa 9F       		.byte	0x9f
 1830 07ab 00000000 		.4byte	.LFB57
 1831 07af 0A000000 		.4byte	.LFE57-.LFB57
 1832 07b3 01       		.uleb128 0x1
 1833 07b4 9C       		.byte	0x9c
 1834 07b5 E1070000 		.4byte	0x7e1
 1835 07b9 19       		.uleb128 0x19
 1836 07ba 49060000 		.4byte	.LASF113
 1837 07be 01       		.byte	0x1
 1838 07bf 9F       		.byte	0x9f
 1839 07c0 38070000 		.4byte	0x738
 1840 07c4 00000000 		.4byte	.LLST0
 1841 07c8 19       		.uleb128 0x19
 1842 07c9 4E060000 		.4byte	.LASF114
 1843 07cd 01       		.byte	0x1
 1844 07ce 9F       		.byte	0x9f
 1845 07cf C3000000 		.4byte	0xc3
 1846 07d3 21000000 		.4byte	.LLST1
 1847 07d7 1A       		.uleb128 0x1a
 1848 07d8 0A000000 		.4byte	.LVL1
 1849 07dc 980B0000 		.4byte	0xb98
 1850 07e0 00       		.byte	0
 1851 07e1 18       		.uleb128 0x18
 1852 07e2 05010000 		.4byte	.LASF116
 1853 07e6 01       		.byte	0x1
 1854 07e7 85       		.byte	0x85
 1855 07e8 00000000 		.4byte	.LFB56
 1856 07ec 74000000 		.4byte	.LFE56-.LFB56
ARM GAS  /tmp/ccNKEMry.s 			page 34


 1857 07f0 01       		.uleb128 0x1
 1858 07f1 9C       		.byte	0x9c
 1859 07f2 53080000 		.4byte	0x853
 1860 07f6 19       		.uleb128 0x19
 1861 07f7 49060000 		.4byte	.LASF113
 1862 07fb 01       		.byte	0x1
 1863 07fc 85       		.byte	0x85
 1864 07fd 38070000 		.4byte	0x738
 1865 0801 42000000 		.4byte	.LLST2
 1866 0805 19       		.uleb128 0x19
 1867 0806 4E060000 		.4byte	.LASF114
 1868 080a 01       		.byte	0x1
 1869 080b 85       		.byte	0x85
 1870 080c C3000000 		.4byte	0xc3
 1871 0810 76000000 		.4byte	.LLST3
 1872 0814 1B       		.uleb128 0x1b
 1873 0815 56000000 		.4byte	.LBB2
 1874 0819 0C000000 		.4byte	.LBE2-.LBB2
 1875 081d 39080000 		.4byte	0x839
 1876 0821 1C       		.uleb128 0x1c
 1877 0822 747000   		.ascii	"tp\000"
 1878 0825 01       		.byte	0x1
 1879 0826 96       		.byte	0x96
 1880 0827 03020000 		.4byte	0x203
 1881 082b B0000000 		.4byte	.LLST4
 1882 082f 1D       		.uleb128 0x1d
 1883 0830 62000000 		.4byte	.LVL6
 1884 0834 A00B0000 		.4byte	0xba0
 1885 0838 00       		.byte	0
 1886 0839 1E       		.uleb128 0x1e
 1887 083a 48000000 		.4byte	.LVL4
 1888 083e 49080000 		.4byte	0x849
 1889 0842 1F       		.uleb128 0x1f
 1890 0843 01       		.uleb128 0x1
 1891 0844 50       		.byte	0x50
 1892 0845 02       		.uleb128 0x2
 1893 0846 74       		.byte	0x74
 1894 0847 00       		.sleb128 0
 1895 0848 00       		.byte	0
 1896 0849 1D       		.uleb128 0x1d
 1897 084a 72000000 		.4byte	.LVL9
 1898 084e 980B0000 		.4byte	0xb98
 1899 0852 00       		.byte	0
 1900 0853 20       		.uleb128 0x20
 1901 0854 DC020000 		.4byte	.LASF117
 1902 0858 01       		.byte	0x1
 1903 0859 BA       		.byte	0xba
 1904 085a 00000000 		.4byte	.LFB58
 1905 085e 68000000 		.4byte	.LFE58-.LFB58
 1906 0862 01       		.uleb128 0x1
 1907 0863 9C       		.byte	0x9c
 1908 0864 8D080000 		.4byte	0x88d
 1909 0868 21       		.uleb128 0x21
 1910 0869 18000000 		.4byte	.LVL10
 1911 086d B50B0000 		.4byte	0xbb5
 1912 0871 7C080000 		.4byte	0x87c
 1913 0875 1F       		.uleb128 0x1f
ARM GAS  /tmp/ccNKEMry.s 			page 35


 1914 0876 01       		.uleb128 0x1
 1915 0877 50       		.byte	0x50
 1916 0878 02       		.uleb128 0x2
 1917 0879 75       		.byte	0x75
 1918 087a 00       		.sleb128 0
 1919 087b 00       		.byte	0
 1920 087c 22       		.uleb128 0x22
 1921 087d 38000000 		.4byte	.LVL11
 1922 0881 B50B0000 		.4byte	0xbb5
 1923 0885 1F       		.uleb128 0x1f
 1924 0886 01       		.uleb128 0x1
 1925 0887 50       		.byte	0x50
 1926 0888 02       		.uleb128 0x2
 1927 0889 74       		.byte	0x74
 1928 088a 00       		.sleb128 0
 1929 088b 00       		.byte	0
 1930 088c 00       		.byte	0
 1931 088d 23       		.uleb128 0x23
 1932 088e 33060000 		.4byte	.LASF118
 1933 0892 01       		.byte	0x1
 1934 0893 3201     		.2byte	0x132
 1935 0895 00000000 		.4byte	.LFB59
 1936 0899 D4000000 		.4byte	.LFE59-.LFB59
 1937 089d 01       		.uleb128 0x1
 1938 089e 9C       		.byte	0x9c
 1939 089f 60090000 		.4byte	0x960
 1940 08a3 24       		.uleb128 0x24
 1941 08a4 49060000 		.4byte	.LASF113
 1942 08a8 01       		.byte	0x1
 1943 08a9 3201     		.2byte	0x132
 1944 08ab 38070000 		.4byte	0x738
 1945 08af C3000000 		.4byte	.LLST5
 1946 08b3 1B       		.uleb128 0x1b
 1947 08b4 78000000 		.4byte	.LBB3
 1948 08b8 24000000 		.4byte	.LBE3-.LBB3
 1949 08bc 0B090000 		.4byte	0x90b
 1950 08c0 25       		.uleb128 0x25
 1951 08c1 6200     		.ascii	"b\000"
 1952 08c3 01       		.byte	0x1
 1953 08c4 3801     		.2byte	0x138
 1954 08c6 CE000000 		.4byte	0xce
 1955 08ca 21       		.uleb128 0x21
 1956 08cb 84000000 		.4byte	.LVL18
 1957 08cf C70B0000 		.4byte	0xbc7
 1958 08d3 EC080000 		.4byte	0x8ec
 1959 08d7 1F       		.uleb128 0x1f
 1960 08d8 01       		.uleb128 0x1
 1961 08d9 53       		.byte	0x53
 1962 08da 02       		.uleb128 0x2
 1963 08db 74       		.byte	0x74
 1964 08dc 00       		.sleb128 0
 1965 08dd 1F       		.uleb128 0x1f
 1966 08de 01       		.uleb128 0x1
 1967 08df 52       		.byte	0x52
 1968 08e0 05       		.uleb128 0x5
 1969 08e1 03       		.byte	0x3
 1970 08e2 00000000 		.4byte	spi_lld_serve_rx_interrupt
ARM GAS  /tmp/ccNKEMry.s 			page 36


 1971 08e6 1F       		.uleb128 0x1f
 1972 08e7 01       		.uleb128 0x1
 1973 08e8 51       		.byte	0x51
 1974 08e9 01       		.uleb128 0x1
 1975 08ea 3A       		.byte	0x3a
 1976 08eb 00       		.byte	0
 1977 08ec 22       		.uleb128 0x22
 1978 08ed 90000000 		.4byte	.LVL19
 1979 08f1 C70B0000 		.4byte	0xbc7
 1980 08f5 1F       		.uleb128 0x1f
 1981 08f6 01       		.uleb128 0x1
 1982 08f7 53       		.byte	0x53
 1983 08f8 02       		.uleb128 0x2
 1984 08f9 74       		.byte	0x74
 1985 08fa 00       		.sleb128 0
 1986 08fb 1F       		.uleb128 0x1f
 1987 08fc 01       		.uleb128 0x1
 1988 08fd 52       		.byte	0x52
 1989 08fe 05       		.uleb128 0x5
 1990 08ff 03       		.byte	0x3
 1991 0900 00000000 		.4byte	spi_lld_serve_tx_interrupt
 1992 0904 1F       		.uleb128 0x1f
 1993 0905 01       		.uleb128 0x1
 1994 0906 51       		.byte	0x51
 1995 0907 01       		.uleb128 0x1
 1996 0908 3A       		.byte	0x3a
 1997 0909 00       		.byte	0
 1998 090a 00       		.byte	0
 1999 090b 26       		.uleb128 0x26
 2000 090c 9C000000 		.4byte	.LBB4
 2001 0910 38000000 		.4byte	.LBE4-.LBB4
 2002 0914 25       		.uleb128 0x25
 2003 0915 6200     		.ascii	"b\000"
 2004 0917 01       		.byte	0x1
 2005 0918 4801     		.2byte	0x148
 2006 091a CE000000 		.4byte	0xce
 2007 091e 21       		.uleb128 0x21
 2008 091f A8000000 		.4byte	.LVL22
 2009 0923 C70B0000 		.4byte	0xbc7
 2010 0927 40090000 		.4byte	0x940
 2011 092b 1F       		.uleb128 0x1f
 2012 092c 01       		.uleb128 0x1
 2013 092d 53       		.byte	0x53
 2014 092e 02       		.uleb128 0x2
 2015 092f 74       		.byte	0x74
 2016 0930 00       		.sleb128 0
 2017 0931 1F       		.uleb128 0x1f
 2018 0932 01       		.uleb128 0x1
 2019 0933 52       		.byte	0x52
 2020 0934 05       		.uleb128 0x5
 2021 0935 03       		.byte	0x3
 2022 0936 00000000 		.4byte	spi_lld_serve_rx_interrupt
 2023 093a 1F       		.uleb128 0x1f
 2024 093b 01       		.uleb128 0x1
 2025 093c 51       		.byte	0x51
 2026 093d 01       		.uleb128 0x1
 2027 093e 3A       		.byte	0x3a
ARM GAS  /tmp/ccNKEMry.s 			page 37


 2028 093f 00       		.byte	0
 2029 0940 22       		.uleb128 0x22
 2030 0941 B4000000 		.4byte	.LVL23
 2031 0945 C70B0000 		.4byte	0xbc7
 2032 0949 1F       		.uleb128 0x1f
 2033 094a 01       		.uleb128 0x1
 2034 094b 53       		.byte	0x53
 2035 094c 02       		.uleb128 0x2
 2036 094d 74       		.byte	0x74
 2037 094e 00       		.sleb128 0
 2038 094f 1F       		.uleb128 0x1f
 2039 0950 01       		.uleb128 0x1
 2040 0951 52       		.byte	0x52
 2041 0952 05       		.uleb128 0x5
 2042 0953 03       		.byte	0x3
 2043 0954 00000000 		.4byte	spi_lld_serve_tx_interrupt
 2044 0958 1F       		.uleb128 0x1f
 2045 0959 01       		.uleb128 0x1
 2046 095a 51       		.byte	0x51
 2047 095b 01       		.uleb128 0x1
 2048 095c 3A       		.byte	0x3a
 2049 095d 00       		.byte	0
 2050 095e 00       		.byte	0
 2051 095f 00       		.byte	0
 2052 0960 23       		.uleb128 0x23
 2053 0961 69050000 		.4byte	.LASF119
 2054 0965 01       		.byte	0x1
 2055 0966 BA01     		.2byte	0x1ba
 2056 0968 00000000 		.4byte	.LFB60
 2057 096c 54000000 		.4byte	.LFE60-.LFB60
 2058 0970 01       		.uleb128 0x1
 2059 0971 9C       		.byte	0x9c
 2060 0972 99090000 		.4byte	0x999
 2061 0976 24       		.uleb128 0x24
 2062 0977 49060000 		.4byte	.LASF113
 2063 097b 01       		.byte	0x1
 2064 097c BA01     		.2byte	0x1ba
 2065 097e 38070000 		.4byte	0x738
 2066 0982 23010000 		.4byte	.LLST6
 2067 0986 1D       		.uleb128 0x1d
 2068 0987 1C000000 		.4byte	.LVL28
 2069 098b EC0B0000 		.4byte	0xbec
 2070 098f 1D       		.uleb128 0x1d
 2071 0990 22000000 		.4byte	.LVL29
 2072 0994 EC0B0000 		.4byte	0xbec
 2073 0998 00       		.byte	0
 2074 0999 23       		.uleb128 0x23
 2075 099a E7050000 		.4byte	.LASF120
 2076 099e 01       		.byte	0x1
 2077 099f E701     		.2byte	0x1e7
 2078 09a1 00000000 		.4byte	.LFB61
 2079 09a5 10000000 		.4byte	.LFE61-.LFB61
 2080 09a9 01       		.uleb128 0x1
 2081 09aa 9C       		.byte	0x9c
 2082 09ab BE090000 		.4byte	0x9be
 2083 09af 27       		.uleb128 0x27
 2084 09b0 49060000 		.4byte	.LASF113
ARM GAS  /tmp/ccNKEMry.s 			page 38


 2085 09b4 01       		.byte	0x1
 2086 09b5 E701     		.2byte	0x1e7
 2087 09b7 38070000 		.4byte	0x738
 2088 09bb 01       		.uleb128 0x1
 2089 09bc 50       		.byte	0x50
 2090 09bd 00       		.byte	0
 2091 09be 23       		.uleb128 0x23
 2092 09bf B3010000 		.4byte	.LASF121
 2093 09c3 01       		.byte	0x1
 2094 09c4 F401     		.2byte	0x1f4
 2095 09c6 00000000 		.4byte	.LFB62
 2096 09ca 10000000 		.4byte	.LFE62-.LFB62
 2097 09ce 01       		.uleb128 0x1
 2098 09cf 9C       		.byte	0x9c
 2099 09d0 E3090000 		.4byte	0x9e3
 2100 09d4 27       		.uleb128 0x27
 2101 09d5 49060000 		.4byte	.LASF113
 2102 09d9 01       		.byte	0x1
 2103 09da F401     		.2byte	0x1f4
 2104 09dc 38070000 		.4byte	0x738
 2105 09e0 01       		.uleb128 0x1
 2106 09e1 50       		.byte	0x50
 2107 09e2 00       		.byte	0
 2108 09e3 23       		.uleb128 0x23
 2109 09e4 12060000 		.4byte	.LASF122
 2110 09e8 01       		.byte	0x1
 2111 09e9 0402     		.2byte	0x204
 2112 09eb 00000000 		.4byte	.LFB63
 2113 09ef 54000000 		.4byte	.LFE63-.LFB63
 2114 09f3 01       		.uleb128 0x1
 2115 09f4 9C       		.byte	0x9c
 2116 09f5 140A0000 		.4byte	0xa14
 2117 09f9 27       		.uleb128 0x27
 2118 09fa 49060000 		.4byte	.LASF113
 2119 09fe 01       		.byte	0x1
 2120 09ff 0402     		.2byte	0x204
 2121 0a01 38070000 		.4byte	0x738
 2122 0a05 01       		.uleb128 0x1
 2123 0a06 50       		.byte	0x50
 2124 0a07 28       		.uleb128 0x28
 2125 0a08 6E00     		.ascii	"n\000"
 2126 0a0a 01       		.byte	0x1
 2127 0a0b 0402     		.2byte	0x204
 2128 0a0d 2C000000 		.4byte	0x2c
 2129 0a11 01       		.uleb128 0x1
 2130 0a12 51       		.byte	0x51
 2131 0a13 00       		.byte	0
 2132 0a14 23       		.uleb128 0x23
 2133 0a15 32010000 		.4byte	.LASF123
 2134 0a19 01       		.byte	0x1
 2135 0a1a 2102     		.2byte	0x221
 2136 0a1c 00000000 		.4byte	.LFB64
 2137 0a20 50000000 		.4byte	.LFE64-.LFB64
 2138 0a24 01       		.uleb128 0x1
 2139 0a25 9C       		.byte	0x9c
 2140 0a26 650A0000 		.4byte	0xa65
 2141 0a2a 27       		.uleb128 0x27
ARM GAS  /tmp/ccNKEMry.s 			page 39


 2142 0a2b 49060000 		.4byte	.LASF113
 2143 0a2f 01       		.byte	0x1
 2144 0a30 2102     		.2byte	0x221
 2145 0a32 38070000 		.4byte	0x738
 2146 0a36 01       		.uleb128 0x1
 2147 0a37 50       		.byte	0x50
 2148 0a38 28       		.uleb128 0x28
 2149 0a39 6E00     		.ascii	"n\000"
 2150 0a3b 01       		.byte	0x1
 2151 0a3c 2102     		.2byte	0x221
 2152 0a3e 2C000000 		.4byte	0x2c
 2153 0a42 01       		.uleb128 0x1
 2154 0a43 51       		.byte	0x51
 2155 0a44 24       		.uleb128 0x24
 2156 0a45 C4010000 		.4byte	.LASF124
 2157 0a49 01       		.byte	0x1
 2158 0a4a 2202     		.2byte	0x222
 2159 0a4c 650A0000 		.4byte	0xa65
 2160 0a50 65010000 		.4byte	.LLST7
 2161 0a54 24       		.uleb128 0x24
 2162 0a55 A0000000 		.4byte	.LASF125
 2163 0a59 01       		.byte	0x1
 2164 0a5a 2202     		.2byte	0x222
 2165 0a5c 3F020000 		.4byte	0x23f
 2166 0a60 86010000 		.4byte	.LLST8
 2167 0a64 00       		.byte	0
 2168 0a65 09       		.uleb128 0x9
 2169 0a66 04       		.byte	0x4
 2170 0a67 6B0A0000 		.4byte	0xa6b
 2171 0a6b 29       		.uleb128 0x29
 2172 0a6c 23       		.uleb128 0x23
 2173 0a6d 99010000 		.4byte	.LASF126
 2174 0a71 01       		.byte	0x1
 2175 0a72 3D02     		.2byte	0x23d
 2176 0a74 00000000 		.4byte	.LFB65
 2177 0a78 54000000 		.4byte	.LFE65-.LFB65
 2178 0a7c 01       		.uleb128 0x1
 2179 0a7d 9C       		.byte	0x9c
 2180 0a7e AD0A0000 		.4byte	0xaad
 2181 0a82 27       		.uleb128 0x27
 2182 0a83 49060000 		.4byte	.LASF113
 2183 0a87 01       		.byte	0x1
 2184 0a88 3D02     		.2byte	0x23d
 2185 0a8a 38070000 		.4byte	0x738
 2186 0a8e 01       		.uleb128 0x1
 2187 0a8f 50       		.byte	0x50
 2188 0a90 28       		.uleb128 0x28
 2189 0a91 6E00     		.ascii	"n\000"
 2190 0a93 01       		.byte	0x1
 2191 0a94 3D02     		.2byte	0x23d
 2192 0a96 2C000000 		.4byte	0x2c
 2193 0a9a 01       		.uleb128 0x1
 2194 0a9b 51       		.byte	0x51
 2195 0a9c 24       		.uleb128 0x24
 2196 0a9d C4010000 		.4byte	.LASF124
 2197 0aa1 01       		.byte	0x1
 2198 0aa2 3D02     		.2byte	0x23d
ARM GAS  /tmp/ccNKEMry.s 			page 40


 2199 0aa4 650A0000 		.4byte	0xa65
 2200 0aa8 B3010000 		.4byte	.LLST9
 2201 0aac 00       		.byte	0
 2202 0aad 23       		.uleb128 0x23
 2203 0aae F0020000 		.4byte	.LASF127
 2204 0ab2 01       		.byte	0x1
 2205 0ab3 5802     		.2byte	0x258
 2206 0ab5 00000000 		.4byte	.LFB66
 2207 0ab9 54000000 		.4byte	.LFE66-.LFB66
 2208 0abd 01       		.uleb128 0x1
 2209 0abe 9C       		.byte	0x9c
 2210 0abf EE0A0000 		.4byte	0xaee
 2211 0ac3 27       		.uleb128 0x27
 2212 0ac4 49060000 		.4byte	.LASF113
 2213 0ac8 01       		.byte	0x1
 2214 0ac9 5802     		.2byte	0x258
 2215 0acb 38070000 		.4byte	0x738
 2216 0acf 01       		.uleb128 0x1
 2217 0ad0 50       		.byte	0x50
 2218 0ad1 28       		.uleb128 0x28
 2219 0ad2 6E00     		.ascii	"n\000"
 2220 0ad4 01       		.byte	0x1
 2221 0ad5 5802     		.2byte	0x258
 2222 0ad7 2C000000 		.4byte	0x2c
 2223 0adb 01       		.uleb128 0x1
 2224 0adc 51       		.byte	0x51
 2225 0add 24       		.uleb128 0x24
 2226 0ade A0000000 		.4byte	.LASF125
 2227 0ae2 01       		.byte	0x1
 2228 0ae3 5802     		.2byte	0x258
 2229 0ae5 3F020000 		.4byte	0x23f
 2230 0ae9 D4010000 		.4byte	.LLST10
 2231 0aed 00       		.byte	0
 2232 0aee 2A       		.uleb128 0x2a
 2233 0aef 76060000 		.4byte	.LASF140
 2234 0af3 01       		.byte	0x1
 2235 0af4 7202     		.2byte	0x272
 2236 0af6 AD000000 		.4byte	0xad
 2237 0afa 00000000 		.4byte	.LFB67
 2238 0afe 12000000 		.4byte	.LFE67-.LFB67
 2239 0b02 01       		.uleb128 0x1
 2240 0b03 9C       		.byte	0x9c
 2241 0b04 270B0000 		.4byte	0xb27
 2242 0b08 24       		.uleb128 0x24
 2243 0b09 49060000 		.4byte	.LASF113
 2244 0b0d 01       		.byte	0x1
 2245 0b0e 7202     		.2byte	0x272
 2246 0b10 38070000 		.4byte	0x738
 2247 0b14 F5010000 		.4byte	.LLST11
 2248 0b18 27       		.uleb128 0x27
 2249 0b19 59000000 		.4byte	.LASF128
 2250 0b1d 01       		.byte	0x1
 2251 0b1e 7202     		.2byte	0x272
 2252 0b20 AD000000 		.4byte	0xad
 2253 0b24 01       		.uleb128 0x1
 2254 0b25 51       		.byte	0x51
 2255 0b26 00       		.byte	0
ARM GAS  /tmp/ccNKEMry.s 			page 41


 2256 0b27 2B       		.uleb128 0x2b
 2257 0b28 BC040000 		.4byte	.LASF129
 2258 0b2c 01       		.byte	0x1
 2259 0b2d 78       		.byte	0x78
 2260 0b2e AD000000 		.4byte	0xad
 2261 0b32 05       		.uleb128 0x5
 2262 0b33 03       		.byte	0x3
 2263 0b34 00000000 		.4byte	dummytx
 2264 0b38 2B       		.uleb128 0x2b
 2265 0b39 85020000 		.4byte	.LASF130
 2266 0b3d 01       		.byte	0x1
 2267 0b3e 79       		.byte	0x79
 2268 0b3f AD000000 		.4byte	0xad
 2269 0b43 05       		.uleb128 0x5
 2270 0b44 03       		.byte	0x3
 2271 0b45 00000000 		.4byte	dummyrx
 2272 0b49 2C       		.uleb128 0x2c
 2273 0b4a 93000000 		.4byte	.LASF131
 2274 0b4e 0F       		.byte	0xf
 2275 0b4f 0706     		.2byte	0x607
 2276 0b51 6C030000 		.4byte	0x36c
 2277 0b55 2D       		.uleb128 0x2d
 2278 0b56 12060000 		.4byte	0x612
 2279 0b5a 650B0000 		.4byte	0xb65
 2280 0b5e 2E       		.uleb128 0x2e
 2281 0b5f E3020000 		.4byte	0x2e3
 2282 0b63 06       		.byte	0x6
 2283 0b64 00       		.byte	0
 2284 0b65 2C       		.uleb128 0x2c
 2285 0b66 6F000000 		.4byte	.LASF132
 2286 0b6a 0B       		.byte	0xb
 2287 0b6b 8401     		.2byte	0x184
 2288 0b6d 710B0000 		.4byte	0xb71
 2289 0b71 17       		.uleb128 0x17
 2290 0b72 550B0000 		.4byte	0xb55
 2291 0b76 2F       		.uleb128 0x2f
 2292 0b77 B0040000 		.4byte	.LASF133
 2293 0b7b 01       		.byte	0x1
 2294 0b7c 58       		.byte	0x58
 2295 0b7d 8C060000 		.4byte	0x68c
 2296 0b81 05       		.uleb128 0x5
 2297 0b82 03       		.byte	0x3
 2298 0b83 00000000 		.4byte	SPID1
 2299 0b87 2F       		.uleb128 0x2f
 2300 0b88 B6040000 		.4byte	.LASF134
 2301 0b8c 01       		.byte	0x1
 2302 0b8d 5D       		.byte	0x5d
 2303 0b8e 8C060000 		.4byte	0x68c
 2304 0b92 05       		.uleb128 0x5
 2305 0b93 03       		.byte	0x3
 2306 0b94 00000000 		.4byte	SPID2
 2307 0b98 30       		.uleb128 0x30
 2308 0b99 4C010000 		.4byte	.LASF141
 2309 0b9d 08       		.byte	0x8
 2310 0b9e 0102     		.2byte	0x201
 2311 0ba0 31       		.uleb128 0x31
 2312 0ba1 3F050000 		.4byte	.LASF135
ARM GAS  /tmp/ccNKEMry.s 			page 42


 2313 0ba5 10       		.byte	0x10
 2314 0ba6 90       		.byte	0x90
 2315 0ba7 03020000 		.4byte	0x203
 2316 0bab B50B0000 		.4byte	0xbb5
 2317 0baf 14       		.uleb128 0x14
 2318 0bb0 03020000 		.4byte	0x203
 2319 0bb4 00       		.byte	0
 2320 0bb5 32       		.uleb128 0x32
 2321 0bb6 EA040000 		.4byte	.LASF142
 2322 0bba 0D       		.byte	0xd
 2323 0bbb 2F01     		.2byte	0x12f
 2324 0bbd C70B0000 		.4byte	0xbc7
 2325 0bc1 14       		.uleb128 0x14
 2326 0bc2 38070000 		.4byte	0x738
 2327 0bc6 00       		.byte	0
 2328 0bc7 33       		.uleb128 0x33
 2329 0bc8 A6060000 		.4byte	.LASF136
 2330 0bcc 0B       		.byte	0xb
 2331 0bcd 8B01     		.2byte	0x18b
 2332 0bcf CE000000 		.4byte	0xce
 2333 0bd3 EC0B0000 		.4byte	0xbec
 2334 0bd7 14       		.uleb128 0x14
 2335 0bd8 99070000 		.4byte	0x799
 2336 0bdc 14       		.uleb128 0x14
 2337 0bdd C3000000 		.4byte	0xc3
 2338 0be1 14       		.uleb128 0x14
 2339 0be2 1D060000 		.4byte	0x61d
 2340 0be6 14       		.uleb128 0x14
 2341 0be7 3F020000 		.4byte	0x23f
 2342 0beb 00       		.byte	0
 2343 0bec 34       		.uleb128 0x34
 2344 0bed 76050000 		.4byte	.LASF143
 2345 0bf1 0B       		.byte	0xb
 2346 0bf2 8F01     		.2byte	0x18f
 2347 0bf4 14       		.uleb128 0x14
 2348 0bf5 99070000 		.4byte	0x799
 2349 0bf9 00       		.byte	0
 2350 0bfa 00       		.byte	0
 2351              		.section	.debug_abbrev,"",%progbits
 2352              	.Ldebug_abbrev0:
 2353 0000 01       		.uleb128 0x1
 2354 0001 11       		.uleb128 0x11
 2355 0002 01       		.byte	0x1
 2356 0003 25       		.uleb128 0x25
 2357 0004 0E       		.uleb128 0xe
 2358 0005 13       		.uleb128 0x13
 2359 0006 0B       		.uleb128 0xb
 2360 0007 03       		.uleb128 0x3
 2361 0008 0E       		.uleb128 0xe
 2362 0009 1B       		.uleb128 0x1b
 2363 000a 0E       		.uleb128 0xe
 2364 000b 55       		.uleb128 0x55
 2365 000c 17       		.uleb128 0x17
 2366 000d 11       		.uleb128 0x11
 2367 000e 01       		.uleb128 0x1
 2368 000f 10       		.uleb128 0x10
 2369 0010 17       		.uleb128 0x17
ARM GAS  /tmp/ccNKEMry.s 			page 43


 2370 0011 00       		.byte	0
 2371 0012 00       		.byte	0
 2372 0013 02       		.uleb128 0x2
 2373 0014 24       		.uleb128 0x24
 2374 0015 00       		.byte	0
 2375 0016 0B       		.uleb128 0xb
 2376 0017 0B       		.uleb128 0xb
 2377 0018 3E       		.uleb128 0x3e
 2378 0019 0B       		.uleb128 0xb
 2379 001a 03       		.uleb128 0x3
 2380 001b 08       		.uleb128 0x8
 2381 001c 00       		.byte	0
 2382 001d 00       		.byte	0
 2383 001e 03       		.uleb128 0x3
 2384 001f 16       		.uleb128 0x16
 2385 0020 00       		.byte	0
 2386 0021 03       		.uleb128 0x3
 2387 0022 0E       		.uleb128 0xe
 2388 0023 3A       		.uleb128 0x3a
 2389 0024 0B       		.uleb128 0xb
 2390 0025 3B       		.uleb128 0x3b
 2391 0026 0B       		.uleb128 0xb
 2392 0027 49       		.uleb128 0x49
 2393 0028 13       		.uleb128 0x13
 2394 0029 00       		.byte	0
 2395 002a 00       		.byte	0
 2396 002b 04       		.uleb128 0x4
 2397 002c 24       		.uleb128 0x24
 2398 002d 00       		.byte	0
 2399 002e 0B       		.uleb128 0xb
 2400 002f 0B       		.uleb128 0xb
 2401 0030 3E       		.uleb128 0x3e
 2402 0031 0B       		.uleb128 0xb
 2403 0032 03       		.uleb128 0x3
 2404 0033 0E       		.uleb128 0xe
 2405 0034 00       		.byte	0
 2406 0035 00       		.byte	0
 2407 0036 05       		.uleb128 0x5
 2408 0037 13       		.uleb128 0x13
 2409 0038 01       		.byte	0x1
 2410 0039 03       		.uleb128 0x3
 2411 003a 0E       		.uleb128 0xe
 2412 003b 0B       		.uleb128 0xb
 2413 003c 0B       		.uleb128 0xb
 2414 003d 3A       		.uleb128 0x3a
 2415 003e 0B       		.uleb128 0xb
 2416 003f 3B       		.uleb128 0x3b
 2417 0040 0B       		.uleb128 0xb
 2418 0041 01       		.uleb128 0x1
 2419 0042 13       		.uleb128 0x13
 2420 0043 00       		.byte	0
 2421 0044 00       		.byte	0
 2422 0045 06       		.uleb128 0x6
 2423 0046 0D       		.uleb128 0xd
 2424 0047 00       		.byte	0
 2425 0048 03       		.uleb128 0x3
 2426 0049 0E       		.uleb128 0xe
ARM GAS  /tmp/ccNKEMry.s 			page 44


 2427 004a 3A       		.uleb128 0x3a
 2428 004b 0B       		.uleb128 0xb
 2429 004c 3B       		.uleb128 0x3b
 2430 004d 0B       		.uleb128 0xb
 2431 004e 49       		.uleb128 0x49
 2432 004f 13       		.uleb128 0x13
 2433 0050 38       		.uleb128 0x38
 2434 0051 0B       		.uleb128 0xb
 2435 0052 00       		.byte	0
 2436 0053 00       		.byte	0
 2437 0054 07       		.uleb128 0x7
 2438 0055 0D       		.uleb128 0xd
 2439 0056 00       		.byte	0
 2440 0057 03       		.uleb128 0x3
 2441 0058 08       		.uleb128 0x8
 2442 0059 3A       		.uleb128 0x3a
 2443 005a 0B       		.uleb128 0xb
 2444 005b 3B       		.uleb128 0x3b
 2445 005c 0B       		.uleb128 0xb
 2446 005d 49       		.uleb128 0x49
 2447 005e 13       		.uleb128 0x13
 2448 005f 38       		.uleb128 0x38
 2449 0060 0B       		.uleb128 0xb
 2450 0061 00       		.byte	0
 2451 0062 00       		.byte	0
 2452 0063 08       		.uleb128 0x8
 2453 0064 13       		.uleb128 0x13
 2454 0065 01       		.byte	0x1
 2455 0066 0B       		.uleb128 0xb
 2456 0067 0B       		.uleb128 0xb
 2457 0068 3A       		.uleb128 0x3a
 2458 0069 0B       		.uleb128 0xb
 2459 006a 3B       		.uleb128 0x3b
 2460 006b 0B       		.uleb128 0xb
 2461 006c 01       		.uleb128 0x1
 2462 006d 13       		.uleb128 0x13
 2463 006e 00       		.byte	0
 2464 006f 00       		.byte	0
 2465 0070 09       		.uleb128 0x9
 2466 0071 0F       		.uleb128 0xf
 2467 0072 00       		.byte	0
 2468 0073 0B       		.uleb128 0xb
 2469 0074 0B       		.uleb128 0xb
 2470 0075 49       		.uleb128 0x49
 2471 0076 13       		.uleb128 0x13
 2472 0077 00       		.byte	0
 2473 0078 00       		.byte	0
 2474 0079 0A       		.uleb128 0xa
 2475 007a 0F       		.uleb128 0xf
 2476 007b 00       		.byte	0
 2477 007c 0B       		.uleb128 0xb
 2478 007d 0B       		.uleb128 0xb
 2479 007e 00       		.byte	0
 2480 007f 00       		.byte	0
 2481 0080 0B       		.uleb128 0xb
 2482 0081 13       		.uleb128 0x13
 2483 0082 01       		.byte	0x1
ARM GAS  /tmp/ccNKEMry.s 			page 45


 2484 0083 03       		.uleb128 0x3
 2485 0084 0E       		.uleb128 0xe
 2486 0085 0B       		.uleb128 0xb
 2487 0086 0B       		.uleb128 0xb
 2488 0087 3A       		.uleb128 0x3a
 2489 0088 0B       		.uleb128 0xb
 2490 0089 3B       		.uleb128 0x3b
 2491 008a 05       		.uleb128 0x5
 2492 008b 01       		.uleb128 0x1
 2493 008c 13       		.uleb128 0x13
 2494 008d 00       		.byte	0
 2495 008e 00       		.byte	0
 2496 008f 0C       		.uleb128 0xc
 2497 0090 0D       		.uleb128 0xd
 2498 0091 00       		.byte	0
 2499 0092 03       		.uleb128 0x3
 2500 0093 08       		.uleb128 0x8
 2501 0094 3A       		.uleb128 0x3a
 2502 0095 0B       		.uleb128 0xb
 2503 0096 3B       		.uleb128 0x3b
 2504 0097 05       		.uleb128 0x5
 2505 0098 49       		.uleb128 0x49
 2506 0099 13       		.uleb128 0x13
 2507 009a 38       		.uleb128 0x38
 2508 009b 0B       		.uleb128 0xb
 2509 009c 00       		.byte	0
 2510 009d 00       		.byte	0
 2511 009e 0D       		.uleb128 0xd
 2512 009f 35       		.uleb128 0x35
 2513 00a0 00       		.byte	0
 2514 00a1 49       		.uleb128 0x49
 2515 00a2 13       		.uleb128 0x13
 2516 00a3 00       		.byte	0
 2517 00a4 00       		.byte	0
 2518 00a5 0E       		.uleb128 0xe
 2519 00a6 17       		.uleb128 0x17
 2520 00a7 01       		.byte	0x1
 2521 00a8 0B       		.uleb128 0xb
 2522 00a9 0B       		.uleb128 0xb
 2523 00aa 3A       		.uleb128 0x3a
 2524 00ab 0B       		.uleb128 0xb
 2525 00ac 3B       		.uleb128 0x3b
 2526 00ad 0B       		.uleb128 0xb
 2527 00ae 01       		.uleb128 0x1
 2528 00af 13       		.uleb128 0x13
 2529 00b0 00       		.byte	0
 2530 00b1 00       		.byte	0
 2531 00b2 0F       		.uleb128 0xf
 2532 00b3 0D       		.uleb128 0xd
 2533 00b4 00       		.byte	0
 2534 00b5 03       		.uleb128 0x3
 2535 00b6 0E       		.uleb128 0xe
 2536 00b7 3A       		.uleb128 0x3a
 2537 00b8 0B       		.uleb128 0xb
 2538 00b9 3B       		.uleb128 0x3b
 2539 00ba 0B       		.uleb128 0xb
 2540 00bb 49       		.uleb128 0x49
ARM GAS  /tmp/ccNKEMry.s 			page 46


 2541 00bc 13       		.uleb128 0x13
 2542 00bd 00       		.byte	0
 2543 00be 00       		.byte	0
 2544 00bf 10       		.uleb128 0x10
 2545 00c0 13       		.uleb128 0x13
 2546 00c1 01       		.byte	0x1
 2547 00c2 0B       		.uleb128 0xb
 2548 00c3 0B       		.uleb128 0xb
 2549 00c4 3A       		.uleb128 0x3a
 2550 00c5 0B       		.uleb128 0xb
 2551 00c6 3B       		.uleb128 0x3b
 2552 00c7 05       		.uleb128 0x5
 2553 00c8 01       		.uleb128 0x1
 2554 00c9 13       		.uleb128 0x13
 2555 00ca 00       		.byte	0
 2556 00cb 00       		.byte	0
 2557 00cc 11       		.uleb128 0x11
 2558 00cd 0D       		.uleb128 0xd
 2559 00ce 00       		.byte	0
 2560 00cf 03       		.uleb128 0x3
 2561 00d0 0E       		.uleb128 0xe
 2562 00d1 3A       		.uleb128 0x3a
 2563 00d2 0B       		.uleb128 0xb
 2564 00d3 3B       		.uleb128 0x3b
 2565 00d4 05       		.uleb128 0x5
 2566 00d5 49       		.uleb128 0x49
 2567 00d6 13       		.uleb128 0x13
 2568 00d7 38       		.uleb128 0x38
 2569 00d8 0B       		.uleb128 0xb
 2570 00d9 00       		.byte	0
 2571 00da 00       		.byte	0
 2572 00db 12       		.uleb128 0x12
 2573 00dc 16       		.uleb128 0x16
 2574 00dd 00       		.byte	0
 2575 00de 03       		.uleb128 0x3
 2576 00df 0E       		.uleb128 0xe
 2577 00e0 3A       		.uleb128 0x3a
 2578 00e1 0B       		.uleb128 0xb
 2579 00e2 3B       		.uleb128 0x3b
 2580 00e3 05       		.uleb128 0x5
 2581 00e4 49       		.uleb128 0x49
 2582 00e5 13       		.uleb128 0x13
 2583 00e6 00       		.byte	0
 2584 00e7 00       		.byte	0
 2585 00e8 13       		.uleb128 0x13
 2586 00e9 15       		.uleb128 0x15
 2587 00ea 01       		.byte	0x1
 2588 00eb 27       		.uleb128 0x27
 2589 00ec 19       		.uleb128 0x19
 2590 00ed 01       		.uleb128 0x1
 2591 00ee 13       		.uleb128 0x13
 2592 00ef 00       		.byte	0
 2593 00f0 00       		.byte	0
 2594 00f1 14       		.uleb128 0x14
 2595 00f2 05       		.uleb128 0x5
 2596 00f3 00       		.byte	0
 2597 00f4 49       		.uleb128 0x49
ARM GAS  /tmp/ccNKEMry.s 			page 47


 2598 00f5 13       		.uleb128 0x13
 2599 00f6 00       		.byte	0
 2600 00f7 00       		.byte	0
 2601 00f8 15       		.uleb128 0x15
 2602 00f9 04       		.uleb128 0x4
 2603 00fa 01       		.byte	0x1
 2604 00fb 0B       		.uleb128 0xb
 2605 00fc 0B       		.uleb128 0xb
 2606 00fd 3A       		.uleb128 0x3a
 2607 00fe 0B       		.uleb128 0xb
 2608 00ff 3B       		.uleb128 0x3b
 2609 0100 0B       		.uleb128 0xb
 2610 0101 01       		.uleb128 0x1
 2611 0102 13       		.uleb128 0x13
 2612 0103 00       		.byte	0
 2613 0104 00       		.byte	0
 2614 0105 16       		.uleb128 0x16
 2615 0106 28       		.uleb128 0x28
 2616 0107 00       		.byte	0
 2617 0108 03       		.uleb128 0x3
 2618 0109 0E       		.uleb128 0xe
 2619 010a 1C       		.uleb128 0x1c
 2620 010b 0D       		.uleb128 0xd
 2621 010c 00       		.byte	0
 2622 010d 00       		.byte	0
 2623 010e 17       		.uleb128 0x17
 2624 010f 26       		.uleb128 0x26
 2625 0110 00       		.byte	0
 2626 0111 49       		.uleb128 0x49
 2627 0112 13       		.uleb128 0x13
 2628 0113 00       		.byte	0
 2629 0114 00       		.byte	0
 2630 0115 18       		.uleb128 0x18
 2631 0116 2E       		.uleb128 0x2e
 2632 0117 01       		.byte	0x1
 2633 0118 03       		.uleb128 0x3
 2634 0119 0E       		.uleb128 0xe
 2635 011a 3A       		.uleb128 0x3a
 2636 011b 0B       		.uleb128 0xb
 2637 011c 3B       		.uleb128 0x3b
 2638 011d 0B       		.uleb128 0xb
 2639 011e 27       		.uleb128 0x27
 2640 011f 19       		.uleb128 0x19
 2641 0120 11       		.uleb128 0x11
 2642 0121 01       		.uleb128 0x1
 2643 0122 12       		.uleb128 0x12
 2644 0123 06       		.uleb128 0x6
 2645 0124 40       		.uleb128 0x40
 2646 0125 18       		.uleb128 0x18
 2647 0126 9742     		.uleb128 0x2117
 2648 0128 19       		.uleb128 0x19
 2649 0129 01       		.uleb128 0x1
 2650 012a 13       		.uleb128 0x13
 2651 012b 00       		.byte	0
 2652 012c 00       		.byte	0
 2653 012d 19       		.uleb128 0x19
 2654 012e 05       		.uleb128 0x5
ARM GAS  /tmp/ccNKEMry.s 			page 48


 2655 012f 00       		.byte	0
 2656 0130 03       		.uleb128 0x3
 2657 0131 0E       		.uleb128 0xe
 2658 0132 3A       		.uleb128 0x3a
 2659 0133 0B       		.uleb128 0xb
 2660 0134 3B       		.uleb128 0x3b
 2661 0135 0B       		.uleb128 0xb
 2662 0136 49       		.uleb128 0x49
 2663 0137 13       		.uleb128 0x13
 2664 0138 02       		.uleb128 0x2
 2665 0139 17       		.uleb128 0x17
 2666 013a 00       		.byte	0
 2667 013b 00       		.byte	0
 2668 013c 1A       		.uleb128 0x1a
 2669 013d 898201   		.uleb128 0x4109
 2670 0140 00       		.byte	0
 2671 0141 11       		.uleb128 0x11
 2672 0142 01       		.uleb128 0x1
 2673 0143 9542     		.uleb128 0x2115
 2674 0145 19       		.uleb128 0x19
 2675 0146 31       		.uleb128 0x31
 2676 0147 13       		.uleb128 0x13
 2677 0148 00       		.byte	0
 2678 0149 00       		.byte	0
 2679 014a 1B       		.uleb128 0x1b
 2680 014b 0B       		.uleb128 0xb
 2681 014c 01       		.byte	0x1
 2682 014d 11       		.uleb128 0x11
 2683 014e 01       		.uleb128 0x1
 2684 014f 12       		.uleb128 0x12
 2685 0150 06       		.uleb128 0x6
 2686 0151 01       		.uleb128 0x1
 2687 0152 13       		.uleb128 0x13
 2688 0153 00       		.byte	0
 2689 0154 00       		.byte	0
 2690 0155 1C       		.uleb128 0x1c
 2691 0156 34       		.uleb128 0x34
 2692 0157 00       		.byte	0
 2693 0158 03       		.uleb128 0x3
 2694 0159 08       		.uleb128 0x8
 2695 015a 3A       		.uleb128 0x3a
 2696 015b 0B       		.uleb128 0xb
 2697 015c 3B       		.uleb128 0x3b
 2698 015d 0B       		.uleb128 0xb
 2699 015e 49       		.uleb128 0x49
 2700 015f 13       		.uleb128 0x13
 2701 0160 02       		.uleb128 0x2
 2702 0161 17       		.uleb128 0x17
 2703 0162 00       		.byte	0
 2704 0163 00       		.byte	0
 2705 0164 1D       		.uleb128 0x1d
 2706 0165 898201   		.uleb128 0x4109
 2707 0168 00       		.byte	0
 2708 0169 11       		.uleb128 0x11
 2709 016a 01       		.uleb128 0x1
 2710 016b 31       		.uleb128 0x31
 2711 016c 13       		.uleb128 0x13
ARM GAS  /tmp/ccNKEMry.s 			page 49


 2712 016d 00       		.byte	0
 2713 016e 00       		.byte	0
 2714 016f 1E       		.uleb128 0x1e
 2715 0170 898201   		.uleb128 0x4109
 2716 0173 01       		.byte	0x1
 2717 0174 11       		.uleb128 0x11
 2718 0175 01       		.uleb128 0x1
 2719 0176 01       		.uleb128 0x1
 2720 0177 13       		.uleb128 0x13
 2721 0178 00       		.byte	0
 2722 0179 00       		.byte	0
 2723 017a 1F       		.uleb128 0x1f
 2724 017b 8A8201   		.uleb128 0x410a
 2725 017e 00       		.byte	0
 2726 017f 02       		.uleb128 0x2
 2727 0180 18       		.uleb128 0x18
 2728 0181 9142     		.uleb128 0x2111
 2729 0183 18       		.uleb128 0x18
 2730 0184 00       		.byte	0
 2731 0185 00       		.byte	0
 2732 0186 20       		.uleb128 0x20
 2733 0187 2E       		.uleb128 0x2e
 2734 0188 01       		.byte	0x1
 2735 0189 3F       		.uleb128 0x3f
 2736 018a 19       		.uleb128 0x19
 2737 018b 03       		.uleb128 0x3
 2738 018c 0E       		.uleb128 0xe
 2739 018d 3A       		.uleb128 0x3a
 2740 018e 0B       		.uleb128 0xb
 2741 018f 3B       		.uleb128 0x3b
 2742 0190 0B       		.uleb128 0xb
 2743 0191 27       		.uleb128 0x27
 2744 0192 19       		.uleb128 0x19
 2745 0193 11       		.uleb128 0x11
 2746 0194 01       		.uleb128 0x1
 2747 0195 12       		.uleb128 0x12
 2748 0196 06       		.uleb128 0x6
 2749 0197 40       		.uleb128 0x40
 2750 0198 18       		.uleb128 0x18
 2751 0199 9742     		.uleb128 0x2117
 2752 019b 19       		.uleb128 0x19
 2753 019c 01       		.uleb128 0x1
 2754 019d 13       		.uleb128 0x13
 2755 019e 00       		.byte	0
 2756 019f 00       		.byte	0
 2757 01a0 21       		.uleb128 0x21
 2758 01a1 898201   		.uleb128 0x4109
 2759 01a4 01       		.byte	0x1
 2760 01a5 11       		.uleb128 0x11
 2761 01a6 01       		.uleb128 0x1
 2762 01a7 31       		.uleb128 0x31
 2763 01a8 13       		.uleb128 0x13
 2764 01a9 01       		.uleb128 0x1
 2765 01aa 13       		.uleb128 0x13
 2766 01ab 00       		.byte	0
 2767 01ac 00       		.byte	0
 2768 01ad 22       		.uleb128 0x22
ARM GAS  /tmp/ccNKEMry.s 			page 50


 2769 01ae 898201   		.uleb128 0x4109
 2770 01b1 01       		.byte	0x1
 2771 01b2 11       		.uleb128 0x11
 2772 01b3 01       		.uleb128 0x1
 2773 01b4 31       		.uleb128 0x31
 2774 01b5 13       		.uleb128 0x13
 2775 01b6 00       		.byte	0
 2776 01b7 00       		.byte	0
 2777 01b8 23       		.uleb128 0x23
 2778 01b9 2E       		.uleb128 0x2e
 2779 01ba 01       		.byte	0x1
 2780 01bb 3F       		.uleb128 0x3f
 2781 01bc 19       		.uleb128 0x19
 2782 01bd 03       		.uleb128 0x3
 2783 01be 0E       		.uleb128 0xe
 2784 01bf 3A       		.uleb128 0x3a
 2785 01c0 0B       		.uleb128 0xb
 2786 01c1 3B       		.uleb128 0x3b
 2787 01c2 05       		.uleb128 0x5
 2788 01c3 27       		.uleb128 0x27
 2789 01c4 19       		.uleb128 0x19
 2790 01c5 11       		.uleb128 0x11
 2791 01c6 01       		.uleb128 0x1
 2792 01c7 12       		.uleb128 0x12
 2793 01c8 06       		.uleb128 0x6
 2794 01c9 40       		.uleb128 0x40
 2795 01ca 18       		.uleb128 0x18
 2796 01cb 9742     		.uleb128 0x2117
 2797 01cd 19       		.uleb128 0x19
 2798 01ce 01       		.uleb128 0x1
 2799 01cf 13       		.uleb128 0x13
 2800 01d0 00       		.byte	0
 2801 01d1 00       		.byte	0
 2802 01d2 24       		.uleb128 0x24
 2803 01d3 05       		.uleb128 0x5
 2804 01d4 00       		.byte	0
 2805 01d5 03       		.uleb128 0x3
 2806 01d6 0E       		.uleb128 0xe
 2807 01d7 3A       		.uleb128 0x3a
 2808 01d8 0B       		.uleb128 0xb
 2809 01d9 3B       		.uleb128 0x3b
 2810 01da 05       		.uleb128 0x5
 2811 01db 49       		.uleb128 0x49
 2812 01dc 13       		.uleb128 0x13
 2813 01dd 02       		.uleb128 0x2
 2814 01de 17       		.uleb128 0x17
 2815 01df 00       		.byte	0
 2816 01e0 00       		.byte	0
 2817 01e1 25       		.uleb128 0x25
 2818 01e2 34       		.uleb128 0x34
 2819 01e3 00       		.byte	0
 2820 01e4 03       		.uleb128 0x3
 2821 01e5 08       		.uleb128 0x8
 2822 01e6 3A       		.uleb128 0x3a
 2823 01e7 0B       		.uleb128 0xb
 2824 01e8 3B       		.uleb128 0x3b
 2825 01e9 05       		.uleb128 0x5
ARM GAS  /tmp/ccNKEMry.s 			page 51


 2826 01ea 49       		.uleb128 0x49
 2827 01eb 13       		.uleb128 0x13
 2828 01ec 00       		.byte	0
 2829 01ed 00       		.byte	0
 2830 01ee 26       		.uleb128 0x26
 2831 01ef 0B       		.uleb128 0xb
 2832 01f0 01       		.byte	0x1
 2833 01f1 11       		.uleb128 0x11
 2834 01f2 01       		.uleb128 0x1
 2835 01f3 12       		.uleb128 0x12
 2836 01f4 06       		.uleb128 0x6
 2837 01f5 00       		.byte	0
 2838 01f6 00       		.byte	0
 2839 01f7 27       		.uleb128 0x27
 2840 01f8 05       		.uleb128 0x5
 2841 01f9 00       		.byte	0
 2842 01fa 03       		.uleb128 0x3
 2843 01fb 0E       		.uleb128 0xe
 2844 01fc 3A       		.uleb128 0x3a
 2845 01fd 0B       		.uleb128 0xb
 2846 01fe 3B       		.uleb128 0x3b
 2847 01ff 05       		.uleb128 0x5
 2848 0200 49       		.uleb128 0x49
 2849 0201 13       		.uleb128 0x13
 2850 0202 02       		.uleb128 0x2
 2851 0203 18       		.uleb128 0x18
 2852 0204 00       		.byte	0
 2853 0205 00       		.byte	0
 2854 0206 28       		.uleb128 0x28
 2855 0207 05       		.uleb128 0x5
 2856 0208 00       		.byte	0
 2857 0209 03       		.uleb128 0x3
 2858 020a 08       		.uleb128 0x8
 2859 020b 3A       		.uleb128 0x3a
 2860 020c 0B       		.uleb128 0xb
 2861 020d 3B       		.uleb128 0x3b
 2862 020e 05       		.uleb128 0x5
 2863 020f 49       		.uleb128 0x49
 2864 0210 13       		.uleb128 0x13
 2865 0211 02       		.uleb128 0x2
 2866 0212 18       		.uleb128 0x18
 2867 0213 00       		.byte	0
 2868 0214 00       		.byte	0
 2869 0215 29       		.uleb128 0x29
 2870 0216 26       		.uleb128 0x26
 2871 0217 00       		.byte	0
 2872 0218 00       		.byte	0
 2873 0219 00       		.byte	0
 2874 021a 2A       		.uleb128 0x2a
 2875 021b 2E       		.uleb128 0x2e
 2876 021c 01       		.byte	0x1
 2877 021d 3F       		.uleb128 0x3f
 2878 021e 19       		.uleb128 0x19
 2879 021f 03       		.uleb128 0x3
 2880 0220 0E       		.uleb128 0xe
 2881 0221 3A       		.uleb128 0x3a
 2882 0222 0B       		.uleb128 0xb
ARM GAS  /tmp/ccNKEMry.s 			page 52


 2883 0223 3B       		.uleb128 0x3b
 2884 0224 05       		.uleb128 0x5
 2885 0225 27       		.uleb128 0x27
 2886 0226 19       		.uleb128 0x19
 2887 0227 49       		.uleb128 0x49
 2888 0228 13       		.uleb128 0x13
 2889 0229 11       		.uleb128 0x11
 2890 022a 01       		.uleb128 0x1
 2891 022b 12       		.uleb128 0x12
 2892 022c 06       		.uleb128 0x6
 2893 022d 40       		.uleb128 0x40
 2894 022e 18       		.uleb128 0x18
 2895 022f 9742     		.uleb128 0x2117
 2896 0231 19       		.uleb128 0x19
 2897 0232 01       		.uleb128 0x1
 2898 0233 13       		.uleb128 0x13
 2899 0234 00       		.byte	0
 2900 0235 00       		.byte	0
 2901 0236 2B       		.uleb128 0x2b
 2902 0237 34       		.uleb128 0x34
 2903 0238 00       		.byte	0
 2904 0239 03       		.uleb128 0x3
 2905 023a 0E       		.uleb128 0xe
 2906 023b 3A       		.uleb128 0x3a
 2907 023c 0B       		.uleb128 0xb
 2908 023d 3B       		.uleb128 0x3b
 2909 023e 0B       		.uleb128 0xb
 2910 023f 49       		.uleb128 0x49
 2911 0240 13       		.uleb128 0x13
 2912 0241 02       		.uleb128 0x2
 2913 0242 18       		.uleb128 0x18
 2914 0243 00       		.byte	0
 2915 0244 00       		.byte	0
 2916 0245 2C       		.uleb128 0x2c
 2917 0246 34       		.uleb128 0x34
 2918 0247 00       		.byte	0
 2919 0248 03       		.uleb128 0x3
 2920 0249 0E       		.uleb128 0xe
 2921 024a 3A       		.uleb128 0x3a
 2922 024b 0B       		.uleb128 0xb
 2923 024c 3B       		.uleb128 0x3b
 2924 024d 05       		.uleb128 0x5
 2925 024e 49       		.uleb128 0x49
 2926 024f 13       		.uleb128 0x13
 2927 0250 3F       		.uleb128 0x3f
 2928 0251 19       		.uleb128 0x19
 2929 0252 3C       		.uleb128 0x3c
 2930 0253 19       		.uleb128 0x19
 2931 0254 00       		.byte	0
 2932 0255 00       		.byte	0
 2933 0256 2D       		.uleb128 0x2d
 2934 0257 01       		.uleb128 0x1
 2935 0258 01       		.byte	0x1
 2936 0259 49       		.uleb128 0x49
 2937 025a 13       		.uleb128 0x13
 2938 025b 01       		.uleb128 0x1
 2939 025c 13       		.uleb128 0x13
ARM GAS  /tmp/ccNKEMry.s 			page 53


 2940 025d 00       		.byte	0
 2941 025e 00       		.byte	0
 2942 025f 2E       		.uleb128 0x2e
 2943 0260 21       		.uleb128 0x21
 2944 0261 00       		.byte	0
 2945 0262 49       		.uleb128 0x49
 2946 0263 13       		.uleb128 0x13
 2947 0264 2F       		.uleb128 0x2f
 2948 0265 0B       		.uleb128 0xb
 2949 0266 00       		.byte	0
 2950 0267 00       		.byte	0
 2951 0268 2F       		.uleb128 0x2f
 2952 0269 34       		.uleb128 0x34
 2953 026a 00       		.byte	0
 2954 026b 03       		.uleb128 0x3
 2955 026c 0E       		.uleb128 0xe
 2956 026d 3A       		.uleb128 0x3a
 2957 026e 0B       		.uleb128 0xb
 2958 026f 3B       		.uleb128 0x3b
 2959 0270 0B       		.uleb128 0xb
 2960 0271 49       		.uleb128 0x49
 2961 0272 13       		.uleb128 0x13
 2962 0273 3F       		.uleb128 0x3f
 2963 0274 19       		.uleb128 0x19
 2964 0275 02       		.uleb128 0x2
 2965 0276 18       		.uleb128 0x18
 2966 0277 00       		.byte	0
 2967 0278 00       		.byte	0
 2968 0279 30       		.uleb128 0x30
 2969 027a 2E       		.uleb128 0x2e
 2970 027b 00       		.byte	0
 2971 027c 3F       		.uleb128 0x3f
 2972 027d 19       		.uleb128 0x19
 2973 027e 03       		.uleb128 0x3
 2974 027f 0E       		.uleb128 0xe
 2975 0280 3A       		.uleb128 0x3a
 2976 0281 0B       		.uleb128 0xb
 2977 0282 3B       		.uleb128 0x3b
 2978 0283 05       		.uleb128 0x5
 2979 0284 27       		.uleb128 0x27
 2980 0285 19       		.uleb128 0x19
 2981 0286 3C       		.uleb128 0x3c
 2982 0287 19       		.uleb128 0x19
 2983 0288 00       		.byte	0
 2984 0289 00       		.byte	0
 2985 028a 31       		.uleb128 0x31
 2986 028b 2E       		.uleb128 0x2e
 2987 028c 01       		.byte	0x1
 2988 028d 3F       		.uleb128 0x3f
 2989 028e 19       		.uleb128 0x19
 2990 028f 03       		.uleb128 0x3
 2991 0290 0E       		.uleb128 0xe
 2992 0291 3A       		.uleb128 0x3a
 2993 0292 0B       		.uleb128 0xb
 2994 0293 3B       		.uleb128 0x3b
 2995 0294 0B       		.uleb128 0xb
 2996 0295 27       		.uleb128 0x27
ARM GAS  /tmp/ccNKEMry.s 			page 54


 2997 0296 19       		.uleb128 0x19
 2998 0297 49       		.uleb128 0x49
 2999 0298 13       		.uleb128 0x13
 3000 0299 3C       		.uleb128 0x3c
 3001 029a 19       		.uleb128 0x19
 3002 029b 01       		.uleb128 0x1
 3003 029c 13       		.uleb128 0x13
 3004 029d 00       		.byte	0
 3005 029e 00       		.byte	0
 3006 029f 32       		.uleb128 0x32
 3007 02a0 2E       		.uleb128 0x2e
 3008 02a1 01       		.byte	0x1
 3009 02a2 3F       		.uleb128 0x3f
 3010 02a3 19       		.uleb128 0x19
 3011 02a4 03       		.uleb128 0x3
 3012 02a5 0E       		.uleb128 0xe
 3013 02a6 3A       		.uleb128 0x3a
 3014 02a7 0B       		.uleb128 0xb
 3015 02a8 3B       		.uleb128 0x3b
 3016 02a9 05       		.uleb128 0x5
 3017 02aa 27       		.uleb128 0x27
 3018 02ab 19       		.uleb128 0x19
 3019 02ac 3C       		.uleb128 0x3c
 3020 02ad 19       		.uleb128 0x19
 3021 02ae 01       		.uleb128 0x1
 3022 02af 13       		.uleb128 0x13
 3023 02b0 00       		.byte	0
 3024 02b1 00       		.byte	0
 3025 02b2 33       		.uleb128 0x33
 3026 02b3 2E       		.uleb128 0x2e
 3027 02b4 01       		.byte	0x1
 3028 02b5 3F       		.uleb128 0x3f
 3029 02b6 19       		.uleb128 0x19
 3030 02b7 03       		.uleb128 0x3
 3031 02b8 0E       		.uleb128 0xe
 3032 02b9 3A       		.uleb128 0x3a
 3033 02ba 0B       		.uleb128 0xb
 3034 02bb 3B       		.uleb128 0x3b
 3035 02bc 05       		.uleb128 0x5
 3036 02bd 27       		.uleb128 0x27
 3037 02be 19       		.uleb128 0x19
 3038 02bf 49       		.uleb128 0x49
 3039 02c0 13       		.uleb128 0x13
 3040 02c1 3C       		.uleb128 0x3c
 3041 02c2 19       		.uleb128 0x19
 3042 02c3 01       		.uleb128 0x1
 3043 02c4 13       		.uleb128 0x13
 3044 02c5 00       		.byte	0
 3045 02c6 00       		.byte	0
 3046 02c7 34       		.uleb128 0x34
 3047 02c8 2E       		.uleb128 0x2e
 3048 02c9 01       		.byte	0x1
 3049 02ca 3F       		.uleb128 0x3f
 3050 02cb 19       		.uleb128 0x19
 3051 02cc 03       		.uleb128 0x3
 3052 02cd 0E       		.uleb128 0xe
 3053 02ce 3A       		.uleb128 0x3a
ARM GAS  /tmp/ccNKEMry.s 			page 55


 3054 02cf 0B       		.uleb128 0xb
 3055 02d0 3B       		.uleb128 0x3b
 3056 02d1 05       		.uleb128 0x5
 3057 02d2 27       		.uleb128 0x27
 3058 02d3 19       		.uleb128 0x19
 3059 02d4 3C       		.uleb128 0x3c
 3060 02d5 19       		.uleb128 0x19
 3061 02d6 00       		.byte	0
 3062 02d7 00       		.byte	0
 3063 02d8 00       		.byte	0
 3064              		.section	.debug_loc,"",%progbits
 3065              	.Ldebug_loc0:
 3066              	.LLST0:
 3067 0000 00000000 		.4byte	.LVL0
 3068 0004 09000000 		.4byte	.LVL1-1
 3069 0008 0100     		.2byte	0x1
 3070 000a 50       		.byte	0x50
 3071 000b 09000000 		.4byte	.LVL1-1
 3072 000f 0A000000 		.4byte	.LFE57
 3073 0013 0400     		.2byte	0x4
 3074 0015 F3       		.byte	0xf3
 3075 0016 01       		.uleb128 0x1
 3076 0017 50       		.byte	0x50
 3077 0018 9F       		.byte	0x9f
 3078 0019 00000000 		.4byte	0
 3079 001d 00000000 		.4byte	0
 3080              	.LLST1:
 3081 0021 00000000 		.4byte	.LVL0
 3082 0025 09000000 		.4byte	.LVL1-1
 3083 0029 0100     		.2byte	0x1
 3084 002b 51       		.byte	0x51
 3085 002c 09000000 		.4byte	.LVL1-1
 3086 0030 0A000000 		.4byte	.LFE57
 3087 0034 0400     		.2byte	0x4
 3088 0036 F3       		.byte	0xf3
 3089 0037 01       		.uleb128 0x1
 3090 0038 51       		.byte	0x51
 3091 0039 9F       		.byte	0x9f
 3092 003a 00000000 		.4byte	0
 3093 003e 00000000 		.4byte	0
 3094              	.LLST2:
 3095 0042 00000000 		.4byte	.LVL2
 3096 0046 08000000 		.4byte	.LVL3
 3097 004a 0100     		.2byte	0x1
 3098 004c 50       		.byte	0x50
 3099 004d 08000000 		.4byte	.LVL3
 3100 0051 6E000000 		.4byte	.LVL8
 3101 0055 0100     		.2byte	0x1
 3102 0057 54       		.byte	0x54
 3103 0058 6E000000 		.4byte	.LVL8
 3104 005c 71000000 		.4byte	.LVL9-1
 3105 0060 0100     		.2byte	0x1
 3106 0062 50       		.byte	0x50
 3107 0063 71000000 		.4byte	.LVL9-1
 3108 0067 74000000 		.4byte	.LFE56
 3109 006b 0100     		.2byte	0x1
 3110 006d 54       		.byte	0x54
ARM GAS  /tmp/ccNKEMry.s 			page 56


 3111 006e 00000000 		.4byte	0
 3112 0072 00000000 		.4byte	0
 3113              	.LLST3:
 3114 0076 00000000 		.4byte	.LVL2
 3115 007a 08000000 		.4byte	.LVL3
 3116 007e 0100     		.2byte	0x1
 3117 0080 51       		.byte	0x51
 3118 0081 08000000 		.4byte	.LVL3
 3119 0085 6E000000 		.4byte	.LVL8
 3120 0089 0400     		.2byte	0x4
 3121 008b F3       		.byte	0xf3
 3122 008c 01       		.uleb128 0x1
 3123 008d 51       		.byte	0x51
 3124 008e 9F       		.byte	0x9f
 3125 008f 6E000000 		.4byte	.LVL8
 3126 0093 71000000 		.4byte	.LVL9-1
 3127 0097 0100     		.2byte	0x1
 3128 0099 51       		.byte	0x51
 3129 009a 71000000 		.4byte	.LVL9-1
 3130 009e 74000000 		.4byte	.LFE56
 3131 00a2 0400     		.2byte	0x4
 3132 00a4 F3       		.byte	0xf3
 3133 00a5 01       		.uleb128 0x1
 3134 00a6 51       		.byte	0x51
 3135 00a7 9F       		.byte	0x9f
 3136 00a8 00000000 		.4byte	0
 3137 00ac 00000000 		.4byte	0
 3138              	.LLST4:
 3139 00b0 56000000 		.4byte	.LVL5
 3140 00b4 61000000 		.4byte	.LVL6-1
 3141 00b8 0100     		.2byte	0x1
 3142 00ba 53       		.byte	0x53
 3143 00bb 00000000 		.4byte	0
 3144 00bf 00000000 		.4byte	0
 3145              	.LLST5:
 3146 00c3 00000000 		.4byte	.LVL12
 3147 00c7 0A000000 		.4byte	.LVL13
 3148 00cb 0100     		.2byte	0x1
 3149 00cd 50       		.byte	0x50
 3150 00ce 0A000000 		.4byte	.LVL13
 3151 00d2 56000000 		.4byte	.LVL14
 3152 00d6 0100     		.2byte	0x1
 3153 00d8 54       		.byte	0x54
 3154 00d9 56000000 		.4byte	.LVL14
 3155 00dd 62000000 		.4byte	.LVL15
 3156 00e1 0100     		.2byte	0x1
 3157 00e3 50       		.byte	0x50
 3158 00e4 62000000 		.4byte	.LVL15
 3159 00e8 78000000 		.4byte	.LVL16
 3160 00ec 0100     		.2byte	0x1
 3161 00ee 54       		.byte	0x54
 3162 00ef 78000000 		.4byte	.LVL16
 3163 00f3 80000000 		.4byte	.LVL17
 3164 00f7 0100     		.2byte	0x1
 3165 00f9 50       		.byte	0x50
 3166 00fa 80000000 		.4byte	.LVL17
 3167 00fe 9C000000 		.4byte	.LVL20
ARM GAS  /tmp/ccNKEMry.s 			page 57


 3168 0102 0100     		.2byte	0x1
 3169 0104 54       		.byte	0x54
 3170 0105 9C000000 		.4byte	.LVL20
 3171 0109 A4000000 		.4byte	.LVL21
 3172 010d 0100     		.2byte	0x1
 3173 010f 50       		.byte	0x50
 3174 0110 A4000000 		.4byte	.LVL21
 3175 0114 D4000000 		.4byte	.LFE59
 3176 0118 0100     		.2byte	0x1
 3177 011a 54       		.byte	0x54
 3178 011b 00000000 		.4byte	0
 3179 011f 00000000 		.4byte	0
 3180              	.LLST6:
 3181 0123 00000000 		.4byte	.LVL24
 3182 0127 0A000000 		.4byte	.LVL25
 3183 012b 0100     		.2byte	0x1
 3184 012d 50       		.byte	0x50
 3185 012e 0A000000 		.4byte	.LVL25
 3186 0132 0C000000 		.4byte	.LVL26
 3187 0136 0100     		.2byte	0x1
 3188 0138 54       		.byte	0x54
 3189 0139 0C000000 		.4byte	.LVL26
 3190 013d 18000000 		.4byte	.LVL27
 3191 0141 0100     		.2byte	0x1
 3192 0143 50       		.byte	0x50
 3193 0144 18000000 		.4byte	.LVL27
 3194 0148 46000000 		.4byte	.LVL30
 3195 014c 0100     		.2byte	0x1
 3196 014e 54       		.byte	0x54
 3197 014f 46000000 		.4byte	.LVL30
 3198 0153 54000000 		.4byte	.LFE60
 3199 0157 0400     		.2byte	0x4
 3200 0159 F3       		.byte	0xf3
 3201 015a 01       		.uleb128 0x1
 3202 015b 50       		.byte	0x50
 3203 015c 9F       		.byte	0x9f
 3204 015d 00000000 		.4byte	0
 3205 0161 00000000 		.4byte	0
 3206              	.LLST7:
 3207 0165 00000000 		.4byte	.LVL34
 3208 0169 28000000 		.4byte	.LVL37
 3209 016d 0100     		.2byte	0x1
 3210 016f 52       		.byte	0x52
 3211 0170 28000000 		.4byte	.LVL37
 3212 0174 50000000 		.4byte	.LFE64
 3213 0178 0400     		.2byte	0x4
 3214 017a F3       		.byte	0xf3
 3215 017b 01       		.uleb128 0x1
 3216 017c 52       		.byte	0x52
 3217 017d 9F       		.byte	0x9f
 3218 017e 00000000 		.4byte	0
 3219 0182 00000000 		.4byte	0
 3220              	.LLST8:
 3221 0186 00000000 		.4byte	.LVL34
 3222 018a 0A000000 		.4byte	.LVL35
 3223 018e 0100     		.2byte	0x1
 3224 0190 53       		.byte	0x53
ARM GAS  /tmp/ccNKEMry.s 			page 58


 3225 0191 0A000000 		.4byte	.LVL35
 3226 0195 0E000000 		.4byte	.LVL36
 3227 0199 0200     		.2byte	0x2
 3228 019b 74       		.byte	0x74
 3229 019c 0C       		.sleb128 12
 3230 019d 0E000000 		.4byte	.LVL36
 3231 01a1 50000000 		.4byte	.LFE64
 3232 01a5 0400     		.2byte	0x4
 3233 01a7 F3       		.byte	0xf3
 3234 01a8 01       		.uleb128 0x1
 3235 01a9 53       		.byte	0x53
 3236 01aa 9F       		.byte	0x9f
 3237 01ab 00000000 		.4byte	0
 3238 01af 00000000 		.4byte	0
 3239              	.LLST9:
 3240 01b3 00000000 		.4byte	.LVL38
 3241 01b7 26000000 		.4byte	.LVL39
 3242 01bb 0100     		.2byte	0x1
 3243 01bd 52       		.byte	0x52
 3244 01be 26000000 		.4byte	.LVL39
 3245 01c2 54000000 		.4byte	.LFE65
 3246 01c6 0400     		.2byte	0x4
 3247 01c8 F3       		.byte	0xf3
 3248 01c9 01       		.uleb128 0x1
 3249 01ca 52       		.byte	0x52
 3250 01cb 9F       		.byte	0x9f
 3251 01cc 00000000 		.4byte	0
 3252 01d0 00000000 		.4byte	0
 3253              	.LLST10:
 3254 01d4 00000000 		.4byte	.LVL40
 3255 01d8 12000000 		.4byte	.LVL41
 3256 01dc 0100     		.2byte	0x1
 3257 01de 52       		.byte	0x52
 3258 01df 12000000 		.4byte	.LVL41
 3259 01e3 54000000 		.4byte	.LFE66
 3260 01e7 0400     		.2byte	0x4
 3261 01e9 F3       		.byte	0xf3
 3262 01ea 01       		.uleb128 0x1
 3263 01eb 52       		.byte	0x52
 3264 01ec 9F       		.byte	0x9f
 3265 01ed 00000000 		.4byte	0
 3266 01f1 00000000 		.4byte	0
 3267              	.LLST11:
 3268 01f5 00000000 		.4byte	.LVL42
 3269 01f9 0E000000 		.4byte	.LVL43
 3270 01fd 0100     		.2byte	0x1
 3271 01ff 50       		.byte	0x50
 3272 0200 0E000000 		.4byte	.LVL43
 3273 0204 12000000 		.4byte	.LFE67
 3274 0208 0400     		.2byte	0x4
 3275 020a F3       		.byte	0xf3
 3276 020b 01       		.uleb128 0x1
 3277 020c 50       		.byte	0x50
 3278 020d 9F       		.byte	0x9f
 3279 020e 00000000 		.4byte	0
 3280 0212 00000000 		.4byte	0
 3281              		.section	.debug_aranges,"",%progbits
ARM GAS  /tmp/ccNKEMry.s 			page 59


 3282 0000 74000000 		.4byte	0x74
 3283 0004 0200     		.2byte	0x2
 3284 0006 00000000 		.4byte	.Ldebug_info0
 3285 000a 04       		.byte	0x4
 3286 000b 00       		.byte	0
 3287 000c 0000     		.2byte	0
 3288 000e 0000     		.2byte	0
 3289 0010 00000000 		.4byte	.LFB57
 3290 0014 0A000000 		.4byte	.LFE57-.LFB57
 3291 0018 00000000 		.4byte	.LFB56
 3292 001c 74000000 		.4byte	.LFE56-.LFB56
 3293 0020 00000000 		.4byte	.LFB58
 3294 0024 68000000 		.4byte	.LFE58-.LFB58
 3295 0028 00000000 		.4byte	.LFB59
 3296 002c D4000000 		.4byte	.LFE59-.LFB59
 3297 0030 00000000 		.4byte	.LFB60
 3298 0034 54000000 		.4byte	.LFE60-.LFB60
 3299 0038 00000000 		.4byte	.LFB61
 3300 003c 10000000 		.4byte	.LFE61-.LFB61
 3301 0040 00000000 		.4byte	.LFB62
 3302 0044 10000000 		.4byte	.LFE62-.LFB62
 3303 0048 00000000 		.4byte	.LFB63
 3304 004c 54000000 		.4byte	.LFE63-.LFB63
 3305 0050 00000000 		.4byte	.LFB64
 3306 0054 50000000 		.4byte	.LFE64-.LFB64
 3307 0058 00000000 		.4byte	.LFB65
 3308 005c 54000000 		.4byte	.LFE65-.LFB65
 3309 0060 00000000 		.4byte	.LFB66
 3310 0064 54000000 		.4byte	.LFE66-.LFB66
 3311 0068 00000000 		.4byte	.LFB67
 3312 006c 12000000 		.4byte	.LFE67-.LFB67
 3313 0070 00000000 		.4byte	0
 3314 0074 00000000 		.4byte	0
 3315              		.section	.debug_ranges,"",%progbits
 3316              	.Ldebug_ranges0:
 3317 0000 00000000 		.4byte	.LFB57
 3318 0004 0A000000 		.4byte	.LFE57
 3319 0008 00000000 		.4byte	.LFB56
 3320 000c 74000000 		.4byte	.LFE56
 3321 0010 00000000 		.4byte	.LFB58
 3322 0014 68000000 		.4byte	.LFE58
 3323 0018 00000000 		.4byte	.LFB59
 3324 001c D4000000 		.4byte	.LFE59
 3325 0020 00000000 		.4byte	.LFB60
 3326 0024 54000000 		.4byte	.LFE60
 3327 0028 00000000 		.4byte	.LFB61
 3328 002c 10000000 		.4byte	.LFE61
 3329 0030 00000000 		.4byte	.LFB62
 3330 0034 10000000 		.4byte	.LFE62
 3331 0038 00000000 		.4byte	.LFB63
 3332 003c 54000000 		.4byte	.LFE63
 3333 0040 00000000 		.4byte	.LFB64
 3334 0044 50000000 		.4byte	.LFE64
 3335 0048 00000000 		.4byte	.LFB65
 3336 004c 54000000 		.4byte	.LFE65
 3337 0050 00000000 		.4byte	.LFB66
 3338 0054 54000000 		.4byte	.LFE66
ARM GAS  /tmp/ccNKEMry.s 			page 60


 3339 0058 00000000 		.4byte	.LFB67
 3340 005c 12000000 		.4byte	.LFE67
 3341 0060 00000000 		.4byte	0
 3342 0064 00000000 		.4byte	0
 3343              		.section	.debug_line,"",%progbits
 3344              	.Ldebug_line0:
 3345 0000 7A030000 		.section	.debug_str,"MS",%progbits,1
 3345      02000702 
 3345      00000201 
 3345      FB0E0D00 
 3345      01010101 
 3346              	.LASF2:
 3347 0000 73697A65 		.ascii	"size_t\000"
 3347      5F7400
 3348              	.LASF50:
 3349 0007 7264796D 		.ascii	"rdymsg\000"
 3349      736700
 3350              	.LASF3:
 3351 000e 5F5F7569 		.ascii	"__uint8_t\000"
 3351      6E74385F 
 3351      7400
 3352              	.LASF96:
 3353 0018 5350495F 		.ascii	"SPI_ACTIVE\000"
 3353      41435449 
 3353      564500
 3354              	.LASF91:
 3355 0023 696F706F 		.ascii	"ioportmask_t\000"
 3355      72746D61 
 3355      736B5F74 
 3355      00
 3356              	.LASF104:
 3357 0030 646D6172 		.ascii	"dmarx\000"
 3357      7800
 3358              	.LASF111:
 3359 0036 73737061 		.ascii	"sspad\000"
 3359      6400
 3360              	.LASF13:
 3361 003c 6C6F6E67 		.ascii	"long long unsigned int\000"
 3361      206C6F6E 
 3361      6720756E 
 3361      7369676E 
 3361      65642069 
 3362              	.LASF73:
 3363 0053 43524350 		.ascii	"CRCPR\000"
 3363      5200
 3364              	.LASF128:
 3365 0059 6672616D 		.ascii	"frame\000"
 3365      6500
 3366              	.LASF51:
 3367 005f 65786974 		.ascii	"exitcode\000"
 3367      636F6465 
 3367      00
 3368              	.LASF88:
 3369 0068 76656374 		.ascii	"vector\000"
 3369      6F7200
 3370              	.LASF132:
 3371 006f 5F73746D 		.ascii	"_stm32_dma_streams\000"
ARM GAS  /tmp/ccNKEMry.s 			page 61


 3371      33325F64 
 3371      6D615F73 
 3371      74726561 
 3371      6D7300
 3372              	.LASF99:
 3373 0082 53504944 		.ascii	"SPIDriver\000"
 3373      72697665 
 3373      7200
 3374              	.LASF110:
 3375 008c 7373706F 		.ascii	"ssport\000"
 3375      727400
 3376              	.LASF131:
 3377 0093 49544D5F 		.ascii	"ITM_RxBuffer\000"
 3377      52784275 
 3377      66666572 
 3377      00
 3378              	.LASF125:
 3379 00a0 72786275 		.ascii	"rxbuf\000"
 3379      6600
 3380              	.LASF29:
 3381 00a6 705F7072 		.ascii	"p_prio\000"
 3381      696F00
 3382              	.LASF12:
 3383 00ad 6C6F6E67 		.ascii	"long long int\000"
 3383      206C6F6E 
 3383      6720696E 
 3383      7400
 3384              	.LASF1:
 3385 00bb 7369676E 		.ascii	"signed char\000"
 3385      65642063 
 3385      68617200 
 3386              	.LASF58:
 3387 00c7 42535252 		.ascii	"BSRR\000"
 3387      00
 3388              	.LASF94:
 3389 00cc 5350495F 		.ascii	"SPI_STOP\000"
 3389      53544F50 
 3389      00
 3390              	.LASF79:
 3391 00d5 49325343 		.ascii	"I2SCFGR\000"
 3391      46475200 
 3392              	.LASF18:
 3393 00dd 626F6F6C 		.ascii	"bool_t\000"
 3393      5F7400
 3394              	.LASF47:
 3395 00e4 6D5F7175 		.ascii	"m_queue\000"
 3395      65756500 
 3396              	.LASF22:
 3397 00ec 74736C69 		.ascii	"tslices_t\000"
 3397      6365735F 
 3397      7400
 3398              	.LASF100:
 3399 00f6 73746174 		.ascii	"state\000"
 3399      6500
 3400              	.LASF9:
 3401 00fc 6C6F6E67 		.ascii	"long int\000"
 3401      20696E74 
ARM GAS  /tmp/ccNKEMry.s 			page 62


 3401      00
 3402              	.LASF116:
 3403 0105 7370695F 		.ascii	"spi_lld_serve_rx_interrupt\000"
 3403      6C6C645F 
 3403      73657276 
 3403      655F7278 
 3403      5F696E74 
 3404              	.LASF62:
 3405 0120 41504232 		.ascii	"APB2RSTR\000"
 3405      52535452 
 3405      00
 3406              	.LASF21:
 3407 0129 74737461 		.ascii	"tstate_t\000"
 3407      74655F74 
 3407      00
 3408              	.LASF123:
 3409 0132 7370695F 		.ascii	"spi_lld_exchange\000"
 3409      6C6C645F 
 3409      65786368 
 3409      616E6765 
 3409      00
 3410              	.LASF15:
 3411 0143 75696E74 		.ascii	"uint16_t\000"
 3411      31365F74 
 3411      00
 3412              	.LASF141:
 3413 014c 706F7274 		.ascii	"port_halt\000"
 3413      5F68616C 
 3413      7400
 3414              	.LASF109:
 3415 0156 656E645F 		.ascii	"end_cb\000"
 3415      636200
 3416              	.LASF106:
 3417 015d 7278646D 		.ascii	"rxdmamode\000"
 3417      616D6F64 
 3417      6500
 3418              	.LASF105:
 3419 0167 646D6174 		.ascii	"dmatx\000"
 3419      7800
 3420              	.LASF10:
 3421 016d 5F5F7569 		.ascii	"__uint32_t\000"
 3421      6E743332 
 3421      5F7400
 3422              	.LASF42:
 3423 0178 72656761 		.ascii	"regarm_t\000"
 3423      726D5F74 
 3423      00
 3424              	.LASF87:
 3425 0181 73656C66 		.ascii	"selfindex\000"
 3425      696E6465 
 3425      7800
 3426              	.LASF108:
 3427 018b 73706963 		.ascii	"spicallback_t\000"
 3427      616C6C62 
 3427      61636B5F 
 3427      7400
 3428              	.LASF126:
ARM GAS  /tmp/ccNKEMry.s 			page 63


 3429 0199 7370695F 		.ascii	"spi_lld_send\000"
 3429      6C6C645F 
 3429      73656E64 
 3429      00
 3430              	.LASF0:
 3431 01a6 756E7369 		.ascii	"unsigned int\000"
 3431      676E6564 
 3431      20696E74 
 3431      00
 3432              	.LASF121:
 3433 01b3 7370695F 		.ascii	"spi_lld_unselect\000"
 3433      6C6C645F 
 3433      756E7365 
 3433      6C656374 
 3433      00
 3434              	.LASF124:
 3435 01c4 74786275 		.ascii	"txbuf\000"
 3435      6600
 3436              	.LASF139:
 3437 01ca 2F686F6D 		.ascii	"/home/dltech-deb/gdrive/Projects/RFM_to_Modbus_TCP/"
 3437      652F646C 
 3437      74656368 
 3437      2D646562 
 3437      2F676472 
 3438 01fd 43686962 		.ascii	"ChibiOS/F103_ChibiOS_ENC60J28/main\000"
 3438      694F532F 
 3438      46313033 
 3438      5F436869 
 3438      62694F53 
 3439              	.LASF55:
 3440 0220 43504152 		.ascii	"CPAR\000"
 3440      00
 3441              	.LASF90:
 3442 0225 73746D33 		.ascii	"stm32_dmaisr_t\000"
 3442      325F646D 
 3442      61697372 
 3442      5F7400
 3443              	.LASF35:
 3444 0234 705F6D73 		.ascii	"p_msgqueue\000"
 3444      67717565 
 3444      756500
 3445              	.LASF60:
 3446 023f 4750494F 		.ascii	"GPIO_TypeDef\000"
 3446      5F547970 
 3446      65446566 
 3446      00
 3447              	.LASF68:
 3448 024c 5243435F 		.ascii	"RCC_TypeDef\000"
 3448      54797065 
 3448      44656600 
 3449              	.LASF59:
 3450 0258 4C434B52 		.ascii	"LCKR\000"
 3450      00
 3451              	.LASF86:
 3452 025d 69736869 		.ascii	"ishift\000"
 3452      667400
 3453              	.LASF44:
ARM GAS  /tmp/ccNKEMry.s 			page 64


 3454 0264 636F6E74 		.ascii	"context\000"
 3454      65787400 
 3455              	.LASF7:
 3456 026c 73686F72 		.ascii	"short unsigned int\000"
 3456      7420756E 
 3456      7369676E 
 3456      65642069 
 3456      6E7400
 3457              	.LASF24:
 3458 027f 6D73675F 		.ascii	"msg_t\000"
 3458      7400
 3459              	.LASF130:
 3460 0285 64756D6D 		.ascii	"dummyrx\000"
 3460      79727800 
 3461              	.LASF20:
 3462 028d 746D6F64 		.ascii	"tmode_t\000"
 3462      655F7400 
 3463              	.LASF41:
 3464 0295 54687265 		.ascii	"ThreadsList\000"
 3464      6164734C 
 3464      69737400 
 3465              	.LASF25:
 3466 02a1 6576656E 		.ascii	"eventmask_t\000"
 3466      746D6173 
 3466      6B5F7400 
 3467              	.LASF138:
 3468 02ad 2E2E2F6F 		.ascii	"../os/hal/platforms/STM32/SPIv1/spi_lld.c\000"
 3468      732F6861 
 3468      6C2F706C 
 3468      6174666F 
 3468      726D732F 
 3469              	.LASF56:
 3470 02d7 434D4152 		.ascii	"CMAR\000"
 3470      00
 3471              	.LASF117:
 3472 02dc 7370695F 		.ascii	"spi_lld_init\000"
 3472      6C6C645F 
 3472      696E6974 
 3472      00
 3473              	.LASF26:
 3474 02e9 54687265 		.ascii	"Thread\000"
 3474      616400
 3475              	.LASF127:
 3476 02f0 7370695F 		.ascii	"spi_lld_receive\000"
 3476      6C6C645F 
 3476      72656365 
 3476      69766500 
 3477              	.LASF81:
 3478 0300 49325350 		.ascii	"I2SPR\000"
 3478      5200
 3479              	.LASF45:
 3480 0306 73697A65 		.ascii	"sizetype\000"
 3480      74797065 
 3480      00
 3481              	.LASF46:
 3482 030f 4D757465 		.ascii	"Mutex\000"
 3482      7800
ARM GAS  /tmp/ccNKEMry.s 			page 65


 3483              	.LASF27:
 3484 0315 705F6E65 		.ascii	"p_next\000"
 3484      787400
 3485              	.LASF40:
 3486 031c 54687265 		.ascii	"ThreadsQueue\000"
 3486      61647351 
 3486      75657565 
 3486      00
 3487              	.LASF107:
 3488 0329 7478646D 		.ascii	"txdmamode\000"
 3488      616D6F64 
 3488      6500
 3489              	.LASF63:
 3490 0333 41504231 		.ascii	"APB1RSTR\000"
 3490      52535452 
 3490      00
 3491              	.LASF57:
 3492 033c 444D415F 		.ascii	"DMA_Channel_TypeDef\000"
 3492      4368616E 
 3492      6E656C5F 
 3492      54797065 
 3492      44656600 
 3493              	.LASF77:
 3494 0350 54584352 		.ascii	"TXCRCR\000"
 3494      435200
 3495              	.LASF69:
 3496 0357 52455345 		.ascii	"RESERVED0\000"
 3496      52564544 
 3496      3000
 3497              	.LASF70:
 3498 0361 52455345 		.ascii	"RESERVED1\000"
 3498      52564544 
 3498      3100
 3499              	.LASF71:
 3500 036b 52455345 		.ascii	"RESERVED2\000"
 3500      52564544 
 3500      3200
 3501              	.LASF72:
 3502 0375 52455345 		.ascii	"RESERVED3\000"
 3502      52564544 
 3502      3300
 3503              	.LASF74:
 3504 037f 52455345 		.ascii	"RESERVED4\000"
 3504      52564544 
 3504      3400
 3505              	.LASF28:
 3506 0389 705F7072 		.ascii	"p_prev\000"
 3506      657600
 3507              	.LASF78:
 3508 0390 52455345 		.ascii	"RESERVED6\000"
 3508      52564544 
 3508      3600
 3509              	.LASF80:
 3510 039a 52455345 		.ascii	"RESERVED7\000"
 3510      52564544 
 3510      3700
 3511              	.LASF82:
ARM GAS  /tmp/ccNKEMry.s 			page 66


 3512 03a4 52455345 		.ascii	"RESERVED8\000"
 3512      52564544 
 3512      3800
 3513              	.LASF23:
 3514 03ae 74707269 		.ascii	"tprio_t\000"
 3514      6F5F7400 
 3515              	.LASF137:
 3516 03b6 474E5520 		.ascii	"GNU C 4.8.4 20141219 (release) -mcpu=cortex-m3 -mno"
 3516      4320342E 
 3516      382E3420 
 3516      32303134 
 3516      31323139 
 3517 03e9 2D746875 		.ascii	"-thumb-interwork -mthumb -ggdb -O2 -fomit-frame-poi"
 3517      6D622D69 
 3517      6E746572 
 3517      776F726B 
 3517      202D6D74 
 3518 041c 6E746572 		.ascii	"nter -falign-functions=16 -ffunction-sections -fdat"
 3518      202D6661 
 3518      6C69676E 
 3518      2D66756E 
 3518      6374696F 
 3519 044f 612D7365 		.ascii	"a-sections -fno-common -fno-strict-aliasing\000"
 3519      6374696F 
 3519      6E73202D 
 3519      666E6F2D 
 3519      636F6D6D 
 3520              	.LASF103:
 3521 047b 6D757465 		.ascii	"mutex\000"
 3521      7800
 3522              	.LASF19:
 3523 0481 5F426F6F 		.ascii	"_Bool\000"
 3523      6C00
 3524              	.LASF16:
 3525 0487 696E7433 		.ascii	"int32_t\000"
 3525      325F7400 
 3526              	.LASF4:
 3527 048f 756E7369 		.ascii	"unsigned char\000"
 3527      676E6564 
 3527      20636861 
 3527      7200
 3528              	.LASF89:
 3529 049d 73746D33 		.ascii	"stm32_dma_stream_t\000"
 3529      325F646D 
 3529      615F7374 
 3529      7265616D 
 3529      5F7400
 3530              	.LASF133:
 3531 04b0 53504944 		.ascii	"SPID1\000"
 3531      3100
 3532              	.LASF134:
 3533 04b6 53504944 		.ascii	"SPID2\000"
 3533      3200
 3534              	.LASF129:
 3535 04bc 64756D6D 		.ascii	"dummytx\000"
 3535      79747800 
 3536              	.LASF31:
ARM GAS  /tmp/ccNKEMry.s 			page 67


 3537 04c4 705F7374 		.ascii	"p_state\000"
 3537      61746500 
 3538              	.LASF38:
 3539 04cc 705F6D74 		.ascii	"p_mtxlist\000"
 3539      786C6973 
 3539      7400
 3540              	.LASF5:
 3541 04d6 73686F72 		.ascii	"short int\000"
 3541      7420696E 
 3541      7400
 3542              	.LASF33:
 3543 04e0 705F7072 		.ascii	"p_preempt\000"
 3543      65656D70 
 3543      7400
 3544              	.LASF142:
 3545 04ea 7370694F 		.ascii	"spiObjectInit\000"
 3545      626A6563 
 3545      74496E69 
 3545      7400
 3546              	.LASF53:
 3547 04f8 65776D61 		.ascii	"ewmask\000"
 3547      736B00
 3548              	.LASF32:
 3549 04ff 705F666C 		.ascii	"p_flags\000"
 3549      61677300 
 3550              	.LASF65:
 3551 0507 41504232 		.ascii	"APB2ENR\000"
 3551      454E5200 
 3552              	.LASF84:
 3553 050f 6368616E 		.ascii	"channel\000"
 3553      6E656C00 
 3554              	.LASF37:
 3555 0517 705F6570 		.ascii	"p_epending\000"
 3555      656E6469 
 3555      6E6700
 3556              	.LASF85:
 3557 0522 69666372 		.ascii	"ifcr\000"
 3557      00
 3558              	.LASF61:
 3559 0527 43464752 		.ascii	"CFGR\000"
 3559      00
 3560              	.LASF76:
 3561 052c 52455345 		.ascii	"RESERVED5\000"
 3561      52564544 
 3561      3500
 3562              	.LASF17:
 3563 0536 75696E74 		.ascii	"uint32_t\000"
 3563      33325F74 
 3563      00
 3564              	.LASF135:
 3565 053f 63685363 		.ascii	"chSchReadyI\000"
 3565      68526561 
 3565      64794900 
 3566              	.LASF11:
 3567 054b 6C6F6E67 		.ascii	"long unsigned int\000"
 3567      20756E73 
 3567      69676E65 
ARM GAS  /tmp/ccNKEMry.s 			page 68


 3567      6420696E 
 3567      7400
 3568              	.LASF83:
 3569 055d 5350495F 		.ascii	"SPI_TypeDef\000"
 3569      54797065 
 3569      44656600 
 3570              	.LASF119:
 3571 0569 7370695F 		.ascii	"spi_lld_stop\000"
 3571      6C6C645F 
 3571      73746F70 
 3571      00
 3572              	.LASF143:
 3573 0576 646D6153 		.ascii	"dmaStreamRelease\000"
 3573      74726561 
 3573      6D52656C 
 3573      65617365 
 3573      00
 3574              	.LASF97:
 3575 0587 5350495F 		.ascii	"SPI_COMPLETE\000"
 3575      434F4D50 
 3575      4C455445 
 3575      00
 3576              	.LASF101:
 3577 0594 636F6E66 		.ascii	"config\000"
 3577      696700
 3578              	.LASF6:
 3579 059b 5F5F7569 		.ascii	"__uint16_t\000"
 3579      6E743136 
 3579      5F7400
 3580              	.LASF98:
 3581 05a6 73706973 		.ascii	"spistate_t\000"
 3581      74617465 
 3581      5F7400
 3582              	.LASF49:
 3583 05b1 6D5F6E65 		.ascii	"m_next\000"
 3583      787400
 3584              	.LASF39:
 3585 05b8 705F7265 		.ascii	"p_realprio\000"
 3585      616C7072 
 3585      696F00
 3586              	.LASF8:
 3587 05c3 5F5F696E 		.ascii	"__int32_t\000"
 3587      7433325F 
 3587      7400
 3588              	.LASF102:
 3589 05cd 74687265 		.ascii	"thread\000"
 3589      616400
 3590              	.LASF66:
 3591 05d4 41504231 		.ascii	"APB1ENR\000"
 3591      454E5200 
 3592              	.LASF92:
 3593 05dc 696F706F 		.ascii	"ioportid_t\000"
 3593      72746964 
 3593      5F7400
 3594              	.LASF120:
 3595 05e7 7370695F 		.ascii	"spi_lld_select\000"
 3595      6C6C645F 
ARM GAS  /tmp/ccNKEMry.s 			page 69


 3595      73656C65 
 3595      637400
 3596              	.LASF43:
 3597 05f6 696E7463 		.ascii	"intctx\000"
 3597      747800
 3598              	.LASF95:
 3599 05fd 5350495F 		.ascii	"SPI_READY\000"
 3599      52454144 
 3599      5900
 3600              	.LASF93:
 3601 0607 5350495F 		.ascii	"SPI_UNINIT\000"
 3601      554E494E 
 3601      495400
 3602              	.LASF122:
 3603 0612 7370695F 		.ascii	"spi_lld_ignore\000"
 3603      6C6C645F 
 3603      69676E6F 
 3603      726500
 3604              	.LASF54:
 3605 0621 434E4454 		.ascii	"CNDTR\000"
 3605      5200
 3606              	.LASF67:
 3607 0627 42444352 		.ascii	"BDCR\000"
 3607      00
 3608              	.LASF75:
 3609 062c 52584352 		.ascii	"RXCRCR\000"
 3609      435200
 3610              	.LASF118:
 3611 0633 7370695F 		.ascii	"spi_lld_start\000"
 3611      6C6C645F 
 3611      73746172 
 3611      7400
 3612              	.LASF14:
 3613 0641 75696E74 		.ascii	"uint8_t\000"
 3613      385F7400 
 3614              	.LASF113:
 3615 0649 73706970 		.ascii	"spip\000"
 3615      00
 3616              	.LASF114:
 3617 064e 666C6167 		.ascii	"flags\000"
 3617      7300
 3618              	.LASF52:
 3619 0654 77746F62 		.ascii	"wtobjp\000"
 3619      6A7000
 3620              	.LASF115:
 3621 065b 7370695F 		.ascii	"spi_lld_serve_tx_interrupt\000"
 3621      6C6C645F 
 3621      73657276 
 3621      655F7478 
 3621      5F696E74 
 3622              	.LASF140:
 3623 0676 7370695F 		.ascii	"spi_lld_polled_exchange\000"
 3623      6C6C645F 
 3623      706F6C6C 
 3623      65645F65 
 3623      78636861 
 3624              	.LASF112:
ARM GAS  /tmp/ccNKEMry.s 			page 70


 3625 068e 53504943 		.ascii	"SPIConfig\000"
 3625      6F6E6669 
 3625      6700
 3626              	.LASF36:
 3627 0698 705F6D73 		.ascii	"p_msg\000"
 3627      6700
 3628              	.LASF48:
 3629 069e 6D5F6F77 		.ascii	"m_owner\000"
 3629      6E657200 
 3630              	.LASF136:
 3631 06a6 646D6153 		.ascii	"dmaStreamAllocate\000"
 3631      74726561 
 3631      6D416C6C 
 3631      6F636174 
 3631      6500
 3632              	.LASF30:
 3633 06b8 705F6374 		.ascii	"p_ctx\000"
 3633      7800
 3634              	.LASF34:
 3635 06be 705F7761 		.ascii	"p_waiting\000"
 3635      6974696E 
 3635      6700
 3636              	.LASF64:
 3637 06c8 41484245 		.ascii	"AHBENR\000"
 3637      4E5200
 3638              		.ident	"GCC: (4.8.4-1+11-1) 4.8.4 20141219 (release)"
ARM GAS  /tmp/ccNKEMry.s 			page 71


DEFINED SYMBOLS
                            *ABS*:0000000000000000 spi_lld.c
     /tmp/ccNKEMry.s:19     .text.spi_lld_serve_tx_interrupt:0000000000000000 $t
     /tmp/ccNKEMry.s:24     .text.spi_lld_serve_tx_interrupt:0000000000000000 spi_lld_serve_tx_interrupt
     /tmp/ccNKEMry.s:45     .text.spi_lld_serve_rx_interrupt:0000000000000000 $t
     /tmp/ccNKEMry.s:50     .text.spi_lld_serve_rx_interrupt:0000000000000000 spi_lld_serve_rx_interrupt
     /tmp/ccNKEMry.s:146    .text.spi_lld_init:0000000000000000 $t
     /tmp/ccNKEMry.s:152    .text.spi_lld_init:0000000000000000 spi_lld_init
     /tmp/ccNKEMry.s:226    .text.spi_lld_init:0000000000000050 $d
     /tmp/ccNKEMry.s:236    .text.spi_lld_start:0000000000000000 $t
     /tmp/ccNKEMry.s:242    .text.spi_lld_start:0000000000000000 spi_lld_start
     /tmp/ccNKEMry.s:388    .text.spi_lld_start:00000000000000c0 $d
     /tmp/ccNKEMry.s:398    .text.spi_lld_stop:0000000000000000 $t
     /tmp/ccNKEMry.s:404    .text.spi_lld_stop:0000000000000000 spi_lld_stop
     /tmp/ccNKEMry.s:468    .text.spi_lld_stop:0000000000000048 $d
     /tmp/ccNKEMry.s:475    .text.spi_lld_select:0000000000000000 $t
     /tmp/ccNKEMry.s:481    .text.spi_lld_select:0000000000000000 spi_lld_select
     /tmp/ccNKEMry.s:501    .text.spi_lld_unselect:0000000000000000 $t
     /tmp/ccNKEMry.s:507    .text.spi_lld_unselect:0000000000000000 spi_lld_unselect
     /tmp/ccNKEMry.s:527    .text.spi_lld_ignore:0000000000000000 $t
     /tmp/ccNKEMry.s:533    .text.spi_lld_ignore:0000000000000000 spi_lld_ignore
     /tmp/ccNKEMry.s:592    .text.spi_lld_ignore:000000000000004c $d
     /tmp/ccNKEMry.s:598    .text.spi_lld_exchange:0000000000000000 $t
     /tmp/ccNKEMry.s:604    .text.spi_lld_exchange:0000000000000000 spi_lld_exchange
     /tmp/ccNKEMry.s:665    .text.spi_lld_send:0000000000000000 $t
     /tmp/ccNKEMry.s:671    .text.spi_lld_send:0000000000000000 spi_lld_send
     /tmp/ccNKEMry.s:729    .text.spi_lld_send:0000000000000050 $d
     /tmp/ccNKEMry.s:734    .text.spi_lld_receive:0000000000000000 $t
     /tmp/ccNKEMry.s:740    .text.spi_lld_receive:0000000000000000 spi_lld_receive
     /tmp/ccNKEMry.s:800    .text.spi_lld_receive:0000000000000050 $d
     /tmp/ccNKEMry.s:805    .text.spi_lld_polled_exchange:0000000000000000 $t
     /tmp/ccNKEMry.s:811    .text.spi_lld_polled_exchange:0000000000000000 spi_lld_polled_exchange
     /tmp/ccNKEMry.s:858    .bss.SPID2:0000000000000000 SPID2
     /tmp/ccNKEMry.s:851    .bss.SPID1:0000000000000000 SPID1
     /tmp/ccNKEMry.s:840    .bss.dummytx:0000000000000000 $d
     /tmp/ccNKEMry.s:844    .bss.dummytx:0000000000000000 dummytx
     /tmp/ccNKEMry.s:847    .bss.SPID1:0000000000000000 $d
     /tmp/ccNKEMry.s:854    .bss.SPID2:0000000000000000 $d
     /tmp/ccNKEMry.s:861    .bss.dummyrx:0000000000000000 $d
     /tmp/ccNKEMry.s:865    .bss.dummyrx:0000000000000000 dummyrx
                     .debug_frame:0000000000000010 $d
     /tmp/ccNKEMry.s:235    .text.spi_lld_init:0000000000000068 $t
     /tmp/ccNKEMry.s:397    .text.spi_lld_start:00000000000000d4 $t
     /tmp/ccNKEMry.s:474    .text.spi_lld_stop:0000000000000054 $t
     /tmp/ccNKEMry.s:597    .text.spi_lld_ignore:0000000000000054 $t
     /tmp/ccNKEMry.s:733    .text.spi_lld_send:0000000000000054 $t
     /tmp/ccNKEMry.s:804    .text.spi_lld_receive:0000000000000054 $t

UNDEFINED SYMBOLS
port_halt
_port_lock
chSchReadyI
_port_unlock
spiObjectInit
_stm32_dma_streams
dmaStreamAllocate
dmaStreamRelease
ARM GAS  /tmp/ccNKEMry.s 			page 72


