ARM GAS  /tmp/ccNKEMry.s 			page 1


   1              		.syntax unified
   2              		.cpu cortex-m3
   3              		.fpu softvfp
   4              		.eabi_attribute 20, 1
   5              		.eabi_attribute 21, 1
   6              		.eabi_attribute 23, 3
   7              		.eabi_attribute 24, 1
   8              		.eabi_attribute 25, 1
   9              		.eabi_attribute 26, 1
  10              		.eabi_attribute 30, 2
  11              		.eabi_attribute 34, 1
  12              		.eabi_attribute 18, 4
  13              		.thumb
  14              		.file	"spi_lld.c"
  15              		.text
  16              	.Ltext0:
  17              		.cfi_sections	.debug_frame
  18              		.section	.text.spi_lld_serve_tx_interrupt,"ax",%progbits
  19              		.align	2
  20              		.p2align 4,,15
  21              		.thumb
  22              		.thumb_func
  23              		.type	spi_lld_serve_tx_interrupt, %function
  24              	spi_lld_serve_tx_interrupt:
  25              	.LFB57:
  26              		.file 1 "../os/hal/platforms/STM32/SPIv1/spi_lld.c"
  27              		.loc 1 159 0
  28              		.cfi_startproc
  29              		@ args = 0, pretend = 0, frame = 0
  30              		@ frame_needed = 0, uses_anonymous_args = 0
  31              		@ link register save eliminated.
  32              	.LVL0:
  33              		.loc 1 164 0
  34 0000 0B07     		lsls	r3, r1, #28
  35 0002 00D4     		bmi	.L4
  36 0004 7047     		bx	lr
  37              	.L4:
  38              		.loc 1 165 0
  39 0006 FFF7FEBF 		b	port_halt
  40              	.LVL1:
  41              		.cfi_endproc
  42              	.LFE57:
  43              		.size	spi_lld_serve_tx_interrupt, .-spi_lld_serve_tx_interrupt
  44 000a 00BFAFF3 		.section	.text.spi_lld_serve_rx_interrupt,"ax",%progbits
  44      0080
  45              		.align	2
  46              		.p2align 4,,15
  47              		.thumb
  48              		.thumb_func
  49              		.type	spi_lld_serve_rx_interrupt, %function
  50              	spi_lld_serve_rx_interrupt:
  51              	.LFB56:
  52              		.loc 1 133 0
  53              		.cfi_startproc
  54              		@ args = 0, pretend = 0, frame = 0
  55              		@ frame_needed = 0, uses_anonymous_args = 0
  56              	.LVL2:
ARM GAS  /tmp/ccNKEMry.s 			page 2


  57              		.loc 1 137 0
  58 0000 0B07     		lsls	r3, r1, #28
  59              		.loc 1 133 0
  60 0002 10B5     		push	{r4, lr}
  61              		.cfi_def_cfa_offset 8
  62              		.cfi_offset 4, -8
  63              		.cfi_offset 14, -4
  64              		.loc 1 133 0
  65 0004 0446     		mov	r4, r0
  66              		.loc 1 137 0
  67 0006 32D4     		bmi	.L19
  68              	.LVL3:
  69              	.L6:
  70              		.loc 1 145 0
  71 0008 626A     		ldr	r2, [r4, #36]
  72 000a 0F23     		movs	r3, #15
  73 000c 1268     		ldr	r2, [r2]
  74 000e 1168     		ldr	r1, [r2]
  75 0010 21F00F01 		bic	r1, r1, #15
  76 0014 1160     		str	r1, [r2]
  77 0016 626A     		ldr	r2, [r4, #36]
  78 0018 117A     		ldrb	r1, [r2, #8]	@ zero_extendqisi2
  79 001a 5268     		ldr	r2, [r2, #4]
  80 001c 03FA01F1 		lsl	r1, r3, r1
  81 0020 1160     		str	r1, [r2]
  82              		.loc 1 146 0
  83 0022 226A     		ldr	r2, [r4, #32]
  84 0024 1268     		ldr	r2, [r2]
  85 0026 1168     		ldr	r1, [r2]
  86 0028 21F00F01 		bic	r1, r1, #15
  87 002c 1160     		str	r1, [r2]
  88 002e 226A     		ldr	r2, [r4, #32]
  89 0030 117A     		ldrb	r1, [r2, #8]	@ zero_extendqisi2
  90 0032 5268     		ldr	r2, [r2, #4]
  91 0034 8B40     		lsls	r3, r3, r1
  92 0036 1360     		str	r3, [r2]
  93              		.loc 1 150 0
  94 0038 6368     		ldr	r3, [r4, #4]
  95 003a 1A68     		ldr	r2, [r3]
  96 003c A2B1     		cbz	r2, .L7
  97              		.loc 1 150 0 is_stmt 0 discriminator 1
  98 003e 0422     		movs	r2, #4
  99 0040 2270     		strb	r2, [r4]
 100 0042 1B68     		ldr	r3, [r3]
 101 0044 2046     		mov	r0, r4
 102 0046 9847     		blx	r3
 103              	.LVL4:
 104 0048 2378     		ldrb	r3, [r4]	@ zero_extendqisi2
 105 004a 042B     		cmp	r3, #4
 106 004c 0CD0     		beq	.L7
 107              	.L8:
 108              	@ 150 "../os/hal/platforms/STM32/SPIv1/spi_lld.c" 1
 109 004e FFF7FEFF 		bl      _port_lock
 110              	@ 0 "" 2
 111              		.thumb
 112 0052 A368     		ldr	r3, [r4, #8]
 113 0054 2BB1     		cbz	r3, .L9
ARM GAS  /tmp/ccNKEMry.s 			page 3


 114              	.LVL5:
 115              	.LBB2:
 116 0056 0022     		movs	r2, #0
 117 0058 A260     		str	r2, [r4, #8]
 118 005a 1846     		mov	r0, r3
 119 005c 5A61     		str	r2, [r3, #20]
 120 005e FFF7FEFF 		bl	chSchReadyI
 121              	.LVL6:
 122              	.L9:
 123              	.LBE2:
 124              		.loc 1 150 0 discriminator 2
 125              	@ 150 "../os/hal/platforms/STM32/SPIv1/spi_lld.c" 1
 126 0062 FFF7FEFF 		bl      _port_unlock
 127              	@ 0 "" 2
 128              		.thumb
 129 0066 10BD     		pop	{r4, pc}
 130              	.LVL7:
 131              	.L7:
 132              		.loc 1 150 0 discriminator 1
 133 0068 0223     		movs	r3, #2
 134 006a 2370     		strb	r3, [r4]
 135 006c EFE7     		b	.L8
 136              	.LVL8:
 137              	.L19:
 138              		.loc 1 138 0 is_stmt 1
 139 006e FFF7FEFF 		bl	port_halt
 140              	.LVL9:
 141 0072 C9E7     		b	.L6
 142              		.cfi_endproc
 143              	.LFE56:
 144              		.size	spi_lld_serve_rx_interrupt, .-spi_lld_serve_rx_interrupt
 145 0074 AFF30080 		.section	.text.spi_lld_init,"ax",%progbits
 145      AFF30080 
 145      AFF30080 
 146              		.align	2
 147              		.p2align 4,,15
 148              		.global	spi_lld_init
 149              		.thumb
 150              		.thumb_func
 151              		.type	spi_lld_init, %function
 152              	spi_lld_init:
 153              	.LFB58:
 154              		.loc 1 186 0
 155              		.cfi_startproc
 156              		@ args = 0, pretend = 0, frame = 0
 157              		@ frame_needed = 0, uses_anonymous_args = 0
 158 0000 2DE9F041 		push	{r4, r5, r6, r7, r8, lr}
 159              		.cfi_def_cfa_offset 24
 160              		.cfi_offset 4, -24
 161              		.cfi_offset 5, -20
 162              		.cfi_offset 6, -16
 163              		.cfi_offset 7, -12
 164              		.cfi_offset 8, -8
 165              		.cfi_offset 14, -4
 166              		.loc 1 191 0
 167 0004 124D     		ldr	r5, .L21
 168              		.loc 1 188 0
ARM GAS  /tmp/ccNKEMry.s 			page 4


 169 0006 134B     		ldr	r3, .L21+4
 170              		.loc 1 209 0
 171 0008 134C     		ldr	r4, .L21+8
 172              		.loc 1 193 0
 173 000a 144E     		ldr	r6, .L21+12
 174              		.loc 1 188 0
 175 000c 4FF6FF72 		movw	r2, #65535
 176              		.loc 1 191 0
 177 0010 2846     		mov	r0, r5
 178              		.loc 1 188 0
 179 0012 1A80     		strh	r2, [r3]	@ movhi
 180              		.loc 1 191 0
 181 0014 FFF7FEFF 		bl	spiObjectInit
 182              	.LVL10:
 183              		.loc 1 192 0
 184 0018 114A     		ldr	r2, .L21+16
 185              		.loc 1 194 0
 186 001a 06F10C03 		add	r3, r6, #12
 187              		.loc 1 195 0
 188 001e 41F20A08 		movw	r8, #4106
 189              		.loc 1 201 0
 190 0022 41F21807 		movw	r7, #4120
 191              		.loc 1 209 0
 192 0026 2046     		mov	r0, r4
 193              		.loc 1 192 0
 194 0028 EA61     		str	r2, [r5, #28]
 195              		.loc 1 193 0
 196 002a 2E62     		str	r6, [r5, #32]
 197              		.loc 1 194 0
 198 002c 6B62     		str	r3, [r5, #36]
 199              		.loc 1 195 0
 200 002e C5F82880 		str	r8, [r5, #40]
 201              		.loc 1 201 0
 202 0032 EF62     		str	r7, [r5, #44]
 203              		.loc 1 209 0
 204 0034 FFF7FEFF 		bl	spiObjectInit
 205              	.LVL11:
 206              		.loc 1 210 0
 207 0038 0A4A     		ldr	r2, .L21+20
 208              		.loc 1 211 0
 209 003a 06F11803 		add	r3, r6, #24
 210              		.loc 1 212 0
 211 003e 2436     		adds	r6, r6, #36
 212              		.loc 1 213 0
 213 0040 C4F82880 		str	r8, [r4, #40]
 214              		.loc 1 219 0
 215 0044 E762     		str	r7, [r4, #44]
 216              		.loc 1 210 0
 217 0046 E261     		str	r2, [r4, #28]
 218              		.loc 1 211 0
 219 0048 2362     		str	r3, [r4, #32]
 220              		.loc 1 212 0
 221 004a 6662     		str	r6, [r4, #36]
 222 004c BDE8F081 		pop	{r4, r5, r6, r7, r8, pc}
 223              	.L22:
 224              		.align	2
 225              	.L21:
ARM GAS  /tmp/ccNKEMry.s 			page 5


 226 0050 00000000 		.word	.LANCHOR1
 227 0054 00000000 		.word	.LANCHOR0
 228 0058 00000000 		.word	.LANCHOR2
 229 005c 0C000000 		.word	_stm32_dma_streams+12
 230 0060 00300140 		.word	1073819648
 231 0064 00380040 		.word	1073756160
 232              		.cfi_endproc
 233              	.LFE58:
 234              		.size	spi_lld_init, .-spi_lld_init
 235 0068 AFF30080 		.section	.text.spi_lld_start,"ax",%progbits
 235      AFF30080 
 236              		.align	2
 237              		.p2align 4,,15
 238              		.global	spi_lld_start
 239              		.thumb
 240              		.thumb_func
 241              		.type	spi_lld_start, %function
 242              	spi_lld_start:
 243              	.LFB59:
 244              		.loc 1 306 0
 245              		.cfi_startproc
 246              		@ args = 0, pretend = 0, frame = 0
 247              		@ frame_needed = 0, uses_anonymous_args = 0
 248              	.LVL12:
 249 0000 10B5     		push	{r4, lr}
 250              		.cfi_def_cfa_offset 8
 251              		.cfi_offset 4, -8
 252              		.cfi_offset 14, -4
 253              		.loc 1 309 0
 254 0002 0378     		ldrb	r3, [r0]	@ zero_extendqisi2
 255              		.loc 1 306 0
 256 0004 0446     		mov	r4, r0
 257              		.loc 1 309 0
 258 0006 012B     		cmp	r3, #1
 259 0008 25D0     		beq	.L30
 260              	.LVL13:
 261              	.L24:
 262              		.loc 1 413 0
 263 000a 6368     		ldr	r3, [r4, #4]
 264              		.loc 1 416 0
 265 000c A26A     		ldr	r2, [r4, #40]
 266              		.loc 1 413 0
 267 000e 5B89     		ldrh	r3, [r3, #10]
 268              		.loc 1 416 0
 269 0010 22F47062 		bic	r2, r2, #3840
 270              		.loc 1 413 0
 271 0014 13F4006F 		tst	r3, #2048
 272              		.loc 1 418 0
 273 0018 E36A     		ldr	r3, [r4, #44]
 274              		.loc 1 423 0
 275 001a 18BF     		it	ne
 276 001c 42F4A062 		orrne	r2, r2, #1280
 277              		.loc 1 418 0
 278 0020 23F47063 		bic	r3, r3, #3840
 279              		.loc 1 425 0
 280 0024 18BF     		it	ne
 281 0026 43F4A063 		orrne	r3, r3, #1280
ARM GAS  /tmp/ccNKEMry.s 			page 6


 282              		.loc 1 424 0
 283 002a E362     		str	r3, [r4, #44]
 284              		.loc 1 428 0
 285 002c E369     		ldr	r3, [r4, #28]
 286              		.loc 1 422 0
 287 002e A262     		str	r2, [r4, #40]
 288              		.loc 1 428 0
 289 0030 0022     		movs	r2, #0
 290 0032 1A80     		strh	r2, [r3]	@ movhi
 291              		.loc 1 429 0
 292 0034 6268     		ldr	r2, [r4, #4]
 293 0036 E369     		ldr	r3, [r4, #28]
 294 0038 5189     		ldrh	r1, [r2, #10]
 295              		.loc 1 431 0
 296 003a 0722     		movs	r2, #7
 297              		.loc 1 429 0
 298 003c 41F44171 		orr	r1, r1, #772
 299 0040 89B2     		uxth	r1, r1
 300 0042 1980     		strh	r1, [r3]	@ movhi
 301              		.loc 1 431 0
 302 0044 E369     		ldr	r3, [r4, #28]
 303 0046 9A80     		strh	r2, [r3, #4]	@ movhi
 304              		.loc 1 432 0
 305 0048 E369     		ldr	r3, [r4, #28]
 306 004a 1A88     		ldrh	r2, [r3]
 307 004c 92B2     		uxth	r2, r2
 308 004e 42F04002 		orr	r2, r2, #64
 309 0052 1A80     		strh	r2, [r3]	@ movhi
 310 0054 10BD     		pop	{r4, pc}
 311              	.LVL14:
 312              	.L30:
 313              		.loc 1 311 0
 314 0056 1A4B     		ldr	r3, .L33
 315 0058 9842     		cmp	r0, r3
 316 005a 0DD0     		beq	.L31
 317              		.loc 1 327 0
 318 005c 194B     		ldr	r3, .L33+4
 319 005e 9842     		cmp	r0, r3
 320 0060 1CD0     		beq	.L32
 321              	.LVL15:
 322              	.L26:
 323              		.loc 1 408 0
 324 0062 226A     		ldr	r2, [r4, #32]
 325 0064 E369     		ldr	r3, [r4, #28]
 326 0066 1268     		ldr	r2, [r2]
 327 0068 0C33     		adds	r3, r3, #12
 328 006a 9360     		str	r3, [r2, #8]
 329              		.loc 1 409 0
 330 006c 626A     		ldr	r2, [r4, #36]
 331 006e E369     		ldr	r3, [r4, #28]
 332 0070 1268     		ldr	r2, [r2]
 333 0072 0C33     		adds	r3, r3, #12
 334 0074 9360     		str	r3, [r2, #8]
 335 0076 C8E7     		b	.L24
 336              	.LVL16:
 337              	.L31:
 338              	.LBB3:
ARM GAS  /tmp/ccNKEMry.s 			page 7


 339              		.loc 1 313 0
 340 0078 0A21     		movs	r1, #10
 341 007a 134A     		ldr	r2, .L33+8
 342 007c 2346     		mov	r3, r4
 343 007e 006A     		ldr	r0, [r0, #32]
 344              	.LVL17:
 345 0080 FFF7FEFF 		bl	dmaStreamAllocate
 346              	.LVL18:
 347              		.loc 1 318 0
 348 0084 114A     		ldr	r2, .L33+12
 349 0086 2346     		mov	r3, r4
 350 0088 606A     		ldr	r0, [r4, #36]
 351 008a 0A21     		movs	r1, #10
 352 008c FFF7FEFF 		bl	dmaStreamAllocate
 353              	.LVL19:
 354              		.loc 1 323 0
 355 0090 0F4B     		ldr	r3, .L33+16
 356 0092 9A69     		ldr	r2, [r3, #24]
 357 0094 42F48052 		orr	r2, r2, #4096
 358 0098 9A61     		str	r2, [r3, #24]
 359 009a E2E7     		b	.L26
 360              	.LVL20:
 361              	.L32:
 362              	.LBE3:
 363              	.LBB4:
 364              		.loc 1 329 0
 365 009c 0A21     		movs	r1, #10
 366 009e 0A4A     		ldr	r2, .L33+8
 367 00a0 2346     		mov	r3, r4
 368 00a2 006A     		ldr	r0, [r0, #32]
 369              	.LVL21:
 370 00a4 FFF7FEFF 		bl	dmaStreamAllocate
 371              	.LVL22:
 372              		.loc 1 334 0
 373 00a8 084A     		ldr	r2, .L33+12
 374 00aa 2346     		mov	r3, r4
 375 00ac 606A     		ldr	r0, [r4, #36]
 376 00ae 0A21     		movs	r1, #10
 377 00b0 FFF7FEFF 		bl	dmaStreamAllocate
 378              	.LVL23:
 379              		.loc 1 339 0
 380 00b4 064B     		ldr	r3, .L33+16
 381 00b6 DA69     		ldr	r2, [r3, #28]
 382 00b8 42F48042 		orr	r2, r2, #16384
 383 00bc DA61     		str	r2, [r3, #28]
 384 00be D0E7     		b	.L26
 385              	.L34:
 386              		.align	2
 387              	.L33:
 388 00c0 00000000 		.word	.LANCHOR1
 389 00c4 00000000 		.word	.LANCHOR2
 390 00c8 00000000 		.word	spi_lld_serve_rx_interrupt
 391 00cc 00000000 		.word	spi_lld_serve_tx_interrupt
 392 00d0 00100240 		.word	1073876992
 393              	.LBE4:
 394              		.cfi_endproc
 395              	.LFE59:
ARM GAS  /tmp/ccNKEMry.s 			page 8


 396              		.size	spi_lld_start, .-spi_lld_start
 397 00d4 AFF30080 		.section	.text.spi_lld_stop,"ax",%progbits
 397      AFF30080 
 397      AFF30080 
 398              		.align	2
 399              		.p2align 4,,15
 400              		.global	spi_lld_stop
 401              		.thumb
 402              		.thumb_func
 403              		.type	spi_lld_stop, %function
 404              	spi_lld_stop:
 405              	.LFB60:
 406              		.loc 1 442 0
 407              		.cfi_startproc
 408              		@ args = 0, pretend = 0, frame = 0
 409              		@ frame_needed = 0, uses_anonymous_args = 0
 410              	.LVL24:
 411 0000 10B5     		push	{r4, lr}
 412              		.cfi_def_cfa_offset 8
 413              		.cfi_offset 4, -8
 414              		.cfi_offset 14, -4
 415              		.loc 1 445 0
 416 0002 0378     		ldrb	r3, [r0]	@ zero_extendqisi2
 417              		.loc 1 442 0
 418 0004 0446     		mov	r4, r0
 419              		.loc 1 445 0
 420 0006 022B     		cmp	r3, #2
 421 0008 00D0     		beq	.L40
 422              	.LVL25:
 423              	.L35:
 424 000a 10BD     		pop	{r4, pc}
 425              	.LVL26:
 426              	.L40:
 427              		.loc 1 448 0
 428 000c C269     		ldr	r2, [r0, #28]
 429 000e 0023     		movs	r3, #0
 430 0010 1380     		strh	r3, [r2]	@ movhi
 431              		.loc 1 449 0
 432 0012 C269     		ldr	r2, [r0, #28]
 433 0014 9380     		strh	r3, [r2, #4]	@ movhi
 434              		.loc 1 450 0
 435 0016 006A     		ldr	r0, [r0, #32]
 436              	.LVL27:
 437 0018 FFF7FEFF 		bl	dmaStreamRelease
 438              	.LVL28:
 439              		.loc 1 451 0
 440 001c 606A     		ldr	r0, [r4, #36]
 441 001e FFF7FEFF 		bl	dmaStreamRelease
 442              	.LVL29:
 443              		.loc 1 454 0
 444 0022 094B     		ldr	r3, .L42
 445 0024 9C42     		cmp	r4, r3
 446 0026 08D0     		beq	.L41
 447              		.loc 1 458 0
 448 0028 084B     		ldr	r3, .L42+4
 449 002a 9C42     		cmp	r4, r3
 450 002c EDD1     		bne	.L35
ARM GAS  /tmp/ccNKEMry.s 			page 9


 451              		.loc 1 459 0
 452 002e 084B     		ldr	r3, .L42+8
 453 0030 DA69     		ldr	r2, [r3, #28]
 454 0032 22F48042 		bic	r2, r2, #16384
 455 0036 DA61     		str	r2, [r3, #28]
 456 0038 E7E7     		b	.L35
 457              	.L41:
 458              		.loc 1 455 0
 459 003a 054B     		ldr	r3, .L42+8
 460 003c 9A69     		ldr	r2, [r3, #24]
 461 003e 22F48052 		bic	r2, r2, #4096
 462 0042 9A61     		str	r2, [r3, #24]
 463 0044 10BD     		pop	{r4, pc}
 464              	.LVL30:
 465              	.L43:
 466 0046 00BF     		.align	2
 467              	.L42:
 468 0048 00000000 		.word	.LANCHOR1
 469 004c 00000000 		.word	.LANCHOR2
 470 0050 00100240 		.word	1073876992
 471              		.cfi_endproc
 472              	.LFE60:
 473              		.size	spi_lld_stop, .-spi_lld_stop
 474 0054 AFF30080 		.section	.text.spi_lld_select,"ax",%progbits
 474      AFF30080 
 474      AFF30080 
 475              		.align	2
 476              		.p2align 4,,15
 477              		.global	spi_lld_select
 478              		.thumb
 479              		.thumb_func
 480              		.type	spi_lld_select, %function
 481              	spi_lld_select:
 482              	.LFB61:
 483              		.loc 1 487 0
 484              		.cfi_startproc
 485              		@ args = 0, pretend = 0, frame = 0
 486              		@ frame_needed = 0, uses_anonymous_args = 0
 487              		@ link register save eliminated.
 488              	.LVL31:
 489              		.loc 1 489 0
 490 0000 4368     		ldr	r3, [r0, #4]
 491 0002 0121     		movs	r1, #1
 492 0004 1A89     		ldrh	r2, [r3, #8]
 493 0006 5B68     		ldr	r3, [r3, #4]
 494 0008 01FA02F2 		lsl	r2, r1, r2
 495 000c 5A61     		str	r2, [r3, #20]
 496 000e 7047     		bx	lr
 497              		.cfi_endproc
 498              	.LFE61:
 499              		.size	spi_lld_select, .-spi_lld_select
 500              		.section	.text.spi_lld_unselect,"ax",%progbits
 501              		.align	2
 502              		.p2align 4,,15
 503              		.global	spi_lld_unselect
 504              		.thumb
 505              		.thumb_func
ARM GAS  /tmp/ccNKEMry.s 			page 10


 506              		.type	spi_lld_unselect, %function
 507              	spi_lld_unselect:
 508              	.LFB62:
 509              		.loc 1 500 0
 510              		.cfi_startproc
 511              		@ args = 0, pretend = 0, frame = 0
 512              		@ frame_needed = 0, uses_anonymous_args = 0
 513              		@ link register save eliminated.
 514              	.LVL32:
 515              		.loc 1 502 0
 516 0000 4368     		ldr	r3, [r0, #4]
 517 0002 0121     		movs	r1, #1
 518 0004 1A89     		ldrh	r2, [r3, #8]
 519 0006 5B68     		ldr	r3, [r3, #4]
 520 0008 01FA02F2 		lsl	r2, r1, r2
 521 000c 1A61     		str	r2, [r3, #16]
 522 000e 7047     		bx	lr
 523              		.cfi_endproc
 524              	.LFE62:
 525              		.size	spi_lld_unselect, .-spi_lld_unselect
 526              		.section	.text.spi_lld_ignore,"ax",%progbits
 527              		.align	2
 528              		.p2align 4,,15
 529              		.global	spi_lld_ignore
 530              		.thumb
 531              		.thumb_func
 532              		.type	spi_lld_ignore, %function
 533              	spi_lld_ignore:
 534              	.LFB63:
 535              		.loc 1 516 0
 536              		.cfi_startproc
 537              		@ args = 0, pretend = 0, frame = 0
 538              		@ frame_needed = 0, uses_anonymous_args = 0
 539              		@ link register save eliminated.
 540              	.LVL33:
 541 0000 10B4     		push	{r4}
 542              		.cfi_def_cfa_offset 4
 543              		.cfi_offset 4, -4
 544              		.loc 1 518 0
 545 0002 036A     		ldr	r3, [r0, #32]
 546 0004 114A     		ldr	r2, .L47
 547 0006 1B68     		ldr	r3, [r3]
 548              		.loc 1 522 0
 549 0008 114C     		ldr	r4, .L47+4
 550              		.loc 1 518 0
 551 000a DA60     		str	r2, [r3, #12]
 552              		.loc 1 519 0
 553 000c 036A     		ldr	r3, [r0, #32]
 554 000e 1B68     		ldr	r3, [r3]
 555 0010 5960     		str	r1, [r3, #4]
 556              		.loc 1 520 0
 557 0012 026A     		ldr	r2, [r0, #32]
 558 0014 836A     		ldr	r3, [r0, #40]
 559 0016 1268     		ldr	r2, [r2]
 560 0018 1360     		str	r3, [r2]
 561              		.loc 1 522 0
 562 001a 436A     		ldr	r3, [r0, #36]
ARM GAS  /tmp/ccNKEMry.s 			page 11


 563 001c 1B68     		ldr	r3, [r3]
 564 001e DC60     		str	r4, [r3, #12]
 565              		.loc 1 523 0
 566 0020 436A     		ldr	r3, [r0, #36]
 567 0022 1B68     		ldr	r3, [r3]
 568 0024 5960     		str	r1, [r3, #4]
 569              		.loc 1 524 0
 570 0026 426A     		ldr	r2, [r0, #36]
 571 0028 C36A     		ldr	r3, [r0, #44]
 572 002a 1268     		ldr	r2, [r2]
 573 002c 1360     		str	r3, [r2]
 574              		.loc 1 526 0
 575 002e 036A     		ldr	r3, [r0, #32]
 576 0030 1B68     		ldr	r3, [r3]
 577 0032 1A68     		ldr	r2, [r3]
 578 0034 42F00102 		orr	r2, r2, #1
 579 0038 1A60     		str	r2, [r3]
 580              		.loc 1 527 0
 581 003a 436A     		ldr	r3, [r0, #36]
 582 003c 1B68     		ldr	r3, [r3]
 583 003e 1A68     		ldr	r2, [r3]
 584 0040 42F00102 		orr	r2, r2, #1
 585 0044 1A60     		str	r2, [r3]
 586              		.loc 1 528 0
 587 0046 5DF8044B 		ldr	r4, [sp], #4
 588 004a 7047     		bx	lr
 589              	.L48:
 590              		.align	2
 591              	.L47:
 592 004c 00000000 		.word	.LANCHOR3
 593 0050 00000000 		.word	.LANCHOR0
 594              		.cfi_endproc
 595              	.LFE63:
 596              		.size	spi_lld_ignore, .-spi_lld_ignore
 597 0054 AFF30080 		.section	.text.spi_lld_exchange,"ax",%progbits
 597      AFF30080 
 597      AFF30080 
 598              		.align	2
 599              		.p2align 4,,15
 600              		.global	spi_lld_exchange
 601              		.thumb
 602              		.thumb_func
 603              		.type	spi_lld_exchange, %function
 604              	spi_lld_exchange:
 605              	.LFB64:
 606              		.loc 1 546 0
 607              		.cfi_startproc
 608              		@ args = 0, pretend = 0, frame = 0
 609              		@ frame_needed = 0, uses_anonymous_args = 0
 610              		@ link register save eliminated.
 611              	.LVL34:
 612 0000 10B4     		push	{r4}
 613              		.cfi_def_cfa_offset 4
 614              		.cfi_offset 4, -4
 615              		.loc 1 548 0
 616 0002 046A     		ldr	r4, [r0, #32]
 617 0004 2468     		ldr	r4, [r4]
ARM GAS  /tmp/ccNKEMry.s 			page 12


 618 0006 E360     		str	r3, [r4, #12]
 619              		.loc 1 549 0
 620 0008 036A     		ldr	r3, [r0, #32]
 621              	.LVL35:
 622 000a 1B68     		ldr	r3, [r3]
 623 000c 5960     		str	r1, [r3, #4]
 624              	.LVL36:
 625              		.loc 1 550 0
 626 000e 046A     		ldr	r4, [r0, #32]
 627 0010 836A     		ldr	r3, [r0, #40]
 628 0012 2468     		ldr	r4, [r4]
 629 0014 43F08003 		orr	r3, r3, #128
 630 0018 2360     		str	r3, [r4]
 631              		.loc 1 552 0
 632 001a 436A     		ldr	r3, [r0, #36]
 633 001c 1B68     		ldr	r3, [r3]
 634 001e DA60     		str	r2, [r3, #12]
 635              		.loc 1 553 0
 636 0020 436A     		ldr	r3, [r0, #36]
 637 0022 1B68     		ldr	r3, [r3]
 638 0024 5960     		str	r1, [r3, #4]
 639              		.loc 1 554 0
 640 0026 426A     		ldr	r2, [r0, #36]
 641              	.LVL37:
 642 0028 C36A     		ldr	r3, [r0, #44]
 643 002a 1268     		ldr	r2, [r2]
 644 002c 43F08003 		orr	r3, r3, #128
 645 0030 1360     		str	r3, [r2]
 646              		.loc 1 556 0
 647 0032 036A     		ldr	r3, [r0, #32]
 648 0034 1B68     		ldr	r3, [r3]
 649 0036 1A68     		ldr	r2, [r3]
 650 0038 42F00102 		orr	r2, r2, #1
 651 003c 1A60     		str	r2, [r3]
 652              		.loc 1 557 0
 653 003e 436A     		ldr	r3, [r0, #36]
 654 0040 1B68     		ldr	r3, [r3]
 655 0042 1A68     		ldr	r2, [r3]
 656 0044 42F00102 		orr	r2, r2, #1
 657 0048 1A60     		str	r2, [r3]
 658              		.loc 1 558 0
 659 004a 5DF8044B 		ldr	r4, [sp], #4
 660 004e 7047     		bx	lr
 661              		.cfi_endproc
 662              	.LFE64:
 663              		.size	spi_lld_exchange, .-spi_lld_exchange
 664              		.section	.text.spi_lld_send,"ax",%progbits
 665              		.align	2
 666              		.p2align 4,,15
 667              		.global	spi_lld_send
 668              		.thumb
 669              		.thumb_func
 670              		.type	spi_lld_send, %function
 671              	spi_lld_send:
 672              	.LFB65:
 673              		.loc 1 573 0
 674              		.cfi_startproc
ARM GAS  /tmp/ccNKEMry.s 			page 13


 675              		@ args = 0, pretend = 0, frame = 0
 676              		@ frame_needed = 0, uses_anonymous_args = 0
 677              		@ link register save eliminated.
 678              	.LVL38:
 679 0000 10B4     		push	{r4}
 680              		.cfi_def_cfa_offset 4
 681              		.cfi_offset 4, -4
 682              		.loc 1 575 0
 683 0002 036A     		ldr	r3, [r0, #32]
 684 0004 124C     		ldr	r4, .L51
 685 0006 1B68     		ldr	r3, [r3]
 686 0008 DC60     		str	r4, [r3, #12]
 687              		.loc 1 576 0
 688 000a 036A     		ldr	r3, [r0, #32]
 689 000c 1B68     		ldr	r3, [r3]
 690 000e 5960     		str	r1, [r3, #4]
 691              		.loc 1 577 0
 692 0010 046A     		ldr	r4, [r0, #32]
 693 0012 836A     		ldr	r3, [r0, #40]
 694 0014 2468     		ldr	r4, [r4]
 695 0016 2360     		str	r3, [r4]
 696              		.loc 1 579 0
 697 0018 436A     		ldr	r3, [r0, #36]
 698 001a 1B68     		ldr	r3, [r3]
 699 001c DA60     		str	r2, [r3, #12]
 700              		.loc 1 580 0
 701 001e 436A     		ldr	r3, [r0, #36]
 702 0020 1B68     		ldr	r3, [r3]
 703 0022 5960     		str	r1, [r3, #4]
 704              		.loc 1 581 0
 705 0024 426A     		ldr	r2, [r0, #36]
 706              	.LVL39:
 707 0026 C36A     		ldr	r3, [r0, #44]
 708 0028 1268     		ldr	r2, [r2]
 709 002a 43F08003 		orr	r3, r3, #128
 710 002e 1360     		str	r3, [r2]
 711              		.loc 1 583 0
 712 0030 036A     		ldr	r3, [r0, #32]
 713 0032 1B68     		ldr	r3, [r3]
 714 0034 1A68     		ldr	r2, [r3]
 715 0036 42F00102 		orr	r2, r2, #1
 716 003a 1A60     		str	r2, [r3]
 717              		.loc 1 584 0
 718 003c 436A     		ldr	r3, [r0, #36]
 719 003e 1B68     		ldr	r3, [r3]
 720 0040 1A68     		ldr	r2, [r3]
 721 0042 42F00102 		orr	r2, r2, #1
 722 0046 1A60     		str	r2, [r3]
 723              		.loc 1 585 0
 724 0048 5DF8044B 		ldr	r4, [sp], #4
 725 004c 7047     		bx	lr
 726              	.L52:
 727 004e 00BF     		.align	2
 728              	.L51:
 729 0050 00000000 		.word	.LANCHOR3
 730              		.cfi_endproc
 731              	.LFE65:
ARM GAS  /tmp/ccNKEMry.s 			page 14


 732              		.size	spi_lld_send, .-spi_lld_send
 733 0054 AFF30080 		.section	.text.spi_lld_receive,"ax",%progbits
 733      AFF30080 
 733      AFF30080 
 734              		.align	2
 735              		.p2align 4,,15
 736              		.global	spi_lld_receive
 737              		.thumb
 738              		.thumb_func
 739              		.type	spi_lld_receive, %function
 740              	spi_lld_receive:
 741              	.LFB66:
 742              		.loc 1 600 0
 743              		.cfi_startproc
 744              		@ args = 0, pretend = 0, frame = 0
 745              		@ frame_needed = 0, uses_anonymous_args = 0
 746              		@ link register save eliminated.
 747              	.LVL40:
 748 0000 10B4     		push	{r4}
 749              		.cfi_def_cfa_offset 4
 750              		.cfi_offset 4, -4
 751              		.loc 1 602 0
 752 0002 036A     		ldr	r3, [r0, #32]
 753              		.loc 1 606 0
 754 0004 124C     		ldr	r4, .L54
 755              		.loc 1 602 0
 756 0006 1B68     		ldr	r3, [r3]
 757 0008 DA60     		str	r2, [r3, #12]
 758              		.loc 1 603 0
 759 000a 036A     		ldr	r3, [r0, #32]
 760 000c 1B68     		ldr	r3, [r3]
 761 000e 5960     		str	r1, [r3, #4]
 762              		.loc 1 604 0
 763 0010 026A     		ldr	r2, [r0, #32]
 764              	.LVL41:
 765 0012 836A     		ldr	r3, [r0, #40]
 766 0014 1268     		ldr	r2, [r2]
 767 0016 43F08003 		orr	r3, r3, #128
 768 001a 1360     		str	r3, [r2]
 769              		.loc 1 606 0
 770 001c 436A     		ldr	r3, [r0, #36]
 771 001e 1B68     		ldr	r3, [r3]
 772 0020 DC60     		str	r4, [r3, #12]
 773              		.loc 1 607 0
 774 0022 436A     		ldr	r3, [r0, #36]
 775 0024 1B68     		ldr	r3, [r3]
 776 0026 5960     		str	r1, [r3, #4]
 777              		.loc 1 608 0
 778 0028 426A     		ldr	r2, [r0, #36]
 779 002a C36A     		ldr	r3, [r0, #44]
 780 002c 1268     		ldr	r2, [r2]
 781 002e 1360     		str	r3, [r2]
 782              		.loc 1 610 0
 783 0030 036A     		ldr	r3, [r0, #32]
 784 0032 1B68     		ldr	r3, [r3]
 785 0034 1A68     		ldr	r2, [r3]
 786 0036 42F00102 		orr	r2, r2, #1
ARM GAS  /tmp/ccNKEMry.s 			page 15


 787 003a 1A60     		str	r2, [r3]
 788              		.loc 1 611 0
 789 003c 436A     		ldr	r3, [r0, #36]
 790 003e 1B68     		ldr	r3, [r3]
 791 0040 1A68     		ldr	r2, [r3]
 792 0042 42F00102 		orr	r2, r2, #1
 793 0046 1A60     		str	r2, [r3]
 794              		.loc 1 612 0
 795 0048 5DF8044B 		ldr	r4, [sp], #4
 796 004c 7047     		bx	lr
 797              	.L55:
 798 004e 00BF     		.align	2
 799              	.L54:
 800 0050 00000000 		.word	.LANCHOR0
 801              		.cfi_endproc
 802              	.LFE66:
 803              		.size	spi_lld_receive, .-spi_lld_receive
 804 0054 AFF30080 		.section	.text.spi_lld_polled_exchange,"ax",%progbits
 804      AFF30080 
 804      AFF30080 
 805              		.align	2
 806              		.p2align 4,,15
 807              		.global	spi_lld_polled_exchange
 808              		.thumb
 809              		.thumb_func
 810              		.type	spi_lld_polled_exchange, %function
 811              	spi_lld_polled_exchange:
 812              	.LFB67:
 813              		.loc 1 626 0
 814              		.cfi_startproc
 815              		@ args = 0, pretend = 0, frame = 0
 816              		@ frame_needed = 0, uses_anonymous_args = 0
 817              		@ link register save eliminated.
 818              	.LVL42:
 819              		.loc 1 628 0
 820 0000 C369     		ldr	r3, [r0, #28]
 821 0002 9981     		strh	r1, [r3, #12]	@ movhi
 822 0004 C269     		ldr	r2, [r0, #28]
 823              	.L58:
 824              		.loc 1 629 0 discriminator 1
 825 0006 1389     		ldrh	r3, [r2, #8]
 826 0008 DB07     		lsls	r3, r3, #31
 827 000a FCD5     		bpl	.L58
 828              		.loc 1 631 0
 829 000c 9089     		ldrh	r0, [r2, #12]
 830              	.LVL43:
 831              		.loc 1 632 0
 832 000e 80B2     		uxth	r0, r0
 833 0010 7047     		bx	lr
 834              		.cfi_endproc
 835              	.LFE67:
 836              		.size	spi_lld_polled_exchange, .-spi_lld_polled_exchange
 837              		.global	SPID2
 838              		.global	SPID1
 839 0012 00BFAFF3 		.section	.bss.dummytx,"aw",%nobits
 839      0080AFF3 
 839      0080AFF3 
ARM GAS  /tmp/ccNKEMry.s 			page 16


 839      0080
 840              		.align	1
 841              		.set	.LANCHOR0,. + 0
 842              		.type	dummytx, %object
 843              		.size	dummytx, 2
 844              	dummytx:
 845 0000 0000     		.space	2
 846              		.section	.bss.SPID1,"aw",%nobits
 847              		.align	2
 848              		.set	.LANCHOR1,. + 0
 849              		.type	SPID1, %object
 850              		.size	SPID1, 48
 851              	SPID1:
 852 0000 00000000 		.space	48
 852      00000000 
 852      00000000 
 852      00000000 
 852      00000000 
 853              		.section	.bss.SPID2,"aw",%nobits
 854              		.align	2
 855              		.set	.LANCHOR2,. + 0
 856              		.type	SPID2, %object
 857              		.size	SPID2, 48
 858              	SPID2:
 859 0000 00000000 		.space	48
 859      00000000 
 859      00000000 
 859      00000000 
 859      00000000 
 860              		.section	.bss.dummyrx,"aw",%nobits
 861              		.align	1
 862              		.set	.LANCHOR3,. + 0
 863              		.type	dummyrx, %object
 864              		.size	dummyrx, 2
 865              	dummyrx:
 866 0000 0000     		.space	2
 867              		.text
 868              	.Letext0:
 869              		.file 2 "/usr/lib/gcc/arm-none-eabi/4.8/include/stddef.h"
 870              		.file 3 "/usr/include/newlib/machine/_default_types.h"
 871              		.file 4 "/usr/include/newlib/stdint.h"
 872              		.file 5 "../os/ports/GCC/ARMCMx/chtypes.h"
 873              		.file 6 "../os/kernel/include/chlists.h"
 874              		.file 7 "../os/kernel/include/chthreads.h"
 875              		.file 8 "../os/ports/GCC/ARMCMx/chcore_v7m.h"
 876              		.file 9 "../os/kernel/include/chmtx.h"
 877              		.file 10 "../os/hal/platforms/STM32F1xx/stm32f10x.h"
 878              		.file 11 "../os/hal/platforms/STM32F1xx/stm32_dma.h"
 879              		.file 12 "../os/hal/platforms/STM32/GPIOv1/pal_lld.h"
 880              		.file 13 "../os/hal/include/spi.h"
 881              		.file 14 "../os/hal/platforms/STM32/SPIv1/spi_lld.h"
 882              		.file 15 "../os/ports/common/ARMCMx/CMSIS/include/core_cm3.h"
 883              		.file 16 "../os/kernel/include/chschd.h"