ARM GAS  /tmp/cc5dzm7x.s 			page 1


   1              		.syntax unified
   2              		.cpu cortex-m3
   3              		.fpu softvfp
   4              		.eabi_attribute 20, 1
   5              		.eabi_attribute 21, 1
   6              		.eabi_attribute 23, 3
   7              		.eabi_attribute 24, 1
   8              		.eabi_attribute 25, 1
   9              		.eabi_attribute 26, 1
  10              		.eabi_attribute 30, 2
  11              		.eabi_attribute 34, 1
  12              		.eabi_attribute 18, 4
  13              		.thumb
  14              		.file	"syscalls.c"
  15              		.text
  16              	.Ltext0:
  17              		.cfi_sections	.debug_frame
  18              		.section	.text._read_r,"ax",%progbits
  19              		.align	2
  20              		.p2align 4,,15
  21              		.global	_read_r
  22              		.thumb
  23              		.thumb_func
  24              		.type	_read_r, %function
  25              	_read_r:
  26              	.LFB0:
  27              		.file 1 "../os/various/syscalls.c"
  28              		.loc 1 76 0
  29              		.cfi_startproc
  30              		@ args = 0, pretend = 0, frame = 0
  31              		@ frame_needed = 0, uses_anonymous_args = 0
  32              		@ link register save eliminated.
  33              	.LVL0:
  34              		.loc 1 89 0
  35 0000 1623     		movs	r3, #22
  36              	.LVL1:
  37 0002 0360     		str	r3, [r0]
  38              		.loc 1 92 0
  39 0004 4FF0FF30 		mov	r0, #-1
  40              	.LVL2:
  41 0008 7047     		bx	lr
  42              		.cfi_endproc
  43              	.LFE0:
  44              		.size	_read_r, .-_read_r
  45 000a 00BFAFF3 		.section	.text._lseek_r,"ax",%progbits
  45      0080
  46              		.align	2
  47              		.p2align 4,,15
  48              		.global	_lseek_r
  49              		.thumb
  50              		.thumb_func
  51              		.type	_lseek_r, %function
  52              	_lseek_r:
  53              	.LFB1:
  54              		.loc 1 97 0
  55              		.cfi_startproc
  56              		@ args = 0, pretend = 0, frame = 0
ARM GAS  /tmp/cc5dzm7x.s 			page 2


  57              		@ frame_needed = 0, uses_anonymous_args = 0
  58              		@ link register save eliminated.
  59              	.LVL3:
  60              		.loc 1 104 0
  61 0000 0020     		movs	r0, #0
  62              	.LVL4:
  63 0002 7047     		bx	lr
  64              		.cfi_endproc
  65              	.LFE1:
  66              		.size	_lseek_r, .-_lseek_r
  67 0004 AFF30080 		.section	.text._write_r,"ax",%progbits
  67      AFF30080 
  67      AFF30080 
  68              		.align	2
  69              		.p2align 4,,15
  70              		.global	_write_r
  71              		.thumb
  72              		.thumb_func
  73              		.type	_write_r, %function
  74              	_write_r:
  75              	.LFB2:
  76              		.loc 1 109 0
  77              		.cfi_startproc
  78              		@ args = 0, pretend = 0, frame = 0
  79              		@ frame_needed = 0, uses_anonymous_args = 0
  80              		@ link register save eliminated.
  81              	.LVL5:
  82              		.loc 1 121 0
  83 0000 1846     		mov	r0, r3
  84              	.LVL6:
  85 0002 7047     		bx	lr
  86              		.cfi_endproc
  87              	.LFE2:
  88              		.size	_write_r, .-_write_r
  89 0004 AFF30080 		.section	.text._close_r,"ax",%progbits
  89      AFF30080 
  89      AFF30080 
  90              		.align	2
  91              		.p2align 4,,15
  92              		.global	_close_r
  93              		.thumb
  94              		.thumb_func
  95              		.type	_close_r, %function
  96              	_close_r:
  97              	.LFB3:
  98              		.loc 1 126 0
  99              		.cfi_startproc
 100              		@ args = 0, pretend = 0, frame = 0
 101              		@ frame_needed = 0, uses_anonymous_args = 0
 102              		@ link register save eliminated.
 103              	.LVL7:
 104              		.loc 1 131 0
 105 0000 0020     		movs	r0, #0
 106              	.LVL8:
 107 0002 7047     		bx	lr
 108              		.cfi_endproc
 109              	.LFE3:
ARM GAS  /tmp/cc5dzm7x.s 			page 3


 110              		.size	_close_r, .-_close_r
 111 0004 AFF30080 		.section	.text._sbrk_r,"ax",%progbits
 111      AFF30080 
 111      AFF30080 
 112              		.align	2
 113              		.p2align 4,,15
 114              		.global	_sbrk_r
 115              		.thumb
 116              		.thumb_func
 117              		.type	_sbrk_r, %function
 118              	_sbrk_r:
 119              	.LFB4:
 120              		.loc 1 136 0
 121              		.cfi_startproc
 122              		@ args = 0, pretend = 0, frame = 0
 123              		@ frame_needed = 0, uses_anonymous_args = 0
 124              		@ link register save eliminated.
 125              	.LVL9:
 126              		.loc 1 150 0
 127 0000 0C23     		movs	r3, #12
 128 0002 0360     		str	r3, [r0]
 129              		.loc 1 153 0
 130 0004 4FF0FF30 		mov	r0, #-1
 131              	.LVL10:
 132 0008 7047     		bx	lr
 133              		.cfi_endproc
 134              	.LFE4:
 135              		.size	_sbrk_r, .-_sbrk_r
 136              		.section	.text._fstat_r,"ax",%progbits
 137              		.align	2
 138              		.p2align 4,,15
 139              		.global	_fstat_r
 140              		.thumb
 141              		.thumb_func
 142              		.type	_fstat_r, %function
 143              	_fstat_r:
 144              	.LFB5:
 145              		.loc 1 158 0
 146              		.cfi_startproc
 147              		@ args = 0, pretend = 0, frame = 0
 148              		@ frame_needed = 0, uses_anonymous_args = 0
 149              	.LVL11:
 150 0000 10B5     		push	{r4, lr}
 151              		.cfi_def_cfa_offset 8
 152              		.cfi_offset 4, -8
 153              		.cfi_offset 14, -4
 154              		.loc 1 162 0
 155 0002 1046     		mov	r0, r2
 156              	.LVL12:
 157              		.loc 1 158 0
 158 0004 1446     		mov	r4, r2
 159              		.loc 1 162 0
 160 0006 0021     		movs	r1, #0
 161              	.LVL13:
 162 0008 3C22     		movs	r2, #60
 163              	.LVL14:
 164 000a FFF7FEFF 		bl	memset
ARM GAS  /tmp/cc5dzm7x.s 			page 4


 165              	.LVL15:
 166              		.loc 1 163 0
 167 000e 4FF40053 		mov	r3, #8192
 168 0012 6360     		str	r3, [r4, #4]
 169              		.loc 1 165 0
 170 0014 0020     		movs	r0, #0
 171 0016 10BD     		pop	{r4, pc}
 172              		.cfi_endproc
 173              	.LFE5:
 174              		.size	_fstat_r, .-_fstat_r
 175 0018 AFF30080 		.section	.text._isatty_r,"ax",%progbits
 175      AFF30080 
 176              		.align	2
 177              		.p2align 4,,15
 178              		.global	_isatty_r
 179              		.thumb
 180              		.thumb_func
 181              		.type	_isatty_r, %function
 182              	_isatty_r:
 183              	.LFB6:
 184              		.loc 1 170 0
 185              		.cfi_startproc
 186              		@ args = 0, pretend = 0, frame = 0
 187              		@ frame_needed = 0, uses_anonymous_args = 0
 188              		@ link register save eliminated.
 189              	.LVL16:
 190              		.loc 1 175 0
 191 0000 0120     		movs	r0, #1
 192              	.LVL17:
 193 0002 7047     		bx	lr
 194              		.cfi_endproc
 195              	.LFE6:
 196              		.size	_isatty_r, .-_isatty_r
 197 0004 AFF30080 		.text
 197      AFF30080 
 197      AFF30080 
 198              	.Letext0:
 199              		.file 2 "/usr/include/newlib/sys/lock.h"
 200              		.file 3 "/usr/include/newlib/sys/_types.h"
 201              		.file 4 "/usr/lib/gcc/arm-none-eabi/4.8/include/stddef.h"
 202              		.file 5 "/usr/include/newlib/sys/reent.h"
 203              		.file 6 "/usr/include/newlib/sys/types.h"
 204              		.file 7 "/usr/include/newlib/sys/stat.h"