ARM GAS  /tmp/ccZVh2eZ.s 			page 1


   1              		.syntax unified
   2              		.cpu cortex-m3
   3              		.fpu softvfp
   4              		.eabi_attribute 20, 1
   5              		.eabi_attribute 21, 1
   6              		.eabi_attribute 23, 3
   7              		.eabi_attribute 24, 1
   8              		.eabi_attribute 25, 1
   9              		.eabi_attribute 26, 1
  10              		.eabi_attribute 30, 2
  11              		.eabi_attribute 34, 1
  12              		.eabi_attribute 18, 4
  13              		.thumb
  14              		.file	"uart_lld.c"
  15              		.text
  16              	.Ltext0:
  17              		.cfi_sections	.debug_frame
  18              		.section	.text.set_rx_idle_loop,"ax",%progbits
  19              		.align	2
  20              		.p2align 4,,15
  21              		.thumb
  22              		.thumb_func
  23              		.type	set_rx_idle_loop, %function
  24              	set_rx_idle_loop:
  25              	.LFB57:
  26              		.file 1 "../os/hal/platforms/STM32/USARTv1/uart_lld.c"
  27              		.loc 1 160 0
  28              		.cfi_startproc
  29              		@ args = 0, pretend = 0, frame = 0
  30              		@ frame_needed = 0, uses_anonymous_args = 0
  31              		@ link register save eliminated.
  32              	.LVL0:
  33 0000 10B4     		push	{r4}
  34              		.cfi_def_cfa_offset 4
  35              		.cfi_offset 4, -4
  36              		.loc 1 169 0
  37 0002 0269     		ldr	r2, [r0, #16]
  38              		.loc 1 165 0
  39 0004 4368     		ldr	r3, [r0, #4]
  40              		.loc 1 169 0
  41 0006 1268     		ldr	r2, [r2]
  42 0008 00F11804 		add	r4, r0, #24
  43              		.loc 1 165 0
  44 000c D968     		ldr	r1, [r3, #12]
  45              		.loc 1 169 0
  46 000e D460     		str	r4, [r2, #12]
  47              		.loc 1 170 0
  48 0010 0369     		ldr	r3, [r0, #16]
  49 0012 0122     		movs	r2, #1
  50 0014 1B68     		ldr	r3, [r3]
  51              		.loc 1 165 0
  52 0016 0029     		cmp	r1, #0
  53              		.loc 1 170 0
  54 0018 5A60     		str	r2, [r3, #4]
  55              		.loc 1 171 0
  56 001a 0269     		ldr	r2, [r0, #16]
  57 001c C368     		ldr	r3, [r0, #12]
ARM GAS  /tmp/ccZVh2eZ.s 			page 2


  58 001e 1268     		ldr	r2, [r2]
  59              		.loc 1 166 0
  60 0020 14BF     		ite	ne
  61 0022 2221     		movne	r1, #34
  62 0024 2021     		moveq	r1, #32
  63              	.LVL1:
  64              		.loc 1 171 0
  65 0026 0B43     		orrs	r3, r3, r1
  66 0028 1360     		str	r3, [r2]
  67              		.loc 1 172 0
  68 002a 0369     		ldr	r3, [r0, #16]
  69 002c 1B68     		ldr	r3, [r3]
  70 002e 1A68     		ldr	r2, [r3]
  71 0030 42F00102 		orr	r2, r2, #1
  72 0034 1A60     		str	r2, [r3]
  73              		.loc 1 173 0
  74 0036 5DF8044B 		ldr	r4, [sp], #4
  75 003a 7047     		bx	lr
  76              		.cfi_endproc
  77              	.LFE57:
  78              		.size	set_rx_idle_loop, .-set_rx_idle_loop
  79 003c AFF30080 		.section	.text.usart_stop,"ax",%progbits
  80              		.align	2
  81              		.p2align 4,,15
  82              		.thumb
  83              		.thumb_func
  84              		.type	usart_stop, %function
  85              	usart_stop:
  86              	.LFB58:
  87              		.loc 1 181 0
  88              		.cfi_startproc
  89              		@ args = 0, pretend = 0, frame = 0
  90              		@ frame_needed = 0, uses_anonymous_args = 0
  91              		@ link register save eliminated.
  92              	.LVL2:
  93 0000 10B4     		push	{r4}
  94              		.cfi_def_cfa_offset 4
  95              		.cfi_offset 4, -4
  96              		.loc 1 184 0
  97 0002 0369     		ldr	r3, [r0, #16]
  98 0004 0F22     		movs	r2, #15
  99 0006 1968     		ldr	r1, [r3]
 100              		.loc 1 188 0
 101 0008 0023     		movs	r3, #0
 102              		.loc 1 184 0
 103 000a 0C68     		ldr	r4, [r1]
 104 000c 24F00F04 		bic	r4, r4, #15
 105 0010 0C60     		str	r4, [r1]
 106 0012 0169     		ldr	r1, [r0, #16]
 107 0014 0C7A     		ldrb	r4, [r1, #8]	@ zero_extendqisi2
 108 0016 4968     		ldr	r1, [r1, #4]
 109 0018 02FA04F4 		lsl	r4, r2, r4
 110 001c 0C60     		str	r4, [r1]
 111              		.loc 1 185 0
 112 001e 4169     		ldr	r1, [r0, #20]
 113 0020 0968     		ldr	r1, [r1]
 114 0022 0C68     		ldr	r4, [r1]
ARM GAS  /tmp/ccZVh2eZ.s 			page 3


 115 0024 24F00F04 		bic	r4, r4, #15
 116 0028 0C60     		str	r4, [r1]
 117 002a 4169     		ldr	r1, [r0, #20]
 118 002c 0C7A     		ldrb	r4, [r1, #8]	@ zero_extendqisi2
 119 002e 4968     		ldr	r1, [r1, #4]
 120 0030 A240     		lsls	r2, r2, r4
 121 0032 0A60     		str	r2, [r1]
 122              		.loc 1 188 0
 123 0034 8268     		ldr	r2, [r0, #8]
 124 0036 9381     		strh	r3, [r2, #12]	@ movhi
 125              		.loc 1 189 0
 126 0038 8268     		ldr	r2, [r0, #8]
 127 003a 1382     		strh	r3, [r2, #16]	@ movhi
 128              		.loc 1 190 0
 129 003c 8268     		ldr	r2, [r0, #8]
 130 003e 9382     		strh	r3, [r2, #20]	@ movhi
 131              		.loc 1 191 0
 132 0040 5DF8044B 		ldr	r4, [sp], #4
 133 0044 7047     		bx	lr
 134              		.cfi_endproc
 135              	.LFE58:
 136              		.size	usart_stop, .-usart_stop
 137 0046 00BFAFF3 		.section	.text.uart_lld_serve_tx_end_irq,"ax",%progbits
 137      0080AFF3 
 137      0080
 138              		.align	2
 139              		.p2align 4,,15
 140              		.thumb
 141              		.thumb_func
 142              		.type	uart_lld_serve_tx_end_irq, %function
 143              	uart_lld_serve_tx_end_irq:
 144              	.LFB61:
 145              		.loc 1 282 0
 146              		.cfi_startproc
 147              		@ args = 0, pretend = 0, frame = 0
 148              		@ frame_needed = 0, uses_anonymous_args = 0
 149              	.LVL3:
 150              		.loc 1 286 0
 151 0000 0B07     		lsls	r3, r1, #28
 152              		.loc 1 282 0
 153 0002 10B5     		push	{r4, lr}
 154              		.cfi_def_cfa_offset 8
 155              		.cfi_offset 4, -8
 156              		.cfi_offset 14, -4
 157              		.loc 1 282 0
 158 0004 0446     		mov	r4, r0
 159              		.loc 1 286 0
 160 0006 23D4     		bmi	.L21
 161              	.LVL4:
 162              	.L6:
 163              		.loc 1 293 0
 164 0008 6369     		ldr	r3, [r4, #20]
 165 000a 0F21     		movs	r1, #15
 166 000c 1B68     		ldr	r3, [r3]
 167 000e 1A68     		ldr	r2, [r3]
 168 0010 22F00F02 		bic	r2, r2, #15
 169 0014 1A60     		str	r2, [r3]
ARM GAS  /tmp/ccZVh2eZ.s 			page 4


 170 0016 6369     		ldr	r3, [r4, #20]
 171 0018 1A7A     		ldrb	r2, [r3, #8]	@ zero_extendqisi2
 172 001a 5B68     		ldr	r3, [r3, #4]
 173 001c 01FA02F2 		lsl	r2, r1, r2
 174 0020 1A60     		str	r2, [r3]
 175              		.loc 1 298 0
 176 0022 6368     		ldr	r3, [r4, #4]
 177 0024 5A68     		ldr	r2, [r3, #4]
 178 0026 32B1     		cbz	r2, .L7
 179              		.loc 1 299 0
 180 0028 A368     		ldr	r3, [r4, #8]
 181 002a 9A89     		ldrh	r2, [r3, #12]
 182 002c 92B2     		uxth	r2, r2
 183 002e 42F04002 		orr	r2, r2, #64
 184 0032 9A81     		strh	r2, [r3, #12]	@ movhi
 185 0034 6368     		ldr	r3, [r4, #4]
 186              	.L7:
 187              		.loc 1 302 0
 188 0036 0222     		movs	r2, #2
 189 0038 6270     		strb	r2, [r4, #1]
 190              		.loc 1 303 0
 191 003a 1B68     		ldr	r3, [r3]
 192 003c 2BB1     		cbz	r3, .L10
 193              		.loc 1 304 0
 194 003e 2046     		mov	r0, r4
 195 0040 9847     		blx	r3
 196              	.LVL5:
 197              		.loc 1 308 0
 198 0042 6378     		ldrb	r3, [r4, #1]	@ zero_extendqisi2
 199 0044 022B     		cmp	r3, #2
 200 0046 00D0     		beq	.L10
 201 0048 10BD     		pop	{r4, pc}
 202              	.LVL6:
 203              	.L10:
 204              		.loc 1 309 0
 205 004a 0023     		movs	r3, #0
 206 004c 6370     		strb	r3, [r4, #1]
 207 004e 10BD     		pop	{r4, pc}
 208              	.LVL7:
 209              	.L21:
 210              		.loc 1 287 0
 211 0050 FFF7FEFF 		bl	port_halt
 212              	.LVL8:
 213 0054 D8E7     		b	.L6
 214              		.cfi_endproc
 215              	.LFE61:
 216              		.size	uart_lld_serve_tx_end_irq, .-uart_lld_serve_tx_end_irq
 217              		.section	.text.uart_lld_serve_rx_end_irq,"ax",%progbits
 218              		.align	2
 219              		.p2align 4,,15
 220              		.thumb
 221              		.thumb_func
 222              		.type	uart_lld_serve_rx_end_irq, %function
 223              	uart_lld_serve_rx_end_irq:
 224              	.LFB60:
 225              		.loc 1 242 0
 226              		.cfi_startproc
ARM GAS  /tmp/ccZVh2eZ.s 			page 5


 227              		@ args = 0, pretend = 0, frame = 0
 228              		@ frame_needed = 0, uses_anonymous_args = 0
 229              	.LVL9:
 230              		.loc 1 246 0
 231 0000 0B07     		lsls	r3, r1, #28
 232              		.loc 1 242 0
 233 0002 10B5     		push	{r4, lr}
 234              		.cfi_def_cfa_offset 8
 235              		.cfi_offset 4, -8
 236              		.cfi_offset 14, -4
 237              		.loc 1 242 0
 238 0004 0446     		mov	r4, r0
 239              		.loc 1 246 0
 240 0006 21D4     		bmi	.L36
 241              	.LVL10:
 242              	.L23:
 243              		.loc 1 253 0
 244 0008 A378     		ldrb	r3, [r4, #2]	@ zero_extendqisi2
 245 000a 3BB9     		cbnz	r3, .L24
 246              		.loc 1 256 0
 247 000c 6368     		ldr	r3, [r4, #4]
 248 000e DB68     		ldr	r3, [r3, #12]
 249 0010 DBB1     		cbz	r3, .L22
 250              		.loc 1 257 0
 251 0012 218B     		ldrh	r1, [r4, #24]
 252 0014 2046     		mov	r0, r4
 253 0016 89B2     		uxth	r1, r1
 254 0018 9847     		blx	r3
 255              	.LVL11:
 256 001a 10BD     		pop	{r4, pc}
 257              	.LVL12:
 258              	.L24:
 259              	.LBB4:
 260              	.LBB5:
 261              		.loc 1 262 0
 262 001c 2369     		ldr	r3, [r4, #16]
 263 001e 0F20     		movs	r0, #15
 264 0020 1B68     		ldr	r3, [r3]
 265              		.loc 1 263 0
 266 0022 0222     		movs	r2, #2
 267              		.loc 1 262 0
 268 0024 1968     		ldr	r1, [r3]
 269 0026 21F00F01 		bic	r1, r1, #15
 270 002a 1960     		str	r1, [r3]
 271 002c 2369     		ldr	r3, [r4, #16]
 272 002e 197A     		ldrb	r1, [r3, #8]	@ zero_extendqisi2
 273 0030 5B68     		ldr	r3, [r3, #4]
 274 0032 00FA01F1 		lsl	r1, r0, r1
 275 0036 1960     		str	r1, [r3]
 276              		.loc 1 264 0
 277 0038 6368     		ldr	r3, [r4, #4]
 278              		.loc 1 263 0
 279 003a A270     		strb	r2, [r4, #2]
 280              		.loc 1 264 0
 281 003c 9B68     		ldr	r3, [r3, #8]
 282 003e 43B1     		cbz	r3, .L28
 283              		.loc 1 265 0
ARM GAS  /tmp/ccZVh2eZ.s 			page 6


 284 0040 2046     		mov	r0, r4
 285 0042 9847     		blx	r3
 286              	.LVL13:
 287              		.loc 1 269 0
 288 0044 A378     		ldrb	r3, [r4, #2]	@ zero_extendqisi2
 289 0046 022B     		cmp	r3, #2
 290 0048 03D0     		beq	.L28
 291              	.LVL14:
 292              	.L22:
 293 004a 10BD     		pop	{r4, pc}
 294              	.LVL15:
 295              	.L36:
 296              	.LBE5:
 297              	.LBE4:
 298              		.loc 1 247 0
 299 004c FFF7FEFF 		bl	port_halt
 300              	.LVL16:
 301 0050 DAE7     		b	.L23
 302              	.LVL17:
 303              	.L28:
 304              	.LBB8:
 305              	.LBB6:
 306              		.loc 1 270 0
 307 0052 0023     		movs	r3, #0
 308 0054 A370     		strb	r3, [r4, #2]
 309              		.loc 1 271 0
 310 0056 2046     		mov	r0, r4
 311              	.LBE6:
 312              	.LBE8:
 313              		.loc 1 274 0
 314 0058 BDE81040 		pop	{r4, lr}
 315              	.LVL18:
 316              	.LBB9:
 317              	.LBB7:
 318              		.loc 1 271 0
 319 005c FFF7FEBF 		b	set_rx_idle_loop
 320              	.LVL19:
 321              	.LBE7:
 322              	.LBE9:
 323              		.cfi_endproc
 324              	.LFE60:
 325              		.size	uart_lld_serve_rx_end_irq, .-uart_lld_serve_rx_end_irq
 326              		.section	.text.VectorD8,"ax",%progbits
 327              		.align	2
 328              		.p2align 4,,15
 329              		.global	VectorD8
 330              		.thumb
 331              		.thumb_func
 332              		.type	VectorD8, %function
 333              	VectorD8:
 334              	.LFB63:
 335              		.loc 1 375 0
 336              		.cfi_startproc
 337              		@ args = 0, pretend = 0, frame = 0
 338              		@ frame_needed = 0, uses_anonymous_args = 0
 339              	.LVL20:
 340 0000 F8B5     		push	{r3, r4, r5, r6, r7, lr}
ARM GAS  /tmp/ccZVh2eZ.s 			page 7


 341              		.cfi_def_cfa_offset 24
 342              		.cfi_offset 3, -24
 343              		.cfi_offset 4, -20
 344              		.cfi_offset 5, -16
 345              		.cfi_offset 6, -12
 346              		.cfi_offset 7, -8
 347              		.cfi_offset 14, -4
 348              	.LBB14:
 349              	.LBB15:
 350              		.loc 1 319 0
 351 0002 1E4E     		ldr	r6, .L71
 352              		.loc 1 325 0
 353 0004 40F20F13 		movw	r3, #271
 354              		.loc 1 319 0
 355 0008 B468     		ldr	r4, [r6, #8]
 356              	.LVL21:
 357              		.loc 1 320 0
 358 000a A289     		ldrh	r2, [r4, #12]
 359              		.loc 1 322 0
 360 000c 2588     		ldrh	r5, [r4]
 361              		.loc 1 320 0
 362 000e 97B2     		uxth	r7, r2
 363              	.LVL22:
 364              		.loc 1 322 0
 365 0010 ADB2     		uxth	r5, r5
 366              	.LVL23:
 367              		.loc 1 325 0
 368 0012 2B40     		ands	r3, r3, r5
 369              		.loc 1 323 0
 370 0014 A288     		ldrh	r2, [r4, #4]
 371              		.loc 1 325 0
 372 0016 E3B1     		cbz	r3, .L39
 373              		.loc 1 327 0
 374 0018 4FF6FF63 		movw	r3, #65279
 375 001c 2380     		strh	r3, [r4]	@ movhi
 376              		.loc 1 328 0
 377 001e 7368     		ldr	r3, [r6, #4]
 378 0020 1B69     		ldr	r3, [r3, #16]
 379 0022 B3B1     		cbz	r3, .L39
 380              	.LVL24:
 381              	.LBB16:
 382              	.LBB17:
 383              		.loc 1 140 0
 384 0024 15F0080F 		tst	r5, #8
 385 0028 14BF     		ite	ne
 386 002a 1021     		movne	r1, #16
 387 002c 0021     		moveq	r1, #0
 388              	.LVL25:
 389              		.loc 1 144 0
 390 002e EA07     		lsls	r2, r5, #31
 391              		.loc 1 145 0
 392 0030 48BF     		it	mi
 393 0032 41F00401 		orrmi	r1, r1, #4
 394              	.LVL26:
 395              		.loc 1 146 0
 396 0036 A807     		lsls	r0, r5, #30
 397              		.loc 1 147 0
ARM GAS  /tmp/ccZVh2eZ.s 			page 8


 398 0038 48BF     		it	mi
 399 003a 41F00801 		orrmi	r1, r1, #8
 400              	.LVL27:
 401              		.loc 1 148 0
 402 003e 6A07     		lsls	r2, r5, #29
 403              		.loc 1 149 0
 404 0040 48BF     		it	mi
 405 0042 41F02001 		orrmi	r1, r1, #32
 406              	.LVL28:
 407              		.loc 1 150 0
 408 0046 E805     		lsls	r0, r5, #23
 409              		.loc 1 151 0
 410 0048 48BF     		it	mi
 411 004a 41F04001 		orrmi	r1, r1, #64
 412              	.LVL29:
 413              	.LBE17:
 414              	.LBE16:
 415              		.loc 1 329 0
 416 004e 0B48     		ldr	r0, .L71
 417 0050 9847     		blx	r3
 418              	.LVL30:
 419              	.L39:
 420              		.loc 1 332 0
 421 0052 6A06     		lsls	r2, r5, #25
 422 0054 0DD5     		bpl	.L47
 423 0056 7B06     		lsls	r3, r7, #25
 424 0058 0BD5     		bpl	.L47
 425              		.loc 1 334 0
 426 005a 4FF6BF73 		movw	r3, #65471
 427 005e 2380     		strh	r3, [r4]	@ movhi
 428              		.loc 1 335 0
 429 0060 27F04007 		bic	r7, r7, #64
 430              	.LVL31:
 431 0064 BFB2     		uxth	r7, r7
 432              		.loc 1 338 0
 433 0066 7368     		ldr	r3, [r6, #4]
 434              		.loc 1 335 0
 435 0068 A781     		strh	r7, [r4, #12]	@ movhi
 436              		.loc 1 338 0
 437 006a 5B68     		ldr	r3, [r3, #4]
 438 006c 0BB1     		cbz	r3, .L47
 439              		.loc 1 339 0
 440 006e 0348     		ldr	r0, .L71
 441 0070 9847     		blx	r3
 442              	.LVL32:
 443              	.L47:
 444              	.LBE15:
 445              	.LBE14:
 446              		.loc 1 382 0
 447 0072 BDE8F840 		pop	{r3, r4, r5, r6, r7, lr}
 448              	.LVL33:
 449              		.loc 1 381 0
 450 0076 FFF7FEBF 		b	_port_irq_epilogue
 451              	.LVL34:
 452              	.L72:
 453 007a 00BF     		.align	2
 454              	.L71:
ARM GAS  /tmp/ccZVh2eZ.s 			page 9


 455 007c 00000000 		.word	.LANCHOR0
 456              		.cfi_endproc
 457              	.LFE63:
 458              		.size	VectorD8, .-VectorD8
 459              		.section	.text.uart_lld_init,"ax",%progbits
 460              		.align	2
 461              		.p2align 4,,15
 462              		.global	uart_lld_init
 463              		.thumb
 464              		.thumb_func
 465              		.type	uart_lld_init, %function
 466              	uart_lld_init:
 467              	.LFB64:
 468              		.loc 1 470 0
 469              		.cfi_startproc
 470              		@ args = 0, pretend = 0, frame = 0
 471              		@ frame_needed = 0, uses_anonymous_args = 0
 472 0000 10B5     		push	{r4, lr}
 473              		.cfi_def_cfa_offset 8
 474              		.cfi_offset 4, -8
 475              		.cfi_offset 14, -4
 476              		.loc 1 481 0
 477 0002 074C     		ldr	r4, .L74
 478 0004 2046     		mov	r0, r4
 479 0006 FFF7FEFF 		bl	uartObjectInit
 480              	.LVL35:
 481              		.loc 1 484 0
 482 000a 064B     		ldr	r3, .L74+4
 483              		.loc 1 482 0
 484 000c 0648     		ldr	r0, .L74+8
 485              		.loc 1 483 0
 486 000e 0821     		movs	r1, #8
 487              		.loc 1 485 0
 488 0010 03F10C02 		add	r2, r3, #12
 489              		.loc 1 482 0
 490 0014 A060     		str	r0, [r4, #8]
 491              		.loc 1 483 0
 492 0016 E160     		str	r1, [r4, #12]
 493              		.loc 1 484 0
 494 0018 2361     		str	r3, [r4, #16]
 495              		.loc 1 485 0
 496 001a 6261     		str	r2, [r4, #20]
 497 001c 10BD     		pop	{r4, pc}
 498              	.L75:
 499 001e 00BF     		.align	2
 500              	.L74:
 501 0020 00000000 		.word	.LANCHOR0
 502 0024 3C000000 		.word	_stm32_dma_streams+60
 503 0028 00440040 		.word	1073759232
 504              		.cfi_endproc
 505              	.LFE64:
 506              		.size	uart_lld_init, .-uart_lld_init
 507 002c AFF30080 		.section	.text.uart_lld_start,"ax",%progbits
 508              		.align	2
 509              		.p2align 4,,15
 510              		.global	uart_lld_start
 511              		.thumb
ARM GAS  /tmp/ccZVh2eZ.s 			page 10


 512              		.thumb_func
 513              		.type	uart_lld_start, %function
 514              	uart_lld_start:
 515              	.LFB65:
 516              		.loc 1 527 0
 517              		.cfi_startproc
 518              		@ args = 0, pretend = 0, frame = 0
 519              		@ frame_needed = 0, uses_anonymous_args = 0
 520              	.LVL36:
 521 0000 38B5     		push	{r3, r4, r5, lr}
 522              		.cfi_def_cfa_offset 16
 523              		.cfi_offset 3, -16
 524              		.cfi_offset 4, -12
 525              		.cfi_offset 5, -8
 526              		.cfi_offset 14, -4
 527              		.loc 1 529 0
 528 0002 0378     		ldrb	r3, [r0]	@ zero_extendqisi2
 529              		.loc 1 527 0
 530 0004 0446     		mov	r4, r0
 531              		.loc 1 529 0
 532 0006 012B     		cmp	r3, #1
 533 0008 30D0     		beq	.L82
 534              	.LVL37:
 535              	.L77:
 536              		.loc 1 681 0
 537 000a 0023     		movs	r3, #0
 538 000c A370     		strb	r3, [r4, #2]
 539              		.loc 1 682 0
 540 000e 6370     		strb	r3, [r4, #1]
 541              	.LVL38:
 542              	.LBB21:
 543              	.LBB22:
 544              		.loc 1 204 0
 545 0010 2046     		mov	r0, r4
 546              		.loc 1 201 0
 547 0012 A568     		ldr	r5, [r4, #8]
 548              	.LVL39:
 549              		.loc 1 204 0
 550 0014 FFF7FEFF 		bl	usart_stop
 551              	.LVL40:
 552              		.loc 1 210 0
 553 0018 A368     		ldr	r3, [r4, #8]
 554 001a 2D4A     		ldr	r2, .L85
 555              		.loc 1 233 0
 556 001c 2046     		mov	r0, r4
 557              		.loc 1 210 0
 558 001e 9342     		cmp	r3, r2
 559              		.loc 1 212 0
 560 0020 6368     		ldr	r3, [r4, #4]
 561 0022 08BF     		it	eq
 562 0024 2B4A     		ldreq	r2, .L85+4
 563              		.loc 1 214 0
 564 0026 5B69     		ldr	r3, [r3, #20]
 565 0028 18BF     		it	ne
 566 002a 2B4A     		ldrne	r2, .L85+8
 567 002c B2FBF3F3 		udiv	r3, r2, r3
 568 0030 9BB2     		uxth	r3, r3
ARM GAS  /tmp/ccZVh2eZ.s 			page 11


 569 0032 2B81     		strh	r3, [r5, #8]	@ movhi
 570              		.loc 1 219 0
 571 0034 0023     		movs	r3, #0
 572              		.loc 1 217 0
 573 0036 2A88     		ldrh	r2, [r5]
 574              		.loc 1 218 0
 575 0038 AA88     		ldrh	r2, [r5, #4]
 576              		.loc 1 219 0
 577 003a 2B80     		strh	r3, [r5]	@ movhi
 578              		.loc 1 223 0
 579 003c 6368     		ldr	r3, [r4, #4]
 580 003e 5B8B     		ldrh	r3, [r3, #26]
 581 0040 43F04003 		orr	r3, r3, #64
 582 0044 9BB2     		uxth	r3, r3
 583 0046 2B82     		strh	r3, [r5, #16]	@ movhi
 584              		.loc 1 224 0
 585 0048 6368     		ldr	r3, [r4, #4]
 586 004a 9B8B     		ldrh	r3, [r3, #28]
 587 004c 43F0C103 		orr	r3, r3, #193
 588 0050 9BB2     		uxth	r3, r3
 589 0052 AB82     		strh	r3, [r5, #20]	@ movhi
 590              	.LVL41:
 591              		.loc 1 230 0
 592 0054 6368     		ldr	r3, [r4, #4]
 593 0056 1B8B     		ldrh	r3, [r3, #24]
 594 0058 43F40453 		orr	r3, r3, #8448
 595 005c 43F00C03 		orr	r3, r3, #12
 596 0060 9BB2     		uxth	r3, r3
 597 0062 AB81     		strh	r3, [r5, #12]	@ movhi
 598              	.LBE22:
 599              	.LBE21:
 600              		.loc 1 684 0
 601 0064 BDE83840 		pop	{r3, r4, r5, lr}
 602              	.LVL42:
 603              	.LBB24:
 604              	.LBB23:
 605              		.loc 1 233 0
 606 0068 FFF7FEBF 		b	set_rx_idle_loop
 607              	.LVL43:
 608              	.L82:
 609              	.LBE23:
 610              	.LBE24:
 611              		.loc 1 552 0
 612 006c 1B4B     		ldr	r3, .L85+12
 613 006e 9842     		cmp	r0, r3
 614 0070 18D0     		beq	.L83
 615              	.LVL44:
 616              	.L78:
 617              		.loc 1 674 0
 618 0072 6368     		ldr	r3, [r4, #4]
 619 0074 1B8B     		ldrh	r3, [r3, #24]
 620 0076 03F4A053 		and	r3, r3, #5120
 621 007a B3F5805F 		cmp	r3, #4096
 622 007e 0CD0     		beq	.L84
 623              	.L79:
 624              		.loc 1 676 0
 625 0080 2269     		ldr	r2, [r4, #16]
ARM GAS  /tmp/ccZVh2eZ.s 			page 12


 626 0082 A368     		ldr	r3, [r4, #8]
 627 0084 1268     		ldr	r2, [r2]
 628 0086 0433     		adds	r3, r3, #4
 629 0088 9360     		str	r3, [r2, #8]
 630              		.loc 1 677 0
 631 008a 6269     		ldr	r2, [r4, #20]
 632 008c A368     		ldr	r3, [r4, #8]
 633 008e 1168     		ldr	r1, [r2]
 634 0090 0433     		adds	r3, r3, #4
 635              		.loc 1 678 0
 636 0092 0022     		movs	r2, #0
 637              		.loc 1 677 0
 638 0094 8B60     		str	r3, [r1, #8]
 639              		.loc 1 678 0
 640 0096 2283     		strh	r2, [r4, #24]	@ movhi
 641 0098 B7E7     		b	.L77
 642              	.L84:
 643              		.loc 1 675 0
 644 009a E368     		ldr	r3, [r4, #12]
 645 009c 43F4A063 		orr	r3, r3, #1280
 646 00a0 E360     		str	r3, [r4, #12]
 647 00a2 EDE7     		b	.L79
 648              	.LVL45:
 649              	.L83:
 650              	.LBB25:
 651              		.loc 1 554 0
 652 00a4 2346     		mov	r3, r4
 653 00a6 0C21     		movs	r1, #12
 654 00a8 0D4A     		ldr	r2, .L85+16
 655 00aa 0069     		ldr	r0, [r0, #16]
 656              	.LVL46:
 657 00ac FFF7FEFF 		bl	dmaStreamAllocate
 658              	.LVL47:
 659              		.loc 1 559 0
 660 00b0 2346     		mov	r3, r4
 661 00b2 6069     		ldr	r0, [r4, #20]
 662 00b4 0C21     		movs	r1, #12
 663 00b6 0B4A     		ldr	r2, .L85+20
 664 00b8 FFF7FEFF 		bl	dmaStreamAllocate
 665              	.LVL48:
 666              		.loc 1 564 0
 667 00bc 0A4B     		ldr	r3, .L85+24
 668              		.loc 1 565 0
 669 00be 2620     		movs	r0, #38
 670              		.loc 1 564 0
 671 00c0 DA69     		ldr	r2, [r3, #28]
 672              		.loc 1 565 0
 673 00c2 C021     		movs	r1, #192
 674              		.loc 1 564 0
 675 00c4 42F40032 		orr	r2, r2, #131072
 676 00c8 DA61     		str	r2, [r3, #28]
 677              		.loc 1 565 0
 678 00ca FFF7FEFF 		bl	nvicEnableVector
 679              	.LVL49:
 680 00ce D0E7     		b	.L78
 681              	.L86:
 682              		.align	2
ARM GAS  /tmp/ccZVh2eZ.s 			page 13


 683              	.L85:
 684 00d0 00380140 		.word	1073821696
 685 00d4 00366E01 		.word	24000000
 686 00d8 001BB700 		.word	12000000
 687 00dc 00000000 		.word	.LANCHOR0
 688 00e0 00000000 		.word	uart_lld_serve_rx_end_irq
 689 00e4 00000000 		.word	uart_lld_serve_tx_end_irq
 690 00e8 00100240 		.word	1073876992
 691              	.LBE25:
 692              		.cfi_endproc
 693              	.LFE65:
 694              		.size	uart_lld_start, .-uart_lld_start
 695 00ec AFF30080 		.section	.text.uart_lld_stop,"ax",%progbits
 696              		.align	2
 697              		.p2align 4,,15
 698              		.global	uart_lld_stop
 699              		.thumb
 700              		.thumb_func
 701              		.type	uart_lld_stop, %function
 702              	uart_lld_stop:
 703              	.LFB66:
 704              		.loc 1 693 0
 705              		.cfi_startproc
 706              		@ args = 0, pretend = 0, frame = 0
 707              		@ frame_needed = 0, uses_anonymous_args = 0
 708              	.LVL50:
 709 0000 10B5     		push	{r4, lr}
 710              		.cfi_def_cfa_offset 8
 711              		.cfi_offset 4, -8
 712              		.cfi_offset 14, -4
 713              		.loc 1 695 0
 714 0002 0378     		ldrb	r3, [r0]	@ zero_extendqisi2
 715              		.loc 1 693 0
 716 0004 0446     		mov	r4, r0
 717              		.loc 1 695 0
 718 0006 022B     		cmp	r3, #2
 719 0008 00D0     		beq	.L91
 720              	.LVL51:
 721              	.L87:
 722 000a 10BD     		pop	{r4, pc}
 723              	.LVL52:
 724              	.L91:
 725              		.loc 1 696 0
 726 000c FFF7FEFF 		bl	usart_stop
 727              	.LVL53:
 728              		.loc 1 697 0
 729 0010 2069     		ldr	r0, [r4, #16]
 730 0012 FFF7FEFF 		bl	dmaStreamRelease
 731              	.LVL54:
 732              		.loc 1 698 0
 733 0016 6069     		ldr	r0, [r4, #20]
 734 0018 FFF7FEFF 		bl	dmaStreamRelease
 735              	.LVL55:
 736              		.loc 1 709 0
 737 001c 054B     		ldr	r3, .L92
 738 001e 9C42     		cmp	r4, r3
 739 0020 F3D1     		bne	.L87
ARM GAS  /tmp/ccZVh2eZ.s 			page 14


 740              		.loc 1 710 0
 741 0022 2620     		movs	r0, #38
 742 0024 FFF7FEFF 		bl	nvicDisableVector
 743              	.LVL56:
 744              		.loc 1 711 0
 745 0028 034B     		ldr	r3, .L92+4
 746 002a DA69     		ldr	r2, [r3, #28]
 747 002c 22F40032 		bic	r2, r2, #131072
 748 0030 DA61     		str	r2, [r3, #28]
 749              		.loc 1 712 0
 750 0032 EAE7     		b	.L87
 751              	.L93:
 752              		.align	2
 753              	.L92:
 754 0034 00000000 		.word	.LANCHOR0
 755 0038 00100240 		.word	1073876992
 756              		.cfi_endproc
 757              	.LFE66:
 758              		.size	uart_lld_stop, .-uart_lld_stop
 759 003c AFF30080 		.section	.text.uart_lld_start_send,"ax",%progbits
 760              		.align	2
 761              		.p2align 4,,15
 762              		.global	uart_lld_start_send
 763              		.thumb
 764              		.thumb_func
 765              		.type	uart_lld_start_send, %function
 766              	uart_lld_start_send:
 767              	.LFB67:
 768              		.loc 1 761 0
 769              		.cfi_startproc
 770              		@ args = 0, pretend = 0, frame = 0
 771              		@ frame_needed = 0, uses_anonymous_args = 0
 772              		@ link register save eliminated.
 773              	.LVL57:
 774              		.loc 1 764 0
 775 0000 4369     		ldr	r3, [r0, #20]
 776 0002 1B68     		ldr	r3, [r3]
 777 0004 DA60     		str	r2, [r3, #12]
 778              		.loc 1 765 0
 779 0006 4369     		ldr	r3, [r0, #20]
 780 0008 1B68     		ldr	r3, [r3]
 781 000a 5960     		str	r1, [r3, #4]
 782              		.loc 1 766 0
 783 000c 4269     		ldr	r2, [r0, #20]
 784              	.LVL58:
 785 000e C368     		ldr	r3, [r0, #12]
 786 0010 1268     		ldr	r2, [r2]
 787 0012 43F09203 		orr	r3, r3, #146
 788 0016 1360     		str	r3, [r2]
 789              		.loc 1 768 0
 790 0018 4369     		ldr	r3, [r0, #20]
 791 001a 1B68     		ldr	r3, [r3]
 792 001c 1A68     		ldr	r2, [r3]
 793 001e 42F00102 		orr	r2, r2, #1
 794 0022 1A60     		str	r2, [r3]
 795 0024 7047     		bx	lr
 796              		.cfi_endproc
ARM GAS  /tmp/ccZVh2eZ.s 			page 15


 797              	.LFE67:
 798              		.size	uart_lld_start_send, .-uart_lld_start_send
 799 0026 00BFAFF3 		.section	.text.uart_lld_stop_send,"ax",%progbits
 799      0080AFF3 
 799      0080
 800              		.align	2
 801              		.p2align 4,,15
 802              		.global	uart_lld_stop_send
 803              		.thumb
 804              		.thumb_func
 805              		.type	uart_lld_stop_send, %function
 806              	uart_lld_stop_send:
 807              	.LFB68:
 808              		.loc 1 782 0
 809              		.cfi_startproc
 810              		@ args = 0, pretend = 0, frame = 0
 811              		@ frame_needed = 0, uses_anonymous_args = 0
 812              		@ link register save eliminated.
 813              	.LVL59:
 814              		.loc 1 784 0
 815 0000 4369     		ldr	r3, [r0, #20]
 816 0002 0F21     		movs	r1, #15
 817 0004 1B68     		ldr	r3, [r3]
 818 0006 1A68     		ldr	r2, [r3]
 819 0008 22F00F02 		bic	r2, r2, #15
 820 000c 1A60     		str	r2, [r3]
 821 000e 4369     		ldr	r3, [r0, #20]
 822 0010 1A7A     		ldrb	r2, [r3, #8]	@ zero_extendqisi2
 823 0012 5B68     		ldr	r3, [r3, #4]
 824 0014 01FA02F2 		lsl	r2, r1, r2
 825 0018 1A60     		str	r2, [r3]
 826              		.loc 1 785 0
 827 001a 4369     		ldr	r3, [r0, #20]
 828 001c 1B68     		ldr	r3, [r3]
 829 001e 5868     		ldr	r0, [r3, #4]
 830              	.LVL60:
 831              		.loc 1 786 0
 832 0020 7047     		bx	lr
 833              		.cfi_endproc
 834              	.LFE68:
 835              		.size	uart_lld_stop_send, .-uart_lld_stop_send
 836 0022 00BFAFF3 		.section	.text.uart_lld_start_receive,"ax",%progbits
 836      0080AFF3 
 836      0080AFF3 
 836      0080
 837              		.align	2
 838              		.p2align 4,,15
 839              		.global	uart_lld_start_receive
 840              		.thumb
 841              		.thumb_func
 842              		.type	uart_lld_start_receive, %function
 843              	uart_lld_start_receive:
 844              	.LFB69:
 845              		.loc 1 799 0
 846              		.cfi_startproc
 847              		@ args = 0, pretend = 0, frame = 0
 848              		@ frame_needed = 0, uses_anonymous_args = 0
ARM GAS  /tmp/ccZVh2eZ.s 			page 16


 849              		@ link register save eliminated.
 850              	.LVL61:
 851 0000 30B4     		push	{r4, r5}
 852              		.cfi_def_cfa_offset 8
 853              		.cfi_offset 4, -8
 854              		.cfi_offset 5, -4
 855              		.loc 1 802 0
 856 0002 0369     		ldr	r3, [r0, #16]
 857 0004 0F24     		movs	r4, #15
 858 0006 1B68     		ldr	r3, [r3]
 859 0008 1D68     		ldr	r5, [r3]
 860 000a 25F00F05 		bic	r5, r5, #15
 861 000e 1D60     		str	r5, [r3]
 862 0010 0369     		ldr	r3, [r0, #16]
 863 0012 1D7A     		ldrb	r5, [r3, #8]	@ zero_extendqisi2
 864 0014 5B68     		ldr	r3, [r3, #4]
 865 0016 AC40     		lsls	r4, r4, r5
 866 0018 1C60     		str	r4, [r3]
 867              		.loc 1 805 0
 868 001a 0369     		ldr	r3, [r0, #16]
 869 001c 1B68     		ldr	r3, [r3]
 870 001e DA60     		str	r2, [r3, #12]
 871              		.loc 1 806 0
 872 0020 0369     		ldr	r3, [r0, #16]
 873 0022 1B68     		ldr	r3, [r3]
 874 0024 5960     		str	r1, [r3, #4]
 875              		.loc 1 807 0
 876 0026 0269     		ldr	r2, [r0, #16]
 877              	.LVL62:
 878 0028 C368     		ldr	r3, [r0, #12]
 879 002a 1268     		ldr	r2, [r2]
 880 002c 43F08203 		orr	r3, r3, #130
 881 0030 1360     		str	r3, [r2]
 882              		.loc 1 809 0
 883 0032 0369     		ldr	r3, [r0, #16]
 884 0034 1B68     		ldr	r3, [r3]
 885 0036 1A68     		ldr	r2, [r3]
 886 0038 42F00102 		orr	r2, r2, #1
 887 003c 1A60     		str	r2, [r3]
 888              		.loc 1 810 0
 889 003e 30BC     		pop	{r4, r5}
 890 0040 7047     		bx	lr
 891              		.cfi_endproc
 892              	.LFE69:
 893              		.size	uart_lld_start_receive, .-uart_lld_start_receive
 894 0042 00BFAFF3 		.section	.text.uart_lld_stop_receive,"ax",%progbits
 894      0080AFF3 
 894      0080AFF3 
 894      0080
 895              		.align	2
 896              		.p2align 4,,15
 897              		.global	uart_lld_stop_receive
 898              		.thumb
 899              		.thumb_func
 900              		.type	uart_lld_stop_receive, %function
 901              	uart_lld_stop_receive:
 902              	.LFB70:
ARM GAS  /tmp/ccZVh2eZ.s 			page 17


 903              		.loc 1 823 0
 904              		.cfi_startproc
 905              		@ args = 0, pretend = 0, frame = 0
 906              		@ frame_needed = 0, uses_anonymous_args = 0
 907              	.LVL63:
 908 0000 10B5     		push	{r4, lr}
 909              		.cfi_def_cfa_offset 8
 910              		.cfi_offset 4, -8
 911              		.cfi_offset 14, -4
 912              		.loc 1 826 0
 913 0002 0269     		ldr	r2, [r0, #16]
 914 0004 0F24     		movs	r4, #15
 915 0006 1268     		ldr	r2, [r2]
 916 0008 1168     		ldr	r1, [r2]
 917 000a 21F00F01 		bic	r1, r1, #15
 918 000e 1160     		str	r1, [r2]
 919 0010 0269     		ldr	r2, [r0, #16]
 920 0012 117A     		ldrb	r1, [r2, #8]	@ zero_extendqisi2
 921 0014 5268     		ldr	r2, [r2, #4]
 922 0016 04FA01F1 		lsl	r1, r4, r1
 923 001a 1160     		str	r1, [r2]
 924              		.loc 1 827 0
 925 001c 0369     		ldr	r3, [r0, #16]
 926 001e 1B68     		ldr	r3, [r3]
 927 0020 5C68     		ldr	r4, [r3, #4]
 928              	.LVL64:
 929              		.loc 1 828 0
 930 0022 FFF7FEFF 		bl	set_rx_idle_loop
 931              	.LVL65:
 932              		.loc 1 830 0
 933 0026 2046     		mov	r0, r4
 934 0028 10BD     		pop	{r4, pc}
 935              		.cfi_endproc
 936              	.LFE70:
 937              		.size	uart_lld_stop_receive, .-uart_lld_stop_receive
 938              		.global	UARTD2
 939 002a 00BFAFF3 		.section	.bss.UARTD2,"aw",%nobits
 939      0080
 940              		.align	2
 941              		.set	.LANCHOR0,. + 0
 942              		.type	UARTD2, %object
 943              		.size	UARTD2, 28
 944              	UARTD2:
 945 0000 00000000 		.space	28
 945      00000000 
 945      00000000 
 945      00000000 
 945      00000000 
 946              		.text
 947              	.Letext0:
 948              		.file 2 "/usr/lib/gcc/arm-none-eabi/4.8/include/stddef.h"
 949              		.file 3 "/usr/include/newlib/machine/_default_types.h"
 950              		.file 4 "/usr/include/newlib/stdint.h"
 951              		.file 5 "../os/ports/GCC/ARMCMx/chtypes.h"
 952              		.file 6 "../os/hal/platforms/STM32F1xx/stm32f10x.h"
 953              		.file 7 "../os/hal/platforms/STM32F1xx/stm32_dma.h"
 954              		.file 8 "../os/hal/include/uart.h"
ARM GAS  /tmp/ccZVh2eZ.s 			page 18


 955              		.file 9 "../os/hal/platforms/STM32/USARTv1/uart_lld.h"
 956              		.file 10 "../os/ports/common/ARMCMx/CMSIS/include/core_cm3.h"
 957              		.file 11 "../os/ports/GCC/ARMCMx/chcore_v7m.h"
 958              		.file 12 "../os/ports/common/ARMCMx/nvic.h"