ARM GAS  /tmp/ccZVh2eZ.s 			page 1


   1              		.syntax unified
   2              		.cpu cortex-m3
   3              		.fpu softvfp
   4              		.eabi_attribute 20, 1
   5              		.eabi_attribute 21, 1
   6              		.eabi_attribute 23, 3
   7              		.eabi_attribute 24, 1
   8              		.eabi_attribute 25, 1
   9              		.eabi_attribute 26, 1
  10              		.eabi_attribute 30, 2
  11              		.eabi_attribute 34, 1
  12              		.eabi_attribute 18, 4
  13              		.thumb
  14              		.file	"uart_lld.c"
  15              		.text
  16              	.Ltext0:
  17              		.cfi_sections	.debug_frame
  18              		.section	.text.set_rx_idle_loop,"ax",%progbits
  19              		.align	2
  20              		.p2align 4,,15
  21              		.thumb
  22              		.thumb_func
  23              		.type	set_rx_idle_loop, %function
  24              	set_rx_idle_loop:
  25              	.LFB57:
  26              		.file 1 "../os/hal/platforms/STM32/USARTv1/uart_lld.c"
  27              		.loc 1 160 0
  28              		.cfi_startproc
  29              		@ args = 0, pretend = 0, frame = 0
  30              		@ frame_needed = 0, uses_anonymous_args = 0
  31              		@ link register save eliminated.
  32              	.LVL0:
  33 0000 10B4     		push	{r4}
  34              		.cfi_def_cfa_offset 4
  35              		.cfi_offset 4, -4
  36              		.loc 1 169 0
  37 0002 0269     		ldr	r2, [r0, #16]
  38              		.loc 1 165 0
  39 0004 4368     		ldr	r3, [r0, #4]
  40              		.loc 1 169 0
  41 0006 1268     		ldr	r2, [r2]
  42 0008 00F11804 		add	r4, r0, #24
  43              		.loc 1 165 0
  44 000c D968     		ldr	r1, [r3, #12]
  45              		.loc 1 169 0
  46 000e D460     		str	r4, [r2, #12]
  47              		.loc 1 170 0
  48 0010 0369     		ldr	r3, [r0, #16]
  49 0012 0122     		movs	r2, #1
  50 0014 1B68     		ldr	r3, [r3]
  51              		.loc 1 165 0
  52 0016 0029     		cmp	r1, #0
  53              		.loc 1 170 0
  54 0018 5A60     		str	r2, [r3, #4]
  55              		.loc 1 171 0
  56 001a 0269     		ldr	r2, [r0, #16]
  57 001c C368     		ldr	r3, [r0, #12]
ARM GAS  /tmp/ccZVh2eZ.s 			page 2


  58 001e 1268     		ldr	r2, [r2]
  59              		.loc 1 166 0
  60 0020 14BF     		ite	ne
  61 0022 2221     		movne	r1, #34
  62 0024 2021     		moveq	r1, #32
  63              	.LVL1:
  64              		.loc 1 171 0
  65 0026 0B43     		orrs	r3, r3, r1
  66 0028 1360     		str	r3, [r2]
  67              		.loc 1 172 0
  68 002a 0369     		ldr	r3, [r0, #16]
  69 002c 1B68     		ldr	r3, [r3]
  70 002e 1A68     		ldr	r2, [r3]
  71 0030 42F00102 		orr	r2, r2, #1
  72 0034 1A60     		str	r2, [r3]
  73              		.loc 1 173 0
  74 0036 5DF8044B 		ldr	r4, [sp], #4
  75 003a 7047     		bx	lr
  76              		.cfi_endproc
  77              	.LFE57:
  78              		.size	set_rx_idle_loop, .-set_rx_idle_loop
  79 003c AFF30080 		.section	.text.usart_stop,"ax",%progbits
  80              		.align	2
  81              		.p2align 4,,15
  82              		.thumb
  83              		.thumb_func
  84              		.type	usart_stop, %function
  85              	usart_stop:
  86              	.LFB58:
  87              		.loc 1 181 0
  88              		.cfi_startproc
  89              		@ args = 0, pretend = 0, frame = 0
  90              		@ frame_needed = 0, uses_anonymous_args = 0
  91              		@ link register save eliminated.
  92              	.LVL2:
  93 0000 10B4     		push	{r4}
  94              		.cfi_def_cfa_offset 4
  95              		.cfi_offset 4, -4
  96              		.loc 1 184 0
  97 0002 0369     		ldr	r3, [r0, #16]
  98 0004 0F22     		movs	r2, #15
  99 0006 1968     		ldr	r1, [r3]
 100              		.loc 1 188 0
 101 0008 0023     		movs	r3, #0
 102              		.loc 1 184 0
 103 000a 0C68     		ldr	r4, [r1]
 104 000c 24F00F04 		bic	r4, r4, #15
 105 0010 0C60     		str	r4, [r1]
 106 0012 0169     		ldr	r1, [r0, #16]
 107 0014 0C7A     		ldrb	r4, [r1, #8]	@ zero_extendqisi2
 108 0016 4968     		ldr	r1, [r1, #4]
 109 0018 02FA04F4 		lsl	r4, r2, r4
 110 001c 0C60     		str	r4, [r1]
 111              		.loc 1 185 0
 112 001e 4169     		ldr	r1, [r0, #20]
 113 0020 0968     		ldr	r1, [r1]
 114 0022 0C68     		ldr	r4, [r1]
ARM GAS  /tmp/ccZVh2eZ.s 			page 3


 115 0024 24F00F04 		bic	r4, r4, #15
 116 0028 0C60     		str	r4, [r1]
 117 002a 4169     		ldr	r1, [r0, #20]
 118 002c 0C7A     		ldrb	r4, [r1, #8]	@ zero_extendqisi2
 119 002e 4968     		ldr	r1, [r1, #4]
 120 0030 A240     		lsls	r2, r2, r4
 121 0032 0A60     		str	r2, [r1]
 122              		.loc 1 188 0
 123 0034 8268     		ldr	r2, [r0, #8]
 124 0036 9381     		strh	r3, [r2, #12]	@ movhi
 125              		.loc 1 189 0
 126 0038 8268     		ldr	r2, [r0, #8]
 127 003a 1382     		strh	r3, [r2, #16]	@ movhi
 128              		.loc 1 190 0
 129 003c 8268     		ldr	r2, [r0, #8]
 130 003e 9382     		strh	r3, [r2, #20]	@ movhi
 131              		.loc 1 191 0
 132 0040 5DF8044B 		ldr	r4, [sp], #4
 133 0044 7047     		bx	lr
 134              		.cfi_endproc
 135              	.LFE58:
 136              		.size	usart_stop, .-usart_stop
 137 0046 00BFAFF3 		.section	.text.uart_lld_serve_tx_end_irq,"ax",%progbits
 137      0080AFF3 
 137      0080
 138              		.align	2
 139              		.p2align 4,,15
 140              		.thumb
 141              		.thumb_func
 142              		.type	uart_lld_serve_tx_end_irq, %function
 143              	uart_lld_serve_tx_end_irq:
 144              	.LFB61:
 145              		.loc 1 282 0
 146              		.cfi_startproc
 147              		@ args = 0, pretend = 0, frame = 0
 148              		@ frame_needed = 0, uses_anonymous_args = 0
 149              	.LVL3:
 150              		.loc 1 286 0
 151 0000 0B07     		lsls	r3, r1, #28
 152              		.loc 1 282 0
 153 0002 10B5     		push	{r4, lr}
 154              		.cfi_def_cfa_offset 8
 155              		.cfi_offset 4, -8
 156              		.cfi_offset 14, -4
 157              		.loc 1 282 0
 158 0004 0446     		mov	r4, r0
 159              		.loc 1 286 0
 160 0006 23D4     		bmi	.L21
 161              	.LVL4:
 162              	.L6:
 163              		.loc 1 293 0
 164 0008 6369     		ldr	r3, [r4, #20]
 165 000a 0F21     		movs	r1, #15
 166 000c 1B68     		ldr	r3, [r3]
 167 000e 1A68     		ldr	r2, [r3]
 168 0010 22F00F02 		bic	r2, r2, #15
 169 0014 1A60     		str	r2, [r3]
ARM GAS  /tmp/ccZVh2eZ.s 			page 4


 170 0016 6369     		ldr	r3, [r4, #20]
 171 0018 1A7A     		ldrb	r2, [r3, #8]	@ zero_extendqisi2
 172 001a 5B68     		ldr	r3, [r3, #4]
 173 001c 01FA02F2 		lsl	r2, r1, r2
 174 0020 1A60     		str	r2, [r3]
 175              		.loc 1 298 0
 176 0022 6368     		ldr	r3, [r4, #4]
 177 0024 5A68     		ldr	r2, [r3, #4]
 178 0026 32B1     		cbz	r2, .L7
 179              		.loc 1 299 0
 180 0028 A368     		ldr	r3, [r4, #8]
 181 002a 9A89     		ldrh	r2, [r3, #12]
 182 002c 92B2     		uxth	r2, r2
 183 002e 42F04002 		orr	r2, r2, #64
 184 0032 9A81     		strh	r2, [r3, #12]	@ movhi
 185 0034 6368     		ldr	r3, [r4, #4]
 186              	.L7:
 187              		.loc 1 302 0
 188 0036 0222     		movs	r2, #2
 189 0038 6270     		strb	r2, [r4, #1]
 190              		.loc 1 303 0
 191 003a 1B68     		ldr	r3, [r3]
 192 003c 2BB1     		cbz	r3, .L10
 193              		.loc 1 304 0
 194 003e 2046     		mov	r0, r4
 195 0040 9847     		blx	r3
 196              	.LVL5:
 197              		.loc 1 308 0
 198 0042 6378     		ldrb	r3, [r4, #1]	@ zero_extendqisi2
 199 0044 022B     		cmp	r3, #2
 200 0046 00D0     		beq	.L10
 201 0048 10BD     		pop	{r4, pc}
 202              	.LVL6:
 203              	.L10:
 204              		.loc 1 309 0
 205 004a 0023     		movs	r3, #0
 206 004c 6370     		strb	r3, [r4, #1]
 207 004e 10BD     		pop	{r4, pc}
 208              	.LVL7:
 209              	.L21:
 210              		.loc 1 287 0
 211 0050 FFF7FEFF 		bl	port_halt
 212              	.LVL8:
 213 0054 D8E7     		b	.L6
 214              		.cfi_endproc
 215              	.LFE61:
 216              		.size	uart_lld_serve_tx_end_irq, .-uart_lld_serve_tx_end_irq
 217              		.section	.text.uart_lld_serve_rx_end_irq,"ax",%progbits
 218              		.align	2
 219              		.p2align 4,,15
 220              		.thumb
 221              		.thumb_func
 222              		.type	uart_lld_serve_rx_end_irq, %function
 223              	uart_lld_serve_rx_end_irq:
 224              	.LFB60:
 225              		.loc 1 242 0
 226              		.cfi_startproc
ARM GAS  /tmp/ccZVh2eZ.s 			page 5


 227              		@ args = 0, pretend = 0, frame = 0
 228              		@ frame_needed = 0, uses_anonymous_args = 0
 229              	.LVL9:
 230              		.loc 1 246 0
 231 0000 0B07     		lsls	r3, r1, #28
 232              		.loc 1 242 0
 233 0002 10B5     		push	{r4, lr}
 234              		.cfi_def_cfa_offset 8
 235              		.cfi_offset 4, -8
 236              		.cfi_offset 14, -4
 237              		.loc 1 242 0
 238 0004 0446     		mov	r4, r0
 239              		.loc 1 246 0
 240 0006 21D4     		bmi	.L36
 241              	.LVL10:
 242              	.L23:
 243              		.loc 1 253 0
 244 0008 A378     		ldrb	r3, [r4, #2]	@ zero_extendqisi2
 245 000a 3BB9     		cbnz	r3, .L24
 246              		.loc 1 256 0
 247 000c 6368     		ldr	r3, [r4, #4]
 248 000e DB68     		ldr	r3, [r3, #12]
 249 0010 DBB1     		cbz	r3, .L22
 250              		.loc 1 257 0
 251 0012 218B     		ldrh	r1, [r4, #24]
 252 0014 2046     		mov	r0, r4
 253 0016 89B2     		uxth	r1, r1
 254 0018 9847     		blx	r3
 255              	.LVL11:
 256 001a 10BD     		pop	{r4, pc}
 257              	.LVL12:
 258              	.L24:
 259              	.LBB4:
 260              	.LBB5:
 261              		.loc 1 262 0
 262 001c 2369     		ldr	r3, [r4, #16]
 263 001e 0F20     		movs	r0, #15
 264 0020 1B68     		ldr	r3, [r3]
 265              		.loc 1 263 0
 266 0022 0222     		movs	r2, #2
 267              		.loc 1 262 0
 268 0024 1968     		ldr	r1, [r3]
 269 0026 21F00F01 		bic	r1, r1, #15
 270 002a 1960     		str	r1, [r3]
 271 002c 2369     		ldr	r3, [r4, #16]
 272 002e 197A     		ldrb	r1, [r3, #8]	@ zero_extendqisi2
 273 0030 5B68     		ldr	r3, [r3, #4]
 274 0032 00FA01F1 		lsl	r1, r0, r1
 275 0036 1960     		str	r1, [r3]
 276              		.loc 1 264 0
 277 0038 6368     		ldr	r3, [r4, #4]
 278              		.loc 1 263 0
 279 003a A270     		strb	r2, [r4, #2]
 280              		.loc 1 264 0
 281 003c 9B68     		ldr	r3, [r3, #8]
 282 003e 43B1     		cbz	r3, .L28
 283              		.loc 1 265 0
ARM GAS  /tmp/ccZVh2eZ.s 			page 6


 284 0040 2046     		mov	r0, r4
 285 0042 9847     		blx	r3
 286              	.LVL13:
 287              		.loc 1 269 0
 288 0044 A378     		ldrb	r3, [r4, #2]	@ zero_extendqisi2
 289 0046 022B     		cmp	r3, #2
 290 0048 03D0     		beq	.L28
 291              	.LVL14:
 292              	.L22:
 293 004a 10BD     		pop	{r4, pc}
 294              	.LVL15:
 295              	.L36:
 296              	.LBE5:
 297              	.LBE4:
 298              		.loc 1 247 0
 299 004c FFF7FEFF 		bl	port_halt
 300              	.LVL16:
 301 0050 DAE7     		b	.L23
 302              	.LVL17:
 303              	.L28:
 304              	.LBB8:
 305              	.LBB6:
 306              		.loc 1 270 0
 307 0052 0023     		movs	r3, #0
 308 0054 A370     		strb	r3, [r4, #2]
 309              		.loc 1 271 0
 310 0056 2046     		mov	r0, r4
 311              	.LBE6:
 312              	.LBE8:
 313              		.loc 1 274 0
 314 0058 BDE81040 		pop	{r4, lr}
 315              	.LVL18:
 316              	.LBB9:
 317              	.LBB7:
 318              		.loc 1 271 0
 319 005c FFF7FEBF 		b	set_rx_idle_loop
 320              	.LVL19:
 321              	.LBE7:
 322              	.LBE9:
 323              		.cfi_endproc
 324              	.LFE60:
 325              		.size	uart_lld_serve_rx_end_irq, .-uart_lld_serve_rx_end_irq
 326              		.section	.text.VectorD8,"ax",%progbits
 327              		.align	2
 328              		.p2align 4,,15
 329              		.global	VectorD8
 330              		.thumb
 331              		.thumb_func
 332              		.type	VectorD8, %function
 333              	VectorD8:
 334              	.LFB63:
 335              		.loc 1 375 0
 336              		.cfi_startproc
 337              		@ args = 0, pretend = 0, frame = 0
 338              		@ frame_needed = 0, uses_anonymous_args = 0
 339              	.LVL20:
 340 0000 F8B5     		push	{r3, r4, r5, r6, r7, lr}
ARM GAS  /tmp/ccZVh2eZ.s 			page 7


 341              		.cfi_def_cfa_offset 24
 342              		.cfi_offset 3, -24
 343              		.cfi_offset 4, -20
 344              		.cfi_offset 5, -16
 345              		.cfi_offset 6, -12
 346              		.cfi_offset 7, -8
 347              		.cfi_offset 14, -4
 348              	.LBB14:
 349              	.LBB15:
 350              		.loc 1 319 0
 351 0002 1E4E     		ldr	r6, .L71
 352              		.loc 1 325 0
 353 0004 40F20F13 		movw	r3, #271
 354              		.loc 1 319 0
 355 0008 B468     		ldr	r4, [r6, #8]
 356              	.LVL21:
 357              		.loc 1 320 0
 358 000a A289     		ldrh	r2, [r4, #12]
 359              		.loc 1 322 0
 360 000c 2588     		ldrh	r5, [r4]
 361              		.loc 1 320 0
 362 000e 97B2     		uxth	r7, r2
 363              	.LVL22:
 364              		.loc 1 322 0
 365 0010 ADB2     		uxth	r5, r5
 366              	.LVL23:
 367              		.loc 1 325 0
 368 0012 2B40     		ands	r3, r3, r5
 369              		.loc 1 323 0
 370 0014 A288     		ldrh	r2, [r4, #4]
 371              		.loc 1 325 0
 372 0016 E3B1     		cbz	r3, .L39
 373              		.loc 1 327 0
 374 0018 4FF6FF63 		movw	r3, #65279
 375 001c 2380     		strh	r3, [r4]	@ movhi
 376              		.loc 1 328 0
 377 001e 7368     		ldr	r3, [r6, #4]
 378 0020 1B69     		ldr	r3, [r3, #16]
 379 0022 B3B1     		cbz	r3, .L39
 380              	.LVL24:
 381              	.LBB16:
 382              	.LBB17:
 383              		.loc 1 140 0
 384 0024 15F0080F 		tst	r5, #8
 385 0028 14BF     		ite	ne
 386 002a 1021     		movne	r1, #16
 387 002c 0021     		moveq	r1, #0
 388              	.LVL25:
 389              		.loc 1 144 0
 390 002e EA07     		lsls	r2, r5, #31
 391              		.loc 1 145 0
 392 0030 48BF     		it	mi
 393 0032 41F00401 		orrmi	r1, r1, #4
 394              	.LVL26:
 395              		.loc 1 146 0
 396 0036 A807     		lsls	r0, r5, #30
 397              		.loc 1 147 0
ARM GAS  /tmp/ccZVh2eZ.s 			page 8


 398 0038 48BF     		it	mi
 399 003a 41F00801 		orrmi	r1, r1, #8
 400              	.LVL27:
 401              		.loc 1 148 0
 402 003e 6A07     		lsls	r2, r5, #29
 403              		.loc 1 149 0
 404 0040 48BF     		it	mi
 405 0042 41F02001 		orrmi	r1, r1, #32
 406              	.LVL28:
 407              		.loc 1 150 0
 408 0046 E805     		lsls	r0, r5, #23
 409              		.loc 1 151 0
 410 0048 48BF     		it	mi
 411 004a 41F04001 		orrmi	r1, r1, #64
 412              	.LVL29:
 413              	.LBE17:
 414              	.LBE16:
 415              		.loc 1 329 0
 416 004e 0B48     		ldr	r0, .L71
 417 0050 9847     		blx	r3
 418              	.LVL30:
 419              	.L39:
 420              		.loc 1 332 0
 421 0052 6A06     		lsls	r2, r5, #25
 422 0054 0DD5     		bpl	.L47
 423 0056 7B06     		lsls	r3, r7, #25
 424 0058 0BD5     		bpl	.L47
 425              		.loc 1 334 0
 426 005a 4FF6BF73 		movw	r3, #65471
 427 005e 2380     		strh	r3, [r4]	@ movhi
 428              		.loc 1 335 0
 429 0060 27F04007 		bic	r7, r7, #64
 430              	.LVL31:
 431 0064 BFB2     		uxth	r7, r7
 432              		.loc 1 338 0
 433 0066 7368     		ldr	r3, [r6, #4]
 434              		.loc 1 335 0
 435 0068 A781     		strh	r7, [r4, #12]	@ movhi
 436              		.loc 1 338 0
 437 006a 5B68     		ldr	r3, [r3, #4]
 438 006c 0BB1     		cbz	r3, .L47
 439              		.loc 1 339 0
 440 006e 0348     		ldr	r0, .L71
 441 0070 9847     		blx	r3
 442              	.LVL32:
 443              	.L47:
 444              	.LBE15:
 445              	.LBE14:
 446              		.loc 1 382 0
 447 0072 BDE8F840 		pop	{r3, r4, r5, r6, r7, lr}
 448              	.LVL33:
 449              		.loc 1 381 0
 450 0076 FFF7FEBF 		b	_port_irq_epilogue
 451              	.LVL34:
 452              	.L72:
 453 007a 00BF     		.align	2
 454              	.L71:
ARM GAS  /tmp/ccZVh2eZ.s 			page 9


 455 007c 00000000 		.word	.LANCHOR0
 456              		.cfi_endproc
 457              	.LFE63:
 458              		.size	VectorD8, .-VectorD8
 459              		.section	.text.uart_lld_init,"ax",%progbits
 460              		.align	2
 461              		.p2align 4,,15
 462              		.global	uart_lld_init
 463              		.thumb
 464              		.thumb_func
 465              		.type	uart_lld_init, %function
 466              	uart_lld_init:
 467              	.LFB64:
 468              		.loc 1 470 0
 469              		.cfi_startproc
 470              		@ args = 0, pretend = 0, frame = 0
 471              		@ frame_needed = 0, uses_anonymous_args = 0
 472 0000 10B5     		push	{r4, lr}
 473              		.cfi_def_cfa_offset 8
 474              		.cfi_offset 4, -8
 475              		.cfi_offset 14, -4
 476              		.loc 1 481 0
 477 0002 074C     		ldr	r4, .L74
 478 0004 2046     		mov	r0, r4
 479 0006 FFF7FEFF 		bl	uartObjectInit
 480              	.LVL35:
 481              		.loc 1 484 0
 482 000a 064B     		ldr	r3, .L74+4
 483              		.loc 1 482 0
 484 000c 0648     		ldr	r0, .L74+8
 485              		.loc 1 483 0
 486 000e 0821     		movs	r1, #8
 487              		.loc 1 485 0
 488 0010 03F10C02 		add	r2, r3, #12
 489              		.loc 1 482 0
 490 0014 A060     		str	r0, [r4, #8]
 491              		.loc 1 483 0
 492 0016 E160     		str	r1, [r4, #12]
 493              		.loc 1 484 0
 494 0018 2361     		str	r3, [r4, #16]
 495              		.loc 1 485 0
 496 001a 6261     		str	r2, [r4, #20]
 497 001c 10BD     		pop	{r4, pc}
 498              	.L75:
 499 001e 00BF     		.align	2
 500              	.L74:
 501 0020 00000000 		.word	.LANCHOR0
 502 0024 3C000000 		.word	_stm32_dma_streams+60
 503 0028 00440040 		.word	1073759232
 504              		.cfi_endproc
 505              	.LFE64:
 506              		.size	uart_lld_init, .-uart_lld_init
 507 002c AFF30080 		.section	.text.uart_lld_start,"ax",%progbits
 508              		.align	2
 509              		.p2align 4,,15
 510              		.global	uart_lld_start
 511              		.thumb
ARM GAS  /tmp/ccZVh2eZ.s 			page 10


 512              		.thumb_func
 513              		.type	uart_lld_start, %function
 514              	uart_lld_start:
 515              	.LFB65:
 516              		.loc 1 527 0
 517              		.cfi_startproc
 518              		@ args = 0, pretend = 0, frame = 0
 519              		@ frame_needed = 0, uses_anonymous_args = 0
 520              	.LVL36:
 521 0000 38B5     		push	{r3, r4, r5, lr}
 522              		.cfi_def_cfa_offset 16
 523              		.cfi_offset 3, -16
 524              		.cfi_offset 4, -12
 525              		.cfi_offset 5, -8
 526              		.cfi_offset 14, -4
 527              		.loc 1 529 0
 528 0002 0378     		ldrb	r3, [r0]	@ zero_extendqisi2
 529              		.loc 1 527 0
 530 0004 0446     		mov	r4, r0
 531              		.loc 1 529 0
 532 0006 012B     		cmp	r3, #1
 533 0008 30D0     		beq	.L82
 534              	.LVL37:
 535              	.L77:
 536              		.loc 1 681 0
 537 000a 0023     		movs	r3, #0
 538 000c A370     		strb	r3, [r4, #2]
 539              		.loc 1 682 0
 540 000e 6370     		strb	r3, [r4, #1]
 541              	.LVL38:
 542              	.LBB21:
 543              	.LBB22:
 544              		.loc 1 204 0
 545 0010 2046     		mov	r0, r4
 546              		.loc 1 201 0
 547 0012 A568     		ldr	r5, [r4, #8]
 548              	.LVL39:
 549              		.loc 1 204 0
 550 0014 FFF7FEFF 		bl	usart_stop
 551              	.LVL40:
 552              		.loc 1 210 0
 553 0018 A368     		ldr	r3, [r4, #8]
 554 001a 2D4A     		ldr	r2, .L85
 555              		.loc 1 233 0
 556 001c 2046     		mov	r0, r4
 557              		.loc 1 210 0
 558 001e 9342     		cmp	r3, r2
 559              		.loc 1 212 0
 560 0020 6368     		ldr	r3, [r4, #4]
 561 0022 08BF     		it	eq
 562 0024 2B4A     		ldreq	r2, .L85+4
 563              		.loc 1 214 0
 564 0026 5B69     		ldr	r3, [r3, #20]
 565 0028 18BF     		it	ne
 566 002a 2B4A     		ldrne	r2, .L85+8
 567 002c B2FBF3F3 		udiv	r3, r2, r3
 568 0030 9BB2     		uxth	r3, r3
ARM GAS  /tmp/ccZVh2eZ.s 			page 11


 569 0032 2B81     		strh	r3, [r5, #8]	@ movhi
 570              		.loc 1 219 0
 571 0034 0023     		movs	r3, #0
 572              		.loc 1 217 0
 573 0036 2A88     		ldrh	r2, [r5]
 574              		.loc 1 218 0
 575 0038 AA88     		ldrh	r2, [r5, #4]
 576              		.loc 1 219 0
 577 003a 2B80     		strh	r3, [r5]	@ movhi
 578              		.loc 1 223 0
 579 003c 6368     		ldr	r3, [r4, #4]
 580 003e 5B8B     		ldrh	r3, [r3, #26]
 581 0040 43F04003 		orr	r3, r3, #64
 582 0044 9BB2     		uxth	r3, r3
 583 0046 2B82     		strh	r3, [r5, #16]	@ movhi
 584              		.loc 1 224 0
 585 0048 6368     		ldr	r3, [r4, #4]
 586 004a 9B8B     		ldrh	r3, [r3, #28]
 587 004c 43F0C103 		orr	r3, r3, #193
 588 0050 9BB2     		uxth	r3, r3
 589 0052 AB82     		strh	r3, [r5, #20]	@ movhi
 590              	.LVL41:
 591              		.loc 1 230 0
 592 0054 6368     		ldr	r3, [r4, #4]
 593 0056 1B8B     		ldrh	r3, [r3, #24]
 594 0058 43F40453 		orr	r3, r3, #8448
 595 005c 43F00C03 		orr	r3, r3, #12
 596 0060 9BB2     		uxth	r3, r3
 597 0062 AB81     		strh	r3, [r5, #12]	@ movhi
 598              	.LBE22:
 599              	.LBE21:
 600              		.loc 1 684 0
 601 0064 BDE83840 		pop	{r3, r4, r5, lr}
 602              	.LVL42:
 603              	.LBB24:
 604              	.LBB23:
 605              		.loc 1 233 0
 606 0068 FFF7FEBF 		b	set_rx_idle_loop
 607              	.LVL43:
 608              	.L82:
 609              	.LBE23:
 610              	.LBE24:
 611              		.loc 1 552 0
 612 006c 1B4B     		ldr	r3, .L85+12
 613 006e 9842     		cmp	r0, r3
 614 0070 18D0     		beq	.L83
 615              	.LVL44:
 616              	.L78:
 617              		.loc 1 674 0
 618 0072 6368     		ldr	r3, [r4, #4]
 619 0074 1B8B     		ldrh	r3, [r3, #24]
 620 0076 03F4A053 		and	r3, r3, #5120
 621 007a B3F5805F 		cmp	r3, #4096
 622 007e 0CD0     		beq	.L84
 623              	.L79:
 624              		.loc 1 676 0
 625 0080 2269     		ldr	r2, [r4, #16]
ARM GAS  /tmp/ccZVh2eZ.s 			page 12


 626 0082 A368     		ldr	r3, [r4, #8]
 627 0084 1268     		ldr	r2, [r2]
 628 0086 0433     		adds	r3, r3, #4
 629 0088 9360     		str	r3, [r2, #8]
 630              		.loc 1 677 0
 631 008a 6269     		ldr	r2, [r4, #20]
 632 008c A368     		ldr	r3, [r4, #8]
 633 008e 1168     		ldr	r1, [r2]
 634 0090 0433     		adds	r3, r3, #4
 635              		.loc 1 678 0
 636 0092 0022     		movs	r2, #0
 637              		.loc 1 677 0
 638 0094 8B60     		str	r3, [r1, #8]
 639              		.loc 1 678 0
 640 0096 2283     		strh	r2, [r4, #24]	@ movhi
 641 0098 B7E7     		b	.L77
 642              	.L84:
 643              		.loc 1 675 0
 644 009a E368     		ldr	r3, [r4, #12]
 645 009c 43F4A063 		orr	r3, r3, #1280
 646 00a0 E360     		str	r3, [r4, #12]
 647 00a2 EDE7     		b	.L79
 648              	.LVL45:
 649              	.L83:
 650              	.LBB25:
 651              		.loc 1 554 0
 652 00a4 2346     		mov	r3, r4
 653 00a6 0C21     		movs	r1, #12
 654 00a8 0D4A     		ldr	r2, .L85+16
 655 00aa 0069     		ldr	r0, [r0, #16]
 656              	.LVL46:
 657 00ac FFF7FEFF 		bl	dmaStreamAllocate
 658              	.LVL47:
 659              		.loc 1 559 0
 660 00b0 2346     		mov	r3, r4
 661 00b2 6069     		ldr	r0, [r4, #20]
 662 00b4 0C21     		movs	r1, #12
 663 00b6 0B4A     		ldr	r2, .L85+20
 664 00b8 FFF7FEFF 		bl	dmaStreamAllocate
 665              	.LVL48:
 666              		.loc 1 564 0
 667 00bc 0A4B     		ldr	r3, .L85+24
 668              		.loc 1 565 0
 669 00be 2620     		movs	r0, #38
 670              		.loc 1 564 0
 671 00c0 DA69     		ldr	r2, [r3, #28]
 672              		.loc 1 565 0
 673 00c2 C021     		movs	r1, #192
 674              		.loc 1 564 0
 675 00c4 42F40032 		orr	r2, r2, #131072
 676 00c8 DA61     		str	r2, [r3, #28]
 677              		.loc 1 565 0
 678 00ca FFF7FEFF 		bl	nvicEnableVector
 679              	.LVL49:
 680 00ce D0E7     		b	.L78
 681              	.L86:
 682              		.align	2
ARM GAS  /tmp/ccZVh2eZ.s 			page 13


 683              	.L85:
 684 00d0 00380140 		.word	1073821696
 685 00d4 00366E01 		.word	24000000
 686 00d8 001BB700 		.word	12000000
 687 00dc 00000000 		.word	.LANCHOR0
 688 00e0 00000000 		.word	uart_lld_serve_rx_end_irq
 689 00e4 00000000 		.word	uart_lld_serve_tx_end_irq
 690 00e8 00100240 		.word	1073876992
 691              	.LBE25:
 692              		.cfi_endproc
 693              	.LFE65:
 694              		.size	uart_lld_start, .-uart_lld_start
 695 00ec AFF30080 		.section	.text.uart_lld_stop,"ax",%progbits
 696              		.align	2
 697              		.p2align 4,,15
 698              		.global	uart_lld_stop
 699              		.thumb
 700              		.thumb_func
 701              		.type	uart_lld_stop, %function
 702              	uart_lld_stop:
 703              	.LFB66:
 704              		.loc 1 693 0
 705              		.cfi_startproc
 706              		@ args = 0, pretend = 0, frame = 0
 707              		@ frame_needed = 0, uses_anonymous_args = 0
 708              	.LVL50:
 709 0000 10B5     		push	{r4, lr}
 710              		.cfi_def_cfa_offset 8
 711              		.cfi_offset 4, -8
 712              		.cfi_offset 14, -4
 713              		.loc 1 695 0
 714 0002 0378     		ldrb	r3, [r0]	@ zero_extendqisi2
 715              		.loc 1 693 0
 716 0004 0446     		mov	r4, r0
 717              		.loc 1 695 0
 718 0006 022B     		cmp	r3, #2
 719 0008 00D0     		beq	.L91
 720              	.LVL51:
 721              	.L87:
 722 000a 10BD     		pop	{r4, pc}
 723              	.LVL52:
 724              	.L91:
 725              		.loc 1 696 0
 726 000c FFF7FEFF 		bl	usart_stop
 727              	.LVL53:
 728              		.loc 1 697 0
 729 0010 2069     		ldr	r0, [r4, #16]
 730 0012 FFF7FEFF 		bl	dmaStreamRelease
 731              	.LVL54:
 732              		.loc 1 698 0
 733 0016 6069     		ldr	r0, [r4, #20]
 734 0018 FFF7FEFF 		bl	dmaStreamRelease
 735              	.LVL55:
 736              		.loc 1 709 0
 737 001c 054B     		ldr	r3, .L92
 738 001e 9C42     		cmp	r4, r3
 739 0020 F3D1     		bne	.L87
ARM GAS  /tmp/ccZVh2eZ.s 			page 14


 740              		.loc 1 710 0
 741 0022 2620     		movs	r0, #38
 742 0024 FFF7FEFF 		bl	nvicDisableVector
 743              	.LVL56:
 744              		.loc 1 711 0
 745 0028 034B     		ldr	r3, .L92+4
 746 002a DA69     		ldr	r2, [r3, #28]
 747 002c 22F40032 		bic	r2, r2, #131072
 748 0030 DA61     		str	r2, [r3, #28]
 749              		.loc 1 712 0
 750 0032 EAE7     		b	.L87
 751              	.L93:
 752              		.align	2
 753              	.L92:
 754 0034 00000000 		.word	.LANCHOR0
 755 0038 00100240 		.word	1073876992
 756              		.cfi_endproc
 757              	.LFE66:
 758              		.size	uart_lld_stop, .-uart_lld_stop
 759 003c AFF30080 		.section	.text.uart_lld_start_send,"ax",%progbits
 760              		.align	2
 761              		.p2align 4,,15
 762              		.global	uart_lld_start_send
 763              		.thumb
 764              		.thumb_func
 765              		.type	uart_lld_start_send, %function
 766              	uart_lld_start_send:
 767              	.LFB67:
 768              		.loc 1 761 0
 769              		.cfi_startproc
 770              		@ args = 0, pretend = 0, frame = 0
 771              		@ frame_needed = 0, uses_anonymous_args = 0
 772              		@ link register save eliminated.
 773              	.LVL57:
 774              		.loc 1 764 0
 775 0000 4369     		ldr	r3, [r0, #20]
 776 0002 1B68     		ldr	r3, [r3]
 777 0004 DA60     		str	r2, [r3, #12]
 778              		.loc 1 765 0
 779 0006 4369     		ldr	r3, [r0, #20]
 780 0008 1B68     		ldr	r3, [r3]
 781 000a 5960     		str	r1, [r3, #4]
 782              		.loc 1 766 0
 783 000c 4269     		ldr	r2, [r0, #20]
 784              	.LVL58:
 785 000e C368     		ldr	r3, [r0, #12]
 786 0010 1268     		ldr	r2, [r2]
 787 0012 43F09203 		orr	r3, r3, #146
 788 0016 1360     		str	r3, [r2]
 789              		.loc 1 768 0
 790 0018 4369     		ldr	r3, [r0, #20]
 791 001a 1B68     		ldr	r3, [r3]
 792 001c 1A68     		ldr	r2, [r3]
 793 001e 42F00102 		orr	r2, r2, #1
 794 0022 1A60     		str	r2, [r3]
 795 0024 7047     		bx	lr
 796              		.cfi_endproc
ARM GAS  /tmp/ccZVh2eZ.s 			page 15


 797              	.LFE67:
 798              		.size	uart_lld_start_send, .-uart_lld_start_send
 799 0026 00BFAFF3 		.section	.text.uart_lld_stop_send,"ax",%progbits
 799      0080AFF3 
 799      0080
 800              		.align	2
 801              		.p2align 4,,15
 802              		.global	uart_lld_stop_send
 803              		.thumb
 804              		.thumb_func
 805              		.type	uart_lld_stop_send, %function
 806              	uart_lld_stop_send:
 807              	.LFB68:
 808              		.loc 1 782 0
 809              		.cfi_startproc
 810              		@ args = 0, pretend = 0, frame = 0
 811              		@ frame_needed = 0, uses_anonymous_args = 0
 812              		@ link register save eliminated.
 813              	.LVL59:
 814              		.loc 1 784 0
 815 0000 4369     		ldr	r3, [r0, #20]
 816 0002 0F21     		movs	r1, #15
 817 0004 1B68     		ldr	r3, [r3]
 818 0006 1A68     		ldr	r2, [r3]
 819 0008 22F00F02 		bic	r2, r2, #15
 820 000c 1A60     		str	r2, [r3]
 821 000e 4369     		ldr	r3, [r0, #20]
 822 0010 1A7A     		ldrb	r2, [r3, #8]	@ zero_extendqisi2
 823 0012 5B68     		ldr	r3, [r3, #4]
 824 0014 01FA02F2 		lsl	r2, r1, r2
 825 0018 1A60     		str	r2, [r3]
 826              		.loc 1 785 0
 827 001a 4369     		ldr	r3, [r0, #20]
 828 001c 1B68     		ldr	r3, [r3]
 829 001e 5868     		ldr	r0, [r3, #4]
 830              	.LVL60:
 831              		.loc 1 786 0
 832 0020 7047     		bx	lr
 833              		.cfi_endproc
 834              	.LFE68:
 835              		.size	uart_lld_stop_send, .-uart_lld_stop_send
 836 0022 00BFAFF3 		.section	.text.uart_lld_start_receive,"ax",%progbits
 836      0080AFF3 
 836      0080AFF3 
 836      0080
 837              		.align	2
 838              		.p2align 4,,15
 839              		.global	uart_lld_start_receive
 840              		.thumb
 841              		.thumb_func
 842              		.type	uart_lld_start_receive, %function
 843              	uart_lld_start_receive:
 844              	.LFB69:
 845              		.loc 1 799 0
 846              		.cfi_startproc
 847              		@ args = 0, pretend = 0, frame = 0
 848              		@ frame_needed = 0, uses_anonymous_args = 0
ARM GAS  /tmp/ccZVh2eZ.s 			page 16


 849              		@ link register save eliminated.
 850              	.LVL61:
 851 0000 30B4     		push	{r4, r5}
 852              		.cfi_def_cfa_offset 8
 853              		.cfi_offset 4, -8
 854              		.cfi_offset 5, -4
 855              		.loc 1 802 0
 856 0002 0369     		ldr	r3, [r0, #16]
 857 0004 0F24     		movs	r4, #15
 858 0006 1B68     		ldr	r3, [r3]
 859 0008 1D68     		ldr	r5, [r3]
 860 000a 25F00F05 		bic	r5, r5, #15
 861 000e 1D60     		str	r5, [r3]
 862 0010 0369     		ldr	r3, [r0, #16]
 863 0012 1D7A     		ldrb	r5, [r3, #8]	@ zero_extendqisi2
 864 0014 5B68     		ldr	r3, [r3, #4]
 865 0016 AC40     		lsls	r4, r4, r5
 866 0018 1C60     		str	r4, [r3]
 867              		.loc 1 805 0
 868 001a 0369     		ldr	r3, [r0, #16]
 869 001c 1B68     		ldr	r3, [r3]
 870 001e DA60     		str	r2, [r3, #12]
 871              		.loc 1 806 0
 872 0020 0369     		ldr	r3, [r0, #16]
 873 0022 1B68     		ldr	r3, [r3]
 874 0024 5960     		str	r1, [r3, #4]
 875              		.loc 1 807 0
 876 0026 0269     		ldr	r2, [r0, #16]
 877              	.LVL62:
 878 0028 C368     		ldr	r3, [r0, #12]
 879 002a 1268     		ldr	r2, [r2]
 880 002c 43F08203 		orr	r3, r3, #130
 881 0030 1360     		str	r3, [r2]
 882              		.loc 1 809 0
 883 0032 0369     		ldr	r3, [r0, #16]
 884 0034 1B68     		ldr	r3, [r3]
 885 0036 1A68     		ldr	r2, [r3]
 886 0038 42F00102 		orr	r2, r2, #1
 887 003c 1A60     		str	r2, [r3]
 888              		.loc 1 810 0
 889 003e 30BC     		pop	{r4, r5}
 890 0040 7047     		bx	lr
 891              		.cfi_endproc
 892              	.LFE69:
 893              		.size	uart_lld_start_receive, .-uart_lld_start_receive
 894 0042 00BFAFF3 		.section	.text.uart_lld_stop_receive,"ax",%progbits
 894      0080AFF3 
 894      0080AFF3 
 894      0080
 895              		.align	2
 896              		.p2align 4,,15
 897              		.global	uart_lld_stop_receive
 898              		.thumb
 899              		.thumb_func
 900              		.type	uart_lld_stop_receive, %function
 901              	uart_lld_stop_receive:
 902              	.LFB70:
ARM GAS  /tmp/ccZVh2eZ.s 			page 17


 903              		.loc 1 823 0
 904              		.cfi_startproc
 905              		@ args = 0, pretend = 0, frame = 0
 906              		@ frame_needed = 0, uses_anonymous_args = 0
 907              	.LVL63:
 908 0000 10B5     		push	{r4, lr}
 909              		.cfi_def_cfa_offset 8
 910              		.cfi_offset 4, -8
 911              		.cfi_offset 14, -4
 912              		.loc 1 826 0
 913 0002 0269     		ldr	r2, [r0, #16]
 914 0004 0F24     		movs	r4, #15
 915 0006 1268     		ldr	r2, [r2]
 916 0008 1168     		ldr	r1, [r2]
 917 000a 21F00F01 		bic	r1, r1, #15
 918 000e 1160     		str	r1, [r2]
 919 0010 0269     		ldr	r2, [r0, #16]
 920 0012 117A     		ldrb	r1, [r2, #8]	@ zero_extendqisi2
 921 0014 5268     		ldr	r2, [r2, #4]
 922 0016 04FA01F1 		lsl	r1, r4, r1
 923 001a 1160     		str	r1, [r2]
 924              		.loc 1 827 0
 925 001c 0369     		ldr	r3, [r0, #16]
 926 001e 1B68     		ldr	r3, [r3]
 927 0020 5C68     		ldr	r4, [r3, #4]
 928              	.LVL64:
 929              		.loc 1 828 0
 930 0022 FFF7FEFF 		bl	set_rx_idle_loop
 931              	.LVL65:
 932              		.loc 1 830 0
 933 0026 2046     		mov	r0, r4
 934 0028 10BD     		pop	{r4, pc}
 935              		.cfi_endproc
 936              	.LFE70:
 937              		.size	uart_lld_stop_receive, .-uart_lld_stop_receive
 938              		.global	UARTD2
 939 002a 00BFAFF3 		.section	.bss.UARTD2,"aw",%nobits
 939      0080
 940              		.align	2
 941              		.set	.LANCHOR0,. + 0
 942              		.type	UARTD2, %object
 943              		.size	UARTD2, 28
 944              	UARTD2:
 945 0000 00000000 		.space	28
 945      00000000 
 945      00000000 
 945      00000000 
 945      00000000 
 946              		.text
 947              	.Letext0:
 948              		.file 2 "/usr/lib/gcc/arm-none-eabi/4.8/include/stddef.h"
 949              		.file 3 "/usr/include/newlib/machine/_default_types.h"
 950              		.file 4 "/usr/include/newlib/stdint.h"
 951              		.file 5 "../os/ports/GCC/ARMCMx/chtypes.h"
 952              		.file 6 "../os/hal/platforms/STM32F1xx/stm32f10x.h"
 953              		.file 7 "../os/hal/platforms/STM32F1xx/stm32_dma.h"
 954              		.file 8 "../os/hal/include/uart.h"
ARM GAS  /tmp/ccZVh2eZ.s 			page 18


 955              		.file 9 "../os/hal/platforms/STM32/USARTv1/uart_lld.h"
 956              		.file 10 "../os/ports/common/ARMCMx/CMSIS/include/core_cm3.h"
 957              		.file 11 "../os/ports/GCC/ARMCMx/chcore_v7m.h"
 958              		.file 12 "../os/ports/common/ARMCMx/nvic.h"
 959              		.section	.debug_info,"",%progbits
 960              	.Ldebug_info0:
 961 0000 750C0000 		.4byte	0xc75
 962 0004 0400     		.2byte	0x4
 963 0006 00000000 		.4byte	.Ldebug_abbrev0
 964 000a 04       		.byte	0x4
 965 000b 01       		.uleb128 0x1
 966 000c F2030000 		.4byte	.LASF108
 967 0010 01       		.byte	0x1
 968 0011 19050000 		.4byte	.LASF109
 969 0015 F5010000 		.4byte	.LASF110
 970 0019 38000000 		.4byte	.Ldebug_ranges0+0x38
 971 001d 00000000 		.4byte	0
 972 0021 00000000 		.4byte	.Ldebug_line0
 973 0025 02       		.uleb128 0x2
 974 0026 04       		.byte	0x4
 975 0027 05       		.byte	0x5
 976 0028 696E7400 		.ascii	"int\000"
 977 002c 03       		.uleb128 0x3
 978 002d 40000000 		.4byte	.LASF2
 979 0031 02       		.byte	0x2
 980 0032 D4       		.byte	0xd4
 981 0033 37000000 		.4byte	0x37
 982 0037 04       		.uleb128 0x4
 983 0038 04       		.byte	0x4
 984 0039 07       		.byte	0x7
 985 003a E2010000 		.4byte	.LASF0
 986 003e 04       		.uleb128 0x4
 987 003f 01       		.byte	0x1
 988 0040 06       		.byte	0x6
 989 0041 10010000 		.4byte	.LASF1
 990 0045 03       		.uleb128 0x3
 991 0046 51000000 		.4byte	.LASF3
 992 004a 03       		.byte	0x3
 993 004b 1D       		.byte	0x1d
 994 004c 50000000 		.4byte	0x50
 995 0050 04       		.uleb128 0x4
 996 0051 01       		.byte	0x1
 997 0052 08       		.byte	0x8
 998 0053 C5040000 		.4byte	.LASF4
 999 0057 04       		.uleb128 0x4
 1000 0058 02       		.byte	0x2
 1001 0059 05       		.byte	0x5
 1002 005a D3040000 		.4byte	.LASF5
 1003 005e 03       		.uleb128 0x3
 1004 005f 70050000 		.4byte	.LASF6
 1005 0063 03       		.byte	0x3
 1006 0064 2B       		.byte	0x2b
 1007 0065 69000000 		.4byte	0x69
 1008 0069 04       		.uleb128 0x4
 1009 006a 02       		.byte	0x2
 1010 006b 07       		.byte	0x7
 1011 006c A6020000 		.4byte	.LASF7
ARM GAS  /tmp/ccZVh2eZ.s 			page 19


 1012 0070 03       		.uleb128 0x3
 1013 0071 85050000 		.4byte	.LASF8
 1014 0075 03       		.byte	0x3
 1015 0076 3F       		.byte	0x3f
 1016 0077 7B000000 		.4byte	0x7b
 1017 007b 04       		.uleb128 0x4
 1018 007c 04       		.byte	0x4
 1019 007d 05       		.byte	0x5
 1020 007e 4F010000 		.4byte	.LASF9
 1021 0082 03       		.uleb128 0x3
 1022 0083 9C010000 		.4byte	.LASF10
 1023 0087 03       		.byte	0x3
 1024 0088 41       		.byte	0x41
 1025 0089 8D000000 		.4byte	0x8d
 1026 008d 04       		.uleb128 0x4
 1027 008e 04       		.byte	0x4
 1028 008f 07       		.byte	0x7
 1029 0090 63020000 		.4byte	.LASF11
 1030 0094 04       		.uleb128 0x4
 1031 0095 08       		.byte	0x8
 1032 0096 05       		.byte	0x5
 1033 0097 02010000 		.4byte	.LASF12
 1034 009b 04       		.uleb128 0x4
 1035 009c 08       		.byte	0x8
 1036 009d 07       		.byte	0x7
 1037 009e 81000000 		.4byte	.LASF13
 1038 00a2 03       		.uleb128 0x3
 1039 00a3 C9050000 		.4byte	.LASF14
 1040 00a7 04       		.byte	0x4
 1041 00a8 2A       		.byte	0x2a
 1042 00a9 45000000 		.4byte	0x45
 1043 00ad 03       		.uleb128 0x3
 1044 00ae 61010000 		.4byte	.LASF15
 1045 00b2 04       		.byte	0x4
 1046 00b3 36       		.byte	0x36
 1047 00b4 5E000000 		.4byte	0x5e
 1048 00b8 03       		.uleb128 0x3
 1049 00b9 BD040000 		.4byte	.LASF16
 1050 00bd 04       		.byte	0x4
 1051 00be 41       		.byte	0x41
 1052 00bf 70000000 		.4byte	0x70
 1053 00c3 03       		.uleb128 0x3
 1054 00c4 FE040000 		.4byte	.LASF17
 1055 00c8 04       		.byte	0x4
 1056 00c9 42       		.byte	0x42
 1057 00ca 82000000 		.4byte	0x82
 1058 00ce 03       		.uleb128 0x3
 1059 00cf D4000000 		.4byte	.LASF18
 1060 00d3 05       		.byte	0x5
 1061 00d4 2B       		.byte	0x2b
 1062 00d5 D9000000 		.4byte	0xd9
 1063 00d9 04       		.uleb128 0x4
 1064 00da 01       		.byte	0x1
 1065 00db 02       		.byte	0x2
 1066 00dc B7040000 		.4byte	.LASF19
 1067 00e0 05       		.uleb128 0x5
 1068 00e1 04       		.byte	0x4
ARM GAS  /tmp/ccZVh2eZ.s 			page 20


 1069 00e2 06       		.uleb128 0x6
 1070 00e3 C3000000 		.4byte	0xc3
 1071 00e7 04       		.uleb128 0x4
 1072 00e8 04       		.byte	0x4
 1073 00e9 07       		.byte	0x7
 1074 00ea 1B030000 		.4byte	.LASF20
 1075 00ee 06       		.uleb128 0x6
 1076 00ef AD000000 		.4byte	0xad
 1077 00f3 06       		.uleb128 0x6
 1078 00f4 B8000000 		.4byte	0xb8
 1079 00f8 07       		.uleb128 0x7
 1080 00f9 10       		.byte	0x10
 1081 00fa 06       		.byte	0x6
 1082 00fb 2D03     		.2byte	0x32d
 1083 00fd 36010000 		.4byte	0x136
 1084 0101 08       		.uleb128 0x8
 1085 0102 43435200 		.ascii	"CCR\000"
 1086 0106 06       		.byte	0x6
 1087 0107 2F03     		.2byte	0x32f
 1088 0109 E2000000 		.4byte	0xe2
 1089 010d 00       		.byte	0
 1090 010e 09       		.uleb128 0x9
 1091 010f BE050000 		.4byte	.LASF21
 1092 0113 06       		.byte	0x6
 1093 0114 3003     		.2byte	0x330
 1094 0116 E2000000 		.4byte	0xe2
 1095 011a 04       		.byte	0x4
 1096 011b 09       		.uleb128 0x9
 1097 011c 4B020000 		.4byte	.LASF22
 1098 0120 06       		.byte	0x6
 1099 0121 3103     		.2byte	0x331
 1100 0123 E2000000 		.4byte	0xe2
 1101 0127 08       		.byte	0x8
 1102 0128 09       		.uleb128 0x9
 1103 0129 F9020000 		.4byte	.LASF23
 1104 012d 06       		.byte	0x6
 1105 012e 3203     		.2byte	0x332
 1106 0130 E2000000 		.4byte	0xe2
 1107 0134 0C       		.byte	0xc
 1108 0135 00       		.byte	0
 1109 0136 0A       		.uleb128 0xa
 1110 0137 8B020000 		.4byte	.LASF24
 1111 013b 06       		.byte	0x6
 1112 013c 3303     		.2byte	0x333
 1113 013e F8000000 		.4byte	0xf8
 1114 0142 07       		.uleb128 0x7
 1115 0143 28       		.byte	0x28
 1116 0144 06       		.byte	0x6
 1117 0145 4304     		.2byte	0x443
 1118 0147 CD010000 		.4byte	0x1cd
 1119 014b 08       		.uleb128 0x8
 1120 014c 435200   		.ascii	"CR\000"
 1121 014f 06       		.byte	0x6
 1122 0150 4504     		.2byte	0x445
 1123 0152 E2000000 		.4byte	0xe2
 1124 0156 00       		.byte	0
 1125 0157 09       		.uleb128 0x9
ARM GAS  /tmp/ccZVh2eZ.s 			page 21


 1126 0158 F1050000 		.4byte	.LASF25
 1127 015c 06       		.byte	0x6
 1128 015d 4604     		.2byte	0x446
 1129 015f E2000000 		.4byte	0xe2
 1130 0163 04       		.byte	0x4
 1131 0164 08       		.uleb128 0x8
 1132 0165 43495200 		.ascii	"CIR\000"
 1133 0169 06       		.byte	0x6
 1134 016a 4704     		.2byte	0x447
 1135 016c E2000000 		.4byte	0xe2
 1136 0170 08       		.byte	0x8
 1137 0171 09       		.uleb128 0x9
 1138 0172 58010000 		.4byte	.LASF26
 1139 0176 06       		.byte	0x6
 1140 0177 4804     		.2byte	0x448
 1141 0179 E2000000 		.4byte	0xe2
 1142 017d 0C       		.byte	0xc
 1143 017e 09       		.uleb128 0x9
 1144 017f 80030000 		.4byte	.LASF27
 1145 0183 06       		.byte	0x6
 1146 0184 4904     		.2byte	0x449
 1147 0186 E2000000 		.4byte	0xe2
 1148 018a 10       		.byte	0x10
 1149 018b 09       		.uleb128 0x9
 1150 018c 2A060000 		.4byte	.LASF28
 1151 0190 06       		.byte	0x6
 1152 0191 4A04     		.2byte	0x44a
 1153 0193 E2000000 		.4byte	0xe2
 1154 0197 14       		.byte	0x14
 1155 0198 09       		.uleb128 0x9
 1156 0199 E9040000 		.4byte	.LASF29
 1157 019d 06       		.byte	0x6
 1158 019e 4B04     		.2byte	0x44b
 1159 01a0 E2000000 		.4byte	0xe2
 1160 01a4 18       		.byte	0x18
 1161 01a5 09       		.uleb128 0x9
 1162 01a6 9C050000 		.4byte	.LASF30
 1163 01aa 06       		.byte	0x6
 1164 01ab 4C04     		.2byte	0x44c
 1165 01ad E2000000 		.4byte	0xe2
 1166 01b1 1C       		.byte	0x1c
 1167 01b2 09       		.uleb128 0x9
 1168 01b3 C4050000 		.4byte	.LASF31
 1169 01b7 06       		.byte	0x6
 1170 01b8 4D04     		.2byte	0x44d
 1171 01ba E2000000 		.4byte	0xe2
 1172 01be 20       		.byte	0x20
 1173 01bf 08       		.uleb128 0x8
 1174 01c0 43535200 		.ascii	"CSR\000"
 1175 01c4 06       		.byte	0x6
 1176 01c5 4E04     		.2byte	0x44e
 1177 01c7 E2000000 		.4byte	0xe2
 1178 01cb 24       		.byte	0x24
 1179 01cc 00       		.byte	0
 1180 01cd 0A       		.uleb128 0xa
 1181 01ce 7F020000 		.4byte	.LASF32
 1182 01d2 06       		.byte	0x6
ARM GAS  /tmp/ccZVh2eZ.s 			page 22


 1183 01d3 5904     		.2byte	0x459
 1184 01d5 42010000 		.4byte	0x142
 1185 01d9 07       		.uleb128 0x7
 1186 01da 1C       		.byte	0x1c
 1187 01db 06       		.byte	0x6
 1188 01dc E104     		.2byte	0x4e1
 1189 01de 97020000 		.4byte	0x297
 1190 01e2 08       		.uleb128 0x8
 1191 01e3 535200   		.ascii	"SR\000"
 1192 01e6 06       		.byte	0x6
 1193 01e7 E304     		.2byte	0x4e3
 1194 01e9 EE000000 		.4byte	0xee
 1195 01ed 00       		.byte	0
 1196 01ee 09       		.uleb128 0x9
 1197 01ef 8F030000 		.4byte	.LASF33
 1198 01f3 06       		.byte	0x6
 1199 01f4 E404     		.2byte	0x4e4
 1200 01f6 AD000000 		.4byte	0xad
 1201 01fa 02       		.byte	0x2
 1202 01fb 08       		.uleb128 0x8
 1203 01fc 445200   		.ascii	"DR\000"
 1204 01ff 06       		.byte	0x6
 1205 0200 E504     		.2byte	0x4e5
 1206 0202 EE000000 		.4byte	0xee
 1207 0206 04       		.byte	0x4
 1208 0207 09       		.uleb128 0x9
 1209 0208 99030000 		.4byte	.LASF34
 1210 020c 06       		.byte	0x6
 1211 020d E604     		.2byte	0x4e6
 1212 020f AD000000 		.4byte	0xad
 1213 0213 06       		.byte	0x6
 1214 0214 08       		.uleb128 0x8
 1215 0215 42525200 		.ascii	"BRR\000"
 1216 0219 06       		.byte	0x6
 1217 021a E704     		.2byte	0x4e7
 1218 021c EE000000 		.4byte	0xee
 1219 0220 08       		.byte	0x8
 1220 0221 09       		.uleb128 0x9
 1221 0222 A3030000 		.4byte	.LASF35
 1222 0226 06       		.byte	0x6
 1223 0227 E804     		.2byte	0x4e8
 1224 0229 AD000000 		.4byte	0xad
 1225 022d 0A       		.byte	0xa
 1226 022e 08       		.uleb128 0x8
 1227 022f 43523100 		.ascii	"CR1\000"
 1228 0233 06       		.byte	0x6
 1229 0234 E904     		.2byte	0x4e9
 1230 0236 EE000000 		.4byte	0xee
 1231 023a 0C       		.byte	0xc
 1232 023b 09       		.uleb128 0x9
 1233 023c AD030000 		.4byte	.LASF36
 1234 0240 06       		.byte	0x6
 1235 0241 EA04     		.2byte	0x4ea
 1236 0243 AD000000 		.4byte	0xad
 1237 0247 0E       		.byte	0xe
 1238 0248 08       		.uleb128 0x8
 1239 0249 43523200 		.ascii	"CR2\000"
ARM GAS  /tmp/ccZVh2eZ.s 			page 23


 1240 024d 06       		.byte	0x6
 1241 024e EB04     		.2byte	0x4eb
 1242 0250 EE000000 		.4byte	0xee
 1243 0254 10       		.byte	0x10
 1244 0255 09       		.uleb128 0x9
 1245 0256 B7030000 		.4byte	.LASF37
 1246 025a 06       		.byte	0x6
 1247 025b EC04     		.2byte	0x4ec
 1248 025d AD000000 		.4byte	0xad
 1249 0261 12       		.byte	0x12
 1250 0262 08       		.uleb128 0x8
 1251 0263 43523300 		.ascii	"CR3\000"
 1252 0267 06       		.byte	0x6
 1253 0268 ED04     		.2byte	0x4ed
 1254 026a EE000000 		.4byte	0xee
 1255 026e 14       		.byte	0x14
 1256 026f 09       		.uleb128 0x9
 1257 0270 C1030000 		.4byte	.LASF38
 1258 0274 06       		.byte	0x6
 1259 0275 EE04     		.2byte	0x4ee
 1260 0277 AD000000 		.4byte	0xad
 1261 027b 16       		.byte	0x16
 1262 027c 09       		.uleb128 0x9
 1263 027d 25010000 		.4byte	.LASF39
 1264 0281 06       		.byte	0x6
 1265 0282 EF04     		.2byte	0x4ef
 1266 0284 EE000000 		.4byte	0xee
 1267 0288 18       		.byte	0x18
 1268 0289 09       		.uleb128 0x9
 1269 028a CB030000 		.4byte	.LASF40
 1270 028e 06       		.byte	0x6
 1271 028f F004     		.2byte	0x4f0
 1272 0291 AD000000 		.4byte	0xad
 1273 0295 1A       		.byte	0x1a
 1274 0296 00       		.byte	0
 1275 0297 0A       		.uleb128 0xa
 1276 0298 E2020000 		.4byte	.LASF41
 1277 029c 06       		.byte	0x6
 1278 029d F104     		.2byte	0x4f1
 1279 029f D9010000 		.4byte	0x1d9
 1280 02a3 0B       		.uleb128 0xb
 1281 02a4 0C       		.byte	0xc
 1282 02a5 07       		.byte	0x7
 1283 02a6 C1       		.byte	0xc1
 1284 02a7 E8020000 		.4byte	0x2e8
 1285 02ab 0C       		.uleb128 0xc
 1286 02ac F1040000 		.4byte	.LASF42
 1287 02b0 07       		.byte	0x7
 1288 02b1 C2       		.byte	0xc2
 1289 02b2 E8020000 		.4byte	0x2e8
 1290 02b6 00       		.byte	0
 1291 02b7 0C       		.uleb128 0xc
 1292 02b8 F9040000 		.4byte	.LASF43
 1293 02bc 07       		.byte	0x7
 1294 02bd C3       		.byte	0xc3
 1295 02be EE020000 		.4byte	0x2ee
 1296 02c2 04       		.byte	0x4
ARM GAS  /tmp/ccZVh2eZ.s 			page 24


 1297 02c3 0C       		.uleb128 0xc
 1298 02c4 9F020000 		.4byte	.LASF44
 1299 02c8 07       		.byte	0x7
 1300 02c9 C4       		.byte	0xc4
 1301 02ca A2000000 		.4byte	0xa2
 1302 02ce 08       		.byte	0x8
 1303 02cf 0C       		.uleb128 0xc
 1304 02d0 A7010000 		.4byte	.LASF45
 1305 02d4 07       		.byte	0x7
 1306 02d5 C6       		.byte	0xc6
 1307 02d6 A2000000 		.4byte	0xa2
 1308 02da 09       		.byte	0x9
 1309 02db 0C       		.uleb128 0xc
 1310 02dc A2000000 		.4byte	.LASF46
 1311 02e0 07       		.byte	0x7
 1312 02e1 C7       		.byte	0xc7
 1313 02e2 A2000000 		.4byte	0xa2
 1314 02e6 0A       		.byte	0xa
 1315 02e7 00       		.byte	0
 1316 02e8 0D       		.uleb128 0xd
 1317 02e9 04       		.byte	0x4
 1318 02ea 36010000 		.4byte	0x136
 1319 02ee 0D       		.uleb128 0xd
 1320 02ef 04       		.byte	0x4
 1321 02f0 E2000000 		.4byte	0xe2
 1322 02f4 03       		.uleb128 0x3
 1323 02f5 D5030000 		.4byte	.LASF47
 1324 02f9 07       		.byte	0x7
 1325 02fa C8       		.byte	0xc8
 1326 02fb A3020000 		.4byte	0x2a3
 1327 02ff 03       		.uleb128 0x3
 1328 0300 32010000 		.4byte	.LASF48
 1329 0304 07       		.byte	0x7
 1330 0305 D1       		.byte	0xd1
 1331 0306 0A030000 		.4byte	0x30a
 1332 030a 0D       		.uleb128 0xd
 1333 030b 04       		.byte	0x4
 1334 030c 10030000 		.4byte	0x310
 1335 0310 0E       		.uleb128 0xe
 1336 0311 20030000 		.4byte	0x320
 1337 0315 0F       		.uleb128 0xf
 1338 0316 E0000000 		.4byte	0xe0
 1339 031a 0F       		.uleb128 0xf
 1340 031b C3000000 		.4byte	0xc3
 1341 031f 00       		.byte	0
 1342 0320 0D       		.uleb128 0xd
 1343 0321 04       		.byte	0x4
 1344 0322 26030000 		.4byte	0x326
 1345 0326 10       		.uleb128 0x10
 1346 0327 F4020000 		.4byte	0x2f4
 1347 032b 11       		.uleb128 0x11
 1348 032c 01       		.byte	0x1
 1349 032d 08       		.byte	0x8
 1350 032e 48       		.byte	0x48
 1351 032f 46030000 		.4byte	0x346
 1352 0333 12       		.uleb128 0x12
 1353 0334 B9020000 		.4byte	.LASF49
ARM GAS  /tmp/ccZVh2eZ.s 			page 25


 1354 0338 00       		.sleb128 0
 1355 0339 12       		.uleb128 0x12
 1356 033a C5020000 		.4byte	.LASF50
 1357 033e 01       		.sleb128 1
 1358 033f 12       		.uleb128 0x12
 1359 0340 C2010000 		.4byte	.LASF51
 1360 0344 02       		.sleb128 2
 1361 0345 00       		.byte	0
 1362 0346 03       		.uleb128 0x3
 1363 0347 DD040000 		.4byte	.LASF52
 1364 034b 08       		.byte	0x8
 1365 034c 4C       		.byte	0x4c
 1366 034d 2B030000 		.4byte	0x32b
 1367 0351 11       		.uleb128 0x11
 1368 0352 01       		.byte	0x1
 1369 0353 08       		.byte	0x8
 1370 0354 51       		.byte	0x51
 1371 0355 6C030000 		.4byte	0x36c
 1372 0359 12       		.uleb128 0x12
 1373 035a 8F050000 		.4byte	.LASF53
 1374 035e 00       		.sleb128 0
 1375 035f 12       		.uleb128 0x12
 1376 0360 CD010000 		.4byte	.LASF54
 1377 0364 01       		.sleb128 1
 1378 0365 12       		.uleb128 0x12
 1379 0366 31060000 		.4byte	.LASF55
 1380 036a 02       		.sleb128 2
 1381 036b 00       		.byte	0
 1382 036c 03       		.uleb128 0x3
 1383 036d 72030000 		.4byte	.LASF56
 1384 0371 08       		.byte	0x8
 1385 0372 55       		.byte	0x55
 1386 0373 51030000 		.4byte	0x351
 1387 0377 11       		.uleb128 0x11
 1388 0378 01       		.byte	0x1
 1389 0379 08       		.byte	0x8
 1390 037a 5A       		.byte	0x5a
 1391 037b 92030000 		.4byte	0x392
 1392 037f 12       		.uleb128 0x12
 1393 0380 63050000 		.4byte	.LASF57
 1394 0384 00       		.sleb128 0
 1395 0385 12       		.uleb128 0x12
 1396 0386 23000000 		.4byte	.LASF58
 1397 038a 01       		.sleb128 1
 1398 038b 12       		.uleb128 0x12
 1399 038c 35030000 		.4byte	.LASF59
 1400 0390 02       		.sleb128 2
 1401 0391 00       		.byte	0
 1402 0392 03       		.uleb128 0x3
 1403 0393 74010000 		.4byte	.LASF60
 1404 0397 08       		.byte	0x8
 1405 0398 5E       		.byte	0x5e
 1406 0399 77030000 		.4byte	0x377
 1407 039d 0A       		.uleb128 0xa
 1408 039e 17000000 		.4byte	.LASF61
 1409 03a2 09       		.byte	0x9
 1410 03a3 FE01     		.2byte	0x1fe
ARM GAS  /tmp/ccZVh2eZ.s 			page 26


 1411 03a5 C3000000 		.4byte	0xc3
 1412 03a9 0A       		.uleb128 0xa
 1413 03aa 91010000 		.4byte	.LASF62
 1414 03ae 09       		.byte	0x9
 1415 03af 0302     		.2byte	0x203
 1416 03b1 B5030000 		.4byte	0x3b5
 1417 03b5 13       		.uleb128 0x13
 1418 03b6 91010000 		.4byte	.LASF62
 1419 03ba 1C       		.byte	0x1c
 1420 03bb 09       		.byte	0x9
 1421 03bc 4B02     		.2byte	0x24b
 1422 03be 38040000 		.4byte	0x438
 1423 03c2 09       		.uleb128 0x9
 1424 03c3 41010000 		.4byte	.LASF63
 1425 03c7 09       		.byte	0x9
 1426 03c8 4F02     		.2byte	0x24f
 1427 03ca 46030000 		.4byte	0x346
 1428 03ce 00       		.byte	0
 1429 03cf 09       		.uleb128 0x9
 1430 03d0 47010000 		.4byte	.LASF64
 1431 03d4 09       		.byte	0x9
 1432 03d5 5302     		.2byte	0x253
 1433 03d7 6C030000 		.4byte	0x36c
 1434 03db 01       		.byte	0x1
 1435 03dc 09       		.uleb128 0x9
 1436 03dd 2A010000 		.4byte	.LASF65
 1437 03e1 09       		.byte	0x9
 1438 03e2 5702     		.2byte	0x257
 1439 03e4 92030000 		.4byte	0x392
 1440 03e8 02       		.byte	0x2
 1441 03e9 09       		.uleb128 0x9
 1442 03ea 5C050000 		.4byte	.LASF66
 1443 03ee 09       		.byte	0x9
 1444 03ef 5B02     		.2byte	0x25b
 1445 03f1 2A050000 		.4byte	0x52a
 1446 03f5 04       		.byte	0x4
 1447 03f6 09       		.uleb128 0x9
 1448 03f7 DC010000 		.4byte	.LASF67
 1449 03fb 09       		.byte	0x9
 1450 03fc 6302     		.2byte	0x263
 1451 03fe 35050000 		.4byte	0x535
 1452 0402 08       		.byte	0x8
 1453 0403 09       		.uleb128 0x9
 1454 0404 E3050000 		.4byte	.LASF68
 1455 0408 09       		.byte	0x9
 1456 0409 6702     		.2byte	0x267
 1457 040b C3000000 		.4byte	0xc3
 1458 040f 0C       		.byte	0xc
 1459 0410 09       		.uleb128 0x9
 1460 0411 70000000 		.4byte	.LASF69
 1461 0415 09       		.byte	0x9
 1462 0416 6B02     		.2byte	0x26b
 1463 0418 20030000 		.4byte	0x320
 1464 041c 10       		.byte	0x10
 1465 041d 09       		.uleb128 0x9
 1466 041e 89030000 		.4byte	.LASF70
 1467 0422 09       		.byte	0x9
ARM GAS  /tmp/ccZVh2eZ.s 			page 27


 1468 0423 6F02     		.2byte	0x26f
 1469 0425 20030000 		.4byte	0x320
 1470 0429 14       		.byte	0x14
 1471 042a 09       		.uleb128 0x9
 1472 042b 6A000000 		.4byte	.LASF71
 1473 042f 09       		.byte	0x9
 1474 0430 7302     		.2byte	0x273
 1475 0432 EE000000 		.4byte	0xee
 1476 0436 18       		.byte	0x18
 1477 0437 00       		.byte	0
 1478 0438 0A       		.uleb128 0xa
 1479 0439 1C010000 		.4byte	.LASF72
 1480 043d 09       		.byte	0x9
 1481 043e 0A02     		.2byte	0x20a
 1482 0440 44040000 		.4byte	0x444
 1483 0444 0D       		.uleb128 0xd
 1484 0445 04       		.byte	0x4
 1485 0446 4A040000 		.4byte	0x44a
 1486 044a 0E       		.uleb128 0xe
 1487 044b 55040000 		.4byte	0x455
 1488 044f 0F       		.uleb128 0xf
 1489 0450 55040000 		.4byte	0x455
 1490 0454 00       		.byte	0
 1491 0455 0D       		.uleb128 0xd
 1492 0456 04       		.byte	0x4
 1493 0457 A9030000 		.4byte	0x3a9
 1494 045b 0A       		.uleb128 0xa
 1495 045c 98000000 		.4byte	.LASF73
 1496 0460 09       		.byte	0x9
 1497 0461 1202     		.2byte	0x212
 1498 0463 67040000 		.4byte	0x467
 1499 0467 0D       		.uleb128 0xd
 1500 0468 04       		.byte	0x4
 1501 0469 6D040000 		.4byte	0x46d
 1502 046d 0E       		.uleb128 0xe
 1503 046e 7D040000 		.4byte	0x47d
 1504 0472 0F       		.uleb128 0xf
 1505 0473 55040000 		.4byte	0x455
 1506 0477 0F       		.uleb128 0xf
 1507 0478 AD000000 		.4byte	0xad
 1508 047c 00       		.byte	0
 1509 047d 0A       		.uleb128 0xa
 1510 047e 75020000 		.4byte	.LASF74
 1511 0482 09       		.byte	0x9
 1512 0483 1A02     		.2byte	0x21a
 1513 0485 89040000 		.4byte	0x489
 1514 0489 0D       		.uleb128 0xd
 1515 048a 04       		.byte	0x4
 1516 048b 8F040000 		.4byte	0x48f
 1517 048f 0E       		.uleb128 0xe
 1518 0490 9F040000 		.4byte	0x49f
 1519 0494 0F       		.uleb128 0xf
 1520 0495 55040000 		.4byte	0x455
 1521 0499 0F       		.uleb128 0xf
 1522 049a 9D030000 		.4byte	0x39d
 1523 049e 00       		.byte	0
 1524 049f 07       		.uleb128 0x7
ARM GAS  /tmp/ccZVh2eZ.s 			page 28


 1525 04a0 20       		.byte	0x20
 1526 04a1 09       		.byte	0x9
 1527 04a2 2002     		.2byte	0x220
 1528 04a4 1E050000 		.4byte	0x51e
 1529 04a8 09       		.uleb128 0x9
 1530 04a9 7B050000 		.4byte	.LASF75
 1531 04ad 09       		.byte	0x9
 1532 04ae 2402     		.2byte	0x224
 1533 04b0 38040000 		.4byte	0x438
 1534 04b4 00       		.byte	0
 1535 04b5 09       		.uleb128 0x9
 1536 04b6 E8030000 		.4byte	.LASF76
 1537 04ba 09       		.byte	0x9
 1538 04bb 2802     		.2byte	0x228
 1539 04bd 38040000 		.4byte	0x438
 1540 04c1 04       		.byte	0x4
 1541 04c2 09       		.uleb128 0x9
 1542 04c3 69030000 		.4byte	.LASF77
 1543 04c7 09       		.byte	0x9
 1544 04c8 2C02     		.2byte	0x22c
 1545 04ca 38040000 		.4byte	0x438
 1546 04ce 08       		.byte	0x8
 1547 04cf 09       		.uleb128 0x9
 1548 04d0 47000000 		.4byte	.LASF78
 1549 04d4 09       		.byte	0x9
 1550 04d5 3002     		.2byte	0x230
 1551 04d7 5B040000 		.4byte	0x45b
 1552 04db 0C       		.byte	0xc
 1553 04dc 09       		.uleb128 0x9
 1554 04dd 46030000 		.4byte	.LASF79
 1555 04e1 09       		.byte	0x9
 1556 04e2 3402     		.2byte	0x234
 1557 04e4 7D040000 		.4byte	0x47d
 1558 04e8 10       		.byte	0x10
 1559 04e9 09       		.uleb128 0x9
 1560 04ea EB050000 		.4byte	.LASF80
 1561 04ee 09       		.byte	0x9
 1562 04ef 3902     		.2byte	0x239
 1563 04f1 C3000000 		.4byte	0xc3
 1564 04f5 14       		.byte	0x14
 1565 04f6 08       		.uleb128 0x8
 1566 04f7 63723100 		.ascii	"cr1\000"
 1567 04fb 09       		.byte	0x9
 1568 04fc 3D02     		.2byte	0x23d
 1569 04fe AD000000 		.4byte	0xad
 1570 0502 18       		.byte	0x18
 1571 0503 08       		.uleb128 0x8
 1572 0504 63723200 		.ascii	"cr2\000"
 1573 0508 09       		.byte	0x9
 1574 0509 4102     		.2byte	0x241
 1575 050b AD000000 		.4byte	0xad
 1576 050f 1A       		.byte	0x1a
 1577 0510 08       		.uleb128 0x8
 1578 0511 63723300 		.ascii	"cr3\000"
 1579 0515 09       		.byte	0x9
 1580 0516 4502     		.2byte	0x245
 1581 0518 AD000000 		.4byte	0xad
ARM GAS  /tmp/ccZVh2eZ.s 			page 29


 1582 051c 1C       		.byte	0x1c
 1583 051d 00       		.byte	0
 1584 051e 0A       		.uleb128 0xa
 1585 051f BC000000 		.4byte	.LASF81
 1586 0523 09       		.byte	0x9
 1587 0524 4602     		.2byte	0x246
 1588 0526 9F040000 		.4byte	0x49f
 1589 052a 0D       		.uleb128 0xd
 1590 052b 04       		.byte	0x4
 1591 052c 30050000 		.4byte	0x530
 1592 0530 10       		.uleb128 0x10
 1593 0531 1E050000 		.4byte	0x51e
 1594 0535 0D       		.uleb128 0xd
 1595 0536 04       		.byte	0x4
 1596 0537 97020000 		.4byte	0x297
 1597 053b 14       		.uleb128 0x14
 1598 053c A4050000 		.4byte	.LASF84
 1599 0540 01       		.byte	0x1
 1600 0541 F2       		.byte	0xf2
 1601 0542 01       		.byte	0x1
 1602 0543 5E050000 		.4byte	0x55e
 1603 0547 15       		.uleb128 0x15
 1604 0548 15030000 		.4byte	.LASF82
 1605 054c 01       		.byte	0x1
 1606 054d F2       		.byte	0xf2
 1607 054e 55040000 		.4byte	0x455
 1608 0552 15       		.uleb128 0x15
 1609 0553 DD050000 		.4byte	.LASF83
 1610 0557 01       		.byte	0x1
 1611 0558 F2       		.byte	0xf2
 1612 0559 C3000000 		.4byte	0xc3
 1613 055d 00       		.byte	0
 1614 055e 16       		.uleb128 0x16
 1615 055f FE020000 		.4byte	.LASF85
 1616 0563 01       		.byte	0x1
 1617 0564 3D01     		.2byte	0x13d
 1618 0566 01       		.byte	0x1
 1619 0567 99050000 		.4byte	0x599
 1620 056b 17       		.uleb128 0x17
 1621 056c 15030000 		.4byte	.LASF82
 1622 0570 01       		.byte	0x1
 1623 0571 3D01     		.2byte	0x13d
 1624 0573 55040000 		.4byte	0x455
 1625 0577 18       		.uleb128 0x18
 1626 0578 737200   		.ascii	"sr\000"
 1627 057b 01       		.byte	0x1
 1628 057c 3E01     		.2byte	0x13e
 1629 057e AD000000 		.4byte	0xad
 1630 0582 18       		.uleb128 0x18
 1631 0583 7500     		.ascii	"u\000"
 1632 0585 01       		.byte	0x1
 1633 0586 3F01     		.2byte	0x13f
 1634 0588 35050000 		.4byte	0x535
 1635 058c 18       		.uleb128 0x18
 1636 058d 63723100 		.ascii	"cr1\000"
 1637 0591 01       		.byte	0x1
 1638 0592 4001     		.2byte	0x140
ARM GAS  /tmp/ccZVh2eZ.s 			page 30


 1639 0594 C3000000 		.4byte	0xc3
 1640 0598 00       		.byte	0
 1641 0599 19       		.uleb128 0x19
 1642 059a B1010000 		.4byte	.LASF86
 1643 059e 01       		.byte	0x1
 1644 059f A0       		.byte	0xa0
 1645 05a0 00000000 		.4byte	.LFB57
 1646 05a4 3C000000 		.4byte	.LFE57-.LFB57
 1647 05a8 01       		.uleb128 0x1
 1648 05a9 9C       		.byte	0x9c
 1649 05aa C9050000 		.4byte	0x5c9
 1650 05ae 1A       		.uleb128 0x1a
 1651 05af 15030000 		.4byte	.LASF82
 1652 05b3 01       		.byte	0x1
 1653 05b4 A0       		.byte	0xa0
 1654 05b5 55040000 		.4byte	0x455
 1655 05b9 01       		.uleb128 0x1
 1656 05ba 50       		.byte	0x50
 1657 05bb 1B       		.uleb128 0x1b
 1658 05bc 57050000 		.4byte	.LASF99
 1659 05c0 01       		.byte	0x1
 1660 05c1 A1       		.byte	0xa1
 1661 05c2 C3000000 		.4byte	0xc3
 1662 05c6 01       		.uleb128 0x1
 1663 05c7 51       		.byte	0x51
 1664 05c8 00       		.byte	0
 1665 05c9 19       		.uleb128 0x19
 1666 05ca 76000000 		.4byte	.LASF87
 1667 05ce 01       		.byte	0x1
 1668 05cf B5       		.byte	0xb5
 1669 05d0 00000000 		.4byte	.LFB58
 1670 05d4 46000000 		.4byte	.LFE58-.LFB58
 1671 05d8 01       		.uleb128 0x1
 1672 05d9 9C       		.byte	0x9c
 1673 05da EC050000 		.4byte	0x5ec
 1674 05de 1A       		.uleb128 0x1a
 1675 05df 15030000 		.4byte	.LASF82
 1676 05e3 01       		.byte	0x1
 1677 05e4 B5       		.byte	0xb5
 1678 05e5 55040000 		.4byte	0x455
 1679 05e9 01       		.uleb128 0x1
 1680 05ea 50       		.byte	0x50
 1681 05eb 00       		.byte	0
 1682 05ec 1C       		.uleb128 0x1c
 1683 05ed 4F030000 		.4byte	.LASF88
 1684 05f1 01       		.byte	0x1
 1685 05f2 1A01     		.2byte	0x11a
 1686 05f4 00000000 		.4byte	.LFB61
 1687 05f8 56000000 		.4byte	.LFE61-.LFB61
 1688 05fc 01       		.uleb128 0x1
 1689 05fd 9C       		.byte	0x9c
 1690 05fe 3C060000 		.4byte	0x63c
 1691 0602 1D       		.uleb128 0x1d
 1692 0603 15030000 		.4byte	.LASF82
 1693 0607 01       		.byte	0x1
 1694 0608 1A01     		.2byte	0x11a
 1695 060a 55040000 		.4byte	0x455
ARM GAS  /tmp/ccZVh2eZ.s 			page 31


 1696 060e 00000000 		.4byte	.LLST0
 1697 0612 1D       		.uleb128 0x1d
 1698 0613 DD050000 		.4byte	.LASF83
 1699 0617 01       		.byte	0x1
 1700 0618 1A01     		.2byte	0x11a
 1701 061a C3000000 		.4byte	0xc3
 1702 061e 34000000 		.4byte	.LLST1
 1703 0622 1E       		.uleb128 0x1e
 1704 0623 42000000 		.4byte	.LVL5
 1705 0627 32060000 		.4byte	0x632
 1706 062b 1F       		.uleb128 0x1f
 1707 062c 01       		.uleb128 0x1
 1708 062d 50       		.byte	0x50
 1709 062e 02       		.uleb128 0x2
 1710 062f 74       		.byte	0x74
 1711 0630 00       		.sleb128 0
 1712 0631 00       		.byte	0
 1713 0632 20       		.uleb128 0x20
 1714 0633 54000000 		.4byte	.LVL8
 1715 0637 FB0B0000 		.4byte	0xbfb
 1716 063b 00       		.byte	0
 1717 063c 21       		.uleb128 0x21
 1718 063d 3B050000 		.4byte	0x53b
 1719 0641 00000000 		.4byte	.LFB60
 1720 0645 60000000 		.4byte	.LFE60-.LFB60
 1721 0649 01       		.uleb128 0x1
 1722 064a 9C       		.byte	0x9c
 1723 064b B8060000 		.4byte	0x6b8
 1724 064f 22       		.uleb128 0x22
 1725 0650 47050000 		.4byte	0x547
 1726 0654 6E000000 		.4byte	.LLST2
 1727 0658 22       		.uleb128 0x22
 1728 0659 52050000 		.4byte	0x552
 1729 065d BB000000 		.4byte	.LLST3
 1730 0661 23       		.uleb128 0x23
 1731 0662 00000000 		.4byte	.Ldebug_ranges0+0
 1732 0666 9E060000 		.4byte	0x69e
 1733 066a 22       		.uleb128 0x22
 1734 066b 52050000 		.4byte	0x552
 1735 066f F5000000 		.4byte	.LLST4
 1736 0673 22       		.uleb128 0x22
 1737 0674 47050000 		.4byte	0x547
 1738 0678 19010000 		.4byte	.LLST5
 1739 067c 1E       		.uleb128 0x1e
 1740 067d 44000000 		.4byte	.LVL13
 1741 0681 8C060000 		.4byte	0x68c
 1742 0685 1F       		.uleb128 0x1f
 1743 0686 01       		.uleb128 0x1
 1744 0687 50       		.byte	0x50
 1745 0688 02       		.uleb128 0x2
 1746 0689 74       		.byte	0x74
 1747 068a 00       		.sleb128 0
 1748 068b 00       		.byte	0
 1749 068c 24       		.uleb128 0x24
 1750 068d 60000000 		.4byte	.LVL19
 1751 0691 99050000 		.4byte	0x599
 1752 0695 1F       		.uleb128 0x1f
ARM GAS  /tmp/ccZVh2eZ.s 			page 32


 1753 0696 01       		.uleb128 0x1
 1754 0697 50       		.byte	0x50
 1755 0698 03       		.uleb128 0x3
 1756 0699 F3       		.byte	0xf3
 1757 069a 01       		.uleb128 0x1
 1758 069b 50       		.byte	0x50
 1759 069c 00       		.byte	0
 1760 069d 00       		.byte	0
 1761 069e 1E       		.uleb128 0x1e
 1762 069f 1A000000 		.4byte	.LVL11
 1763 06a3 AE060000 		.4byte	0x6ae
 1764 06a7 1F       		.uleb128 0x1f
 1765 06a8 01       		.uleb128 0x1
 1766 06a9 50       		.byte	0x50
 1767 06aa 02       		.uleb128 0x2
 1768 06ab 74       		.byte	0x74
 1769 06ac 00       		.sleb128 0
 1770 06ad 00       		.byte	0
 1771 06ae 20       		.uleb128 0x20
 1772 06af 50000000 		.4byte	.LVL16
 1773 06b3 FB0B0000 		.4byte	0xbfb
 1774 06b7 00       		.byte	0
 1775 06b8 25       		.uleb128 0x25
 1776 06b9 24030000 		.4byte	.LASF111
 1777 06bd 01       		.byte	0x1
 1778 06be 8B       		.byte	0x8b
 1779 06bf 9D030000 		.4byte	0x39d
 1780 06c3 01       		.byte	0x1
 1781 06c4 DE060000 		.4byte	0x6de
 1782 06c8 26       		.uleb128 0x26
 1783 06c9 737200   		.ascii	"sr\000"
 1784 06cc 01       		.byte	0x1
 1785 06cd 8B       		.byte	0x8b
 1786 06ce AD000000 		.4byte	0xad
 1787 06d2 27       		.uleb128 0x27
 1788 06d3 73747300 		.ascii	"sts\000"
 1789 06d7 01       		.byte	0x1
 1790 06d8 8C       		.byte	0x8c
 1791 06d9 9D030000 		.4byte	0x39d
 1792 06dd 00       		.byte	0
 1793 06de 28       		.uleb128 0x28
 1794 06df F0020000 		.4byte	.LASF89
 1795 06e3 01       		.byte	0x1
 1796 06e4 7701     		.2byte	0x177
 1797 06e6 00000000 		.4byte	.LFB63
 1798 06ea 80000000 		.4byte	.LFE63-.LFB63
 1799 06ee 01       		.uleb128 0x1
 1800 06ef 9C       		.byte	0x9c
 1801 06f0 2C090000 		.4byte	0x92c
 1802 06f4 29       		.uleb128 0x29
 1803 06f5 5E050000 		.4byte	0x55e
 1804 06f9 02000000 		.4byte	.LBB14
 1805 06fd 70000000 		.4byte	.LBE14-.LBB14
 1806 0701 01       		.byte	0x1
 1807 0702 7B01     		.2byte	0x17b
 1808 0704 22090000 		.4byte	0x922
 1809 0708 2A       		.uleb128 0x2a
ARM GAS  /tmp/ccZVh2eZ.s 			page 33


 1810 0709 6B050000 		.4byte	0x56b
 1811 070d 06       		.uleb128 0x6
 1812 070e 03       		.byte	0x3
 1813 070f 00000000 		.4byte	UARTD2
 1814 0713 9F       		.byte	0x9f
 1815 0714 2B       		.uleb128 0x2b
 1816 0715 02000000 		.4byte	.LBB15
 1817 0719 70000000 		.4byte	.LBE15-.LBB15
 1818 071d 2C       		.uleb128 0x2c
 1819 071e 77050000 		.4byte	0x577
 1820 0722 50010000 		.4byte	.LLST6
 1821 0726 2C       		.uleb128 0x2c
 1822 0727 82050000 		.4byte	0x582
 1823 072b 63010000 		.4byte	.LLST7
 1824 072f 2C       		.uleb128 0x2c
 1825 0730 8C050000 		.4byte	0x58c
 1826 0734 76010000 		.4byte	.LLST8
 1827 0738 29       		.uleb128 0x29
 1828 0739 B8060000 		.4byte	0x6b8
 1829 073d 24000000 		.4byte	.LBB16
 1830 0741 2A000000 		.4byte	.LBE16-.LBB16
 1831 0745 01       		.byte	0x1
 1832 0746 4901     		.2byte	0x149
 1833 0748 69070000 		.4byte	0x769
 1834 074c 22       		.uleb128 0x22
 1835 074d C8060000 		.4byte	0x6c8
 1836 0751 8F010000 		.4byte	.LLST9
 1837 0755 2B       		.uleb128 0x2b
 1838 0756 24000000 		.4byte	.LBB17
 1839 075a 2A000000 		.4byte	.LBE17-.LBB17
 1840 075e 2C       		.uleb128 0x2c
 1841 075f D2060000 		.4byte	0x6d2
 1842 0763 A2010000 		.4byte	.LLST10
 1843 0767 00       		.byte	0
 1844 0768 00       		.byte	0
 1845 0769 1E       		.uleb128 0x1e
 1846 076a 52000000 		.4byte	.LVL30
 1847 076e 14090000 		.4byte	0x914
 1848 0772 1F       		.uleb128 0x1f
 1849 0773 01       		.uleb128 0x1
 1850 0774 51       		.byte	0x51
 1851 0775 9603     		.uleb128 0x196
 1852 0777 40       		.byte	0x40
 1853 0778 30       		.byte	0x30
 1854 0779 75       		.byte	0x75
 1855 077a 00       		.sleb128 0
 1856 077b 33       		.byte	0x33
 1857 077c 25       		.byte	0x25
 1858 077d 30       		.byte	0x30
 1859 077e 2E       		.byte	0x2e
 1860 077f 28       		.byte	0x28
 1861 0780 0100     		.2byte	0x1
 1862 0782 16       		.byte	0x16
 1863 0783 13       		.byte	0x13
 1864 0784 34       		.byte	0x34
 1865 0785 21       		.byte	0x21
 1866 0786 40       		.byte	0x40
ARM GAS  /tmp/ccZVh2eZ.s 			page 34


 1867 0787 30       		.byte	0x30
 1868 0788 75       		.byte	0x75
 1869 0789 00       		.sleb128 0
 1870 078a 33       		.byte	0x33
 1871 078b 25       		.byte	0x25
 1872 078c 30       		.byte	0x30
 1873 078d 2E       		.byte	0x2e
 1874 078e 28       		.byte	0x28
 1875 078f 0100     		.2byte	0x1
 1876 0791 16       		.byte	0x16
 1877 0792 13       		.byte	0x13
 1878 0793 75       		.byte	0x75
 1879 0794 00       		.sleb128 0
 1880 0795 4F       		.byte	0x4f
 1881 0796 24       		.byte	0x24
 1882 0797 30       		.byte	0x30
 1883 0798 2D       		.byte	0x2d
 1884 0799 28       		.byte	0x28
 1885 079a 0100     		.2byte	0x1
 1886 079c 16       		.byte	0x16
 1887 079d 13       		.byte	0x13
 1888 079e 38       		.byte	0x38
 1889 079f 21       		.byte	0x21
 1890 07a0 40       		.byte	0x40
 1891 07a1 30       		.byte	0x30
 1892 07a2 75       		.byte	0x75
 1893 07a3 00       		.sleb128 0
 1894 07a4 33       		.byte	0x33
 1895 07a5 25       		.byte	0x25
 1896 07a6 30       		.byte	0x30
 1897 07a7 2E       		.byte	0x2e
 1898 07a8 28       		.byte	0x28
 1899 07a9 0100     		.2byte	0x1
 1900 07ab 16       		.byte	0x16
 1901 07ac 13       		.byte	0x13
 1902 07ad 34       		.byte	0x34
 1903 07ae 21       		.byte	0x21
 1904 07af 40       		.byte	0x40
 1905 07b0 30       		.byte	0x30
 1906 07b1 75       		.byte	0x75
 1907 07b2 00       		.sleb128 0
 1908 07b3 33       		.byte	0x33
 1909 07b4 25       		.byte	0x25
 1910 07b5 30       		.byte	0x30
 1911 07b6 2E       		.byte	0x2e
 1912 07b7 28       		.byte	0x28
 1913 07b8 0100     		.2byte	0x1
 1914 07ba 16       		.byte	0x16
 1915 07bb 13       		.byte	0x13
 1916 07bc 75       		.byte	0x75
 1917 07bd 00       		.sleb128 0
 1918 07be 4F       		.byte	0x4f
 1919 07bf 24       		.byte	0x24
 1920 07c0 30       		.byte	0x30
 1921 07c1 2D       		.byte	0x2d
 1922 07c2 28       		.byte	0x28
 1923 07c3 0100     		.2byte	0x1
ARM GAS  /tmp/ccZVh2eZ.s 			page 35


 1924 07c5 16       		.byte	0x16
 1925 07c6 13       		.byte	0x13
 1926 07c7 75       		.byte	0x75
 1927 07c8 00       		.sleb128 0
 1928 07c9 4E       		.byte	0x4e
 1929 07ca 24       		.byte	0x24
 1930 07cb 30       		.byte	0x30
 1931 07cc 2D       		.byte	0x2d
 1932 07cd 28       		.byte	0x28
 1933 07ce 0100     		.2byte	0x1
 1934 07d0 16       		.byte	0x16
 1935 07d1 13       		.byte	0x13
 1936 07d2 08       		.byte	0x8
 1937 07d3 20       		.byte	0x20
 1938 07d4 21       		.byte	0x21
 1939 07d5 40       		.byte	0x40
 1940 07d6 30       		.byte	0x30
 1941 07d7 75       		.byte	0x75
 1942 07d8 00       		.sleb128 0
 1943 07d9 33       		.byte	0x33
 1944 07da 25       		.byte	0x25
 1945 07db 30       		.byte	0x30
 1946 07dc 2E       		.byte	0x2e
 1947 07dd 28       		.byte	0x28
 1948 07de 0100     		.2byte	0x1
 1949 07e0 16       		.byte	0x16
 1950 07e1 13       		.byte	0x13
 1951 07e2 34       		.byte	0x34
 1952 07e3 21       		.byte	0x21
 1953 07e4 40       		.byte	0x40
 1954 07e5 30       		.byte	0x30
 1955 07e6 75       		.byte	0x75
 1956 07e7 00       		.sleb128 0
 1957 07e8 33       		.byte	0x33
 1958 07e9 25       		.byte	0x25
 1959 07ea 30       		.byte	0x30
 1960 07eb 2E       		.byte	0x2e
 1961 07ec 28       		.byte	0x28
 1962 07ed 0100     		.2byte	0x1
 1963 07ef 16       		.byte	0x16
 1964 07f0 13       		.byte	0x13
 1965 07f1 75       		.byte	0x75
 1966 07f2 00       		.sleb128 0
 1967 07f3 4F       		.byte	0x4f
 1968 07f4 24       		.byte	0x24
 1969 07f5 30       		.byte	0x30
 1970 07f6 2D       		.byte	0x2d
 1971 07f7 28       		.byte	0x28
 1972 07f8 0100     		.2byte	0x1
 1973 07fa 16       		.byte	0x16
 1974 07fb 13       		.byte	0x13
 1975 07fc 38       		.byte	0x38
 1976 07fd 21       		.byte	0x21
 1977 07fe 40       		.byte	0x40
 1978 07ff 30       		.byte	0x30
 1979 0800 75       		.byte	0x75
 1980 0801 00       		.sleb128 0
ARM GAS  /tmp/ccZVh2eZ.s 			page 36


 1981 0802 33       		.byte	0x33
 1982 0803 25       		.byte	0x25
 1983 0804 30       		.byte	0x30
 1984 0805 2E       		.byte	0x2e
 1985 0806 28       		.byte	0x28
 1986 0807 0100     		.2byte	0x1
 1987 0809 16       		.byte	0x16
 1988 080a 13       		.byte	0x13
 1989 080b 34       		.byte	0x34
 1990 080c 21       		.byte	0x21
 1991 080d 40       		.byte	0x40
 1992 080e 30       		.byte	0x30
 1993 080f 75       		.byte	0x75
 1994 0810 00       		.sleb128 0
 1995 0811 33       		.byte	0x33
 1996 0812 25       		.byte	0x25
 1997 0813 30       		.byte	0x30
 1998 0814 2E       		.byte	0x2e
 1999 0815 28       		.byte	0x28
 2000 0816 0100     		.2byte	0x1
 2001 0818 16       		.byte	0x16
 2002 0819 13       		.byte	0x13
 2003 081a 75       		.byte	0x75
 2004 081b 00       		.sleb128 0
 2005 081c 4F       		.byte	0x4f
 2006 081d 24       		.byte	0x24
 2007 081e 30       		.byte	0x30
 2008 081f 2D       		.byte	0x2d
 2009 0820 28       		.byte	0x28
 2010 0821 0100     		.2byte	0x1
 2011 0823 16       		.byte	0x16
 2012 0824 13       		.byte	0x13
 2013 0825 75       		.byte	0x75
 2014 0826 00       		.sleb128 0
 2015 0827 4E       		.byte	0x4e
 2016 0828 24       		.byte	0x24
 2017 0829 30       		.byte	0x30
 2018 082a 2D       		.byte	0x2d
 2019 082b 28       		.byte	0x28
 2020 082c 0100     		.2byte	0x1
 2021 082e 16       		.byte	0x16
 2022 082f 13       		.byte	0x13
 2023 0830 75       		.byte	0x75
 2024 0831 00       		.sleb128 0
 2025 0832 4D       		.byte	0x4d
 2026 0833 24       		.byte	0x24
 2027 0834 30       		.byte	0x30
 2028 0835 2D       		.byte	0x2d
 2029 0836 28       		.byte	0x28
 2030 0837 0100     		.2byte	0x1
 2031 0839 16       		.byte	0x16
 2032 083a 13       		.byte	0x13
 2033 083b 08       		.byte	0x8
 2034 083c 40       		.byte	0x40
 2035 083d 21       		.byte	0x21
 2036 083e 40       		.byte	0x40
 2037 083f 30       		.byte	0x30
ARM GAS  /tmp/ccZVh2eZ.s 			page 37


 2038 0840 75       		.byte	0x75
 2039 0841 00       		.sleb128 0
 2040 0842 33       		.byte	0x33
 2041 0843 25       		.byte	0x25
 2042 0844 30       		.byte	0x30
 2043 0845 2E       		.byte	0x2e
 2044 0846 28       		.byte	0x28
 2045 0847 0100     		.2byte	0x1
 2046 0849 16       		.byte	0x16
 2047 084a 13       		.byte	0x13
 2048 084b 34       		.byte	0x34
 2049 084c 21       		.byte	0x21
 2050 084d 40       		.byte	0x40
 2051 084e 30       		.byte	0x30
 2052 084f 75       		.byte	0x75
 2053 0850 00       		.sleb128 0
 2054 0851 33       		.byte	0x33
 2055 0852 25       		.byte	0x25
 2056 0853 30       		.byte	0x30
 2057 0854 2E       		.byte	0x2e
 2058 0855 28       		.byte	0x28
 2059 0856 0100     		.2byte	0x1
 2060 0858 16       		.byte	0x16
 2061 0859 13       		.byte	0x13
 2062 085a 75       		.byte	0x75
 2063 085b 00       		.sleb128 0
 2064 085c 4F       		.byte	0x4f
 2065 085d 24       		.byte	0x24
 2066 085e 30       		.byte	0x30
 2067 085f 2D       		.byte	0x2d
 2068 0860 28       		.byte	0x28
 2069 0861 0100     		.2byte	0x1
 2070 0863 16       		.byte	0x16
 2071 0864 13       		.byte	0x13
 2072 0865 38       		.byte	0x38
 2073 0866 21       		.byte	0x21
 2074 0867 40       		.byte	0x40
 2075 0868 30       		.byte	0x30
 2076 0869 75       		.byte	0x75
 2077 086a 00       		.sleb128 0
 2078 086b 33       		.byte	0x33
 2079 086c 25       		.byte	0x25
 2080 086d 30       		.byte	0x30
 2081 086e 2E       		.byte	0x2e
 2082 086f 28       		.byte	0x28
 2083 0870 0100     		.2byte	0x1
 2084 0872 16       		.byte	0x16
 2085 0873 13       		.byte	0x13
 2086 0874 34       		.byte	0x34
 2087 0875 21       		.byte	0x21
 2088 0876 40       		.byte	0x40
 2089 0877 30       		.byte	0x30
 2090 0878 75       		.byte	0x75
 2091 0879 00       		.sleb128 0
 2092 087a 33       		.byte	0x33
 2093 087b 25       		.byte	0x25
 2094 087c 30       		.byte	0x30
ARM GAS  /tmp/ccZVh2eZ.s 			page 38


 2095 087d 2E       		.byte	0x2e
 2096 087e 28       		.byte	0x28
 2097 087f 0100     		.2byte	0x1
 2098 0881 16       		.byte	0x16
 2099 0882 13       		.byte	0x13
 2100 0883 75       		.byte	0x75
 2101 0884 00       		.sleb128 0
 2102 0885 4F       		.byte	0x4f
 2103 0886 24       		.byte	0x24
 2104 0887 30       		.byte	0x30
 2105 0888 2D       		.byte	0x2d
 2106 0889 28       		.byte	0x28
 2107 088a 0100     		.2byte	0x1
 2108 088c 16       		.byte	0x16
 2109 088d 13       		.byte	0x13
 2110 088e 75       		.byte	0x75
 2111 088f 00       		.sleb128 0
 2112 0890 4E       		.byte	0x4e
 2113 0891 24       		.byte	0x24
 2114 0892 30       		.byte	0x30
 2115 0893 2D       		.byte	0x2d
 2116 0894 28       		.byte	0x28
 2117 0895 0100     		.2byte	0x1
 2118 0897 16       		.byte	0x16
 2119 0898 13       		.byte	0x13
 2120 0899 08       		.byte	0x8
 2121 089a 20       		.byte	0x20
 2122 089b 21       		.byte	0x21
 2123 089c 40       		.byte	0x40
 2124 089d 30       		.byte	0x30
 2125 089e 75       		.byte	0x75
 2126 089f 00       		.sleb128 0
 2127 08a0 33       		.byte	0x33
 2128 08a1 25       		.byte	0x25
 2129 08a2 30       		.byte	0x30
 2130 08a3 2E       		.byte	0x2e
 2131 08a4 28       		.byte	0x28
 2132 08a5 0100     		.2byte	0x1
 2133 08a7 16       		.byte	0x16
 2134 08a8 13       		.byte	0x13
 2135 08a9 34       		.byte	0x34
 2136 08aa 21       		.byte	0x21
 2137 08ab 40       		.byte	0x40
 2138 08ac 30       		.byte	0x30
 2139 08ad 75       		.byte	0x75
 2140 08ae 00       		.sleb128 0
 2141 08af 33       		.byte	0x33
 2142 08b0 25       		.byte	0x25
 2143 08b1 30       		.byte	0x30
 2144 08b2 2E       		.byte	0x2e
 2145 08b3 28       		.byte	0x28
 2146 08b4 0100     		.2byte	0x1
 2147 08b6 16       		.byte	0x16
 2148 08b7 13       		.byte	0x13
 2149 08b8 75       		.byte	0x75
 2150 08b9 00       		.sleb128 0
 2151 08ba 4F       		.byte	0x4f
ARM GAS  /tmp/ccZVh2eZ.s 			page 39


 2152 08bb 24       		.byte	0x24
 2153 08bc 30       		.byte	0x30
 2154 08bd 2D       		.byte	0x2d
 2155 08be 28       		.byte	0x28
 2156 08bf 0100     		.2byte	0x1
 2157 08c1 16       		.byte	0x16
 2158 08c2 13       		.byte	0x13
 2159 08c3 38       		.byte	0x38
 2160 08c4 21       		.byte	0x21
 2161 08c5 40       		.byte	0x40
 2162 08c6 30       		.byte	0x30
 2163 08c7 75       		.byte	0x75
 2164 08c8 00       		.sleb128 0
 2165 08c9 33       		.byte	0x33
 2166 08ca 25       		.byte	0x25
 2167 08cb 30       		.byte	0x30
 2168 08cc 2E       		.byte	0x2e
 2169 08cd 28       		.byte	0x28
 2170 08ce 0100     		.2byte	0x1
 2171 08d0 16       		.byte	0x16
 2172 08d1 13       		.byte	0x13
 2173 08d2 34       		.byte	0x34
 2174 08d3 21       		.byte	0x21
 2175 08d4 40       		.byte	0x40
 2176 08d5 30       		.byte	0x30
 2177 08d6 75       		.byte	0x75
 2178 08d7 00       		.sleb128 0
 2179 08d8 33       		.byte	0x33
 2180 08d9 25       		.byte	0x25
 2181 08da 30       		.byte	0x30
 2182 08db 2E       		.byte	0x2e
 2183 08dc 28       		.byte	0x28
 2184 08dd 0100     		.2byte	0x1
 2185 08df 16       		.byte	0x16
 2186 08e0 13       		.byte	0x13
 2187 08e1 75       		.byte	0x75
 2188 08e2 00       		.sleb128 0
 2189 08e3 4F       		.byte	0x4f
 2190 08e4 24       		.byte	0x24
 2191 08e5 30       		.byte	0x30
 2192 08e6 2D       		.byte	0x2d
 2193 08e7 28       		.byte	0x28
 2194 08e8 0100     		.2byte	0x1
 2195 08ea 16       		.byte	0x16
 2196 08eb 13       		.byte	0x13
 2197 08ec 75       		.byte	0x75
 2198 08ed 00       		.sleb128 0
 2199 08ee 4E       		.byte	0x4e
 2200 08ef 24       		.byte	0x24
 2201 08f0 30       		.byte	0x30
 2202 08f1 2D       		.byte	0x2d
 2203 08f2 28       		.byte	0x28
 2204 08f3 0100     		.2byte	0x1
 2205 08f5 16       		.byte	0x16
 2206 08f6 13       		.byte	0x13
 2207 08f7 75       		.byte	0x75
 2208 08f8 00       		.sleb128 0
ARM GAS  /tmp/ccZVh2eZ.s 			page 40


 2209 08f9 4D       		.byte	0x4d
 2210 08fa 24       		.byte	0x24
 2211 08fb 30       		.byte	0x30
 2212 08fc 2D       		.byte	0x2d
 2213 08fd 28       		.byte	0x28
 2214 08fe 0100     		.2byte	0x1
 2215 0900 16       		.byte	0x16
 2216 0901 13       		.byte	0x13
 2217 0902 75       		.byte	0x75
 2218 0903 00       		.sleb128 0
 2219 0904 47       		.byte	0x47
 2220 0905 24       		.byte	0x24
 2221 0906 30       		.byte	0x30
 2222 0907 2D       		.byte	0x2d
 2223 0908 28       		.byte	0x28
 2224 0909 0100     		.2byte	0x1
 2225 090b 16       		.byte	0x16
 2226 090c 13       		.byte	0x13
 2227 090d 1F       		.uleb128 0x1f
 2228 090e 01       		.uleb128 0x1
 2229 090f 50       		.byte	0x50
 2230 0910 02       		.uleb128 0x2
 2231 0911 76       		.byte	0x76
 2232 0912 00       		.sleb128 0
 2233 0913 00       		.byte	0
 2234 0914 2D       		.uleb128 0x2d
 2235 0915 72000000 		.4byte	.LVL32
 2236 0919 1F       		.uleb128 0x1f
 2237 091a 01       		.uleb128 0x1
 2238 091b 50       		.byte	0x50
 2239 091c 02       		.uleb128 0x2
 2240 091d 76       		.byte	0x76
 2241 091e 00       		.sleb128 0
 2242 091f 00       		.byte	0
 2243 0920 00       		.byte	0
 2244 0921 00       		.byte	0
 2245 0922 2E       		.uleb128 0x2e
 2246 0923 7A000000 		.4byte	.LVL34
 2247 0927 030C0000 		.4byte	0xc03
 2248 092b 00       		.byte	0
 2249 092c 28       		.uleb128 0x28
 2250 092d 32000000 		.4byte	.LASF90
 2251 0931 01       		.byte	0x1
 2252 0932 D601     		.2byte	0x1d6
 2253 0934 00000000 		.4byte	.LFB64
 2254 0938 2C000000 		.4byte	.LFE64-.LFB64
 2255 093c 01       		.uleb128 0x1
 2256 093d 9C       		.byte	0x9c
 2257 093e 53090000 		.4byte	0x953
 2258 0942 2F       		.uleb128 0x2f
 2259 0943 0A000000 		.4byte	.LVL35
 2260 0947 0B0C0000 		.4byte	0xc0b
 2261 094b 1F       		.uleb128 0x1f
 2262 094c 01       		.uleb128 0x1
 2263 094d 50       		.byte	0x50
 2264 094e 02       		.uleb128 0x2
 2265 094f 74       		.byte	0x74
ARM GAS  /tmp/ccZVh2eZ.s 			page 41


 2266 0950 00       		.sleb128 0
 2267 0951 00       		.byte	0
 2268 0952 00       		.byte	0
 2269 0953 14       		.uleb128 0x14
 2270 0954 D1050000 		.4byte	.LASF91
 2271 0958 01       		.byte	0x1
 2272 0959 C7       		.byte	0xc7
 2273 095a 01       		.byte	0x1
 2274 095b 7F090000 		.4byte	0x97f
 2275 095f 15       		.uleb128 0x15
 2276 0960 15030000 		.4byte	.LASF82
 2277 0964 01       		.byte	0x1
 2278 0965 C7       		.byte	0xc7
 2279 0966 55040000 		.4byte	0x455
 2280 096a 27       		.uleb128 0x27
 2281 096b 63723100 		.ascii	"cr1\000"
 2282 096f 01       		.byte	0x1
 2283 0970 C8       		.byte	0xc8
 2284 0971 AD000000 		.4byte	0xad
 2285 0975 27       		.uleb128 0x27
 2286 0976 7500     		.ascii	"u\000"
 2287 0978 01       		.byte	0x1
 2288 0979 C9       		.byte	0xc9
 2289 097a 35050000 		.4byte	0x535
 2290 097e 00       		.byte	0
 2291 097f 28       		.uleb128 0x28
 2292 0980 82010000 		.4byte	.LASF92
 2293 0984 01       		.byte	0x1
 2294 0985 0F02     		.2byte	0x20f
 2295 0987 00000000 		.4byte	.LFB65
 2296 098b EC000000 		.4byte	.LFE65-.LFB65
 2297 098f 01       		.uleb128 0x1
 2298 0990 9C       		.byte	0x9c
 2299 0991 6F0A0000 		.4byte	0xa6f
 2300 0995 1D       		.uleb128 0x1d
 2301 0996 15030000 		.4byte	.LASF82
 2302 099a 01       		.byte	0x1
 2303 099b 0F02     		.2byte	0x20f
 2304 099d 55040000 		.4byte	0x455
 2305 09a1 62030000 		.4byte	.LLST11
 2306 09a5 30       		.uleb128 0x30
 2307 09a6 53090000 		.4byte	0x953
 2308 09aa 10000000 		.4byte	.LBB21
 2309 09ae 20000000 		.4byte	.Ldebug_ranges0+0x20
 2310 09b2 01       		.byte	0x1
 2311 09b3 AB02     		.2byte	0x2ab
 2312 09b5 000A0000 		.4byte	0xa00
 2313 09b9 22       		.uleb128 0x22
 2314 09ba 5F090000 		.4byte	0x95f
 2315 09be C5030000 		.4byte	.LLST12
 2316 09c2 31       		.uleb128 0x31
 2317 09c3 20000000 		.4byte	.Ldebug_ranges0+0x20
 2318 09c7 2C       		.uleb128 0x2c
 2319 09c8 6A090000 		.4byte	0x96a
 2320 09cc F1030000 		.4byte	.LLST13
 2321 09d0 2C       		.uleb128 0x2c
 2322 09d1 75090000 		.4byte	0x975
ARM GAS  /tmp/ccZVh2eZ.s 			page 42


 2323 09d5 07040000 		.4byte	.LLST14
 2324 09d9 32       		.uleb128 0x32
 2325 09da 18000000 		.4byte	.LVL40
 2326 09de C9050000 		.4byte	0x5c9
 2327 09e2 ED090000 		.4byte	0x9ed
 2328 09e6 1F       		.uleb128 0x1f
 2329 09e7 01       		.uleb128 0x1
 2330 09e8 50       		.byte	0x50
 2331 09e9 02       		.uleb128 0x2
 2332 09ea 74       		.byte	0x74
 2333 09eb 00       		.sleb128 0
 2334 09ec 00       		.byte	0
 2335 09ed 24       		.uleb128 0x24
 2336 09ee 6C000000 		.4byte	.LVL43
 2337 09f2 99050000 		.4byte	0x599
 2338 09f6 1F       		.uleb128 0x1f
 2339 09f7 01       		.uleb128 0x1
 2340 09f8 50       		.byte	0x50
 2341 09f9 03       		.uleb128 0x3
 2342 09fa F3       		.byte	0xf3
 2343 09fb 01       		.uleb128 0x1
 2344 09fc 50       		.byte	0x50
 2345 09fd 00       		.byte	0
 2346 09fe 00       		.byte	0
 2347 09ff 00       		.byte	0
 2348 0a00 2B       		.uleb128 0x2b
 2349 0a01 A4000000 		.4byte	.LBB25
 2350 0a05 48000000 		.4byte	.LBE25-.LBB25
 2351 0a09 18       		.uleb128 0x18
 2352 0a0a 6200     		.ascii	"b\000"
 2353 0a0c 01       		.byte	0x1
 2354 0a0d 2902     		.2byte	0x229
 2355 0a0f CE000000 		.4byte	0xce
 2356 0a13 32       		.uleb128 0x32
 2357 0a14 B0000000 		.4byte	.LVL47
 2358 0a18 1C0C0000 		.4byte	0xc1c
 2359 0a1c 350A0000 		.4byte	0xa35
 2360 0a20 1F       		.uleb128 0x1f
 2361 0a21 01       		.uleb128 0x1
 2362 0a22 53       		.byte	0x53
 2363 0a23 02       		.uleb128 0x2
 2364 0a24 74       		.byte	0x74
 2365 0a25 00       		.sleb128 0
 2366 0a26 1F       		.uleb128 0x1f
 2367 0a27 01       		.uleb128 0x1
 2368 0a28 52       		.byte	0x52
 2369 0a29 05       		.uleb128 0x5
 2370 0a2a 03       		.byte	0x3
 2371 0a2b 00000000 		.4byte	uart_lld_serve_rx_end_irq
 2372 0a2f 1F       		.uleb128 0x1f
 2373 0a30 01       		.uleb128 0x1
 2374 0a31 51       		.byte	0x51
 2375 0a32 01       		.uleb128 0x1
 2376 0a33 3C       		.byte	0x3c
 2377 0a34 00       		.byte	0
 2378 0a35 32       		.uleb128 0x32
 2379 0a36 BC000000 		.4byte	.LVL48
ARM GAS  /tmp/ccZVh2eZ.s 			page 43


 2380 0a3a 1C0C0000 		.4byte	0xc1c
 2381 0a3e 570A0000 		.4byte	0xa57
 2382 0a42 1F       		.uleb128 0x1f
 2383 0a43 01       		.uleb128 0x1
 2384 0a44 53       		.byte	0x53
 2385 0a45 02       		.uleb128 0x2
 2386 0a46 74       		.byte	0x74
 2387 0a47 00       		.sleb128 0
 2388 0a48 1F       		.uleb128 0x1f
 2389 0a49 01       		.uleb128 0x1
 2390 0a4a 52       		.byte	0x52
 2391 0a4b 05       		.uleb128 0x5
 2392 0a4c 03       		.byte	0x3
 2393 0a4d 00000000 		.4byte	uart_lld_serve_tx_end_irq
 2394 0a51 1F       		.uleb128 0x1f
 2395 0a52 01       		.uleb128 0x1
 2396 0a53 51       		.byte	0x51
 2397 0a54 01       		.uleb128 0x1
 2398 0a55 3C       		.byte	0x3c
 2399 0a56 00       		.byte	0
 2400 0a57 2F       		.uleb128 0x2f
 2401 0a58 CE000000 		.4byte	.LVL49
 2402 0a5c 410C0000 		.4byte	0xc41
 2403 0a60 1F       		.uleb128 0x1f
 2404 0a61 01       		.uleb128 0x1
 2405 0a62 51       		.byte	0x51
 2406 0a63 02       		.uleb128 0x2
 2407 0a64 08       		.byte	0x8
 2408 0a65 C0       		.byte	0xc0
 2409 0a66 1F       		.uleb128 0x1f
 2410 0a67 01       		.uleb128 0x1
 2411 0a68 50       		.byte	0x50
 2412 0a69 02       		.uleb128 0x2
 2413 0a6a 08       		.byte	0x8
 2414 0a6b 26       		.byte	0x26
 2415 0a6c 00       		.byte	0
 2416 0a6d 00       		.byte	0
 2417 0a6e 00       		.byte	0
 2418 0a6f 28       		.uleb128 0x28
 2419 0a70 0A060000 		.4byte	.LASF93
 2420 0a74 01       		.byte	0x1
 2421 0a75 B502     		.2byte	0x2b5
 2422 0a77 00000000 		.4byte	.LFB66
 2423 0a7b 3C000000 		.4byte	.LFE66-.LFB66
 2424 0a7f 01       		.uleb128 0x1
 2425 0a80 9C       		.byte	0x9c
 2426 0a81 C10A0000 		.4byte	0xac1
 2427 0a85 1D       		.uleb128 0x1d
 2428 0a86 15030000 		.4byte	.LASF82
 2429 0a8a 01       		.byte	0x1
 2430 0a8b B502     		.2byte	0x2b5
 2431 0a8d 55040000 		.4byte	0x455
 2432 0a91 1A040000 		.4byte	.LLST15
 2433 0a95 20       		.uleb128 0x20
 2434 0a96 10000000 		.4byte	.LVL53
 2435 0a9a C9050000 		.4byte	0x5c9
 2436 0a9e 20       		.uleb128 0x20
ARM GAS  /tmp/ccZVh2eZ.s 			page 44


 2437 0a9f 16000000 		.4byte	.LVL54
 2438 0aa3 580C0000 		.4byte	0xc58
 2439 0aa7 20       		.uleb128 0x20
 2440 0aa8 1C000000 		.4byte	.LVL55
 2441 0aac 580C0000 		.4byte	0xc58
 2442 0ab0 2F       		.uleb128 0x2f
 2443 0ab1 28000000 		.4byte	.LVL56
 2444 0ab5 6A0C0000 		.4byte	0xc6a
 2445 0ab9 1F       		.uleb128 0x1f
 2446 0aba 01       		.uleb128 0x1
 2447 0abb 50       		.byte	0x50
 2448 0abc 02       		.uleb128 0x2
 2449 0abd 08       		.byte	0x8
 2450 0abe 26       		.byte	0x26
 2451 0abf 00       		.byte	0
 2452 0ac0 00       		.byte	0
 2453 0ac1 28       		.uleb128 0x28
 2454 0ac2 F6050000 		.4byte	.LASF94
 2455 0ac6 01       		.byte	0x1
 2456 0ac7 F902     		.2byte	0x2f9
 2457 0ac9 00000000 		.4byte	.LFB67
 2458 0acd 26000000 		.4byte	.LFE67-.LFB67
 2459 0ad1 01       		.uleb128 0x1
 2460 0ad2 9C       		.byte	0x9c
 2461 0ad3 020B0000 		.4byte	0xb02
 2462 0ad7 33       		.uleb128 0x33
 2463 0ad8 15030000 		.4byte	.LASF82
 2464 0adc 01       		.byte	0x1
 2465 0add F902     		.2byte	0x2f9
 2466 0adf 55040000 		.4byte	0x455
 2467 0ae3 01       		.uleb128 0x1
 2468 0ae4 50       		.byte	0x50
 2469 0ae5 34       		.uleb128 0x34
 2470 0ae6 6E00     		.ascii	"n\000"
 2471 0ae8 01       		.byte	0x1
 2472 0ae9 F902     		.2byte	0x2f9
 2473 0aeb 2C000000 		.4byte	0x2c
 2474 0aef 01       		.uleb128 0x1
 2475 0af0 51       		.byte	0x51
 2476 0af1 1D       		.uleb128 0x1d
 2477 0af2 EF010000 		.4byte	.LASF95
 2478 0af6 01       		.byte	0x1
 2479 0af7 F902     		.2byte	0x2f9
 2480 0af9 020B0000 		.4byte	0xb02
 2481 0afd 4E040000 		.4byte	.LLST16
 2482 0b01 00       		.byte	0
 2483 0b02 0D       		.uleb128 0xd
 2484 0b03 04       		.byte	0x4
 2485 0b04 080B0000 		.4byte	0xb08
 2486 0b08 35       		.uleb128 0x35
 2487 0b09 36       		.uleb128 0x36
 2488 0b0a 50020000 		.4byte	.LASF97
 2489 0b0e 01       		.byte	0x1
 2490 0b0f 0E03     		.2byte	0x30e
 2491 0b11 2C000000 		.4byte	0x2c
 2492 0b15 00000000 		.4byte	.LFB68
 2493 0b19 22000000 		.4byte	.LFE68-.LFB68
ARM GAS  /tmp/ccZVh2eZ.s 			page 45


 2494 0b1d 01       		.uleb128 0x1
 2495 0b1e 9C       		.byte	0x9c
 2496 0b1f 340B0000 		.4byte	0xb34
 2497 0b23 1D       		.uleb128 0x1d
 2498 0b24 15030000 		.4byte	.LASF82
 2499 0b28 01       		.byte	0x1
 2500 0b29 0E03     		.2byte	0x30e
 2501 0b2b 55040000 		.4byte	0x455
 2502 0b2f 6F040000 		.4byte	.LLST17
 2503 0b33 00       		.byte	0
 2504 0b34 28       		.uleb128 0x28
 2505 0b35 00000000 		.4byte	.LASF96
 2506 0b39 01       		.byte	0x1
 2507 0b3a 1F03     		.2byte	0x31f
 2508 0b3c 00000000 		.4byte	.LFB69
 2509 0b40 42000000 		.4byte	.LFE69-.LFB69
 2510 0b44 01       		.uleb128 0x1
 2511 0b45 9C       		.byte	0x9c
 2512 0b46 750B0000 		.4byte	0xb75
 2513 0b4a 33       		.uleb128 0x33
 2514 0b4b 15030000 		.4byte	.LASF82
 2515 0b4f 01       		.byte	0x1
 2516 0b50 1F03     		.2byte	0x31f
 2517 0b52 55040000 		.4byte	0x455
 2518 0b56 01       		.uleb128 0x1
 2519 0b57 50       		.byte	0x50
 2520 0b58 34       		.uleb128 0x34
 2521 0b59 6E00     		.ascii	"n\000"
 2522 0b5b 01       		.byte	0x1
 2523 0b5c 1F03     		.2byte	0x31f
 2524 0b5e 2C000000 		.4byte	0x2c
 2525 0b62 01       		.uleb128 0x1
 2526 0b63 51       		.byte	0x51
 2527 0b64 1D       		.uleb128 0x1d
 2528 0b65 6A000000 		.4byte	.LASF71
 2529 0b69 01       		.byte	0x1
 2530 0b6a 1F03     		.2byte	0x31f
 2531 0b6c E0000000 		.4byte	0xe0
 2532 0b70 90040000 		.4byte	.LLST18
 2533 0b74 00       		.byte	0
 2534 0b75 36       		.uleb128 0x36
 2535 0b76 EC000000 		.4byte	.LASF98
 2536 0b7a 01       		.byte	0x1
 2537 0b7b 3703     		.2byte	0x337
 2538 0b7d 2C000000 		.4byte	0x2c
 2539 0b81 00000000 		.4byte	.LFB70
 2540 0b85 2A000000 		.4byte	.LFE70-.LFB70
 2541 0b89 01       		.uleb128 0x1
 2542 0b8a 9C       		.byte	0x9c
 2543 0b8b BD0B0000 		.4byte	0xbbd
 2544 0b8f 1D       		.uleb128 0x1d
 2545 0b90 15030000 		.4byte	.LASF82
 2546 0b94 01       		.byte	0x1
 2547 0b95 3703     		.2byte	0x337
 2548 0b97 55040000 		.4byte	0x455
 2549 0b9b B1040000 		.4byte	.LLST19
 2550 0b9f 37       		.uleb128 0x37
ARM GAS  /tmp/ccZVh2eZ.s 			page 46


 2551 0ba0 6E00     		.ascii	"n\000"
 2552 0ba2 01       		.byte	0x1
 2553 0ba3 3803     		.2byte	0x338
 2554 0ba5 2C000000 		.4byte	0x2c
 2555 0ba9 01       		.uleb128 0x1
 2556 0baa 54       		.byte	0x54
 2557 0bab 2F       		.uleb128 0x2f
 2558 0bac 26000000 		.4byte	.LVL65
 2559 0bb0 99050000 		.4byte	0x599
 2560 0bb4 1F       		.uleb128 0x1f
 2561 0bb5 01       		.uleb128 0x1
 2562 0bb6 50       		.byte	0x50
 2563 0bb7 03       		.uleb128 0x3
 2564 0bb8 F3       		.byte	0xf3
 2565 0bb9 01       		.uleb128 0x1
 2566 0bba 50       		.byte	0x50
 2567 0bbb 00       		.byte	0
 2568 0bbc 00       		.byte	0
 2569 0bbd 38       		.uleb128 0x38
 2570 0bbe C7000000 		.4byte	.LASF100
 2571 0bc2 0A       		.byte	0xa
 2572 0bc3 0706     		.2byte	0x607
 2573 0bc5 F3000000 		.4byte	0xf3
 2574 0bc9 39       		.uleb128 0x39
 2575 0bca F4020000 		.4byte	0x2f4
 2576 0bce D90B0000 		.4byte	0xbd9
 2577 0bd2 3A       		.uleb128 0x3a
 2578 0bd3 E7000000 		.4byte	0xe7
 2579 0bd7 06       		.byte	0x6
 2580 0bd8 00       		.byte	0
 2581 0bd9 38       		.uleb128 0x38
 2582 0bda A9000000 		.4byte	.LASF101
 2583 0bde 07       		.byte	0x7
 2584 0bdf 8401     		.2byte	0x184
 2585 0be1 E50B0000 		.4byte	0xbe5
 2586 0be5 10       		.uleb128 0x10
 2587 0be6 C90B0000 		.4byte	0xbc9
 2588 0bea 3B       		.uleb128 0x3b
 2589 0beb 0E030000 		.4byte	.LASF102
 2590 0bef 01       		.byte	0x1
 2591 0bf0 65       		.byte	0x65
 2592 0bf1 A9030000 		.4byte	0x3a9
 2593 0bf5 05       		.uleb128 0x5
 2594 0bf6 03       		.byte	0x3
 2595 0bf7 00000000 		.4byte	UARTD2
 2596 0bfb 3C       		.uleb128 0x3c
 2597 0bfc 6A010000 		.4byte	.LASF103
 2598 0c00 0B       		.byte	0xb
 2599 0c01 0102     		.2byte	0x201
 2600 0c03 3C       		.uleb128 0x3c
 2601 0c04 CF020000 		.4byte	.LASF104
 2602 0c08 0B       		.byte	0xb
 2603 0c09 0302     		.2byte	0x203
 2604 0c0b 3D       		.uleb128 0x3d
 2605 0c0c 5B000000 		.4byte	.LASF105
 2606 0c10 08       		.byte	0x8
 2607 0c11 6E       		.byte	0x6e
ARM GAS  /tmp/ccZVh2eZ.s 			page 47


 2608 0c12 1C0C0000 		.4byte	0xc1c
 2609 0c16 0F       		.uleb128 0xf
 2610 0c17 55040000 		.4byte	0x455
 2611 0c1b 00       		.byte	0
 2612 0c1c 3E       		.uleb128 0x3e
 2613 0c1d 18060000 		.4byte	.LASF112
 2614 0c21 07       		.byte	0x7
 2615 0c22 8B01     		.2byte	0x18b
 2616 0c24 CE000000 		.4byte	0xce
 2617 0c28 410C0000 		.4byte	0xc41
 2618 0c2c 0F       		.uleb128 0xf
 2619 0c2d 20030000 		.4byte	0x320
 2620 0c31 0F       		.uleb128 0xf
 2621 0c32 C3000000 		.4byte	0xc3
 2622 0c36 0F       		.uleb128 0xf
 2623 0c37 FF020000 		.4byte	0x2ff
 2624 0c3b 0F       		.uleb128 0xf
 2625 0c3c E0000000 		.4byte	0xe0
 2626 0c40 00       		.byte	0
 2627 0c41 3F       		.uleb128 0x3f
 2628 0c42 DB000000 		.4byte	.LASF106
 2629 0c46 0C       		.byte	0xc
 2630 0c47 2301     		.2byte	0x123
 2631 0c49 580C0000 		.4byte	0xc58
 2632 0c4d 0F       		.uleb128 0xf
 2633 0c4e C3000000 		.4byte	0xc3
 2634 0c52 0F       		.uleb128 0xf
 2635 0c53 C3000000 		.4byte	0xc3
 2636 0c57 00       		.byte	0
 2637 0c58 3F       		.uleb128 0x3f
 2638 0c59 46050000 		.4byte	.LASF107
 2639 0c5d 07       		.byte	0x7
 2640 0c5e 8F01     		.2byte	0x18f
 2641 0c60 6A0C0000 		.4byte	0xc6a
 2642 0c64 0F       		.uleb128 0xf
 2643 0c65 20030000 		.4byte	0x320
 2644 0c69 00       		.byte	0
 2645 0c6a 40       		.uleb128 0x40
 2646 0c6b 07050000 		.4byte	.LASF113
 2647 0c6f 0C       		.byte	0xc
 2648 0c70 2401     		.2byte	0x124
 2649 0c72 0F       		.uleb128 0xf
 2650 0c73 C3000000 		.4byte	0xc3
 2651 0c77 00       		.byte	0
 2652 0c78 00       		.byte	0
 2653              		.section	.debug_abbrev,"",%progbits
 2654              	.Ldebug_abbrev0:
 2655 0000 01       		.uleb128 0x1
 2656 0001 11       		.uleb128 0x11
 2657 0002 01       		.byte	0x1
 2658 0003 25       		.uleb128 0x25
 2659 0004 0E       		.uleb128 0xe
 2660 0005 13       		.uleb128 0x13
 2661 0006 0B       		.uleb128 0xb
 2662 0007 03       		.uleb128 0x3
 2663 0008 0E       		.uleb128 0xe
 2664 0009 1B       		.uleb128 0x1b
ARM GAS  /tmp/ccZVh2eZ.s 			page 48


 2665 000a 0E       		.uleb128 0xe
 2666 000b 55       		.uleb128 0x55
 2667 000c 17       		.uleb128 0x17
 2668 000d 11       		.uleb128 0x11
 2669 000e 01       		.uleb128 0x1
 2670 000f 10       		.uleb128 0x10
 2671 0010 17       		.uleb128 0x17
 2672 0011 00       		.byte	0
 2673 0012 00       		.byte	0
 2674 0013 02       		.uleb128 0x2
 2675 0014 24       		.uleb128 0x24
 2676 0015 00       		.byte	0
 2677 0016 0B       		.uleb128 0xb
 2678 0017 0B       		.uleb128 0xb
 2679 0018 3E       		.uleb128 0x3e
 2680 0019 0B       		.uleb128 0xb
 2681 001a 03       		.uleb128 0x3
 2682 001b 08       		.uleb128 0x8
 2683 001c 00       		.byte	0
 2684 001d 00       		.byte	0
 2685 001e 03       		.uleb128 0x3
 2686 001f 16       		.uleb128 0x16
 2687 0020 00       		.byte	0
 2688 0021 03       		.uleb128 0x3
 2689 0022 0E       		.uleb128 0xe
 2690 0023 3A       		.uleb128 0x3a
 2691 0024 0B       		.uleb128 0xb
 2692 0025 3B       		.uleb128 0x3b
 2693 0026 0B       		.uleb128 0xb
 2694 0027 49       		.uleb128 0x49
 2695 0028 13       		.uleb128 0x13
 2696 0029 00       		.byte	0
 2697 002a 00       		.byte	0
 2698 002b 04       		.uleb128 0x4
 2699 002c 24       		.uleb128 0x24
 2700 002d 00       		.byte	0
 2701 002e 0B       		.uleb128 0xb
 2702 002f 0B       		.uleb128 0xb
 2703 0030 3E       		.uleb128 0x3e
 2704 0031 0B       		.uleb128 0xb
 2705 0032 03       		.uleb128 0x3
 2706 0033 0E       		.uleb128 0xe
 2707 0034 00       		.byte	0
 2708 0035 00       		.byte	0
 2709 0036 05       		.uleb128 0x5
 2710 0037 0F       		.uleb128 0xf
 2711 0038 00       		.byte	0
 2712 0039 0B       		.uleb128 0xb
 2713 003a 0B       		.uleb128 0xb
 2714 003b 00       		.byte	0
 2715 003c 00       		.byte	0
 2716 003d 06       		.uleb128 0x6
 2717 003e 35       		.uleb128 0x35
 2718 003f 00       		.byte	0
 2719 0040 49       		.uleb128 0x49
 2720 0041 13       		.uleb128 0x13
 2721 0042 00       		.byte	0
ARM GAS  /tmp/ccZVh2eZ.s 			page 49


 2722 0043 00       		.byte	0
 2723 0044 07       		.uleb128 0x7
 2724 0045 13       		.uleb128 0x13
 2725 0046 01       		.byte	0x1
 2726 0047 0B       		.uleb128 0xb
 2727 0048 0B       		.uleb128 0xb
 2728 0049 3A       		.uleb128 0x3a
 2729 004a 0B       		.uleb128 0xb
 2730 004b 3B       		.uleb128 0x3b
 2731 004c 05       		.uleb128 0x5
 2732 004d 01       		.uleb128 0x1
 2733 004e 13       		.uleb128 0x13
 2734 004f 00       		.byte	0
 2735 0050 00       		.byte	0
 2736 0051 08       		.uleb128 0x8
 2737 0052 0D       		.uleb128 0xd
 2738 0053 00       		.byte	0
 2739 0054 03       		.uleb128 0x3
 2740 0055 08       		.uleb128 0x8
 2741 0056 3A       		.uleb128 0x3a
 2742 0057 0B       		.uleb128 0xb
 2743 0058 3B       		.uleb128 0x3b
 2744 0059 05       		.uleb128 0x5
 2745 005a 49       		.uleb128 0x49
 2746 005b 13       		.uleb128 0x13
 2747 005c 38       		.uleb128 0x38
 2748 005d 0B       		.uleb128 0xb
 2749 005e 00       		.byte	0
 2750 005f 00       		.byte	0
 2751 0060 09       		.uleb128 0x9
 2752 0061 0D       		.uleb128 0xd
 2753 0062 00       		.byte	0
 2754 0063 03       		.uleb128 0x3
 2755 0064 0E       		.uleb128 0xe
 2756 0065 3A       		.uleb128 0x3a
 2757 0066 0B       		.uleb128 0xb
 2758 0067 3B       		.uleb128 0x3b
 2759 0068 05       		.uleb128 0x5
 2760 0069 49       		.uleb128 0x49
 2761 006a 13       		.uleb128 0x13
 2762 006b 38       		.uleb128 0x38
 2763 006c 0B       		.uleb128 0xb
 2764 006d 00       		.byte	0
 2765 006e 00       		.byte	0
 2766 006f 0A       		.uleb128 0xa
 2767 0070 16       		.uleb128 0x16
 2768 0071 00       		.byte	0
 2769 0072 03       		.uleb128 0x3
 2770 0073 0E       		.uleb128 0xe
 2771 0074 3A       		.uleb128 0x3a
 2772 0075 0B       		.uleb128 0xb
 2773 0076 3B       		.uleb128 0x3b
 2774 0077 05       		.uleb128 0x5
 2775 0078 49       		.uleb128 0x49
 2776 0079 13       		.uleb128 0x13
 2777 007a 00       		.byte	0
 2778 007b 00       		.byte	0
ARM GAS  /tmp/ccZVh2eZ.s 			page 50


 2779 007c 0B       		.uleb128 0xb
 2780 007d 13       		.uleb128 0x13
 2781 007e 01       		.byte	0x1
 2782 007f 0B       		.uleb128 0xb
 2783 0080 0B       		.uleb128 0xb
 2784 0081 3A       		.uleb128 0x3a
 2785 0082 0B       		.uleb128 0xb
 2786 0083 3B       		.uleb128 0x3b
 2787 0084 0B       		.uleb128 0xb
 2788 0085 01       		.uleb128 0x1
 2789 0086 13       		.uleb128 0x13
 2790 0087 00       		.byte	0
 2791 0088 00       		.byte	0
 2792 0089 0C       		.uleb128 0xc
 2793 008a 0D       		.uleb128 0xd
 2794 008b 00       		.byte	0
 2795 008c 03       		.uleb128 0x3
 2796 008d 0E       		.uleb128 0xe
 2797 008e 3A       		.uleb128 0x3a
 2798 008f 0B       		.uleb128 0xb
 2799 0090 3B       		.uleb128 0x3b
 2800 0091 0B       		.uleb128 0xb
 2801 0092 49       		.uleb128 0x49
 2802 0093 13       		.uleb128 0x13
 2803 0094 38       		.uleb128 0x38
 2804 0095 0B       		.uleb128 0xb
 2805 0096 00       		.byte	0
 2806 0097 00       		.byte	0
 2807 0098 0D       		.uleb128 0xd
 2808 0099 0F       		.uleb128 0xf
 2809 009a 00       		.byte	0
 2810 009b 0B       		.uleb128 0xb
 2811 009c 0B       		.uleb128 0xb
 2812 009d 49       		.uleb128 0x49
 2813 009e 13       		.uleb128 0x13
 2814 009f 00       		.byte	0
 2815 00a0 00       		.byte	0
 2816 00a1 0E       		.uleb128 0xe
 2817 00a2 15       		.uleb128 0x15
 2818 00a3 01       		.byte	0x1
 2819 00a4 27       		.uleb128 0x27
 2820 00a5 19       		.uleb128 0x19
 2821 00a6 01       		.uleb128 0x1
 2822 00a7 13       		.uleb128 0x13
 2823 00a8 00       		.byte	0
 2824 00a9 00       		.byte	0
 2825 00aa 0F       		.uleb128 0xf
 2826 00ab 05       		.uleb128 0x5
 2827 00ac 00       		.byte	0
 2828 00ad 49       		.uleb128 0x49
 2829 00ae 13       		.uleb128 0x13
 2830 00af 00       		.byte	0
 2831 00b0 00       		.byte	0
 2832 00b1 10       		.uleb128 0x10
 2833 00b2 26       		.uleb128 0x26
 2834 00b3 00       		.byte	0
 2835 00b4 49       		.uleb128 0x49
ARM GAS  /tmp/ccZVh2eZ.s 			page 51


 2836 00b5 13       		.uleb128 0x13
 2837 00b6 00       		.byte	0
 2838 00b7 00       		.byte	0
 2839 00b8 11       		.uleb128 0x11
 2840 00b9 04       		.uleb128 0x4
 2841 00ba 01       		.byte	0x1
 2842 00bb 0B       		.uleb128 0xb
 2843 00bc 0B       		.uleb128 0xb
 2844 00bd 3A       		.uleb128 0x3a
 2845 00be 0B       		.uleb128 0xb
 2846 00bf 3B       		.uleb128 0x3b
 2847 00c0 0B       		.uleb128 0xb
 2848 00c1 01       		.uleb128 0x1
 2849 00c2 13       		.uleb128 0x13
 2850 00c3 00       		.byte	0
 2851 00c4 00       		.byte	0
 2852 00c5 12       		.uleb128 0x12
 2853 00c6 28       		.uleb128 0x28
 2854 00c7 00       		.byte	0
 2855 00c8 03       		.uleb128 0x3
 2856 00c9 0E       		.uleb128 0xe
 2857 00ca 1C       		.uleb128 0x1c
 2858 00cb 0D       		.uleb128 0xd
 2859 00cc 00       		.byte	0
 2860 00cd 00       		.byte	0
 2861 00ce 13       		.uleb128 0x13
 2862 00cf 13       		.uleb128 0x13
 2863 00d0 01       		.byte	0x1
 2864 00d1 03       		.uleb128 0x3
 2865 00d2 0E       		.uleb128 0xe
 2866 00d3 0B       		.uleb128 0xb
 2867 00d4 0B       		.uleb128 0xb
 2868 00d5 3A       		.uleb128 0x3a
 2869 00d6 0B       		.uleb128 0xb
 2870 00d7 3B       		.uleb128 0x3b
 2871 00d8 05       		.uleb128 0x5
 2872 00d9 01       		.uleb128 0x1
 2873 00da 13       		.uleb128 0x13
 2874 00db 00       		.byte	0
 2875 00dc 00       		.byte	0
 2876 00dd 14       		.uleb128 0x14
 2877 00de 2E       		.uleb128 0x2e
 2878 00df 01       		.byte	0x1
 2879 00e0 03       		.uleb128 0x3
 2880 00e1 0E       		.uleb128 0xe
 2881 00e2 3A       		.uleb128 0x3a
 2882 00e3 0B       		.uleb128 0xb
 2883 00e4 3B       		.uleb128 0x3b
 2884 00e5 0B       		.uleb128 0xb
 2885 00e6 27       		.uleb128 0x27
 2886 00e7 19       		.uleb128 0x19
 2887 00e8 20       		.uleb128 0x20
 2888 00e9 0B       		.uleb128 0xb
 2889 00ea 01       		.uleb128 0x1
 2890 00eb 13       		.uleb128 0x13
 2891 00ec 00       		.byte	0
 2892 00ed 00       		.byte	0
ARM GAS  /tmp/ccZVh2eZ.s 			page 52


 2893 00ee 15       		.uleb128 0x15
 2894 00ef 05       		.uleb128 0x5
 2895 00f0 00       		.byte	0
 2896 00f1 03       		.uleb128 0x3
 2897 00f2 0E       		.uleb128 0xe
 2898 00f3 3A       		.uleb128 0x3a
 2899 00f4 0B       		.uleb128 0xb
 2900 00f5 3B       		.uleb128 0x3b
 2901 00f6 0B       		.uleb128 0xb
 2902 00f7 49       		.uleb128 0x49
 2903 00f8 13       		.uleb128 0x13
 2904 00f9 00       		.byte	0
 2905 00fa 00       		.byte	0
 2906 00fb 16       		.uleb128 0x16
 2907 00fc 2E       		.uleb128 0x2e
 2908 00fd 01       		.byte	0x1
 2909 00fe 03       		.uleb128 0x3
 2910 00ff 0E       		.uleb128 0xe
 2911 0100 3A       		.uleb128 0x3a
 2912 0101 0B       		.uleb128 0xb
 2913 0102 3B       		.uleb128 0x3b
 2914 0103 05       		.uleb128 0x5
 2915 0104 27       		.uleb128 0x27
 2916 0105 19       		.uleb128 0x19
 2917 0106 20       		.uleb128 0x20
 2918 0107 0B       		.uleb128 0xb
 2919 0108 01       		.uleb128 0x1
 2920 0109 13       		.uleb128 0x13
 2921 010a 00       		.byte	0
 2922 010b 00       		.byte	0
 2923 010c 17       		.uleb128 0x17
 2924 010d 05       		.uleb128 0x5
 2925 010e 00       		.byte	0
 2926 010f 03       		.uleb128 0x3
 2927 0110 0E       		.uleb128 0xe
 2928 0111 3A       		.uleb128 0x3a
 2929 0112 0B       		.uleb128 0xb
 2930 0113 3B       		.uleb128 0x3b
 2931 0114 05       		.uleb128 0x5
 2932 0115 49       		.uleb128 0x49
 2933 0116 13       		.uleb128 0x13
 2934 0117 00       		.byte	0
 2935 0118 00       		.byte	0
 2936 0119 18       		.uleb128 0x18
 2937 011a 34       		.uleb128 0x34
 2938 011b 00       		.byte	0
 2939 011c 03       		.uleb128 0x3
 2940 011d 08       		.uleb128 0x8
 2941 011e 3A       		.uleb128 0x3a
 2942 011f 0B       		.uleb128 0xb
 2943 0120 3B       		.uleb128 0x3b
 2944 0121 05       		.uleb128 0x5
 2945 0122 49       		.uleb128 0x49
 2946 0123 13       		.uleb128 0x13
 2947 0124 00       		.byte	0
 2948 0125 00       		.byte	0
 2949 0126 19       		.uleb128 0x19
ARM GAS  /tmp/ccZVh2eZ.s 			page 53


 2950 0127 2E       		.uleb128 0x2e
 2951 0128 01       		.byte	0x1
 2952 0129 03       		.uleb128 0x3
 2953 012a 0E       		.uleb128 0xe
 2954 012b 3A       		.uleb128 0x3a
 2955 012c 0B       		.uleb128 0xb
 2956 012d 3B       		.uleb128 0x3b
 2957 012e 0B       		.uleb128 0xb
 2958 012f 27       		.uleb128 0x27
 2959 0130 19       		.uleb128 0x19
 2960 0131 11       		.uleb128 0x11
 2961 0132 01       		.uleb128 0x1
 2962 0133 12       		.uleb128 0x12
 2963 0134 06       		.uleb128 0x6
 2964 0135 40       		.uleb128 0x40
 2965 0136 18       		.uleb128 0x18
 2966 0137 9742     		.uleb128 0x2117
 2967 0139 19       		.uleb128 0x19
 2968 013a 01       		.uleb128 0x1
 2969 013b 13       		.uleb128 0x13
 2970 013c 00       		.byte	0
 2971 013d 00       		.byte	0
 2972 013e 1A       		.uleb128 0x1a
 2973 013f 05       		.uleb128 0x5
 2974 0140 00       		.byte	0
 2975 0141 03       		.uleb128 0x3
 2976 0142 0E       		.uleb128 0xe
 2977 0143 3A       		.uleb128 0x3a
 2978 0144 0B       		.uleb128 0xb
 2979 0145 3B       		.uleb128 0x3b
 2980 0146 0B       		.uleb128 0xb
 2981 0147 49       		.uleb128 0x49
 2982 0148 13       		.uleb128 0x13
 2983 0149 02       		.uleb128 0x2
 2984 014a 18       		.uleb128 0x18
 2985 014b 00       		.byte	0
 2986 014c 00       		.byte	0
 2987 014d 1B       		.uleb128 0x1b
 2988 014e 34       		.uleb128 0x34
 2989 014f 00       		.byte	0
 2990 0150 03       		.uleb128 0x3
 2991 0151 0E       		.uleb128 0xe
 2992 0152 3A       		.uleb128 0x3a
 2993 0153 0B       		.uleb128 0xb
 2994 0154 3B       		.uleb128 0x3b
 2995 0155 0B       		.uleb128 0xb
 2996 0156 49       		.uleb128 0x49
 2997 0157 13       		.uleb128 0x13
 2998 0158 02       		.uleb128 0x2
 2999 0159 18       		.uleb128 0x18
 3000 015a 00       		.byte	0
 3001 015b 00       		.byte	0
 3002 015c 1C       		.uleb128 0x1c
 3003 015d 2E       		.uleb128 0x2e
 3004 015e 01       		.byte	0x1
 3005 015f 03       		.uleb128 0x3
 3006 0160 0E       		.uleb128 0xe
ARM GAS  /tmp/ccZVh2eZ.s 			page 54


 3007 0161 3A       		.uleb128 0x3a
 3008 0162 0B       		.uleb128 0xb
 3009 0163 3B       		.uleb128 0x3b
 3010 0164 05       		.uleb128 0x5
 3011 0165 27       		.uleb128 0x27
 3012 0166 19       		.uleb128 0x19
 3013 0167 11       		.uleb128 0x11
 3014 0168 01       		.uleb128 0x1
 3015 0169 12       		.uleb128 0x12
 3016 016a 06       		.uleb128 0x6
 3017 016b 40       		.uleb128 0x40
 3018 016c 18       		.uleb128 0x18
 3019 016d 9742     		.uleb128 0x2117
 3020 016f 19       		.uleb128 0x19
 3021 0170 01       		.uleb128 0x1
 3022 0171 13       		.uleb128 0x13
 3023 0172 00       		.byte	0
 3024 0173 00       		.byte	0
 3025 0174 1D       		.uleb128 0x1d
 3026 0175 05       		.uleb128 0x5
 3027 0176 00       		.byte	0
 3028 0177 03       		.uleb128 0x3
 3029 0178 0E       		.uleb128 0xe
 3030 0179 3A       		.uleb128 0x3a
 3031 017a 0B       		.uleb128 0xb
 3032 017b 3B       		.uleb128 0x3b
 3033 017c 05       		.uleb128 0x5
 3034 017d 49       		.uleb128 0x49
 3035 017e 13       		.uleb128 0x13
 3036 017f 02       		.uleb128 0x2
 3037 0180 17       		.uleb128 0x17
 3038 0181 00       		.byte	0
 3039 0182 00       		.byte	0
 3040 0183 1E       		.uleb128 0x1e
 3041 0184 898201   		.uleb128 0x4109
 3042 0187 01       		.byte	0x1
 3043 0188 11       		.uleb128 0x11
 3044 0189 01       		.uleb128 0x1
 3045 018a 01       		.uleb128 0x1
 3046 018b 13       		.uleb128 0x13
 3047 018c 00       		.byte	0
 3048 018d 00       		.byte	0
 3049 018e 1F       		.uleb128 0x1f
 3050 018f 8A8201   		.uleb128 0x410a
 3051 0192 00       		.byte	0
 3052 0193 02       		.uleb128 0x2
 3053 0194 18       		.uleb128 0x18
 3054 0195 9142     		.uleb128 0x2111
 3055 0197 18       		.uleb128 0x18
 3056 0198 00       		.byte	0
 3057 0199 00       		.byte	0
 3058 019a 20       		.uleb128 0x20
 3059 019b 898201   		.uleb128 0x4109
 3060 019e 00       		.byte	0
 3061 019f 11       		.uleb128 0x11
 3062 01a0 01       		.uleb128 0x1
 3063 01a1 31       		.uleb128 0x31
ARM GAS  /tmp/ccZVh2eZ.s 			page 55


 3064 01a2 13       		.uleb128 0x13
 3065 01a3 00       		.byte	0
 3066 01a4 00       		.byte	0
 3067 01a5 21       		.uleb128 0x21
 3068 01a6 2E       		.uleb128 0x2e
 3069 01a7 01       		.byte	0x1
 3070 01a8 31       		.uleb128 0x31
 3071 01a9 13       		.uleb128 0x13
 3072 01aa 11       		.uleb128 0x11
 3073 01ab 01       		.uleb128 0x1
 3074 01ac 12       		.uleb128 0x12
 3075 01ad 06       		.uleb128 0x6
 3076 01ae 40       		.uleb128 0x40
 3077 01af 18       		.uleb128 0x18
 3078 01b0 9742     		.uleb128 0x2117
 3079 01b2 19       		.uleb128 0x19
 3080 01b3 01       		.uleb128 0x1
 3081 01b4 13       		.uleb128 0x13
 3082 01b5 00       		.byte	0
 3083 01b6 00       		.byte	0
 3084 01b7 22       		.uleb128 0x22
 3085 01b8 05       		.uleb128 0x5
 3086 01b9 00       		.byte	0
 3087 01ba 31       		.uleb128 0x31
 3088 01bb 13       		.uleb128 0x13
 3089 01bc 02       		.uleb128 0x2
 3090 01bd 17       		.uleb128 0x17
 3091 01be 00       		.byte	0
 3092 01bf 00       		.byte	0
 3093 01c0 23       		.uleb128 0x23
 3094 01c1 0B       		.uleb128 0xb
 3095 01c2 01       		.byte	0x1
 3096 01c3 55       		.uleb128 0x55
 3097 01c4 17       		.uleb128 0x17
 3098 01c5 01       		.uleb128 0x1
 3099 01c6 13       		.uleb128 0x13
 3100 01c7 00       		.byte	0
 3101 01c8 00       		.byte	0
 3102 01c9 24       		.uleb128 0x24
 3103 01ca 898201   		.uleb128 0x4109
 3104 01cd 01       		.byte	0x1
 3105 01ce 11       		.uleb128 0x11
 3106 01cf 01       		.uleb128 0x1
 3107 01d0 9542     		.uleb128 0x2115
 3108 01d2 19       		.uleb128 0x19
 3109 01d3 31       		.uleb128 0x31
 3110 01d4 13       		.uleb128 0x13
 3111 01d5 00       		.byte	0
 3112 01d6 00       		.byte	0
 3113 01d7 25       		.uleb128 0x25
 3114 01d8 2E       		.uleb128 0x2e
 3115 01d9 01       		.byte	0x1
 3116 01da 03       		.uleb128 0x3
 3117 01db 0E       		.uleb128 0xe
 3118 01dc 3A       		.uleb128 0x3a
 3119 01dd 0B       		.uleb128 0xb
 3120 01de 3B       		.uleb128 0x3b
ARM GAS  /tmp/ccZVh2eZ.s 			page 56


 3121 01df 0B       		.uleb128 0xb
 3122 01e0 27       		.uleb128 0x27
 3123 01e1 19       		.uleb128 0x19
 3124 01e2 49       		.uleb128 0x49
 3125 01e3 13       		.uleb128 0x13
 3126 01e4 20       		.uleb128 0x20
 3127 01e5 0B       		.uleb128 0xb
 3128 01e6 01       		.uleb128 0x1
 3129 01e7 13       		.uleb128 0x13
 3130 01e8 00       		.byte	0
 3131 01e9 00       		.byte	0
 3132 01ea 26       		.uleb128 0x26
 3133 01eb 05       		.uleb128 0x5
 3134 01ec 00       		.byte	0
 3135 01ed 03       		.uleb128 0x3
 3136 01ee 08       		.uleb128 0x8
 3137 01ef 3A       		.uleb128 0x3a
 3138 01f0 0B       		.uleb128 0xb
 3139 01f1 3B       		.uleb128 0x3b
 3140 01f2 0B       		.uleb128 0xb
 3141 01f3 49       		.uleb128 0x49
 3142 01f4 13       		.uleb128 0x13
 3143 01f5 00       		.byte	0
 3144 01f6 00       		.byte	0
 3145 01f7 27       		.uleb128 0x27
 3146 01f8 34       		.uleb128 0x34
 3147 01f9 00       		.byte	0
 3148 01fa 03       		.uleb128 0x3
 3149 01fb 08       		.uleb128 0x8
 3150 01fc 3A       		.uleb128 0x3a
 3151 01fd 0B       		.uleb128 0xb
 3152 01fe 3B       		.uleb128 0x3b
 3153 01ff 0B       		.uleb128 0xb
 3154 0200 49       		.uleb128 0x49
 3155 0201 13       		.uleb128 0x13
 3156 0202 00       		.byte	0
 3157 0203 00       		.byte	0
 3158 0204 28       		.uleb128 0x28
 3159 0205 2E       		.uleb128 0x2e
 3160 0206 01       		.byte	0x1
 3161 0207 3F       		.uleb128 0x3f
 3162 0208 19       		.uleb128 0x19
 3163 0209 03       		.uleb128 0x3
 3164 020a 0E       		.uleb128 0xe
 3165 020b 3A       		.uleb128 0x3a
 3166 020c 0B       		.uleb128 0xb
 3167 020d 3B       		.uleb128 0x3b
 3168 020e 05       		.uleb128 0x5
 3169 020f 27       		.uleb128 0x27
 3170 0210 19       		.uleb128 0x19
 3171 0211 11       		.uleb128 0x11
 3172 0212 01       		.uleb128 0x1
 3173 0213 12       		.uleb128 0x12
 3174 0214 06       		.uleb128 0x6
 3175 0215 40       		.uleb128 0x40
 3176 0216 18       		.uleb128 0x18
 3177 0217 9742     		.uleb128 0x2117
ARM GAS  /tmp/ccZVh2eZ.s 			page 57


 3178 0219 19       		.uleb128 0x19
 3179 021a 01       		.uleb128 0x1
 3180 021b 13       		.uleb128 0x13
 3181 021c 00       		.byte	0
 3182 021d 00       		.byte	0
 3183 021e 29       		.uleb128 0x29
 3184 021f 1D       		.uleb128 0x1d
 3185 0220 01       		.byte	0x1
 3186 0221 31       		.uleb128 0x31
 3187 0222 13       		.uleb128 0x13
 3188 0223 11       		.uleb128 0x11
 3189 0224 01       		.uleb128 0x1
 3190 0225 12       		.uleb128 0x12
 3191 0226 06       		.uleb128 0x6
 3192 0227 58       		.uleb128 0x58
 3193 0228 0B       		.uleb128 0xb
 3194 0229 59       		.uleb128 0x59
 3195 022a 05       		.uleb128 0x5
 3196 022b 01       		.uleb128 0x1
 3197 022c 13       		.uleb128 0x13
 3198 022d 00       		.byte	0
 3199 022e 00       		.byte	0
 3200 022f 2A       		.uleb128 0x2a
 3201 0230 05       		.uleb128 0x5
 3202 0231 00       		.byte	0
 3203 0232 31       		.uleb128 0x31
 3204 0233 13       		.uleb128 0x13
 3205 0234 02       		.uleb128 0x2
 3206 0235 18       		.uleb128 0x18
 3207 0236 00       		.byte	0
 3208 0237 00       		.byte	0
 3209 0238 2B       		.uleb128 0x2b
 3210 0239 0B       		.uleb128 0xb
 3211 023a 01       		.byte	0x1
 3212 023b 11       		.uleb128 0x11
 3213 023c 01       		.uleb128 0x1
 3214 023d 12       		.uleb128 0x12
 3215 023e 06       		.uleb128 0x6
 3216 023f 00       		.byte	0
 3217 0240 00       		.byte	0
 3218 0241 2C       		.uleb128 0x2c
 3219 0242 34       		.uleb128 0x34
 3220 0243 00       		.byte	0
 3221 0244 31       		.uleb128 0x31
 3222 0245 13       		.uleb128 0x13
 3223 0246 02       		.uleb128 0x2
 3224 0247 17       		.uleb128 0x17
 3225 0248 00       		.byte	0
 3226 0249 00       		.byte	0
 3227 024a 2D       		.uleb128 0x2d
 3228 024b 898201   		.uleb128 0x4109
 3229 024e 01       		.byte	0x1
 3230 024f 11       		.uleb128 0x11
 3231 0250 01       		.uleb128 0x1
 3232 0251 00       		.byte	0
 3233 0252 00       		.byte	0
 3234 0253 2E       		.uleb128 0x2e
ARM GAS  /tmp/ccZVh2eZ.s 			page 58


 3235 0254 898201   		.uleb128 0x4109
 3236 0257 00       		.byte	0
 3237 0258 11       		.uleb128 0x11
 3238 0259 01       		.uleb128 0x1
 3239 025a 9542     		.uleb128 0x2115
 3240 025c 19       		.uleb128 0x19
 3241 025d 31       		.uleb128 0x31
 3242 025e 13       		.uleb128 0x13
 3243 025f 00       		.byte	0
 3244 0260 00       		.byte	0
 3245 0261 2F       		.uleb128 0x2f
 3246 0262 898201   		.uleb128 0x4109
 3247 0265 01       		.byte	0x1
 3248 0266 11       		.uleb128 0x11
 3249 0267 01       		.uleb128 0x1
 3250 0268 31       		.uleb128 0x31
 3251 0269 13       		.uleb128 0x13
 3252 026a 00       		.byte	0
 3253 026b 00       		.byte	0
 3254 026c 30       		.uleb128 0x30
 3255 026d 1D       		.uleb128 0x1d
 3256 026e 01       		.byte	0x1
 3257 026f 31       		.uleb128 0x31
 3258 0270 13       		.uleb128 0x13
 3259 0271 52       		.uleb128 0x52
 3260 0272 01       		.uleb128 0x1
 3261 0273 55       		.uleb128 0x55
 3262 0274 17       		.uleb128 0x17
 3263 0275 58       		.uleb128 0x58
 3264 0276 0B       		.uleb128 0xb
 3265 0277 59       		.uleb128 0x59
 3266 0278 05       		.uleb128 0x5
 3267 0279 01       		.uleb128 0x1
 3268 027a 13       		.uleb128 0x13
 3269 027b 00       		.byte	0
 3270 027c 00       		.byte	0
 3271 027d 31       		.uleb128 0x31
 3272 027e 0B       		.uleb128 0xb
 3273 027f 01       		.byte	0x1
 3274 0280 55       		.uleb128 0x55
 3275 0281 17       		.uleb128 0x17
 3276 0282 00       		.byte	0
 3277 0283 00       		.byte	0
 3278 0284 32       		.uleb128 0x32
 3279 0285 898201   		.uleb128 0x4109
 3280 0288 01       		.byte	0x1
 3281 0289 11       		.uleb128 0x11
 3282 028a 01       		.uleb128 0x1
 3283 028b 31       		.uleb128 0x31
 3284 028c 13       		.uleb128 0x13
 3285 028d 01       		.uleb128 0x1
 3286 028e 13       		.uleb128 0x13
 3287 028f 00       		.byte	0
 3288 0290 00       		.byte	0
 3289 0291 33       		.uleb128 0x33
 3290 0292 05       		.uleb128 0x5
 3291 0293 00       		.byte	0
ARM GAS  /tmp/ccZVh2eZ.s 			page 59


 3292 0294 03       		.uleb128 0x3
 3293 0295 0E       		.uleb128 0xe
 3294 0296 3A       		.uleb128 0x3a
 3295 0297 0B       		.uleb128 0xb
 3296 0298 3B       		.uleb128 0x3b
 3297 0299 05       		.uleb128 0x5
 3298 029a 49       		.uleb128 0x49
 3299 029b 13       		.uleb128 0x13
 3300 029c 02       		.uleb128 0x2
 3301 029d 18       		.uleb128 0x18
 3302 029e 00       		.byte	0
 3303 029f 00       		.byte	0
 3304 02a0 34       		.uleb128 0x34
 3305 02a1 05       		.uleb128 0x5
 3306 02a2 00       		.byte	0
 3307 02a3 03       		.uleb128 0x3
 3308 02a4 08       		.uleb128 0x8
 3309 02a5 3A       		.uleb128 0x3a
 3310 02a6 0B       		.uleb128 0xb
 3311 02a7 3B       		.uleb128 0x3b
 3312 02a8 05       		.uleb128 0x5
 3313 02a9 49       		.uleb128 0x49
 3314 02aa 13       		.uleb128 0x13
 3315 02ab 02       		.uleb128 0x2
 3316 02ac 18       		.uleb128 0x18
 3317 02ad 00       		.byte	0
 3318 02ae 00       		.byte	0
 3319 02af 35       		.uleb128 0x35
 3320 02b0 26       		.uleb128 0x26
 3321 02b1 00       		.byte	0
 3322 02b2 00       		.byte	0
 3323 02b3 00       		.byte	0
 3324 02b4 36       		.uleb128 0x36
 3325 02b5 2E       		.uleb128 0x2e
 3326 02b6 01       		.byte	0x1
 3327 02b7 3F       		.uleb128 0x3f
 3328 02b8 19       		.uleb128 0x19
 3329 02b9 03       		.uleb128 0x3
 3330 02ba 0E       		.uleb128 0xe
 3331 02bb 3A       		.uleb128 0x3a
 3332 02bc 0B       		.uleb128 0xb
 3333 02bd 3B       		.uleb128 0x3b
 3334 02be 05       		.uleb128 0x5
 3335 02bf 27       		.uleb128 0x27
 3336 02c0 19       		.uleb128 0x19
 3337 02c1 49       		.uleb128 0x49
 3338 02c2 13       		.uleb128 0x13
 3339 02c3 11       		.uleb128 0x11
 3340 02c4 01       		.uleb128 0x1
 3341 02c5 12       		.uleb128 0x12
 3342 02c6 06       		.uleb128 0x6
 3343 02c7 40       		.uleb128 0x40
 3344 02c8 18       		.uleb128 0x18
 3345 02c9 9742     		.uleb128 0x2117
 3346 02cb 19       		.uleb128 0x19
 3347 02cc 01       		.uleb128 0x1
 3348 02cd 13       		.uleb128 0x13
ARM GAS  /tmp/ccZVh2eZ.s 			page 60


 3349 02ce 00       		.byte	0
 3350 02cf 00       		.byte	0
 3351 02d0 37       		.uleb128 0x37
 3352 02d1 34       		.uleb128 0x34
 3353 02d2 00       		.byte	0
 3354 02d3 03       		.uleb128 0x3
 3355 02d4 08       		.uleb128 0x8
 3356 02d5 3A       		.uleb128 0x3a
 3357 02d6 0B       		.uleb128 0xb
 3358 02d7 3B       		.uleb128 0x3b
 3359 02d8 05       		.uleb128 0x5
 3360 02d9 49       		.uleb128 0x49
 3361 02da 13       		.uleb128 0x13
 3362 02db 02       		.uleb128 0x2
 3363 02dc 18       		.uleb128 0x18
 3364 02dd 00       		.byte	0
 3365 02de 00       		.byte	0
 3366 02df 38       		.uleb128 0x38
 3367 02e0 34       		.uleb128 0x34
 3368 02e1 00       		.byte	0
 3369 02e2 03       		.uleb128 0x3
 3370 02e3 0E       		.uleb128 0xe
 3371 02e4 3A       		.uleb128 0x3a
 3372 02e5 0B       		.uleb128 0xb
 3373 02e6 3B       		.uleb128 0x3b
 3374 02e7 05       		.uleb128 0x5
 3375 02e8 49       		.uleb128 0x49
 3376 02e9 13       		.uleb128 0x13
 3377 02ea 3F       		.uleb128 0x3f
 3378 02eb 19       		.uleb128 0x19
 3379 02ec 3C       		.uleb128 0x3c
 3380 02ed 19       		.uleb128 0x19
 3381 02ee 00       		.byte	0
 3382 02ef 00       		.byte	0
 3383 02f0 39       		.uleb128 0x39
 3384 02f1 01       		.uleb128 0x1
 3385 02f2 01       		.byte	0x1
 3386 02f3 49       		.uleb128 0x49
 3387 02f4 13       		.uleb128 0x13
 3388 02f5 01       		.uleb128 0x1
 3389 02f6 13       		.uleb128 0x13
 3390 02f7 00       		.byte	0
 3391 02f8 00       		.byte	0
 3392 02f9 3A       		.uleb128 0x3a
 3393 02fa 21       		.uleb128 0x21
 3394 02fb 00       		.byte	0
 3395 02fc 49       		.uleb128 0x49
 3396 02fd 13       		.uleb128 0x13
 3397 02fe 2F       		.uleb128 0x2f
 3398 02ff 0B       		.uleb128 0xb
 3399 0300 00       		.byte	0
 3400 0301 00       		.byte	0
 3401 0302 3B       		.uleb128 0x3b
 3402 0303 34       		.uleb128 0x34
 3403 0304 00       		.byte	0
 3404 0305 03       		.uleb128 0x3
 3405 0306 0E       		.uleb128 0xe
ARM GAS  /tmp/ccZVh2eZ.s 			page 61


 3406 0307 3A       		.uleb128 0x3a
 3407 0308 0B       		.uleb128 0xb
 3408 0309 3B       		.uleb128 0x3b
 3409 030a 0B       		.uleb128 0xb
 3410 030b 49       		.uleb128 0x49
 3411 030c 13       		.uleb128 0x13
 3412 030d 3F       		.uleb128 0x3f
 3413 030e 19       		.uleb128 0x19
 3414 030f 02       		.uleb128 0x2
 3415 0310 18       		.uleb128 0x18
 3416 0311 00       		.byte	0
 3417 0312 00       		.byte	0
 3418 0313 3C       		.uleb128 0x3c
 3419 0314 2E       		.uleb128 0x2e
 3420 0315 00       		.byte	0
 3421 0316 3F       		.uleb128 0x3f
 3422 0317 19       		.uleb128 0x19
 3423 0318 03       		.uleb128 0x3
 3424 0319 0E       		.uleb128 0xe
 3425 031a 3A       		.uleb128 0x3a
 3426 031b 0B       		.uleb128 0xb
 3427 031c 3B       		.uleb128 0x3b
 3428 031d 05       		.uleb128 0x5
 3429 031e 27       		.uleb128 0x27
 3430 031f 19       		.uleb128 0x19
 3431 0320 3C       		.uleb128 0x3c
 3432 0321 19       		.uleb128 0x19
 3433 0322 00       		.byte	0
 3434 0323 00       		.byte	0
 3435 0324 3D       		.uleb128 0x3d
 3436 0325 2E       		.uleb128 0x2e
 3437 0326 01       		.byte	0x1
 3438 0327 3F       		.uleb128 0x3f
 3439 0328 19       		.uleb128 0x19
 3440 0329 03       		.uleb128 0x3
 3441 032a 0E       		.uleb128 0xe
 3442 032b 3A       		.uleb128 0x3a
 3443 032c 0B       		.uleb128 0xb
 3444 032d 3B       		.uleb128 0x3b
 3445 032e 0B       		.uleb128 0xb
 3446 032f 27       		.uleb128 0x27
 3447 0330 19       		.uleb128 0x19
 3448 0331 3C       		.uleb128 0x3c
 3449 0332 19       		.uleb128 0x19
 3450 0333 01       		.uleb128 0x1
 3451 0334 13       		.uleb128 0x13
 3452 0335 00       		.byte	0
 3453 0336 00       		.byte	0
 3454 0337 3E       		.uleb128 0x3e
 3455 0338 2E       		.uleb128 0x2e
 3456 0339 01       		.byte	0x1
 3457 033a 3F       		.uleb128 0x3f
 3458 033b 19       		.uleb128 0x19
 3459 033c 03       		.uleb128 0x3
 3460 033d 0E       		.uleb128 0xe
 3461 033e 3A       		.uleb128 0x3a
 3462 033f 0B       		.uleb128 0xb
ARM GAS  /tmp/ccZVh2eZ.s 			page 62


 3463 0340 3B       		.uleb128 0x3b
 3464 0341 05       		.uleb128 0x5
 3465 0342 27       		.uleb128 0x27
 3466 0343 19       		.uleb128 0x19
 3467 0344 49       		.uleb128 0x49
 3468 0345 13       		.uleb128 0x13
 3469 0346 3C       		.uleb128 0x3c
 3470 0347 19       		.uleb128 0x19
 3471 0348 01       		.uleb128 0x1
 3472 0349 13       		.uleb128 0x13
 3473 034a 00       		.byte	0
 3474 034b 00       		.byte	0
 3475 034c 3F       		.uleb128 0x3f
 3476 034d 2E       		.uleb128 0x2e
 3477 034e 01       		.byte	0x1
 3478 034f 3F       		.uleb128 0x3f
 3479 0350 19       		.uleb128 0x19
 3480 0351 03       		.uleb128 0x3
 3481 0352 0E       		.uleb128 0xe
 3482 0353 3A       		.uleb128 0x3a
 3483 0354 0B       		.uleb128 0xb
 3484 0355 3B       		.uleb128 0x3b
 3485 0356 05       		.uleb128 0x5
 3486 0357 27       		.uleb128 0x27
 3487 0358 19       		.uleb128 0x19
 3488 0359 3C       		.uleb128 0x3c
 3489 035a 19       		.uleb128 0x19
 3490 035b 01       		.uleb128 0x1
 3491 035c 13       		.uleb128 0x13
 3492 035d 00       		.byte	0
 3493 035e 00       		.byte	0
 3494 035f 40       		.uleb128 0x40
 3495 0360 2E       		.uleb128 0x2e
 3496 0361 01       		.byte	0x1
 3497 0362 3F       		.uleb128 0x3f
 3498 0363 19       		.uleb128 0x19
 3499 0364 03       		.uleb128 0x3
 3500 0365 0E       		.uleb128 0xe
 3501 0366 3A       		.uleb128 0x3a
 3502 0367 0B       		.uleb128 0xb
 3503 0368 3B       		.uleb128 0x3b
 3504 0369 05       		.uleb128 0x5
 3505 036a 27       		.uleb128 0x27
 3506 036b 19       		.uleb128 0x19
 3507 036c 3C       		.uleb128 0x3c
 3508 036d 19       		.uleb128 0x19
 3509 036e 00       		.byte	0
 3510 036f 00       		.byte	0
 3511 0370 00       		.byte	0
 3512              		.section	.debug_loc,"",%progbits
 3513              	.Ldebug_loc0:
 3514              	.LLST0:
 3515 0000 00000000 		.4byte	.LVL3
 3516 0004 08000000 		.4byte	.LVL4
 3517 0008 0100     		.2byte	0x1
 3518 000a 50       		.byte	0x50
 3519 000b 08000000 		.4byte	.LVL4
ARM GAS  /tmp/ccZVh2eZ.s 			page 63


 3520 000f 50000000 		.4byte	.LVL7
 3521 0013 0100     		.2byte	0x1
 3522 0015 54       		.byte	0x54
 3523 0016 50000000 		.4byte	.LVL7
 3524 001a 53000000 		.4byte	.LVL8-1
 3525 001e 0100     		.2byte	0x1
 3526 0020 50       		.byte	0x50
 3527 0021 53000000 		.4byte	.LVL8-1
 3528 0025 56000000 		.4byte	.LFE61
 3529 0029 0100     		.2byte	0x1
 3530 002b 54       		.byte	0x54
 3531 002c 00000000 		.4byte	0
 3532 0030 00000000 		.4byte	0
 3533              	.LLST1:
 3534 0034 00000000 		.4byte	.LVL3
 3535 0038 08000000 		.4byte	.LVL4
 3536 003c 0100     		.2byte	0x1
 3537 003e 51       		.byte	0x51
 3538 003f 08000000 		.4byte	.LVL4
 3539 0043 50000000 		.4byte	.LVL7
 3540 0047 0400     		.2byte	0x4
 3541 0049 F3       		.byte	0xf3
 3542 004a 01       		.uleb128 0x1
 3543 004b 51       		.byte	0x51
 3544 004c 9F       		.byte	0x9f
 3545 004d 50000000 		.4byte	.LVL7
 3546 0051 53000000 		.4byte	.LVL8-1
 3547 0055 0100     		.2byte	0x1
 3548 0057 51       		.byte	0x51
 3549 0058 53000000 		.4byte	.LVL8-1
 3550 005c 56000000 		.4byte	.LFE61
 3551 0060 0400     		.2byte	0x4
 3552 0062 F3       		.byte	0xf3
 3553 0063 01       		.uleb128 0x1
 3554 0064 51       		.byte	0x51
 3555 0065 9F       		.byte	0x9f
 3556 0066 00000000 		.4byte	0
 3557 006a 00000000 		.4byte	0
 3558              	.LLST2:
 3559 006e 00000000 		.4byte	.LVL9
 3560 0072 08000000 		.4byte	.LVL10
 3561 0076 0100     		.2byte	0x1
 3562 0078 50       		.byte	0x50
 3563 0079 08000000 		.4byte	.LVL10
 3564 007d 4C000000 		.4byte	.LVL15
 3565 0081 0100     		.2byte	0x1
 3566 0083 54       		.byte	0x54
 3567 0084 4C000000 		.4byte	.LVL15
 3568 0088 4F000000 		.4byte	.LVL16-1
 3569 008c 0100     		.2byte	0x1
 3570 008e 50       		.byte	0x50
 3571 008f 4F000000 		.4byte	.LVL16-1
 3572 0093 5C000000 		.4byte	.LVL18
 3573 0097 0100     		.2byte	0x1
 3574 0099 54       		.byte	0x54
 3575 009a 5C000000 		.4byte	.LVL18
 3576 009e 5F000000 		.4byte	.LVL19-1
ARM GAS  /tmp/ccZVh2eZ.s 			page 64


 3577 00a2 0100     		.2byte	0x1
 3578 00a4 50       		.byte	0x50
 3579 00a5 5F000000 		.4byte	.LVL19-1
 3580 00a9 60000000 		.4byte	.LFE60
 3581 00ad 0400     		.2byte	0x4
 3582 00af F3       		.byte	0xf3
 3583 00b0 01       		.uleb128 0x1
 3584 00b1 50       		.byte	0x50
 3585 00b2 9F       		.byte	0x9f
 3586 00b3 00000000 		.4byte	0
 3587 00b7 00000000 		.4byte	0
 3588              	.LLST3:
 3589 00bb 00000000 		.4byte	.LVL9
 3590 00bf 08000000 		.4byte	.LVL10
 3591 00c3 0100     		.2byte	0x1
 3592 00c5 51       		.byte	0x51
 3593 00c6 08000000 		.4byte	.LVL10
 3594 00ca 4C000000 		.4byte	.LVL15
 3595 00ce 0400     		.2byte	0x4
 3596 00d0 F3       		.byte	0xf3
 3597 00d1 01       		.uleb128 0x1
 3598 00d2 51       		.byte	0x51
 3599 00d3 9F       		.byte	0x9f
 3600 00d4 4C000000 		.4byte	.LVL15
 3601 00d8 4F000000 		.4byte	.LVL16-1
 3602 00dc 0100     		.2byte	0x1
 3603 00de 51       		.byte	0x51
 3604 00df 4F000000 		.4byte	.LVL16-1
 3605 00e3 60000000 		.4byte	.LFE60
 3606 00e7 0400     		.2byte	0x4
 3607 00e9 F3       		.byte	0xf3
 3608 00ea 01       		.uleb128 0x1
 3609 00eb 51       		.byte	0x51
 3610 00ec 9F       		.byte	0x9f
 3611 00ed 00000000 		.4byte	0
 3612 00f1 00000000 		.4byte	0
 3613              	.LLST4:
 3614 00f5 1C000000 		.4byte	.LVL12
 3615 00f9 4A000000 		.4byte	.LVL14
 3616 00fd 0400     		.2byte	0x4
 3617 00ff F3       		.byte	0xf3
 3618 0100 01       		.uleb128 0x1
 3619 0101 51       		.byte	0x51
 3620 0102 9F       		.byte	0x9f
 3621 0103 52000000 		.4byte	.LVL17
 3622 0107 60000000 		.4byte	.LFE60
 3623 010b 0400     		.2byte	0x4
 3624 010d F3       		.byte	0xf3
 3625 010e 01       		.uleb128 0x1
 3626 010f 51       		.byte	0x51
 3627 0110 9F       		.byte	0x9f
 3628 0111 00000000 		.4byte	0
 3629 0115 00000000 		.4byte	0
 3630              	.LLST5:
 3631 0119 1C000000 		.4byte	.LVL12
 3632 011d 4A000000 		.4byte	.LVL14
 3633 0121 0100     		.2byte	0x1
ARM GAS  /tmp/ccZVh2eZ.s 			page 65


 3634 0123 54       		.byte	0x54
 3635 0124 52000000 		.4byte	.LVL17
 3636 0128 5C000000 		.4byte	.LVL18
 3637 012c 0100     		.2byte	0x1
 3638 012e 54       		.byte	0x54
 3639 012f 5C000000 		.4byte	.LVL18
 3640 0133 5F000000 		.4byte	.LVL19-1
 3641 0137 0100     		.2byte	0x1
 3642 0139 50       		.byte	0x50
 3643 013a 5F000000 		.4byte	.LVL19-1
 3644 013e 60000000 		.4byte	.LFE60
 3645 0142 0400     		.2byte	0x4
 3646 0144 F3       		.byte	0xf3
 3647 0145 01       		.uleb128 0x1
 3648 0146 50       		.byte	0x50
 3649 0147 9F       		.byte	0x9f
 3650 0148 00000000 		.4byte	0
 3651 014c 00000000 		.4byte	0
 3652              	.LLST6:
 3653 0150 12000000 		.4byte	.LVL23
 3654 0154 76000000 		.4byte	.LVL33
 3655 0158 0100     		.2byte	0x1
 3656 015a 55       		.byte	0x55
 3657 015b 00000000 		.4byte	0
 3658 015f 00000000 		.4byte	0
 3659              	.LLST7:
 3660 0163 0A000000 		.4byte	.LVL21
 3661 0167 76000000 		.4byte	.LVL33
 3662 016b 0100     		.2byte	0x1
 3663 016d 54       		.byte	0x54
 3664 016e 00000000 		.4byte	0
 3665 0172 00000000 		.4byte	0
 3666              	.LLST8:
 3667 0176 10000000 		.4byte	.LVL22
 3668 017a 64000000 		.4byte	.LVL31
 3669 017e 0700     		.2byte	0x7
 3670 0180 77       		.byte	0x77
 3671 0181 00       		.sleb128 0
 3672 0182 0A       		.byte	0xa
 3673 0183 FFFF     		.2byte	0xffff
 3674 0185 1A       		.byte	0x1a
 3675 0186 9F       		.byte	0x9f
 3676 0187 00000000 		.4byte	0
 3677 018b 00000000 		.4byte	0
 3678              	.LLST9:
 3679 018f 24000000 		.4byte	.LVL24
 3680 0193 52000000 		.4byte	.LVL30
 3681 0197 0100     		.2byte	0x1
 3682 0199 55       		.byte	0x55
 3683 019a 00000000 		.4byte	0
 3684 019e 00000000 		.4byte	0
 3685              	.LLST10:
 3686 01a2 24000000 		.4byte	.LVL24
 3687 01a6 2E000000 		.4byte	.LVL25
 3688 01aa 0200     		.2byte	0x2
 3689 01ac 30       		.byte	0x30
 3690 01ad 9F       		.byte	0x9f
ARM GAS  /tmp/ccZVh2eZ.s 			page 66


 3691 01ae 2E000000 		.4byte	.LVL25
 3692 01b2 51000000 		.4byte	.LVL30-1
 3693 01b6 0100     		.2byte	0x1
 3694 01b8 51       		.byte	0x51
 3695 01b9 51000000 		.4byte	.LVL30-1
 3696 01bd 52000000 		.4byte	.LVL30
 3697 01c1 9701     		.2byte	0x197
 3698 01c3 40       		.byte	0x40
 3699 01c4 30       		.byte	0x30
 3700 01c5 75       		.byte	0x75
 3701 01c6 00       		.sleb128 0
 3702 01c7 33       		.byte	0x33
 3703 01c8 25       		.byte	0x25
 3704 01c9 30       		.byte	0x30
 3705 01ca 2E       		.byte	0x2e
 3706 01cb 28       		.byte	0x28
 3707 01cc 0100     		.2byte	0x1
 3708 01ce 16       		.byte	0x16
 3709 01cf 13       		.byte	0x13
 3710 01d0 34       		.byte	0x34
 3711 01d1 21       		.byte	0x21
 3712 01d2 40       		.byte	0x40
 3713 01d3 30       		.byte	0x30
 3714 01d4 75       		.byte	0x75
 3715 01d5 00       		.sleb128 0
 3716 01d6 33       		.byte	0x33
 3717 01d7 25       		.byte	0x25
 3718 01d8 30       		.byte	0x30
 3719 01d9 2E       		.byte	0x2e
 3720 01da 28       		.byte	0x28
 3721 01db 0100     		.2byte	0x1
 3722 01dd 16       		.byte	0x16
 3723 01de 13       		.byte	0x13
 3724 01df 75       		.byte	0x75
 3725 01e0 00       		.sleb128 0
 3726 01e1 4F       		.byte	0x4f
 3727 01e2 24       		.byte	0x24
 3728 01e3 30       		.byte	0x30
 3729 01e4 2D       		.byte	0x2d
 3730 01e5 28       		.byte	0x28
 3731 01e6 0100     		.2byte	0x1
 3732 01e8 16       		.byte	0x16
 3733 01e9 13       		.byte	0x13
 3734 01ea 38       		.byte	0x38
 3735 01eb 21       		.byte	0x21
 3736 01ec 40       		.byte	0x40
 3737 01ed 30       		.byte	0x30
 3738 01ee 75       		.byte	0x75
 3739 01ef 00       		.sleb128 0
 3740 01f0 33       		.byte	0x33
 3741 01f1 25       		.byte	0x25
 3742 01f2 30       		.byte	0x30
 3743 01f3 2E       		.byte	0x2e
 3744 01f4 28       		.byte	0x28
 3745 01f5 0100     		.2byte	0x1
 3746 01f7 16       		.byte	0x16
 3747 01f8 13       		.byte	0x13
ARM GAS  /tmp/ccZVh2eZ.s 			page 67


 3748 01f9 34       		.byte	0x34
 3749 01fa 21       		.byte	0x21
 3750 01fb 40       		.byte	0x40
 3751 01fc 30       		.byte	0x30
 3752 01fd 75       		.byte	0x75
 3753 01fe 00       		.sleb128 0
 3754 01ff 33       		.byte	0x33
 3755 0200 25       		.byte	0x25
 3756 0201 30       		.byte	0x30
 3757 0202 2E       		.byte	0x2e
 3758 0203 28       		.byte	0x28
 3759 0204 0100     		.2byte	0x1
 3760 0206 16       		.byte	0x16
 3761 0207 13       		.byte	0x13
 3762 0208 75       		.byte	0x75
 3763 0209 00       		.sleb128 0
 3764 020a 4F       		.byte	0x4f
 3765 020b 24       		.byte	0x24
 3766 020c 30       		.byte	0x30
 3767 020d 2D       		.byte	0x2d
 3768 020e 28       		.byte	0x28
 3769 020f 0100     		.2byte	0x1
 3770 0211 16       		.byte	0x16
 3771 0212 13       		.byte	0x13
 3772 0213 75       		.byte	0x75
 3773 0214 00       		.sleb128 0
 3774 0215 4E       		.byte	0x4e
 3775 0216 24       		.byte	0x24
 3776 0217 30       		.byte	0x30
 3777 0218 2D       		.byte	0x2d
 3778 0219 28       		.byte	0x28
 3779 021a 0100     		.2byte	0x1
 3780 021c 16       		.byte	0x16
 3781 021d 13       		.byte	0x13
 3782 021e 08       		.byte	0x8
 3783 021f 20       		.byte	0x20
 3784 0220 21       		.byte	0x21
 3785 0221 40       		.byte	0x40
 3786 0222 30       		.byte	0x30
 3787 0223 75       		.byte	0x75
 3788 0224 00       		.sleb128 0
 3789 0225 33       		.byte	0x33
 3790 0226 25       		.byte	0x25
 3791 0227 30       		.byte	0x30
 3792 0228 2E       		.byte	0x2e
 3793 0229 28       		.byte	0x28
 3794 022a 0100     		.2byte	0x1
 3795 022c 16       		.byte	0x16
 3796 022d 13       		.byte	0x13
 3797 022e 34       		.byte	0x34
 3798 022f 21       		.byte	0x21
 3799 0230 40       		.byte	0x40
 3800 0231 30       		.byte	0x30
 3801 0232 75       		.byte	0x75
 3802 0233 00       		.sleb128 0
 3803 0234 33       		.byte	0x33
 3804 0235 25       		.byte	0x25
ARM GAS  /tmp/ccZVh2eZ.s 			page 68


 3805 0236 30       		.byte	0x30
 3806 0237 2E       		.byte	0x2e
 3807 0238 28       		.byte	0x28
 3808 0239 0100     		.2byte	0x1
 3809 023b 16       		.byte	0x16
 3810 023c 13       		.byte	0x13
 3811 023d 75       		.byte	0x75
 3812 023e 00       		.sleb128 0
 3813 023f 4F       		.byte	0x4f
 3814 0240 24       		.byte	0x24
 3815 0241 30       		.byte	0x30
 3816 0242 2D       		.byte	0x2d
 3817 0243 28       		.byte	0x28
 3818 0244 0100     		.2byte	0x1
 3819 0246 16       		.byte	0x16
 3820 0247 13       		.byte	0x13
 3821 0248 38       		.byte	0x38
 3822 0249 21       		.byte	0x21
 3823 024a 40       		.byte	0x40
 3824 024b 30       		.byte	0x30
 3825 024c 75       		.byte	0x75
 3826 024d 00       		.sleb128 0
 3827 024e 33       		.byte	0x33
 3828 024f 25       		.byte	0x25
 3829 0250 30       		.byte	0x30
 3830 0251 2E       		.byte	0x2e
 3831 0252 28       		.byte	0x28
 3832 0253 0100     		.2byte	0x1
 3833 0255 16       		.byte	0x16
 3834 0256 13       		.byte	0x13
 3835 0257 34       		.byte	0x34
 3836 0258 21       		.byte	0x21
 3837 0259 40       		.byte	0x40
 3838 025a 30       		.byte	0x30
 3839 025b 75       		.byte	0x75
 3840 025c 00       		.sleb128 0
 3841 025d 33       		.byte	0x33
 3842 025e 25       		.byte	0x25
 3843 025f 30       		.byte	0x30
 3844 0260 2E       		.byte	0x2e
 3845 0261 28       		.byte	0x28
 3846 0262 0100     		.2byte	0x1
 3847 0264 16       		.byte	0x16
 3848 0265 13       		.byte	0x13
 3849 0266 75       		.byte	0x75
 3850 0267 00       		.sleb128 0
 3851 0268 4F       		.byte	0x4f
 3852 0269 24       		.byte	0x24
 3853 026a 30       		.byte	0x30
 3854 026b 2D       		.byte	0x2d
 3855 026c 28       		.byte	0x28
 3856 026d 0100     		.2byte	0x1
 3857 026f 16       		.byte	0x16
 3858 0270 13       		.byte	0x13
 3859 0271 75       		.byte	0x75
 3860 0272 00       		.sleb128 0
 3861 0273 4E       		.byte	0x4e
ARM GAS  /tmp/ccZVh2eZ.s 			page 69


 3862 0274 24       		.byte	0x24
 3863 0275 30       		.byte	0x30
 3864 0276 2D       		.byte	0x2d
 3865 0277 28       		.byte	0x28
 3866 0278 0100     		.2byte	0x1
 3867 027a 16       		.byte	0x16
 3868 027b 13       		.byte	0x13
 3869 027c 75       		.byte	0x75
 3870 027d 00       		.sleb128 0
 3871 027e 4D       		.byte	0x4d
 3872 027f 24       		.byte	0x24
 3873 0280 30       		.byte	0x30
 3874 0281 2D       		.byte	0x2d
 3875 0282 28       		.byte	0x28
 3876 0283 0100     		.2byte	0x1
 3877 0285 16       		.byte	0x16
 3878 0286 13       		.byte	0x13
 3879 0287 08       		.byte	0x8
 3880 0288 40       		.byte	0x40
 3881 0289 21       		.byte	0x21
 3882 028a 40       		.byte	0x40
 3883 028b 30       		.byte	0x30
 3884 028c 75       		.byte	0x75
 3885 028d 00       		.sleb128 0
 3886 028e 33       		.byte	0x33
 3887 028f 25       		.byte	0x25
 3888 0290 30       		.byte	0x30
 3889 0291 2E       		.byte	0x2e
 3890 0292 28       		.byte	0x28
 3891 0293 0100     		.2byte	0x1
 3892 0295 16       		.byte	0x16
 3893 0296 13       		.byte	0x13
 3894 0297 34       		.byte	0x34
 3895 0298 21       		.byte	0x21
 3896 0299 40       		.byte	0x40
 3897 029a 30       		.byte	0x30
 3898 029b 75       		.byte	0x75
 3899 029c 00       		.sleb128 0
 3900 029d 33       		.byte	0x33
 3901 029e 25       		.byte	0x25
 3902 029f 30       		.byte	0x30
 3903 02a0 2E       		.byte	0x2e
 3904 02a1 28       		.byte	0x28
 3905 02a2 0100     		.2byte	0x1
 3906 02a4 16       		.byte	0x16
 3907 02a5 13       		.byte	0x13
 3908 02a6 75       		.byte	0x75
 3909 02a7 00       		.sleb128 0
 3910 02a8 4F       		.byte	0x4f
 3911 02a9 24       		.byte	0x24
 3912 02aa 30       		.byte	0x30
 3913 02ab 2D       		.byte	0x2d
 3914 02ac 28       		.byte	0x28
 3915 02ad 0100     		.2byte	0x1
 3916 02af 16       		.byte	0x16
 3917 02b0 13       		.byte	0x13
 3918 02b1 38       		.byte	0x38
ARM GAS  /tmp/ccZVh2eZ.s 			page 70


 3919 02b2 21       		.byte	0x21
 3920 02b3 40       		.byte	0x40
 3921 02b4 30       		.byte	0x30
 3922 02b5 75       		.byte	0x75
 3923 02b6 00       		.sleb128 0
 3924 02b7 33       		.byte	0x33
 3925 02b8 25       		.byte	0x25
 3926 02b9 30       		.byte	0x30
 3927 02ba 2E       		.byte	0x2e
 3928 02bb 28       		.byte	0x28
 3929 02bc 0100     		.2byte	0x1
 3930 02be 16       		.byte	0x16
 3931 02bf 13       		.byte	0x13
 3932 02c0 34       		.byte	0x34
 3933 02c1 21       		.byte	0x21
 3934 02c2 40       		.byte	0x40
 3935 02c3 30       		.byte	0x30
 3936 02c4 75       		.byte	0x75
 3937 02c5 00       		.sleb128 0
 3938 02c6 33       		.byte	0x33
 3939 02c7 25       		.byte	0x25
 3940 02c8 30       		.byte	0x30
 3941 02c9 2E       		.byte	0x2e
 3942 02ca 28       		.byte	0x28
 3943 02cb 0100     		.2byte	0x1
 3944 02cd 16       		.byte	0x16
 3945 02ce 13       		.byte	0x13
 3946 02cf 75       		.byte	0x75
 3947 02d0 00       		.sleb128 0
 3948 02d1 4F       		.byte	0x4f
 3949 02d2 24       		.byte	0x24
 3950 02d3 30       		.byte	0x30
 3951 02d4 2D       		.byte	0x2d
 3952 02d5 28       		.byte	0x28
 3953 02d6 0100     		.2byte	0x1
 3954 02d8 16       		.byte	0x16
 3955 02d9 13       		.byte	0x13
 3956 02da 75       		.byte	0x75
 3957 02db 00       		.sleb128 0
 3958 02dc 4E       		.byte	0x4e
 3959 02dd 24       		.byte	0x24
 3960 02de 30       		.byte	0x30
 3961 02df 2D       		.byte	0x2d
 3962 02e0 28       		.byte	0x28
 3963 02e1 0100     		.2byte	0x1
 3964 02e3 16       		.byte	0x16
 3965 02e4 13       		.byte	0x13
 3966 02e5 08       		.byte	0x8
 3967 02e6 20       		.byte	0x20
 3968 02e7 21       		.byte	0x21
 3969 02e8 40       		.byte	0x40
 3970 02e9 30       		.byte	0x30
 3971 02ea 75       		.byte	0x75
 3972 02eb 00       		.sleb128 0
 3973 02ec 33       		.byte	0x33
 3974 02ed 25       		.byte	0x25
 3975 02ee 30       		.byte	0x30
ARM GAS  /tmp/ccZVh2eZ.s 			page 71


 3976 02ef 2E       		.byte	0x2e
 3977 02f0 28       		.byte	0x28
 3978 02f1 0100     		.2byte	0x1
 3979 02f3 16       		.byte	0x16
 3980 02f4 13       		.byte	0x13
 3981 02f5 34       		.byte	0x34
 3982 02f6 21       		.byte	0x21
 3983 02f7 40       		.byte	0x40
 3984 02f8 30       		.byte	0x30
 3985 02f9 75       		.byte	0x75
 3986 02fa 00       		.sleb128 0
 3987 02fb 33       		.byte	0x33
 3988 02fc 25       		.byte	0x25
 3989 02fd 30       		.byte	0x30
 3990 02fe 2E       		.byte	0x2e
 3991 02ff 28       		.byte	0x28
 3992 0300 0100     		.2byte	0x1
 3993 0302 16       		.byte	0x16
 3994 0303 13       		.byte	0x13
 3995 0304 75       		.byte	0x75
 3996 0305 00       		.sleb128 0
 3997 0306 4F       		.byte	0x4f
 3998 0307 24       		.byte	0x24
 3999 0308 30       		.byte	0x30
 4000 0309 2D       		.byte	0x2d
 4001 030a 28       		.byte	0x28
 4002 030b 0100     		.2byte	0x1
 4003 030d 16       		.byte	0x16
 4004 030e 13       		.byte	0x13
 4005 030f 38       		.byte	0x38
 4006 0310 21       		.byte	0x21
 4007 0311 40       		.byte	0x40
 4008 0312 30       		.byte	0x30
 4009 0313 75       		.byte	0x75
 4010 0314 00       		.sleb128 0
 4011 0315 33       		.byte	0x33
 4012 0316 25       		.byte	0x25
 4013 0317 30       		.byte	0x30
 4014 0318 2E       		.byte	0x2e
 4015 0319 28       		.byte	0x28
 4016 031a 0100     		.2byte	0x1
 4017 031c 16       		.byte	0x16
 4018 031d 13       		.byte	0x13
 4019 031e 34       		.byte	0x34
 4020 031f 21       		.byte	0x21
 4021 0320 40       		.byte	0x40
 4022 0321 30       		.byte	0x30
 4023 0322 75       		.byte	0x75
 4024 0323 00       		.sleb128 0
 4025 0324 33       		.byte	0x33
 4026 0325 25       		.byte	0x25
 4027 0326 30       		.byte	0x30
 4028 0327 2E       		.byte	0x2e
 4029 0328 28       		.byte	0x28
 4030 0329 0100     		.2byte	0x1
 4031 032b 16       		.byte	0x16
 4032 032c 13       		.byte	0x13
ARM GAS  /tmp/ccZVh2eZ.s 			page 72


 4033 032d 75       		.byte	0x75
 4034 032e 00       		.sleb128 0
 4035 032f 4F       		.byte	0x4f
 4036 0330 24       		.byte	0x24
 4037 0331 30       		.byte	0x30
 4038 0332 2D       		.byte	0x2d
 4039 0333 28       		.byte	0x28
 4040 0334 0100     		.2byte	0x1
 4041 0336 16       		.byte	0x16
 4042 0337 13       		.byte	0x13
 4043 0338 75       		.byte	0x75
 4044 0339 00       		.sleb128 0
 4045 033a 4E       		.byte	0x4e
 4046 033b 24       		.byte	0x24
 4047 033c 30       		.byte	0x30
 4048 033d 2D       		.byte	0x2d
 4049 033e 28       		.byte	0x28
 4050 033f 0100     		.2byte	0x1
 4051 0341 16       		.byte	0x16
 4052 0342 13       		.byte	0x13
 4053 0343 75       		.byte	0x75
 4054 0344 00       		.sleb128 0
 4055 0345 4D       		.byte	0x4d
 4056 0346 24       		.byte	0x24
 4057 0347 30       		.byte	0x30
 4058 0348 2D       		.byte	0x2d
 4059 0349 28       		.byte	0x28
 4060 034a 0100     		.2byte	0x1
 4061 034c 16       		.byte	0x16
 4062 034d 13       		.byte	0x13
 4063 034e 75       		.byte	0x75
 4064 034f 00       		.sleb128 0
 4065 0350 47       		.byte	0x47
 4066 0351 24       		.byte	0x24
 4067 0352 30       		.byte	0x30
 4068 0353 2D       		.byte	0x2d
 4069 0354 28       		.byte	0x28
 4070 0355 0100     		.2byte	0x1
 4071 0357 16       		.byte	0x16
 4072 0358 13       		.byte	0x13
 4073 0359 9F       		.byte	0x9f
 4074 035a 00000000 		.4byte	0
 4075 035e 00000000 		.4byte	0
 4076              	.LLST11:
 4077 0362 00000000 		.4byte	.LVL36
 4078 0366 0A000000 		.4byte	.LVL37
 4079 036a 0100     		.2byte	0x1
 4080 036c 50       		.byte	0x50
 4081 036d 0A000000 		.4byte	.LVL37
 4082 0371 68000000 		.4byte	.LVL42
 4083 0375 0100     		.2byte	0x1
 4084 0377 54       		.byte	0x54
 4085 0378 68000000 		.4byte	.LVL42
 4086 037c 6B000000 		.4byte	.LVL43-1
 4087 0380 0100     		.2byte	0x1
 4088 0382 50       		.byte	0x50
 4089 0383 6B000000 		.4byte	.LVL43-1
ARM GAS  /tmp/ccZVh2eZ.s 			page 73


 4090 0387 6C000000 		.4byte	.LVL43
 4091 038b 0400     		.2byte	0x4
 4092 038d F3       		.byte	0xf3
 4093 038e 01       		.uleb128 0x1
 4094 038f 50       		.byte	0x50
 4095 0390 9F       		.byte	0x9f
 4096 0391 6C000000 		.4byte	.LVL43
 4097 0395 72000000 		.4byte	.LVL44
 4098 0399 0100     		.2byte	0x1
 4099 039b 50       		.byte	0x50
 4100 039c 72000000 		.4byte	.LVL44
 4101 03a0 A4000000 		.4byte	.LVL45
 4102 03a4 0100     		.2byte	0x1
 4103 03a6 54       		.byte	0x54
 4104 03a7 A4000000 		.4byte	.LVL45
 4105 03ab AC000000 		.4byte	.LVL46
 4106 03af 0100     		.2byte	0x1
 4107 03b1 50       		.byte	0x50
 4108 03b2 AC000000 		.4byte	.LVL46
 4109 03b6 EC000000 		.4byte	.LFE65
 4110 03ba 0100     		.2byte	0x1
 4111 03bc 54       		.byte	0x54
 4112 03bd 00000000 		.4byte	0
 4113 03c1 00000000 		.4byte	0
 4114              	.LLST12:
 4115 03c5 10000000 		.4byte	.LVL38
 4116 03c9 68000000 		.4byte	.LVL42
 4117 03cd 0100     		.2byte	0x1
 4118 03cf 54       		.byte	0x54
 4119 03d0 68000000 		.4byte	.LVL42
 4120 03d4 6B000000 		.4byte	.LVL43-1
 4121 03d8 0100     		.2byte	0x1
 4122 03da 50       		.byte	0x50
 4123 03db 6B000000 		.4byte	.LVL43-1
 4124 03df 6C000000 		.4byte	.LVL43
 4125 03e3 0400     		.2byte	0x4
 4126 03e5 F3       		.byte	0xf3
 4127 03e6 01       		.uleb128 0x1
 4128 03e7 50       		.byte	0x50
 4129 03e8 9F       		.byte	0x9f
 4130 03e9 00000000 		.4byte	0
 4131 03ed 00000000 		.4byte	0
 4132              	.LLST13:
 4133 03f1 54000000 		.4byte	.LVL41
 4134 03f5 6C000000 		.4byte	.LVL43
 4135 03f9 0400     		.2byte	0x4
 4136 03fb 0A       		.byte	0xa
 4137 03fc 0C21     		.2byte	0x210c
 4138 03fe 9F       		.byte	0x9f
 4139 03ff 00000000 		.4byte	0
 4140 0403 00000000 		.4byte	0
 4141              	.LLST14:
 4142 0407 14000000 		.4byte	.LVL39
 4143 040b 68000000 		.4byte	.LVL42
 4144 040f 0100     		.2byte	0x1
 4145 0411 55       		.byte	0x55
 4146 0412 00000000 		.4byte	0
ARM GAS  /tmp/ccZVh2eZ.s 			page 74


 4147 0416 00000000 		.4byte	0
 4148              	.LLST15:
 4149 041a 00000000 		.4byte	.LVL50
 4150 041e 0A000000 		.4byte	.LVL51
 4151 0422 0100     		.2byte	0x1
 4152 0424 50       		.byte	0x50
 4153 0425 0A000000 		.4byte	.LVL51
 4154 0429 0C000000 		.4byte	.LVL52
 4155 042d 0100     		.2byte	0x1
 4156 042f 54       		.byte	0x54
 4157 0430 0C000000 		.4byte	.LVL52
 4158 0434 0F000000 		.4byte	.LVL53-1
 4159 0438 0100     		.2byte	0x1
 4160 043a 50       		.byte	0x50
 4161 043b 0F000000 		.4byte	.LVL53-1
 4162 043f 3C000000 		.4byte	.LFE66
 4163 0443 0100     		.2byte	0x1
 4164 0445 54       		.byte	0x54
 4165 0446 00000000 		.4byte	0
 4166 044a 00000000 		.4byte	0
 4167              	.LLST16:
 4168 044e 00000000 		.4byte	.LVL57
 4169 0452 0E000000 		.4byte	.LVL58
 4170 0456 0100     		.2byte	0x1
 4171 0458 52       		.byte	0x52
 4172 0459 0E000000 		.4byte	.LVL58
 4173 045d 26000000 		.4byte	.LFE67
 4174 0461 0400     		.2byte	0x4
 4175 0463 F3       		.byte	0xf3
 4176 0464 01       		.uleb128 0x1
 4177 0465 52       		.byte	0x52
 4178 0466 9F       		.byte	0x9f
 4179 0467 00000000 		.4byte	0
 4180 046b 00000000 		.4byte	0
 4181              	.LLST17:
 4182 046f 00000000 		.4byte	.LVL59
 4183 0473 20000000 		.4byte	.LVL60
 4184 0477 0100     		.2byte	0x1
 4185 0479 50       		.byte	0x50
 4186 047a 20000000 		.4byte	.LVL60
 4187 047e 22000000 		.4byte	.LFE68
 4188 0482 0400     		.2byte	0x4
 4189 0484 F3       		.byte	0xf3
 4190 0485 01       		.uleb128 0x1
 4191 0486 50       		.byte	0x50
 4192 0487 9F       		.byte	0x9f
 4193 0488 00000000 		.4byte	0
 4194 048c 00000000 		.4byte	0
 4195              	.LLST18:
 4196 0490 00000000 		.4byte	.LVL61
 4197 0494 28000000 		.4byte	.LVL62
 4198 0498 0100     		.2byte	0x1
 4199 049a 52       		.byte	0x52
 4200 049b 28000000 		.4byte	.LVL62
 4201 049f 42000000 		.4byte	.LFE69
 4202 04a3 0400     		.2byte	0x4
 4203 04a5 F3       		.byte	0xf3
ARM GAS  /tmp/ccZVh2eZ.s 			page 75


 4204 04a6 01       		.uleb128 0x1
 4205 04a7 52       		.byte	0x52
 4206 04a8 9F       		.byte	0x9f
 4207 04a9 00000000 		.4byte	0
 4208 04ad 00000000 		.4byte	0
 4209              	.LLST19:
 4210 04b1 00000000 		.4byte	.LVL63
 4211 04b5 25000000 		.4byte	.LVL65-1
 4212 04b9 0100     		.2byte	0x1
 4213 04bb 50       		.byte	0x50
 4214 04bc 25000000 		.4byte	.LVL65-1
 4215 04c0 2A000000 		.4byte	.LFE70
 4216 04c4 0400     		.2byte	0x4
 4217 04c6 F3       		.byte	0xf3
 4218 04c7 01       		.uleb128 0x1
 4219 04c8 50       		.byte	0x50
 4220 04c9 9F       		.byte	0x9f
 4221 04ca 00000000 		.4byte	0
 4222 04ce 00000000 		.4byte	0
 4223              		.section	.debug_aranges,"",%progbits
 4224 0000 74000000 		.4byte	0x74
 4225 0004 0200     		.2byte	0x2
 4226 0006 00000000 		.4byte	.Ldebug_info0
 4227 000a 04       		.byte	0x4
 4228 000b 00       		.byte	0
 4229 000c 0000     		.2byte	0
 4230 000e 0000     		.2byte	0
 4231 0010 00000000 		.4byte	.LFB57
 4232 0014 3C000000 		.4byte	.LFE57-.LFB57
 4233 0018 00000000 		.4byte	.LFB58
 4234 001c 46000000 		.4byte	.LFE58-.LFB58
 4235 0020 00000000 		.4byte	.LFB61
 4236 0024 56000000 		.4byte	.LFE61-.LFB61
 4237 0028 00000000 		.4byte	.LFB60
 4238 002c 60000000 		.4byte	.LFE60-.LFB60
 4239 0030 00000000 		.4byte	.LFB63
 4240 0034 80000000 		.4byte	.LFE63-.LFB63
 4241 0038 00000000 		.4byte	.LFB64
 4242 003c 2C000000 		.4byte	.LFE64-.LFB64
 4243 0040 00000000 		.4byte	.LFB65
 4244 0044 EC000000 		.4byte	.LFE65-.LFB65
 4245 0048 00000000 		.4byte	.LFB66
 4246 004c 3C000000 		.4byte	.LFE66-.LFB66
 4247 0050 00000000 		.4byte	.LFB67
 4248 0054 26000000 		.4byte	.LFE67-.LFB67
 4249 0058 00000000 		.4byte	.LFB68
 4250 005c 22000000 		.4byte	.LFE68-.LFB68
 4251 0060 00000000 		.4byte	.LFB69
 4252 0064 42000000 		.4byte	.LFE69-.LFB69
 4253 0068 00000000 		.4byte	.LFB70
 4254 006c 2A000000 		.4byte	.LFE70-.LFB70
 4255 0070 00000000 		.4byte	0
 4256 0074 00000000 		.4byte	0
 4257              		.section	.debug_ranges,"",%progbits
 4258              	.Ldebug_ranges0:
 4259 0000 1C000000 		.4byte	.LBB4
 4260 0004 4C000000 		.4byte	.LBE4
ARM GAS  /tmp/ccZVh2eZ.s 			page 76


 4261 0008 52000000 		.4byte	.LBB8
 4262 000c 58000000 		.4byte	.LBE8
 4263 0010 5C000000 		.4byte	.LBB9
 4264 0014 60000000 		.4byte	.LBE9
 4265 0018 00000000 		.4byte	0
 4266 001c 00000000 		.4byte	0
 4267 0020 10000000 		.4byte	.LBB21
 4268 0024 64000000 		.4byte	.LBE21
 4269 0028 68000000 		.4byte	.LBB24
 4270 002c 6C000000 		.4byte	.LBE24
 4271 0030 00000000 		.4byte	0
 4272 0034 00000000 		.4byte	0
 4273 0038 00000000 		.4byte	.LFB57
 4274 003c 3C000000 		.4byte	.LFE57
 4275 0040 00000000 		.4byte	.LFB58
 4276 0044 46000000 		.4byte	.LFE58
 4277 0048 00000000 		.4byte	.LFB61
 4278 004c 56000000 		.4byte	.LFE61
 4279 0050 00000000 		.4byte	.LFB60
 4280 0054 60000000 		.4byte	.LFE60
 4281 0058 00000000 		.4byte	.LFB63
 4282 005c 80000000 		.4byte	.LFE63
 4283 0060 00000000 		.4byte	.LFB64
 4284 0064 2C000000 		.4byte	.LFE64
 4285 0068 00000000 		.4byte	.LFB65
 4286 006c EC000000 		.4byte	.LFE65
 4287 0070 00000000 		.4byte	.LFB66
 4288 0074 3C000000 		.4byte	.LFE66
 4289 0078 00000000 		.4byte	.LFB67
 4290 007c 26000000 		.4byte	.LFE67
 4291 0080 00000000 		.4byte	.LFB68
 4292 0084 22000000 		.4byte	.LFE68
 4293 0088 00000000 		.4byte	.LFB69
 4294 008c 42000000 		.4byte	.LFE69
 4295 0090 00000000 		.4byte	.LFB70
 4296 0094 2A000000 		.4byte	.LFE70
 4297 0098 00000000 		.4byte	0
 4298 009c 00000000 		.4byte	0
 4299              		.section	.debug_line,"",%progbits
 4300              	.Ldebug_line0:
 4301 0000 4F030000 		.section	.debug_str,"MS",%progbits,1
 4301      0200BA01 
 4301      00000201 
 4301      FB0E0D00 
 4301      01010101 
 4302              	.LASF96:
 4303 0000 75617274 		.ascii	"uart_lld_start_receive\000"
 4303      5F6C6C64 
 4303      5F737461 
 4303      72745F72 
 4303      65636569 
 4304              	.LASF61:
 4305 0017 75617274 		.ascii	"uartflags_t\000"
 4305      666C6167 
 4305      735F7400 
 4306              	.LASF58:
 4307 0023 55415254 		.ascii	"UART_RX_ACTIVE\000"
ARM GAS  /tmp/ccZVh2eZ.s 			page 77


 4307      5F52585F 
 4307      41435449 
 4307      564500
 4308              	.LASF90:
 4309 0032 75617274 		.ascii	"uart_lld_init\000"
 4309      5F6C6C64 
 4309      5F696E69 
 4309      7400
 4310              	.LASF2:
 4311 0040 73697A65 		.ascii	"size_t\000"
 4311      5F7400
 4312              	.LASF78:
 4313 0047 72786368 		.ascii	"rxchar_cb\000"
 4313      61725F63 
 4313      6200
 4314              	.LASF3:
 4315 0051 5F5F7569 		.ascii	"__uint8_t\000"
 4315      6E74385F 
 4315      7400
 4316              	.LASF105:
 4317 005b 75617274 		.ascii	"uartObjectInit\000"
 4317      4F626A65 
 4317      6374496E 
 4317      697400
 4318              	.LASF71:
 4319 006a 72786275 		.ascii	"rxbuf\000"
 4319      6600
 4320              	.LASF69:
 4321 0070 646D6172 		.ascii	"dmarx\000"
 4321      7800
 4322              	.LASF87:
 4323 0076 75736172 		.ascii	"usart_stop\000"
 4323      745F7374 
 4323      6F7000
 4324              	.LASF13:
 4325 0081 6C6F6E67 		.ascii	"long long unsigned int\000"
 4325      206C6F6E 
 4325      6720756E 
 4325      7369676E 
 4325      65642069 
 4326              	.LASF73:
 4327 0098 75617274 		.ascii	"uartccb_t\000"
 4327      6363625F 
 4327      7400
 4328              	.LASF46:
 4329 00a2 76656374 		.ascii	"vector\000"
 4329      6F7200
 4330              	.LASF101:
 4331 00a9 5F73746D 		.ascii	"_stm32_dma_streams\000"
 4331      33325F64 
 4331      6D615F73 
 4331      74726561 
 4331      6D7300
 4332              	.LASF81:
 4333 00bc 55415254 		.ascii	"UARTConfig\000"
 4333      436F6E66 
 4333      696700
ARM GAS  /tmp/ccZVh2eZ.s 			page 78


 4334              	.LASF100:
 4335 00c7 49544D5F 		.ascii	"ITM_RxBuffer\000"
 4335      52784275 
 4335      66666572 
 4335      00
 4336              	.LASF18:
 4337 00d4 626F6F6C 		.ascii	"bool_t\000"
 4337      5F7400
 4338              	.LASF106:
 4339 00db 6E766963 		.ascii	"nvicEnableVector\000"
 4339      456E6162 
 4339      6C655665 
 4339      63746F72 
 4339      00
 4340              	.LASF98:
 4341 00ec 75617274 		.ascii	"uart_lld_stop_receive\000"
 4341      5F6C6C64 
 4341      5F73746F 
 4341      705F7265 
 4341      63656976 
 4342              	.LASF12:
 4343 0102 6C6F6E67 		.ascii	"long long int\000"
 4343      206C6F6E 
 4343      6720696E 
 4343      7400
 4344              	.LASF1:
 4345 0110 7369676E 		.ascii	"signed char\000"
 4345      65642063 
 4345      68617200 
 4346              	.LASF72:
 4347 011c 75617274 		.ascii	"uartcb_t\000"
 4347      63625F74 
 4347      00
 4348              	.LASF39:
 4349 0125 47545052 		.ascii	"GTPR\000"
 4349      00
 4350              	.LASF65:
 4351 012a 72787374 		.ascii	"rxstate\000"
 4351      61746500 
 4352              	.LASF48:
 4353 0132 73746D33 		.ascii	"stm32_dmaisr_t\000"
 4353      325F646D 
 4353      61697372 
 4353      5F7400
 4354              	.LASF63:
 4355 0141 73746174 		.ascii	"state\000"
 4355      6500
 4356              	.LASF64:
 4357 0147 74787374 		.ascii	"txstate\000"
 4357      61746500 
 4358              	.LASF9:
 4359 014f 6C6F6E67 		.ascii	"long int\000"
 4359      20696E74 
 4359      00
 4360              	.LASF26:
 4361 0158 41504232 		.ascii	"APB2RSTR\000"
 4361      52535452 
ARM GAS  /tmp/ccZVh2eZ.s 			page 79


 4361      00
 4362              	.LASF15:
 4363 0161 75696E74 		.ascii	"uint16_t\000"
 4363      31365F74 
 4363      00
 4364              	.LASF103:
 4365 016a 706F7274 		.ascii	"port_halt\000"
 4365      5F68616C 
 4365      7400
 4366              	.LASF60:
 4367 0174 75617274 		.ascii	"uartrxstate_t\000"
 4367      72787374 
 4367      6174655F 
 4367      7400
 4368              	.LASF92:
 4369 0182 75617274 		.ascii	"uart_lld_start\000"
 4369      5F6C6C64 
 4369      5F737461 
 4369      727400
 4370              	.LASF62:
 4371 0191 55415254 		.ascii	"UARTDriver\000"
 4371      44726976 
 4371      657200
 4372              	.LASF10:
 4373 019c 5F5F7569 		.ascii	"__uint32_t\000"
 4373      6E743332 
 4373      5F7400
 4374              	.LASF45:
 4375 01a7 73656C66 		.ascii	"selfindex\000"
 4375      696E6465 
 4375      7800
 4376              	.LASF86:
 4377 01b1 7365745F 		.ascii	"set_rx_idle_loop\000"
 4377      72785F69 
 4377      646C655F 
 4377      6C6F6F70 
 4377      00
 4378              	.LASF51:
 4379 01c2 55415254 		.ascii	"UART_READY\000"
 4379      5F524541 
 4379      445900
 4380              	.LASF54:
 4381 01cd 55415254 		.ascii	"UART_TX_ACTIVE\000"
 4381      5F54585F 
 4381      41435449 
 4381      564500
 4382              	.LASF67:
 4383 01dc 75736172 		.ascii	"usart\000"
 4383      7400
 4384              	.LASF0:
 4385 01e2 756E7369 		.ascii	"unsigned int\000"
 4385      676E6564 
 4385      20696E74 
 4385      00
 4386              	.LASF95:
 4387 01ef 74786275 		.ascii	"txbuf\000"
 4387      6600
ARM GAS  /tmp/ccZVh2eZ.s 			page 80


 4388              	.LASF110:
 4389 01f5 2F686F6D 		.ascii	"/home/dltech-deb/gdrive/Projects/RFM_to_Modbus_TCP/"
 4389      652F646C 
 4389      74656368 
 4389      2D646562 
 4389      2F676472 
 4390 0228 43686962 		.ascii	"ChibiOS/F103_ChibiOS_ENC60J28/main\000"
 4390      694F532F 
 4390      46313033 
 4390      5F436869 
 4390      62694F53 
 4391              	.LASF22:
 4392 024b 43504152 		.ascii	"CPAR\000"
 4392      00
 4393              	.LASF97:
 4394 0250 75617274 		.ascii	"uart_lld_stop_send\000"
 4394      5F6C6C64 
 4394      5F73746F 
 4394      705F7365 
 4394      6E6400
 4395              	.LASF11:
 4396 0263 6C6F6E67 		.ascii	"long unsigned int\000"
 4396      20756E73 
 4396      69676E65 
 4396      6420696E 
 4396      7400
 4397              	.LASF74:
 4398 0275 75617274 		.ascii	"uartecb_t\000"
 4398      6563625F 
 4398      7400
 4399              	.LASF32:
 4400 027f 5243435F 		.ascii	"RCC_TypeDef\000"
 4400      54797065 
 4400      44656600 
 4401              	.LASF24:
 4402 028b 444D415F 		.ascii	"DMA_Channel_TypeDef\000"
 4402      4368616E 
 4402      6E656C5F 
 4402      54797065 
 4402      44656600 
 4403              	.LASF44:
 4404 029f 69736869 		.ascii	"ishift\000"
 4404      667400
 4405              	.LASF7:
 4406 02a6 73686F72 		.ascii	"short unsigned int\000"
 4406      7420756E 
 4406      7369676E 
 4406      65642069 
 4406      6E7400
 4407              	.LASF49:
 4408 02b9 55415254 		.ascii	"UART_UNINIT\000"
 4408      5F554E49 
 4408      4E495400 
 4409              	.LASF50:
 4410 02c5 55415254 		.ascii	"UART_STOP\000"
 4410      5F53544F 
 4410      5000
ARM GAS  /tmp/ccZVh2eZ.s 			page 81


 4411              	.LASF104:
 4412 02cf 5F706F72 		.ascii	"_port_irq_epilogue\000"
 4412      745F6972 
 4412      715F6570 
 4412      696C6F67 
 4412      756500
 4413              	.LASF41:
 4414 02e2 55534152 		.ascii	"USART_TypeDef\000"
 4414      545F5479 
 4414      70654465 
 4414      6600
 4415              	.LASF89:
 4416 02f0 56656374 		.ascii	"VectorD8\000"
 4416      6F724438 
 4416      00
 4417              	.LASF23:
 4418 02f9 434D4152 		.ascii	"CMAR\000"
 4418      00
 4419              	.LASF85:
 4420 02fe 73657276 		.ascii	"serve_usart_irq\000"
 4420      655F7573 
 4420      6172745F 
 4420      69727100 
 4421              	.LASF102:
 4422 030e 55415254 		.ascii	"UARTD2\000"
 4422      443200
 4423              	.LASF82:
 4424 0315 75617274 		.ascii	"uartp\000"
 4424      7000
 4425              	.LASF20:
 4426 031b 73697A65 		.ascii	"sizetype\000"
 4426      74797065 
 4426      00
 4427              	.LASF111:
 4428 0324 7472616E 		.ascii	"translate_errors\000"
 4428      736C6174 
 4428      655F6572 
 4428      726F7273 
 4428      00
 4429              	.LASF59:
 4430 0335 55415254 		.ascii	"UART_RX_COMPLETE\000"
 4430      5F52585F 
 4430      434F4D50 
 4430      4C455445 
 4430      00
 4431              	.LASF79:
 4432 0346 72786572 		.ascii	"rxerr_cb\000"
 4432      725F6362 
 4432      00
 4433              	.LASF88:
 4434 034f 75617274 		.ascii	"uart_lld_serve_tx_end_irq\000"
 4434      5F6C6C64 
 4434      5F736572 
 4434      76655F74 
 4434      785F656E 
 4435              	.LASF77:
 4436 0369 7278656E 		.ascii	"rxend_cb\000"
ARM GAS  /tmp/ccZVh2eZ.s 			page 82


 4436      645F6362 
 4436      00
 4437              	.LASF56:
 4438 0372 75617274 		.ascii	"uarttxstate_t\000"
 4438      74787374 
 4438      6174655F 
 4438      7400
 4439              	.LASF27:
 4440 0380 41504231 		.ascii	"APB1RSTR\000"
 4440      52535452 
 4440      00
 4441              	.LASF70:
 4442 0389 646D6174 		.ascii	"dmatx\000"
 4442      7800
 4443              	.LASF33:
 4444 038f 52455345 		.ascii	"RESERVED0\000"
 4444      52564544 
 4444      3000
 4445              	.LASF34:
 4446 0399 52455345 		.ascii	"RESERVED1\000"
 4446      52564544 
 4446      3100
 4447              	.LASF35:
 4448 03a3 52455345 		.ascii	"RESERVED2\000"
 4448      52564544 
 4448      3200
 4449              	.LASF36:
 4450 03ad 52455345 		.ascii	"RESERVED3\000"
 4450      52564544 
 4450      3300
 4451              	.LASF37:
 4452 03b7 52455345 		.ascii	"RESERVED4\000"
 4452      52564544 
 4452      3400
 4453              	.LASF38:
 4454 03c1 52455345 		.ascii	"RESERVED5\000"
 4454      52564544 
 4454      3500
 4455              	.LASF40:
 4456 03cb 52455345 		.ascii	"RESERVED6\000"
 4456      52564544 
 4456      3600
 4457              	.LASF47:
 4458 03d5 73746D33 		.ascii	"stm32_dma_stream_t\000"
 4458      325F646D 
 4458      615F7374 
 4458      7265616D 
 4458      5F7400
 4459              	.LASF76:
 4460 03e8 7478656E 		.ascii	"txend2_cb\000"
 4460      64325F63 
 4460      6200
 4461              	.LASF108:
 4462 03f2 474E5520 		.ascii	"GNU C 4.8.4 20141219 (release) -mcpu=cortex-m3 -mno"
 4462      4320342E 
 4462      382E3420 
 4462      32303134 
ARM GAS  /tmp/ccZVh2eZ.s 			page 83


 4462      31323139 
 4463 0425 2D746875 		.ascii	"-thumb-interwork -mthumb -ggdb -O2 -fomit-frame-poi"
 4463      6D622D69 
 4463      6E746572 
 4463      776F726B 
 4463      202D6D74 
 4464 0458 6E746572 		.ascii	"nter -falign-functions=16 -ffunction-sections -fdat"
 4464      202D6661 
 4464      6C69676E 
 4464      2D66756E 
 4464      6374696F 
 4465 048b 612D7365 		.ascii	"a-sections -fno-common -fno-strict-aliasing\000"
 4465      6374696F 
 4465      6E73202D 
 4465      666E6F2D 
 4465      636F6D6D 
 4466              	.LASF19:
 4467 04b7 5F426F6F 		.ascii	"_Bool\000"
 4467      6C00
 4468              	.LASF16:
 4469 04bd 696E7433 		.ascii	"int32_t\000"
 4469      325F7400 
 4470              	.LASF4:
 4471 04c5 756E7369 		.ascii	"unsigned char\000"
 4471      676E6564 
 4471      20636861 
 4471      7200
 4472              	.LASF5:
 4473 04d3 73686F72 		.ascii	"short int\000"
 4473      7420696E 
 4473      7400
 4474              	.LASF52:
 4475 04dd 75617274 		.ascii	"uartstate_t\000"
 4475      73746174 
 4475      655F7400 
 4476              	.LASF29:
 4477 04e9 41504232 		.ascii	"APB2ENR\000"
 4477      454E5200 
 4478              	.LASF42:
 4479 04f1 6368616E 		.ascii	"channel\000"
 4479      6E656C00 
 4480              	.LASF43:
 4481 04f9 69666372 		.ascii	"ifcr\000"
 4481      00
 4482              	.LASF17:
 4483 04fe 75696E74 		.ascii	"uint32_t\000"
 4483      33325F74 
 4483      00
 4484              	.LASF113:
 4485 0507 6E766963 		.ascii	"nvicDisableVector\000"
 4485      44697361 
 4485      626C6556 
 4485      6563746F 
 4485      7200
 4486              	.LASF109:
 4487 0519 2E2E2F6F 		.ascii	"../os/hal/platforms/STM32/USARTv1/uart_lld.c\000"
 4487      732F6861 
ARM GAS  /tmp/ccZVh2eZ.s 			page 84


 4487      6C2F706C 
 4487      6174666F 
 4487      726D732F 
 4488              	.LASF107:
 4489 0546 646D6153 		.ascii	"dmaStreamRelease\000"
 4489      74726561 
 4489      6D52656C 
 4489      65617365 
 4489      00
 4490              	.LASF99:
 4491 0557 6D6F6465 		.ascii	"mode\000"
 4491      00
 4492              	.LASF66:
 4493 055c 636F6E66 		.ascii	"config\000"
 4493      696700
 4494              	.LASF57:
 4495 0563 55415254 		.ascii	"UART_RX_IDLE\000"
 4495      5F52585F 
 4495      49444C45 
 4495      00
 4496              	.LASF6:
 4497 0570 5F5F7569 		.ascii	"__uint16_t\000"
 4497      6E743136 
 4497      5F7400
 4498              	.LASF75:
 4499 057b 7478656E 		.ascii	"txend1_cb\000"
 4499      64315F63 
 4499      6200
 4500              	.LASF8:
 4501 0585 5F5F696E 		.ascii	"__int32_t\000"
 4501      7433325F 
 4501      7400
 4502              	.LASF53:
 4503 058f 55415254 		.ascii	"UART_TX_IDLE\000"
 4503      5F54585F 
 4503      49444C45 
 4503      00
 4504              	.LASF30:
 4505 059c 41504231 		.ascii	"APB1ENR\000"
 4505      454E5200 
 4506              	.LASF84:
 4507 05a4 75617274 		.ascii	"uart_lld_serve_rx_end_irq\000"
 4507      5F6C6C64 
 4507      5F736572 
 4507      76655F72 
 4507      785F656E 
 4508              	.LASF21:
 4509 05be 434E4454 		.ascii	"CNDTR\000"
 4509      5200
 4510              	.LASF31:
 4511 05c4 42444352 		.ascii	"BDCR\000"
 4511      00
 4512              	.LASF14:
 4513 05c9 75696E74 		.ascii	"uint8_t\000"
 4513      385F7400 
 4514              	.LASF91:
 4515 05d1 75736172 		.ascii	"usart_start\000"
ARM GAS  /tmp/ccZVh2eZ.s 			page 85


 4515      745F7374 
 4515      61727400 
 4516              	.LASF83:
 4517 05dd 666C6167 		.ascii	"flags\000"
 4517      7300
 4518              	.LASF68:
 4519 05e3 646D616D 		.ascii	"dmamode\000"
 4519      6F646500 
 4520              	.LASF80:
 4521 05eb 73706565 		.ascii	"speed\000"
 4521      6400
 4522              	.LASF25:
 4523 05f1 43464752 		.ascii	"CFGR\000"
 4523      00
 4524              	.LASF94:
 4525 05f6 75617274 		.ascii	"uart_lld_start_send\000"
 4525      5F6C6C64 
 4525      5F737461 
 4525      72745F73 
 4525      656E6400 
 4526              	.LASF93:
 4527 060a 75617274 		.ascii	"uart_lld_stop\000"
 4527      5F6C6C64 
 4527      5F73746F 
 4527      7000
 4528              	.LASF112:
 4529 0618 646D6153 		.ascii	"dmaStreamAllocate\000"
 4529      74726561 
 4529      6D416C6C 
 4529      6F636174 
 4529      6500
 4530              	.LASF28:
 4531 062a 41484245 		.ascii	"AHBENR\000"
 4531      4E5200
 4532              	.LASF55:
 4533 0631 55415254 		.ascii	"UART_TX_COMPLETE\000"
 4533      5F54585F 
 4533      434F4D50 
 4533      4C455445 
 4533      00
 4534              		.ident	"GCC: (4.8.4-1+11-1) 4.8.4 20141219 (release)"
ARM GAS  /tmp/ccZVh2eZ.s 			page 86


DEFINED SYMBOLS
                            *ABS*:0000000000000000 uart_lld.c
     /tmp/ccZVh2eZ.s:19     .text.set_rx_idle_loop:0000000000000000 $t
     /tmp/ccZVh2eZ.s:24     .text.set_rx_idle_loop:0000000000000000 set_rx_idle_loop
     /tmp/ccZVh2eZ.s:80     .text.usart_stop:0000000000000000 $t
     /tmp/ccZVh2eZ.s:85     .text.usart_stop:0000000000000000 usart_stop
     /tmp/ccZVh2eZ.s:138    .text.uart_lld_serve_tx_end_irq:0000000000000000 $t
     /tmp/ccZVh2eZ.s:143    .text.uart_lld_serve_tx_end_irq:0000000000000000 uart_lld_serve_tx_end_irq
     /tmp/ccZVh2eZ.s:218    .text.uart_lld_serve_rx_end_irq:0000000000000000 $t
     /tmp/ccZVh2eZ.s:223    .text.uart_lld_serve_rx_end_irq:0000000000000000 uart_lld_serve_rx_end_irq
     /tmp/ccZVh2eZ.s:327    .text.VectorD8:0000000000000000 $t
     /tmp/ccZVh2eZ.s:333    .text.VectorD8:0000000000000000 VectorD8
     /tmp/ccZVh2eZ.s:455    .text.VectorD8:000000000000007c $d
     /tmp/ccZVh2eZ.s:460    .text.uart_lld_init:0000000000000000 $t
     /tmp/ccZVh2eZ.s:466    .text.uart_lld_init:0000000000000000 uart_lld_init
     /tmp/ccZVh2eZ.s:501    .text.uart_lld_init:0000000000000020 $d
     /tmp/ccZVh2eZ.s:508    .text.uart_lld_start:0000000000000000 $t
     /tmp/ccZVh2eZ.s:514    .text.uart_lld_start:0000000000000000 uart_lld_start
     /tmp/ccZVh2eZ.s:684    .text.uart_lld_start:00000000000000d0 $d
     /tmp/ccZVh2eZ.s:696    .text.uart_lld_stop:0000000000000000 $t
     /tmp/ccZVh2eZ.s:702    .text.uart_lld_stop:0000000000000000 uart_lld_stop
     /tmp/ccZVh2eZ.s:754    .text.uart_lld_stop:0000000000000034 $d
     /tmp/ccZVh2eZ.s:760    .text.uart_lld_start_send:0000000000000000 $t
     /tmp/ccZVh2eZ.s:766    .text.uart_lld_start_send:0000000000000000 uart_lld_start_send
     /tmp/ccZVh2eZ.s:800    .text.uart_lld_stop_send:0000000000000000 $t
     /tmp/ccZVh2eZ.s:806    .text.uart_lld_stop_send:0000000000000000 uart_lld_stop_send
     /tmp/ccZVh2eZ.s:837    .text.uart_lld_start_receive:0000000000000000 $t
     /tmp/ccZVh2eZ.s:843    .text.uart_lld_start_receive:0000000000000000 uart_lld_start_receive
     /tmp/ccZVh2eZ.s:895    .text.uart_lld_stop_receive:0000000000000000 $t
     /tmp/ccZVh2eZ.s:901    .text.uart_lld_stop_receive:0000000000000000 uart_lld_stop_receive
     /tmp/ccZVh2eZ.s:944    .bss.UARTD2:0000000000000000 UARTD2
     /tmp/ccZVh2eZ.s:940    .bss.UARTD2:0000000000000000 $d
                     .debug_frame:0000000000000010 $d
     /tmp/ccZVh2eZ.s:507    .text.uart_lld_init:000000000000002c $t
     /tmp/ccZVh2eZ.s:695    .text.uart_lld_start:00000000000000ec $t
     /tmp/ccZVh2eZ.s:759    .text.uart_lld_stop:000000000000003c $t

UNDEFINED SYMBOLS
port_halt
_port_irq_epilogue
uartObjectInit
_stm32_dma_streams
dmaStreamAllocate
nvicEnableVector
dmaStreamRelease
nvicDisableVector
