ARM GAS  /tmp/cc7TW52V.s 			page 1


   1              		.syntax unified
   2              		.cpu cortex-m3
   3              		.fpu softvfp
   4              		.eabi_attribute 20, 1
   5              		.eabi_attribute 21, 1
   6              		.eabi_attribute 23, 3
   7              		.eabi_attribute 24, 1
   8              		.eabi_attribute 25, 1
   9              		.eabi_attribute 26, 1
  10              		.eabi_attribute 30, 2
  11              		.eabi_attribute 34, 1
  12              		.eabi_attribute 18, 4
  13              		.thumb
  14              		.file	"uip.c"
  15              		.text
  16              	.Ltext0:
  17              		.cfi_sections	.debug_frame
  18              		.section	.text.chksum,"ax",%progbits
  19              		.align	2
  20              		.p2align 4,,15
  21              		.thumb
  22              		.thumb_func
  23              		.type	chksum, %function
  24              	chksum:
  25              	.LFB2:
  26              		.file 1 "../uip/uip.c"
  27              		.loc 1 281 0
  28              		.cfi_startproc
  29              		@ args = 0, pretend = 0, frame = 0
  30              		@ frame_needed = 0, uses_anonymous_args = 0
  31              		@ link register save eliminated.
  32              	.LVL0:
  33              		.loc 1 287 0
  34 0000 013A     		subs	r2, r2, #1
  35              	.LVL1:
  36              		.loc 1 281 0
  37 0002 30B4     		push	{r4, r5}
  38              		.cfi_def_cfa_offset 8
  39              		.cfi_offset 4, -8
  40              		.cfi_offset 5, -4
  41              		.loc 1 287 0
  42 0004 8D18     		adds	r5, r1, r2
  43              	.LVL2:
  44              		.loc 1 289 0
  45 0006 A942     		cmp	r1, r5
  46 0008 14D2     		bcs	.L2
  47 000a 0B46     		mov	r3, r1
  48              	.LVL3:
  49              	.L5:
  50              		.loc 1 290 0
  51 000c 1C78     		ldrb	r4, [r3]	@ zero_extendqisi2
  52 000e 5A78     		ldrb	r2, [r3, #1]	@ zero_extendqisi2
  53              		.loc 1 295 0
  54 0010 0233     		adds	r3, r3, #2
  55              	.LVL4:
  56              		.loc 1 290 0
  57 0012 02EB0422 		add	r2, r2, r4, lsl #8
ARM GAS  /tmp/cc7TW52V.s 			page 2


  58 0016 92B2     		uxth	r2, r2
  59              	.LVL5:
  60              		.loc 1 291 0
  61 0018 1044     		add	r0, r0, r2
  62              	.LVL6:
  63 001a 80B2     		uxth	r0, r0
  64              	.LVL7:
  65              		.loc 1 292 0
  66 001c 8242     		cmp	r2, r0
  67              		.loc 1 293 0
  68 001e 84BF     		itt	hi
  69 0020 0130     		addhi	r0, r0, #1
  70              	.LVL8:
  71 0022 80B2     		uxthhi	r0, r0
  72              	.LVL9:
  73              		.loc 1 289 0
  74 0024 9D42     		cmp	r5, r3
  75 0026 F1D8     		bhi	.L5
  76 0028 CB43     		mvns	r3, r1
  77              	.LVL10:
  78 002a 2B44     		add	r3, r3, r5
  79 002c 23F00103 		bic	r3, r3, #1
  80 0030 0233     		adds	r3, r3, #2
  81 0032 1944     		add	r1, r1, r3
  82              	.LVL11:
  83              	.L2:
  84              		.loc 1 298 0
  85 0034 A942     		cmp	r1, r5
  86 0036 01D0     		beq	.L8
  87              	.LVL12:
  88              		.loc 1 308 0
  89 0038 30BC     		pop	{r4, r5}
  90              	.LVL13:
  91 003a 7047     		bx	lr
  92              	.LVL14:
  93              	.L8:
  94              		.loc 1 299 0
  95 003c 0B78     		ldrb	r3, [r1]	@ zero_extendqisi2
  96              		.loc 1 308 0
  97 003e 30BC     		pop	{r4, r5}
  98              	.LVL15:
  99              		.loc 1 299 0
 100 0040 1B02     		lsls	r3, r3, #8
 101              	.LVL16:
 102              		.loc 1 300 0
 103 0042 1844     		add	r0, r0, r3
 104 0044 80B2     		uxth	r0, r0
 105              	.LVL17:
 106              		.loc 1 301 0
 107 0046 8342     		cmp	r3, r0
 108              		.loc 1 302 0
 109 0048 84BF     		itt	hi
 110 004a 0130     		addhi	r0, r0, #1
 111              	.LVL18:
 112 004c 80B2     		uxthhi	r0, r0
 113              	.LVL19:
 114              		.loc 1 308 0
ARM GAS  /tmp/cc7TW52V.s 			page 3


 115 004e 7047     		bx	lr
 116              		.cfi_endproc
 117              	.LFE2:
 118              		.size	chksum, .-chksum
 119              		.section	.text.upper_layer_chksum,"ax",%progbits
 120              		.align	2
 121              		.p2align 4,,15
 122              		.thumb
 123              		.thumb_func
 124              		.type	upper_layer_chksum, %function
 125              	upper_layer_chksum:
 126              	.LFB5:
 127              		.loc 1 330 0
 128              		.cfi_startproc
 129              		@ args = 0, pretend = 0, frame = 0
 130              		@ frame_needed = 0, uses_anonymous_args = 0
 131              	.LVL20:
 132 0000 38B5     		push	{r3, r4, r5, lr}
 133              		.cfi_def_cfa_offset 16
 134              		.cfi_offset 3, -16
 135              		.cfi_offset 4, -12
 136              		.cfi_offset 5, -8
 137              		.cfi_offset 14, -4
 138              		.loc 1 337 0
 139 0002 0D4C     		ldr	r4, .L13
 140              		.loc 1 345 0
 141 0004 0822     		movs	r2, #8
 142              		.loc 1 337 0
 143 0006 657C     		ldrb	r5, [r4, #17]	@ zero_extendqisi2
 144 0008 237C     		ldrb	r3, [r4, #16]	@ zero_extendqisi2
 145 000a 143D     		subs	r5, r5, #20
 146 000c 05EB0325 		add	r5, r5, r3, lsl #8
 147 0010 ADB2     		uxth	r5, r5
 148              	.LVL21:
 149              		.loc 1 343 0
 150 0012 2844     		add	r0, r0, r5
 151              	.LVL22:
 152              		.loc 1 345 0
 153 0014 04F11A01 		add	r1, r4, #26
 154 0018 80B2     		uxth	r0, r0
 155              	.LVL23:
 156 001a FFF7FEFF 		bl	chksum
 157              	.LVL24:
 158              		.loc 1 348 0
 159 001e 2A46     		mov	r2, r5
 160 0020 04F12201 		add	r1, r4, #34
 161 0024 FFF7FEFF 		bl	chksum
 162              	.LVL25:
 163              		.loc 1 351 0
 164 0028 10B9     		cbnz	r0, .L12
 165 002a 4FF6FF70 		movw	r0, #65535
 166              	.LVL26:
 167              		.loc 1 352 0
 168 002e 38BD     		pop	{r3, r4, r5, pc}
 169              	.LVL27:
 170              	.L12:
 171 0030 40BA     		rev16	r0, r0
ARM GAS  /tmp/cc7TW52V.s 			page 4


 172              	.LVL28:
 173 0032 80B2     		uxth	r0, r0
 174 0034 38BD     		pop	{r3, r4, r5, pc}
 175              	.LVL29:
 176              	.L14:
 177 0036 00BF     		.align	2
 178              	.L13:
 179 0038 00000000 		.word	.LANCHOR0
 180              		.cfi_endproc
 181              	.LFE5:
 182              		.size	upper_layer_chksum, .-upper_layer_chksum
 183 003c AFF30080 		.section	.text.uip_setipid,"ax",%progbits
 184              		.align	2
 185              		.p2align 4,,15
 186              		.global	uip_setipid
 187              		.thumb
 188              		.thumb_func
 189              		.type	uip_setipid, %function
 190              	uip_setipid:
 191              	.LFB0:
 192              		.loc 1 181 0
 193              		.cfi_startproc
 194              		@ args = 0, pretend = 0, frame = 0
 195              		@ frame_needed = 0, uses_anonymous_args = 0
 196              		@ link register save eliminated.
 197              	.LVL30:
 198              		.loc 1 181 0
 199 0000 014B     		ldr	r3, .L16
 200 0002 1880     		strh	r0, [r3]	@ movhi
 201 0004 7047     		bx	lr
 202              	.L17:
 203 0006 00BF     		.align	2
 204              	.L16:
 205 0008 00000000 		.word	.LANCHOR1
 206              		.cfi_endproc
 207              	.LFE0:
 208              		.size	uip_setipid, .-uip_setipid
 209 000c AFF30080 		.section	.text.uip_add32,"ax",%progbits
 210              		.align	2
 211              		.p2align 4,,15
 212              		.global	uip_add32
 213              		.thumb
 214              		.thumb_func
 215              		.type	uip_add32, %function
 216              	uip_add32:
 217              	.LFB1:
 218              		.loc 1 250 0
 219              		.cfi_startproc
 220              		@ args = 0, pretend = 0, frame = 0
 221              		@ frame_needed = 0, uses_anonymous_args = 0
 222              		@ link register save eliminated.
 223              	.LVL31:
 224 0000 70B4     		push	{r4, r5, r6}
 225              		.cfi_def_cfa_offset 12
 226              		.cfi_offset 4, -12
 227              		.cfi_offset 5, -8
 228              		.cfi_offset 6, -4
ARM GAS  /tmp/cc7TW52V.s 			page 5


 229              		.loc 1 251 0
 230 0002 C478     		ldrb	r4, [r0, #3]	@ zero_extendqisi2
 231 0004 134B     		ldr	r3, .L26
 232 0006 0C44     		add	r4, r4, r1
 233 0008 E4B2     		uxtb	r4, r4
 234 000a DC70     		strb	r4, [r3, #3]
 235              		.loc 1 252 0
 236 000c 8278     		ldrb	r2, [r0, #2]	@ zero_extendqisi2
 237 000e 0D0A     		lsrs	r5, r1, #8
 238 0010 2A44     		add	r2, r2, r5
 239 0012 D2B2     		uxtb	r2, r2
 240 0014 9A70     		strb	r2, [r3, #2]
 241              		.loc 1 253 0
 242 0016 4678     		ldrb	r6, [r0, #1]	@ zero_extendqisi2
 243              		.loc 1 256 0
 244 0018 9542     		cmp	r5, r2
 245              		.loc 1 253 0
 246 001a 5E70     		strb	r6, [r3, #1]
 247              		.loc 1 254 0
 248 001c 0078     		ldrb	r0, [r0]	@ zero_extendqisi2
 249              	.LVL32:
 250 001e 1870     		strb	r0, [r3]
 251              		.loc 1 256 0
 252 0020 03D9     		bls	.L20
 253              		.loc 1 257 0
 254 0022 0136     		adds	r6, r6, #1
 255 0024 F6B2     		uxtb	r6, r6
 256 0026 5E70     		strb	r6, [r3, #1]
 257              		.loc 1 258 0
 258 0028 8EB1     		cbz	r6, .L25
 259              	.L20:
 260              		.loc 1 264 0
 261 002a C9B2     		uxtb	r1, r1
 262              	.LVL33:
 263 002c 8C42     		cmp	r4, r1
 264 002e 0CDA     		bge	.L18
 265              		.loc 1 265 0
 266 0030 0132     		adds	r2, r2, #1
 267 0032 D2B2     		uxtb	r2, r2
 268 0034 9A70     		strb	r2, [r3, #2]
 269 0036 074B     		ldr	r3, .L26
 270              		.loc 1 266 0
 271 0038 3AB9     		cbnz	r2, .L18
 272              		.loc 1 267 0
 273 003a 5A78     		ldrb	r2, [r3, #1]	@ zero_extendqisi2
 274 003c 0132     		adds	r2, r2, #1
 275 003e D2B2     		uxtb	r2, r2
 276 0040 5A70     		strb	r2, [r3, #1]
 277              		.loc 1 268 0
 278 0042 12B9     		cbnz	r2, .L18
 279              	.LVL34:
 280              	.LBB19:
 281              	.LBB20:
 282              		.loc 1 269 0
 283 0044 1A78     		ldrb	r2, [r3]	@ zero_extendqisi2
 284 0046 0132     		adds	r2, r2, #1
 285 0048 1A70     		strb	r2, [r3]
ARM GAS  /tmp/cc7TW52V.s 			page 6


 286              	.LVL35:
 287              	.L18:
 288              	.LBE20:
 289              	.LBE19:
 290              		.loc 1 273 0
 291 004a 70BC     		pop	{r4, r5, r6}
 292 004c 7047     		bx	lr
 293              	.LVL36:
 294              	.L25:
 295              		.loc 1 259 0
 296 004e 0130     		adds	r0, r0, #1
 297 0050 1870     		strb	r0, [r3]
 298 0052 EAE7     		b	.L20
 299              	.L27:
 300              		.align	2
 301              	.L26:
 302 0054 00000000 		.word	.LANCHOR2
 303              		.cfi_endproc
 304              	.LFE1:
 305              		.size	uip_add32, .-uip_add32
 306 0058 AFF30080 		.section	.text.unlikely.uip_add_rcv_nxt,"ax",%progbits
 306      AFF30080 
 307              		.align	2
 308              		.thumb
 309              		.thumb_func
 310              		.type	uip_add_rcv_nxt, %function
 311              	uip_add_rcv_nxt:
 312              	.LFB12:
 313              		.loc 1 672 0
 314              		.cfi_startproc
 315              		@ args = 0, pretend = 0, frame = 0
 316              		@ frame_needed = 0, uses_anonymous_args = 0
 317              	.LVL37:
 318 0000 10B5     		push	{r4, lr}
 319              		.cfi_def_cfa_offset 8
 320              		.cfi_offset 4, -8
 321              		.cfi_offset 14, -4
 322              		.loc 1 673 0
 323 0002 084C     		ldr	r4, .L29
 324              		.loc 1 672 0
 325 0004 0146     		mov	r1, r0
 326              		.loc 1 673 0
 327 0006 2068     		ldr	r0, [r4]
 328              	.LVL38:
 329 0008 0830     		adds	r0, r0, #8
 330 000a FFF7FEFF 		bl	uip_add32
 331              	.LVL39:
 332              		.loc 1 674 0
 333 000e 064A     		ldr	r2, .L29+4
 334 0010 2368     		ldr	r3, [r4]
 335              		.loc 1 675 0
 336 0012 5078     		ldrb	r0, [r2, #1]	@ zero_extendqisi2
 337              		.loc 1 674 0
 338 0014 1478     		ldrb	r4, [r2]	@ zero_extendqisi2
 339              		.loc 1 676 0
 340 0016 9178     		ldrb	r1, [r2, #2]	@ zero_extendqisi2
 341              		.loc 1 677 0
ARM GAS  /tmp/cc7TW52V.s 			page 7


 342 0018 D278     		ldrb	r2, [r2, #3]	@ zero_extendqisi2
 343              		.loc 1 674 0
 344 001a 1C72     		strb	r4, [r3, #8]
 345              		.loc 1 675 0
 346 001c 5872     		strb	r0, [r3, #9]
 347              		.loc 1 676 0
 348 001e 9972     		strb	r1, [r3, #10]
 349              		.loc 1 677 0
 350 0020 DA72     		strb	r2, [r3, #11]
 351 0022 10BD     		pop	{r4, pc}
 352              	.L30:
 353              		.align	2
 354              	.L29:
 355 0024 00000000 		.word	.LANCHOR3
 356 0028 00000000 		.word	.LANCHOR2
 357              		.cfi_endproc
 358              	.LFE12:
 359              		.size	uip_add_rcv_nxt, .-uip_add_rcv_nxt
 360              		.section	.text.uip_chksum,"ax",%progbits
 361              		.align	2
 362              		.p2align 4,,15
 363              		.global	uip_chksum
 364              		.thumb
 365              		.thumb_func
 366              		.type	uip_chksum, %function
 367              	uip_chksum:
 368              	.LFB3:
 369              		.loc 1 312 0
 370              		.cfi_startproc
 371              		@ args = 0, pretend = 0, frame = 0
 372              		@ frame_needed = 0, uses_anonymous_args = 0
 373              	.LVL40:
 374 0000 0A46     		mov	r2, r1
 375 0002 08B5     		push	{r3, lr}
 376              		.cfi_def_cfa_offset 8
 377              		.cfi_offset 3, -8
 378              		.cfi_offset 14, -4
 379              		.loc 1 313 0
 380 0004 0146     		mov	r1, r0
 381              	.LVL41:
 382 0006 0020     		movs	r0, #0
 383              	.LVL42:
 384 0008 FFF7FEFF 		bl	chksum
 385              	.LVL43:
 386 000c 40BA     		rev16	r0, r0
 387              	.LVL44:
 388              		.loc 1 314 0
 389 000e 80B2     		uxth	r0, r0
 390 0010 08BD     		pop	{r3, pc}
 391              		.cfi_endproc
 392              	.LFE3:
 393              		.size	uip_chksum, .-uip_chksum
 394 0012 00BFAFF3 		.section	.text.uip_ipchksum,"ax",%progbits
 394      0080AFF3 
 394      0080AFF3 
 394      0080
 395              		.align	2
ARM GAS  /tmp/cc7TW52V.s 			page 8


 396              		.p2align 4,,15
 397              		.global	uip_ipchksum
 398              		.thumb
 399              		.thumb_func
 400              		.type	uip_ipchksum, %function
 401              	uip_ipchksum:
 402              	.LFB4:
 403              		.loc 1 319 0
 404              		.cfi_startproc
 405              		@ args = 0, pretend = 0, frame = 0
 406              		@ frame_needed = 0, uses_anonymous_args = 0
 407 0000 08B5     		push	{r3, lr}
 408              		.cfi_def_cfa_offset 8
 409              		.cfi_offset 3, -8
 410              		.cfi_offset 14, -4
 411              		.loc 1 322 0
 412 0002 0020     		movs	r0, #0
 413 0004 0549     		ldr	r1, .L36
 414 0006 1422     		movs	r2, #20
 415 0008 FFF7FEFF 		bl	chksum
 416              	.LVL45:
 417              		.loc 1 324 0
 418 000c 10B9     		cbnz	r0, .L35
 419 000e 4FF6FF70 		movw	r0, #65535
 420              	.LVL46:
 421              		.loc 1 325 0
 422 0012 08BD     		pop	{r3, pc}
 423              	.LVL47:
 424              	.L35:
 425 0014 40BA     		rev16	r0, r0
 426              	.LVL48:
 427 0016 80B2     		uxth	r0, r0
 428 0018 08BD     		pop	{r3, pc}
 429              	.L37:
 430 001a 00BF     		.align	2
 431              	.L36:
 432 001c 0E000000 		.word	.LANCHOR0+14
 433              		.cfi_endproc
 434              	.LFE4:
 435              		.size	uip_ipchksum, .-uip_ipchksum
 436              		.section	.text.uip_tcpchksum,"ax",%progbits
 437              		.align	2
 438              		.p2align 4,,15
 439              		.global	uip_tcpchksum
 440              		.thumb
 441              		.thumb_func
 442              		.type	uip_tcpchksum, %function
 443              	uip_tcpchksum:
 444              	.LFB6:
 445              		.loc 1 365 0
 446              		.cfi_startproc
 447              		@ args = 0, pretend = 0, frame = 0
 448              		@ frame_needed = 0, uses_anonymous_args = 0
 449              		@ link register save eliminated.
 450              		.loc 1 366 0
 451 0000 0620     		movs	r0, #6
 452 0002 FFF7FEBF 		b	upper_layer_chksum
ARM GAS  /tmp/cc7TW52V.s 			page 9


 453              	.LVL49:
 454              		.cfi_endproc
 455              	.LFE6:
 456              		.size	uip_tcpchksum, .-uip_tcpchksum
 457 0006 00BFAFF3 		.section	.text.uip_udpchksum,"ax",%progbits
 457      0080AFF3 
 457      0080
 458              		.align	2
 459              		.p2align 4,,15
 460              		.global	uip_udpchksum
 461              		.thumb
 462              		.thumb_func
 463              		.type	uip_udpchksum, %function
 464              	uip_udpchksum:
 465              	.LFB7:
 466              		.loc 1 372 0
 467              		.cfi_startproc
 468              		@ args = 0, pretend = 0, frame = 0
 469              		@ frame_needed = 0, uses_anonymous_args = 0
 470              		@ link register save eliminated.
 471              		.loc 1 373 0
 472 0000 1120     		movs	r0, #17
 473 0002 FFF7FEBF 		b	upper_layer_chksum
 474              	.LVL50:
 475              		.cfi_endproc
 476              	.LFE7:
 477              		.size	uip_udpchksum, .-uip_udpchksum
 478 0006 00BFAFF3 		.section	.text.uip_init,"ax",%progbits
 478      0080AFF3 
 478      0080
 479              		.align	2
 480              		.p2align 4,,15
 481              		.global	uip_init
 482              		.thumb
 483              		.thumb_func
 484              		.type	uip_init, %function
 485              	uip_init:
 486              	.LFB8:
 487              		.loc 1 380 0
 488              		.cfi_startproc
 489              		@ args = 0, pretend = 0, frame = 0
 490              		@ frame_needed = 0, uses_anonymous_args = 0
 491              		@ link register save eliminated.
 492              		.loc 1 382 0
 493 0000 084A     		ldr	r2, .L44
 494 0002 094B     		ldr	r3, .L44+4
 495 0004 0021     		movs	r1, #0
 496 0006 1180     		strh	r1, [r2]	@ movhi
 497 0008 03F5C872 		add	r2, r3, #400
 498              	.L42:
 499              		.loc 1 385 0 discriminator 2
 500 000c 5976     		strb	r1, [r3, #25]
 501 000e 2833     		adds	r3, r3, #40
 502              		.loc 1 384 0 discriminator 2
 503 0010 9342     		cmp	r3, r2
 504 0012 FBD1     		bne	.L42
 505 0014 0549     		ldr	r1, .L44+8
ARM GAS  /tmp/cc7TW52V.s 			page 10


 506              		.loc 1 388 0
 507 0016 064B     		ldr	r3, .L44+12
 508 0018 0A20     		movs	r0, #10
 509 001a 4FF48062 		mov	r2, #1024
 510 001e 0870     		strb	r0, [r1]
 511 0020 1A80     		strh	r2, [r3]	@ movhi
 512 0022 7047     		bx	lr
 513              	.L45:
 514              		.align	2
 515              	.L44:
 516 0024 00000000 		.word	.LANCHOR4
 517 0028 00000000 		.word	.LANCHOR5
 518 002c 00000000 		.word	.LANCHOR6
 519 0030 00000000 		.word	.LANCHOR7
 520              		.cfi_endproc
 521              	.LFE8:
 522              		.size	uip_init, .-uip_init
 523 0034 AFF30080 		.section	.text.uip_connect,"ax",%progbits
 523      AFF30080 
 523      AFF30080 
 524              		.align	2
 525              		.p2align 4,,15
 526              		.global	uip_connect
 527              		.thumb
 528              		.thumb_func
 529              		.type	uip_connect, %function
 530              	uip_connect:
 531              	.LFB9:
 532              		.loc 1 408 0
 533              		.cfi_startproc
 534              		@ args = 0, pretend = 0, frame = 0
 535              		@ frame_needed = 0, uses_anonymous_args = 0
 536              		@ link register save eliminated.
 537              	.LVL51:
 538              	.L47:
 539 0000 2DE9F00F 		push	{r4, r5, r6, r7, r8, r9, r10, fp}
 540              		.cfi_def_cfa_offset 32
 541              		.cfi_offset 4, -32
 542              		.cfi_offset 5, -28
 543              		.cfi_offset 6, -24
 544              		.cfi_offset 7, -20
 545              		.cfi_offset 8, -16
 546              		.cfi_offset 9, -12
 547              		.cfi_offset 10, -8
 548              		.cfi_offset 11, -4
 549 0004 3D4E     		ldr	r6, .L72
 550              		.loc 1 408 0
 551 0006 0746     		mov	r7, r0
 552 0008 3588     		ldrh	r5, [r6]
 553              	.LVL52:
 554              	.L50:
 555              		.loc 1 413 0
 556 000a 0135     		adds	r5, r5, #1
 557 000c ABB2     		uxth	r3, r5
 558              		.loc 1 416 0
 559 000e B3F5FA4F 		cmp	r3, #32000
 560 0012 34BF     		ite	cc
ARM GAS  /tmp/cc7TW52V.s 			page 11


 561 0014 1D46     		movcc	r5, r3
 562 0016 4FF48055 		movcs	r5, #4096
 563              		.loc 1 408 0
 564 001a DFF8ECC0 		ldr	ip, .L72+12
 565 001e 68BA     		rev16	r0, r5
 566 0020 80B2     		uxth	r0, r0
 567 0022 6346     		mov	r3, ip
 568 0024 0122     		movs	r2, #1
 569              	.L52:
 570              	.LVL53:
 571              		.loc 1 423 0
 572 0026 5C7E     		ldrb	r4, [r3, #25]	@ zero_extendqisi2
 573 0028 0132     		adds	r2, r2, #1
 574 002a D2B2     		uxtb	r2, r2
 575 002c 14B1     		cbz	r4, .L49
 576              		.loc 1 423 0 is_stmt 0 discriminator 1
 577 002e 9C88     		ldrh	r4, [r3, #4]
 578 0030 8442     		cmp	r4, r0
 579 0032 EAD0     		beq	.L50
 580              	.L49:
 581              		.loc 1 421 0 is_stmt 1
 582 0034 0B2A     		cmp	r2, #11
 583 0036 03F12803 		add	r3, r3, #40
 584              	.LVL54:
 585 003a F4D1     		bne	.L52
 586              		.loc 1 430 0
 587 003c DFF8CC90 		ldr	r9, .L72+16
 588              		.loc 1 432 0
 589 0040 9CF81920 		ldrb	r2, [ip, #25]	@ zero_extendqisi2
 590              		.loc 1 430 0
 591 0044 0020     		movs	r0, #0
 592 0046 3580     		strh	r5, [r6]	@ movhi
 593              	.LVL55:
 594 0048 89F80000 		strb	r0, [r9]
 595              	.LVL56:
 596              		.loc 1 432 0
 597 004c 002A     		cmp	r2, #0
 598 004e 53D0     		beq	.L61
 599 0050 2B4B     		ldr	r3, .L72+4
 600 0052 0124     		movs	r4, #1
 601 0054 03F5B478 		add	r8, r3, #360
 602              		.loc 1 431 0
 603 0058 A3F1280C 		sub	ip, r3, #40
 604 005c 09E0     		b	.L54
 605              	.LVL57:
 606              	.L56:
 607              		.loc 1 430 0
 608 005e 4345     		cmp	r3, r8
 609 0060 13D0     		beq	.L70
 610              	.L57:
 611              		.loc 1 432 0
 612 0062 5A7E     		ldrb	r2, [r3, #25]	@ zero_extendqisi2
 613 0064 651C     		adds	r5, r4, #1
 614              		.loc 1 431 0
 615 0066 9C46     		mov	ip, r3
 616              	.LVL58:
 617 0068 EDB2     		uxtb	r5, r5
ARM GAS  /tmp/cc7TW52V.s 			page 12


 618 006a 2833     		adds	r3, r3, #40
 619              	.LVL59:
 620              		.loc 1 432 0
 621 006c 002A     		cmp	r2, #0
 622 006e 3DD0     		beq	.L71
 623 0070 2C46     		mov	r4, r5
 624              	.LVL60:
 625              	.L54:
 626              		.loc 1 436 0
 627 0072 072A     		cmp	r2, #7
 628 0074 F3D1     		bne	.L56
 629              		.loc 1 437 0
 630 0076 0028     		cmp	r0, #0
 631 0078 3CD0     		beq	.L62
 632              		.loc 1 437 0 is_stmt 0 discriminator 1
 633 007a 9CF81A50 		ldrb	r5, [ip, #26]	@ zero_extendqisi2
 634 007e 827E     		ldrb	r2, [r0, #26]	@ zero_extendqisi2
 635 0080 9542     		cmp	r5, r2
 636 0082 88BF     		it	hi
 637 0084 6046     		movhi	r0, ip
 638              	.LVL61:
 639              		.loc 1 430 0 is_stmt 1 discriminator 1
 640 0086 4345     		cmp	r3, r8
 641 0088 EBD1     		bne	.L57
 642              	.L70:
 643 008a 89F80040 		strb	r4, [r9]
 644              		.loc 1 444 0
 645 008e 50B3     		cbz	r0, .L66
 646              	.LVL62:
 647              	.L59:
 648              		.loc 1 450 0
 649 0090 1C4B     		ldr	r3, .L72+8
 650 0092 3588     		ldrh	r5, [r6]
 651 0094 93F800A0 		ldrb	r10, [r3]	@ zero_extendqisi2
 652              		.loc 1 451 0
 653 0098 93F80190 		ldrb	r9, [r3, #1]	@ zero_extendqisi2
 654              		.loc 1 452 0
 655 009c 93F80280 		ldrb	r8, [r3, #2]	@ zero_extendqisi2
 656              		.loc 1 453 0
 657 00a0 93F803B0 		ldrb	fp, [r3, #3]	@ zero_extendqisi2
 658 00a4 6DBA     		rev16	r5, r5
 659              		.loc 1 458 0
 660 00a6 0023     		movs	r3, #0
 661              		.loc 1 463 0
 662 00a8 8580     		strh	r5, [r0, #4]	@ movhi
 663              		.loc 1 455 0
 664 00aa 4FF4B764 		mov	r4, #1464
 665              		.loc 1 457 0
 666 00ae 0122     		movs	r2, #1
 667              		.loc 1 448 0
 668 00b0 4FF0020C 		mov	ip, #2
 669              		.loc 1 460 0
 670 00b4 0326     		movs	r6, #3
 671              		.loc 1 462 0
 672 00b6 1025     		movs	r5, #16
 673              		.loc 1 464 0
 674 00b8 C180     		strh	r1, [r0, #6]	@ movhi
ARM GAS  /tmp/cc7TW52V.s 			page 13


 675              		.loc 1 450 0
 676 00ba 80F80CA0 		strb	r10, [r0, #12]
 677              		.loc 1 451 0
 678 00be 80F80D90 		strb	r9, [r0, #13]
 679              		.loc 1 452 0
 680 00c2 80F80E80 		strb	r8, [r0, #14]
 681              		.loc 1 453 0
 682 00c6 80F80FB0 		strb	fp, [r0, #15]
 683              		.loc 1 448 0
 684 00ca 80F819C0 		strb	ip, [r0, #25]
 685              		.loc 1 455 0
 686 00ce 4482     		strh	r4, [r0, #18]	@ movhi
 687 00d0 8482     		strh	r4, [r0, #20]	@ movhi
 688              		.loc 1 457 0
 689 00d2 0282     		strh	r2, [r0, #16]	@ movhi
 690              		.loc 1 459 0
 691 00d4 8276     		strb	r2, [r0, #26]
 692              		.loc 1 458 0
 693 00d6 C376     		strb	r3, [r0, #27]
 694              		.loc 1 461 0
 695 00d8 8375     		strb	r3, [r0, #22]
 696              		.loc 1 460 0
 697 00da 0676     		strb	r6, [r0, #24]
 698              		.loc 1 462 0
 699 00dc C575     		strb	r5, [r0, #23]
 700              	.LVL63:
 701              		.loc 1 465 0
 702 00de 3B88     		ldrh	r3, [r7]
 703 00e0 0380     		strh	r3, [r0]	@ movhi
 704 00e2 7B88     		ldrh	r3, [r7, #2]
 705 00e4 4380     		strh	r3, [r0, #2]	@ movhi
 706              	.LVL64:
 707              	.L66:
 708              		.loc 1 468 0
 709 00e6 BDE8F00F 		pop	{r4, r5, r6, r7, r8, r9, r10, fp}
 710              	.LVL65:
 711 00ea 7047     		bx	lr
 712              	.LVL66:
 713              	.L71:
 714 00ec 89F80040 		strb	r4, [r9]
 715              		.loc 1 431 0
 716 00f0 6046     		mov	r0, ip
 717              	.LVL67:
 718 00f2 CDE7     		b	.L59
 719              	.LVL68:
 720              	.L62:
 721 00f4 6046     		mov	r0, ip
 722              	.LVL69:
 723 00f6 B2E7     		b	.L56
 724              	.LVL70:
 725              	.L61:
 726 00f8 0348     		ldr	r0, .L72+12
 727              	.LVL71:
 728 00fa C9E7     		b	.L59
 729              	.L73:
 730              		.align	2
 731              	.L72:
ARM GAS  /tmp/cc7TW52V.s 			page 14


 732 00fc 00000000 		.word	.LANCHOR7
 733 0100 28000000 		.word	.LANCHOR5+40
 734 0104 00000000 		.word	.LANCHOR8
 735 0108 00000000 		.word	.LANCHOR5
 736 010c 00000000 		.word	.LANCHOR6
 737              		.cfi_endproc
 738              	.LFE9:
 739              		.size	uip_connect, .-uip_connect
 740              		.section	.text.uip_unlisten,"ax",%progbits
 741              		.align	2
 742              		.p2align 4,,15
 743              		.global	uip_unlisten
 744              		.thumb
 745              		.thumb_func
 746              		.type	uip_unlisten, %function
 747              	uip_unlisten:
 748              	.LFB10:
 749              		.loc 1 519 0
 750              		.cfi_startproc
 751              		@ args = 0, pretend = 0, frame = 0
 752              		@ frame_needed = 0, uses_anonymous_args = 0
 753              		@ link register save eliminated.
 754              	.LVL72:
 755 0000 10B4     		push	{r4}
 756              		.cfi_def_cfa_offset 4
 757              		.cfi_offset 4, -4
 758              		.loc 1 521 0
 759 0002 074B     		ldr	r3, .L77
 760              		.loc 1 520 0
 761 0004 074A     		ldr	r2, .L77+4
 762              		.loc 1 521 0
 763 0006 1C88     		ldrh	r4, [r3]
 764              		.loc 1 520 0
 765 0008 0021     		movs	r1, #0
 766              		.loc 1 521 0
 767 000a 8442     		cmp	r4, r0
 768              		.loc 1 520 0
 769 000c 18BF     		it	ne
 770 000e 0123     		movne	r3, #1
 771 0010 1170     		strb	r1, [r2]
 772              		.loc 1 522 0
 773 0012 0CBF     		ite	eq
 774 0014 1980     		strheq	r1, [r3]	@ movhi
 775              		.loc 1 520 0
 776 0016 1370     		strbne	r3, [r2]
 777              		.loc 1 526 0
 778 0018 5DF8044B 		ldr	r4, [sp], #4
 779 001c 7047     		bx	lr
 780              	.L78:
 781 001e 00BF     		.align	2
 782              	.L77:
 783 0020 00000000 		.word	.LANCHOR4
 784 0024 00000000 		.word	.LANCHOR6
 785              		.cfi_endproc
 786              	.LFE10:
 787              		.size	uip_unlisten, .-uip_unlisten
 788 0028 AFF30080 		.section	.text.uip_listen,"ax",%progbits
ARM GAS  /tmp/cc7TW52V.s 			page 15


 788      AFF30080 
 789              		.align	2
 790              		.p2align 4,,15
 791              		.global	uip_listen
 792              		.thumb
 793              		.thumb_func
 794              		.type	uip_listen, %function
 795              	uip_listen:
 796              	.LFB11:
 797              		.loc 1 530 0
 798              		.cfi_startproc
 799              		@ args = 0, pretend = 0, frame = 0
 800              		@ frame_needed = 0, uses_anonymous_args = 0
 801              		@ link register save eliminated.
 802              	.LVL73:
 803 0000 10B4     		push	{r4}
 804              		.cfi_def_cfa_offset 4
 805              		.cfi_offset 4, -4
 806              		.loc 1 532 0
 807 0002 074B     		ldr	r3, .L83
 808              		.loc 1 531 0
 809 0004 074A     		ldr	r2, .L83+4
 810              		.loc 1 532 0
 811 0006 1988     		ldrh	r1, [r3]
 812              		.loc 1 531 0
 813 0008 0024     		movs	r4, #0
 814 000a 1470     		strb	r4, [r2]
 815              		.loc 1 532 0
 816 000c 21B1     		cbz	r1, .L82
 817              		.loc 1 531 0
 818 000e 0123     		movs	r3, #1
 819 0010 1370     		strb	r3, [r2]
 820              		.loc 1 537 0
 821 0012 5DF8044B 		ldr	r4, [sp], #4
 822 0016 7047     		bx	lr
 823              	.L82:
 824              		.loc 1 533 0
 825 0018 1880     		strh	r0, [r3]	@ movhi
 826              		.loc 1 537 0
 827 001a 5DF8044B 		ldr	r4, [sp], #4
 828 001e 7047     		bx	lr
 829              	.L84:
 830              		.align	2
 831              	.L83:
 832 0020 00000000 		.word	.LANCHOR4
 833 0024 00000000 		.word	.LANCHOR6
 834              		.cfi_endproc
 835              	.LFE11:
 836              		.size	uip_listen, .-uip_listen
 837 0028 AFF30080 		.section	.text.uip_process,"ax",%progbits
 837      AFF30080 
 838              		.align	2
 839              		.p2align 4,,15
 840              		.global	uip_process
 841              		.thumb
 842              		.thumb_func
 843              		.type	uip_process, %function
ARM GAS  /tmp/cc7TW52V.s 			page 16


 844              	uip_process:
 845              	.LFB13:
 846              		.loc 1 682 0
 847              		.cfi_startproc
 848              		@ args = 0, pretend = 0, frame = 32
 849              		@ frame_needed = 0, uses_anonymous_args = 0
 850              	.LVL74:
 851 0000 2DE9F04F 		push	{r4, r5, r6, r7, r8, r9, r10, fp, lr}
 852              		.cfi_def_cfa_offset 36
 853              		.cfi_offset 4, -36
 854              		.cfi_offset 5, -32
 855              		.cfi_offset 6, -28
 856              		.cfi_offset 7, -24
 857              		.cfi_offset 8, -20
 858              		.cfi_offset 9, -16
 859              		.cfi_offset 10, -12
 860              		.cfi_offset 11, -8
 861              		.cfi_offset 14, -4
 862              		.loc 1 691 0
 863 0004 964C     		ldr	r4, .L317
 864 0006 974A     		ldr	r2, .L317+4
 865 0008 DFF87482 		ldr	r8, .L317+32
 866              		.loc 1 683 0
 867 000c DFF87492 		ldr	r9, .L317+36
 868              		.loc 1 691 0
 869 0010 04F13603 		add	r3, r4, #54
 870              		.loc 1 695 0
 871 0014 0328     		cmp	r0, #3
 872              		.loc 1 682 0
 873 0016 89B0     		sub	sp, sp, #36
 874              		.cfi_def_cfa_offset 72
 875              		.loc 1 691 0
 876 0018 1360     		str	r3, [r2]
 877 001a C8F80030 		str	r3, [r8]
 878              		.loc 1 683 0
 879 001e D9F80060 		ldr	r6, [r9]
 880              	.LVL75:
 881              		.loc 1 695 0
 882 0022 18D0     		beq	.L298
 883              		.loc 1 705 0
 884 0024 0228     		cmp	r0, #2
 885 0026 2AD0     		beq	.L299
 886              		.loc 1 826 0
 887 0028 8F4D     		ldr	r5, .L317+8
 888              		.loc 1 840 0
 889 002a A37B     		ldrb	r3, [r4, #14]	@ zero_extendqisi2
 890              		.loc 1 826 0
 891 002c 6988     		ldrh	r1, [r5, #2]
 892              		.loc 1 840 0
 893 002e 452B     		cmp	r3, #69
 894              		.loc 1 826 0
 895 0030 01F10101 		add	r1, r1, #1
 896 0034 6980     		strh	r1, [r5, #2]	@ movhi
 897              		.loc 1 840 0
 898 0036 00F0D180 		beq	.L106
 899              		.loc 1 841 0
 900 003a 2A88     		ldrh	r2, [r5]
ARM GAS  /tmp/cc7TW52V.s 			page 17


 901              		.loc 1 842 0
 902 003c EB88     		ldrh	r3, [r5, #6]
 903              		.loc 1 841 0
 904 003e 0132     		adds	r2, r2, #1
 905              		.loc 1 842 0
 906 0040 0133     		adds	r3, r3, #1
 907              		.loc 1 841 0
 908 0042 2A80     		strh	r2, [r5]	@ movhi
 909              		.loc 1 842 0
 910 0044 EB80     		strh	r3, [r5, #6]	@ movhi
 911              	.L297:
 912 0046 894B     		ldr	r3, .L317+12
 913 0048 894F     		ldr	r7, .L317+16
 914              	.LVL76:
 915              	.L94:
 916              		.loc 1 1875 0
 917 004a 0022     		movs	r2, #0
 918 004c 3A80     		strh	r2, [r7]	@ movhi
 919              		.loc 1 1876 0
 920 004e 1A70     		strb	r2, [r3]
 921              	.L85:
 922              		.loc 1 1878 0
 923 0050 09B0     		add	sp, sp, #36
 924              		@ sp needed
 925 0052 BDE8F08F 		pop	{r4, r5, r6, r7, r8, r9, r10, fp, pc}
 926              	.LVL77:
 927              	.L298:
 928              		.loc 1 696 0
 929 0056 737E     		ldrb	r3, [r6, #25]	@ zero_extendqisi2
 930 0058 03F00F03 		and	r3, r3, #15
 931 005c 032B     		cmp	r3, #3
 932 005e F2D1     		bne	.L297
 933              		.loc 1 696 0 is_stmt 0 discriminator 1
 934 0060 338A     		ldrh	r3, [r6, #16]
 935 0062 002B     		cmp	r3, #0
 936 0064 EFD1     		bne	.L297
 937              		.loc 1 698 0 is_stmt 1
 938 0066 814B     		ldr	r3, .L317+12
 939 0068 0821     		movs	r1, #8
 940 006a 1970     		strb	r1, [r3]
 941 006c 804F     		ldr	r7, .L317+16
 942              		.loc 1 699 0
 943 006e 0392     		str	r2, [sp, #12]
 944 0070 0293     		str	r3, [sp, #8]
 945 0072 FFF7FEFF 		bl	modbus_tcp_gateway
 946              	.LVL78:
 947 0076 7F48     		ldr	r0, .L317+20
 948              		.loc 1 700 0
 949 0078 039A     		ldr	r2, [sp, #12]
 950 007a 029B     		ldr	r3, [sp, #8]
 951 007c 33E0     		b	.L88
 952              	.LVL79:
 953              	.L299:
 954              		.loc 1 712 0
 955 007e 7E4B     		ldr	r3, .L317+24
 956 0080 D978     		ldrb	r1, [r3, #3]	@ zero_extendqisi2
 957 0082 0131     		adds	r1, r1, #1
ARM GAS  /tmp/cc7TW52V.s 			page 18


 958 0084 C9B2     		uxtb	r1, r1
 959 0086 D970     		strb	r1, [r3, #3]
 960 0088 61B9     		cbnz	r1, .L91
 961              		.loc 1 713 0
 962 008a 9978     		ldrb	r1, [r3, #2]	@ zero_extendqisi2
 963 008c 0131     		adds	r1, r1, #1
 964 008e C9B2     		uxtb	r1, r1
 965 0090 9970     		strb	r1, [r3, #2]
 966 0092 39B9     		cbnz	r1, .L91
 967              		.loc 1 714 0
 968 0094 5978     		ldrb	r1, [r3, #1]	@ zero_extendqisi2
 969 0096 0131     		adds	r1, r1, #1
 970 0098 C9B2     		uxtb	r1, r1
 971 009a 5970     		strb	r1, [r3, #1]
 972 009c 11B9     		cbnz	r1, .L91
 973              		.loc 1 715 0
 974 009e 1978     		ldrb	r1, [r3]	@ zero_extendqisi2
 975 00a0 0131     		adds	r1, r1, #1
 976 00a2 1970     		strb	r1, [r3]
 977              	.L91:
 978              		.loc 1 728 0
 979 00a4 717E     		ldrb	r1, [r6, #25]	@ zero_extendqisi2
 980              		.loc 1 721 0
 981 00a6 724F     		ldr	r7, .L317+16
 982              		.loc 1 722 0
 983 00a8 7248     		ldr	r0, .L317+20
 984              	.LVL80:
 985              		.loc 1 728 0
 986 00aa 01F0FD05 		and	r5, r1, #253
 987              		.loc 1 721 0
 988 00ae 0023     		movs	r3, #0
 989              		.loc 1 728 0
 990 00b0 052D     		cmp	r5, #5
 991              		.loc 1 721 0
 992 00b2 3B80     		strh	r3, [r7]	@ movhi
 993              		.loc 1 722 0
 994 00b4 0380     		strh	r3, [r0]	@ movhi
 995              		.loc 1 728 0
 996 00b6 00F0C380 		beq	.L300
 997              		.loc 1 734 0
 998 00ba 0029     		cmp	r1, #0
 999 00bc 00F0C780 		beq	.L295
 1000              		.loc 1 738 0
 1001 00c0 338A     		ldrh	r3, [r6, #16]
 1002 00c2 002B     		cmp	r3, #0
 1003 00c4 40F0E280 		bne	.L301
 1004              		.loc 1 800 0
 1005 00c8 01F00F01 		and	r1, r1, #15
 1006 00cc 0329     		cmp	r1, #3
 1007              		.loc 1 803 0
 1008 00ce 674B     		ldr	r3, .L317+12
 1009              		.loc 1 800 0
 1010 00d0 BBD1     		bne	.L94
 1011              		.loc 1 803 0
 1012 00d2 0821     		movs	r1, #8
 1013 00d4 1970     		strb	r1, [r3]
 1014              	.L291:
ARM GAS  /tmp/cc7TW52V.s 			page 19


 1015              		.loc 1 1481 0
 1016 00d6 0490     		str	r0, [sp, #16]
 1017 00d8 0392     		str	r2, [sp, #12]
 1018              	.L292:
 1019 00da 0293     		str	r3, [sp, #8]
 1020 00dc FFF7FEFF 		bl	modbus_tcp_gateway
 1021              	.LVL81:
 1022              		.loc 1 1482 0
 1023 00e0 0498     		ldr	r0, [sp, #16]
 1024 00e2 039A     		ldr	r2, [sp, #12]
 1025 00e4 029B     		ldr	r3, [sp, #8]
 1026              	.L88:
 1027              		.loc 1 1649 0
 1028 00e6 1D78     		ldrb	r5, [r3]	@ zero_extendqisi2
 1029 00e8 05F02001 		and	r1, r5, #32
 1030 00ec 01F0FF0C 		and	ip, r1, #255
 1031 00f0 0029     		cmp	r1, #0
 1032 00f2 00F05481 		beq	.L180
 1033              		.loc 1 1650 0
 1034 00f6 0022     		movs	r2, #0
 1035              		.loc 1 1652 0
 1036 00f8 1421     		movs	r1, #20
 1037 00fa 5B4D     		ldr	r5, .L317+8
 1038 00fc DFF888A1 		ldr	r10, .L317+40
 1039              		.loc 1 1651 0
 1040 0100 7276     		strb	r2, [r6, #25]
 1041              		.loc 1 1650 0
 1042 0102 0280     		strh	r2, [r0]	@ movhi
 1043              		.loc 1 1652 0
 1044 0104 84F82F10 		strb	r1, [r4, #47]
 1045              	.L98:
 1046              		.loc 1 1793 0
 1047 0108 2822     		movs	r2, #40
 1048 010a 3A80     		strh	r2, [r7]	@ movhi
 1049              	.L188:
 1050              		.loc 1 1795 0
 1051 010c 5022     		movs	r2, #80
 1052 010e 84F82E20 		strb	r2, [r4, #46]
 1053              	.L142:
 1054              		.loc 1 1801 0
 1055 0112 327A     		ldrb	r2, [r6, #8]	@ zero_extendqisi2
 1056              		.loc 1 1811 0
 1057 0114 4FF0060C 		mov	ip, #6
 1058              		.loc 1 1801 0
 1059 0118 84F82A20 		strb	r2, [r4, #42]
 1060              		.loc 1 1802 0
 1061 011c 727A     		ldrb	r2, [r6, #9]	@ zero_extendqisi2
 1062              		.loc 1 1816 0
 1063 011e BAF80210 		ldrh	r1, [r10, #2]
 1064              		.loc 1 1802 0
 1065 0122 84F82B20 		strb	r2, [r4, #43]
 1066              		.loc 1 1803 0
 1067 0126 B27A     		ldrb	r2, [r6, #10]	@ zero_extendqisi2
 1068              		.loc 1 1816 0
 1069 0128 BAF800E0 		ldrh	lr, [r10]
 1070              		.loc 1 1803 0
 1071 012c 84F82C20 		strb	r2, [r4, #44]
ARM GAS  /tmp/cc7TW52V.s 			page 20


 1072              		.loc 1 1804 0
 1073 0130 F07A     		ldrb	r0, [r6, #11]	@ zero_extendqisi2
 1074              		.loc 1 1801 0
 1075 0132 4B4A     		ldr	r2, .L317
 1076              		.loc 1 1804 0
 1077 0134 84F82D00 		strb	r0, [r4, #45]
 1078              		.loc 1 1806 0
 1079 0138 307B     		ldrb	r0, [r6, #12]	@ zero_extendqisi2
 1080 013a 84F82600 		strb	r0, [r4, #38]
 1081              		.loc 1 1807 0
 1082 013e 707B     		ldrb	r0, [r6, #13]	@ zero_extendqisi2
 1083 0140 84F82700 		strb	r0, [r4, #39]
 1084              		.loc 1 1808 0
 1085 0144 B07B     		ldrb	r0, [r6, #14]	@ zero_extendqisi2
 1086 0146 84F82800 		strb	r0, [r4, #40]
 1087              		.loc 1 1809 0
 1088 014a F07B     		ldrb	r0, [r6, #15]	@ zero_extendqisi2
 1089              		.loc 1 1811 0
 1090 014c 84F817C0 		strb	ip, [r4, #23]
 1091              		.loc 1 1809 0
 1092 0150 84F82900 		strb	r0, [r4, #41]
 1093              		.loc 1 1813 0
 1094 0154 B088     		ldrh	r0, [r6, #4]
 1095 0156 6084     		strh	r0, [r4, #34]	@ movhi
 1096              		.loc 1 1814 0
 1097 0158 F088     		ldrh	r0, [r6, #6]
 1098              		.loc 1 1816 0
 1099 015a A4F81AE0 		strh	lr, [r4, #26]	@ movhi
 1100              		.loc 1 1814 0
 1101 015e A084     		strh	r0, [r4, #36]	@ movhi
 1102              		.loc 1 1816 0
 1103 0160 A183     		strh	r1, [r4, #28]	@ movhi
 1104              		.loc 1 1817 0
 1105 0162 3188     		ldrh	r1, [r6]
 1106 0164 E183     		strh	r1, [r4, #30]	@ movhi
 1107 0166 7188     		ldrh	r1, [r6, #2]
 1108 0168 2184     		strh	r1, [r4, #32]	@ movhi
 1109              		.loc 1 1819 0
 1110 016a 717E     		ldrb	r1, [r6, #25]	@ zero_extendqisi2
 1111 016c C906     		lsls	r1, r1, #27
 1112 016e 40F10681 		bpl	.L196
 1113              		.loc 1 1822 0
 1114 0172 0021     		movs	r1, #0
 1115 0174 82F83110 		strb	r1, [r2, #49]
 1116 0178 82F83010 		strb	r1, [r2, #48]
 1117              	.LVL82:
 1118              	.L129:
 1119              		.loc 1 1836 0
 1120 017c 3A88     		ldrh	r2, [r7]
 1121              		.loc 1 1840 0
 1122 017e 0026     		movs	r6, #0
 1123              		.loc 1 1836 0
 1124 0180 170A     		lsrs	r7, r2, #8
 1125              		.loc 1 1829 0
 1126 0182 4021     		movs	r1, #64
 1127              		.loc 1 1837 0
 1128 0184 6274     		strb	r2, [r4, #17]
ARM GAS  /tmp/cc7TW52V.s 			page 21


 1129              		.loc 1 1836 0
 1130 0186 2774     		strb	r7, [r4, #16]
 1131              		.loc 1 1829 0
 1132 0188 A175     		strb	r1, [r4, #22]
 1133              		.loc 1 1840 0
 1134 018a 84F83560 		strb	r6, [r4, #53]
 1135 018e 84F83460 		strb	r6, [r4, #52]
 1136              		.loc 1 1843 0
 1137 0192 6686     		strh	r6, [r4, #50]	@ movhi
 1138              	.LBB21:
 1139              	.LBB22:
 1140              		.loc 1 366 0
 1141 0194 0620     		movs	r0, #6
 1142 0196 0293     		str	r3, [sp, #8]
 1143 0198 FFF7FEFF 		bl	upper_layer_chksum
 1144              	.LVL83:
 1145              	.LBE22:
 1146              	.LBE21:
 1147              		.loc 1 1856 0
 1148 019c 3749     		ldr	r1, .L317+28
 1149              		.loc 1 1844 0
 1150 019e C043     		mvns	r0, r0
 1151              		.loc 1 1856 0
 1152 01a0 0A88     		ldrh	r2, [r1]
 1153              		.loc 1 1853 0
 1154 01a2 4527     		movs	r7, #69
 1155              		.loc 1 1856 0
 1156 01a4 0132     		adds	r2, r2, #1
 1157 01a6 92B2     		uxth	r2, r2
 1158              		.loc 1 1857 0
 1159 01a8 4FEA122E 		lsr	lr, r2, #8
 1160              		.loc 1 1858 0
 1161 01ac E274     		strb	r2, [r4, #19]
 1162              		.loc 1 1844 0
 1163 01ae 6086     		strh	r0, [r4, #50]	@ movhi
 1164              	.LDL1:
 1165              		.loc 1 1854 0
 1166 01b0 E673     		strb	r6, [r4, #15]
 1167              		.loc 1 1855 0
 1168 01b2 6675     		strb	r6, [r4, #21]
 1169 01b4 2675     		strb	r6, [r4, #20]
 1170              		.loc 1 1860 0
 1171 01b6 2683     		strh	r6, [r4, #24]	@ movhi
 1172              		.loc 1 1857 0
 1173 01b8 84F812E0 		strb	lr, [r4, #18]
 1174              		.loc 1 1853 0
 1175 01bc A773     		strb	r7, [r4, #14]
 1176              		.loc 1 1856 0
 1177 01be 0A80     		strh	r2, [r1]	@ movhi
 1178              		.loc 1 1861 0
 1179 01c0 FFF7FEFF 		bl	uip_ipchksum
 1180              	.LVL84:
 1181              		.loc 1 1865 0
 1182 01c4 EA8B     		ldrh	r2, [r5, #30]
 1183              		.loc 1 1861 0
 1184 01c6 C043     		mvns	r0, r0
 1185              		.loc 1 1865 0
ARM GAS  /tmp/cc7TW52V.s 			page 22


 1186 01c8 0132     		adds	r2, r2, #1
 1187              		.loc 1 1861 0
 1188 01ca 2083     		strh	r0, [r4, #24]	@ movhi
 1189              		.loc 1 1865 0
 1190 01cc EA83     		strh	r2, [r5, #30]	@ movhi
 1191 01ce 029B     		ldr	r3, [sp, #8]
 1192              	.L118:
 1193              		.loc 1 1870 0
 1194 01d0 A988     		ldrh	r1, [r5, #4]
 1195              		.loc 1 1872 0
 1196 01d2 0022     		movs	r2, #0
 1197              		.loc 1 1870 0
 1198 01d4 0131     		adds	r1, r1, #1
 1199 01d6 A980     		strh	r1, [r5, #4]	@ movhi
 1200              		.loc 1 1872 0
 1201 01d8 1A70     		strb	r2, [r3]
 1202              		.loc 1 1873 0
 1203 01da 39E7     		b	.L85
 1204              	.LVL85:
 1205              	.L106:
 1206              		.loc 1 855 0
 1207 01dc 244F     		ldr	r7, .L317+16
 1208 01de 94F810B0 		ldrb	fp, [r4, #16]	@ zero_extendqisi2
 1209 01e2 617C     		ldrb	r1, [r4, #17]	@ zero_extendqisi2
 1210 01e4 3B88     		ldrh	r3, [r7]
 1211 01e6 01EB0B2B 		add	fp, r1, fp, lsl #8
 1212 01ea 9B45     		cmp	fp, r3
 1213 01ec 2FDC     		bgt	.L295
 1214              		.loc 1 875 0
 1215 01ee 237D     		ldrb	r3, [r4, #20]	@ zero_extendqisi2
 1216              		.loc 1 856 0
 1217 01f0 1FFA8BFB 		uxth	fp, fp
 1218              		.loc 1 875 0
 1219 01f4 9806     		lsls	r0, r3, #26
 1220              	.LVL86:
 1221              		.loc 1 856 0
 1222 01f6 A7F800B0 		strh	fp, [r7]	@ movhi
 1223              		.loc 1 875 0
 1224 01fa 2AD1     		bne	.L107
 1225              		.loc 1 875 0 is_stmt 0 discriminator 1
 1226 01fc 637D     		ldrb	r3, [r4, #21]	@ zero_extendqisi2
 1227 01fe 43BB     		cbnz	r3, .L107
 1228              		.loc 1 891 0 is_stmt 1
 1229 0200 DFF884A0 		ldr	r10, .L317+40
 1230 0204 BAF80030 		ldrh	r3, [r10]
 1231 0208 002B     		cmp	r3, #0
 1232 020a 40F0BF80 		bne	.L109
 1233              		.loc 1 891 0 is_stmt 0 discriminator 1
 1234 020e BAF80210 		ldrh	r1, [r10, #2]
 1235 0212 0029     		cmp	r1, #0
 1236 0214 40F0BA80 		bne	.L109
 1237              	.L110:
 1238              		.loc 1 939 0 is_stmt 1
 1239 0218 0392     		str	r2, [sp, #12]
 1240 021a 0293     		str	r3, [sp, #8]
 1241 021c FFF7FEFF 		bl	uip_ipchksum
 1242              	.LVL87:
ARM GAS  /tmp/cc7TW52V.s 			page 23


 1243 0220 0146     		mov	r1, r0
 1244 0222 4FF6FF70 		movw	r0, #65535
 1245 0226 8142     		cmp	r1, r0
 1246 0228 039A     		ldr	r2, [sp, #12]
 1247 022a 029B     		ldr	r3, [sp, #8]
 1248 022c 00F00B81 		beq	.L112
 1249              		.loc 1 941 0
 1250 0230 2A88     		ldrh	r2, [r5]
 1251              		.loc 1 942 0
 1252 0232 EB89     		ldrh	r3, [r5, #14]
 1253              		.loc 1 941 0
 1254 0234 0132     		adds	r2, r2, #1
 1255              		.loc 1 942 0
 1256 0236 0133     		adds	r3, r3, #1
 1257 0238 EB81     		strh	r3, [r5, #14]	@ movhi
 1258              		.loc 1 941 0
 1259 023a 2A80     		strh	r2, [r5]	@ movhi
 1260 023c 0B4B     		ldr	r3, .L317+12
 1261              		.loc 1 944 0
 1262 023e 04E7     		b	.L94
 1263              	.L300:
 1264              		.loc 1 730 0
 1265 0240 B27E     		ldrb	r2, [r6, #26]	@ zero_extendqisi2
 1266 0242 0132     		adds	r2, r2, #1
 1267 0244 D2B2     		uxtb	r2, r2
 1268              		.loc 1 731 0
 1269 0246 782A     		cmp	r2, #120
 1270              		.loc 1 730 0
 1271 0248 B276     		strb	r2, [r6, #26]
 1272              		.loc 1 731 0
 1273 024a 00F09580 		beq	.L283
 1274              	.L295:
 1275 024e 074B     		ldr	r3, .L317+12
 1276              		.loc 1 886 0
 1277 0250 FBE6     		b	.L94
 1278              	.L107:
 1279              		.loc 1 883 0
 1280 0252 2A88     		ldrh	r2, [r5]
 1281              		.loc 1 884 0
 1282 0254 AB89     		ldrh	r3, [r5, #12]
 1283              		.loc 1 883 0
 1284 0256 0132     		adds	r2, r2, #1
 1285              		.loc 1 884 0
 1286 0258 0133     		adds	r3, r3, #1
 1287              		.loc 1 883 0
 1288 025a 2A80     		strh	r2, [r5]	@ movhi
 1289              		.loc 1 884 0
 1290 025c AB81     		strh	r3, [r5, #12]	@ movhi
 1291 025e F6E7     		b	.L295
 1292              	.L318:
 1293              		.align	2
 1294              	.L317:
 1295 0260 00000000 		.word	.LANCHOR0
 1296 0264 00000000 		.word	.LANCHOR9
 1297 0268 00000000 		.word	.LANCHOR14
 1298 026c 00000000 		.word	.LANCHOR11
 1299 0270 00000000 		.word	.LANCHOR12
ARM GAS  /tmp/cc7TW52V.s 			page 24


 1300 0274 00000000 		.word	.LANCHOR13
 1301 0278 00000000 		.word	.LANCHOR8
 1302 027c 00000000 		.word	.LANCHOR1
 1303 0280 00000000 		.word	.LANCHOR10
 1304 0284 00000000 		.word	.LANCHOR3
 1305 0288 00000000 		.word	.LANCHOR15
 1306              	.L301:
 1307              		.loc 1 739 0
 1308 028c B37E     		ldrb	r3, [r6, #26]	@ zero_extendqisi2
 1309 028e 5D1E     		subs	r5, r3, #1
 1310 0290 B576     		strb	r5, [r6, #26]
 1311 0292 002B     		cmp	r3, #0
 1312 0294 DBD1     		bne	.L295
 1313              		.loc 1 740 0
 1314 0296 F37E     		ldrb	r3, [r6, #27]	@ zero_extendqisi2
 1315 0298 082B     		cmp	r3, #8
 1316 029a 00F0BD80 		beq	.L96
 1317              		.loc 1 740 0 is_stmt 0 discriminator 1
 1318 029e 0139     		subs	r1, r1, #1
 1319 02a0 0129     		cmp	r1, #1
 1320 02a2 40F2B680 		bls	.L302
 1321              	.L97:
 1322              		.loc 1 758 0 is_stmt 1
 1323 02a6 042B     		cmp	r3, #4
 1324 02a8 9BBF     		ittet	ls
 1325 02aa 0321     		movls	r1, #3
 1326 02ac 9940     		lslls	r1, r1, r3
 1327 02ae 3021     		movhi	r1, #48
 1328 02b0 C9B2     		uxtbls	r1, r1
 1329              		.loc 1 761 0
 1330 02b2 0133     		adds	r3, r3, #1
 1331              		.loc 1 769 0
 1332 02b4 AF4D     		ldr	r5, .L319
 1333              		.loc 1 758 0
 1334 02b6 B176     		strb	r1, [r6, #26]
 1335              		.loc 1 761 0
 1336 02b8 F376     		strb	r3, [r6, #27]
 1337              		.loc 1 769 0
 1338 02ba EB8C     		ldrh	r3, [r5, #38]
 1339 02bc 0133     		adds	r3, r3, #1
 1340 02be EB84     		strh	r3, [r5, #38]	@ movhi
 1341              		.loc 1 770 0
 1342 02c0 717E     		ldrb	r1, [r6, #25]	@ zero_extendqisi2
 1343 02c2 01F00F01 		and	r1, r1, #15
 1344 02c6 4B1E     		subs	r3, r1, #1
 1345 02c8 072B     		cmp	r3, #7
 1346 02ca C0D8     		bhi	.L295
 1347 02cc 0FF2040C 		adr	ip, .L101
 1348 02d0 5CF823F0 		ldr	pc, [ip, r3, lsl #2]
 1349              		.p2align 2
 1350              	.L101:
 1351 02d4 37030000 		.word	.L230+1
 1352 02d8 03030000 		.word	.L231+1
 1353 02dc 3F030000 		.word	.L103+1
 1354 02e0 F5020000 		.word	.L232+1
 1355 02e4 4F020000 		.word	.L295+1
 1356 02e8 F5020000 		.word	.L232+1
ARM GAS  /tmp/cc7TW52V.s 			page 25


 1357 02ec 4F020000 		.word	.L295+1
 1358 02f0 F5020000 		.word	.L232+1
 1359              		.p2align 1
 1360              	.L232:
 1361 02f4 A04B     		ldr	r3, .L319+4
 1362 02f6 DFF890A2 		ldr	r10, .L319+20
 1363              	.L104:
 1364              		.loc 1 1573 0
 1365 02fa 1122     		movs	r2, #17
 1366 02fc 84F82F20 		strb	r2, [r4, #47]
 1367              		.loc 1 1574 0
 1368 0300 02E7     		b	.L98
 1369              	.L231:
 1370 0302 DFF884A2 		ldr	r10, .L319+20
 1371              	.L102:
 1372              		.loc 1 1377 0
 1373 0306 6023     		movs	r3, #96
 1374              		.loc 1 1372 0
 1375 0308 4FF00208 		mov	r8, #2
 1376              		.loc 1 1373 0
 1377 030c 4FF0040C 		mov	ip, #4
 1378              		.loc 1 1374 0
 1379 0310 4FF0050E 		mov	lr, #5
 1380              		.loc 1 1375 0
 1381 0314 B820     		movs	r0, #184
 1382              		.loc 1 1376 0
 1383 0316 2C22     		movs	r2, #44
 1384              		.loc 1 1377 0
 1385 0318 84F82E30 		strb	r3, [r4, #46]
 1386              		.loc 1 1364 0
 1387 031c 84F82F10 		strb	r1, [r4, #47]
 1388              		.loc 1 1372 0
 1389 0320 84F83680 		strb	r8, [r4, #54]
 1390              		.loc 1 1373 0
 1391 0324 84F837C0 		strb	ip, [r4, #55]
 1392              		.loc 1 1374 0
 1393 0328 84F838E0 		strb	lr, [r4, #56]
 1394              		.loc 1 1375 0
 1395 032c 84F83900 		strb	r0, [r4, #57]
 1396              		.loc 1 1376 0
 1397 0330 3A80     		strh	r2, [r7]	@ movhi
 1398 0332 914B     		ldr	r3, .L319+4
 1399              		.loc 1 1378 0
 1400 0334 EDE6     		b	.L142
 1401              	.L230:
 1402 0336 DFF850A2 		ldr	r10, .L319+20
 1403              	.L100:
 1404 033a 1221     		movs	r1, #18
 1405 033c E3E7     		b	.L102
 1406              	.L103:
 1407              		.loc 1 788 0
 1408 033e 8E4B     		ldr	r3, .L319+4
 1409 0340 0421     		movs	r1, #4
 1410 0342 1970     		strb	r1, [r3]
 1411              		.loc 1 789 0
 1412 0344 0490     		str	r0, [sp, #16]
 1413 0346 0392     		str	r2, [sp, #12]
ARM GAS  /tmp/cc7TW52V.s 			page 26


 1414 0348 0293     		str	r3, [sp, #8]
 1415 034a FFF7FEFF 		bl	modbus_tcp_gateway
 1416              	.LVL88:
 1417 034e 0498     		ldr	r0, [sp, #16]
 1418              		.loc 1 790 0
 1419 0350 039A     		ldr	r2, [sp, #12]
 1420 0352 0088     		ldrh	r0, [r0]
 1421 0354 029B     		ldr	r3, [sp, #8]
 1422              	.L105:
 1423              		.loc 1 1699 0
 1424 0356 D8F80010 		ldr	r1, [r8]
 1425 035a 1160     		str	r1, [r2]
 1426              		.loc 1 1703 0
 1427 035c 0028     		cmp	r0, #0
 1428 035e 43D0     		beq	.L187
 1429              		.loc 1 1703 0 is_stmt 0 discriminator 1
 1430 0360 328A     		ldrh	r2, [r6, #16]
 1431 0362 002A     		cmp	r2, #0
 1432 0364 40D0     		beq	.L187
 1433              		.loc 1 1705 0 is_stmt 1
 1434 0366 2832     		adds	r2, r2, #40
 1435              		.loc 1 1707 0
 1436 0368 1821     		movs	r1, #24
 1437              		.loc 1 1705 0
 1438 036a 3A80     		strh	r2, [r7]	@ movhi
 1439              		.loc 1 1707 0
 1440 036c 84F82F10 		strb	r1, [r4, #47]
 1441 0370 804D     		ldr	r5, .L319
 1442 0372 DFF814A2 		ldr	r10, .L319+20
 1443              		.loc 1 1709 0
 1444 0376 C9E6     		b	.L188
 1445              	.L283:
 1446              		.loc 1 732 0
 1447 0378 7376     		strb	r3, [r6, #25]
 1448 037a 7F4B     		ldr	r3, .L319+4
 1449 037c 65E6     		b	.L94
 1450              	.L196:
 1451              		.loc 1 1824 0
 1452 037e 0520     		movs	r0, #5
 1453              		.loc 1 1825 0
 1454 0380 B821     		movs	r1, #184
 1455              		.loc 1 1824 0
 1456 0382 82F83000 		strb	r0, [r2, #48]
 1457              		.loc 1 1825 0
 1458 0386 82F83110 		strb	r1, [r2, #49]
 1459 038a F7E6     		b	.L129
 1460              	.L109:
 1461              		.loc 1 920 0
 1462 038c E18B     		ldrh	r1, [r4, #30]
 1463 038e 7B48     		ldr	r0, .L319+8
 1464 0390 9942     		cmp	r1, r3
 1465 0392 36D0     		beq	.L303
 1466              	.L111:
 1467              		.loc 1 921 0
 1468 0394 2A88     		ldrh	r2, [r5]
 1469 0396 784B     		ldr	r3, .L319+4
 1470 0398 0132     		adds	r2, r2, #1
ARM GAS  /tmp/cc7TW52V.s 			page 27


 1471 039a 2A80     		strh	r2, [r5]	@ movhi
 1472              		.loc 1 922 0
 1473 039c 55E6     		b	.L94
 1474              	.L180:
 1475              		.loc 1 1656 0
 1476 039e 05F01001 		and	r1, r5, #16
 1477 03a2 01F0FF09 		and	r9, r1, #255
 1478 03a6 71B1     		cbz	r1, .L181
 1479              		.loc 1 1658 0
 1480 03a8 0125     		movs	r5, #1
 1481              		.loc 1 1659 0
 1482 03aa 0421     		movs	r1, #4
 1483              		.loc 1 1661 0
 1484 03ac 1122     		movs	r2, #17
 1485              		.loc 1 1658 0
 1486 03ae 3582     		strh	r5, [r6, #16]	@ movhi
 1487              		.loc 1 1660 0
 1488 03b0 86F81BC0 		strb	ip, [r6, #27]
 1489              		.loc 1 1659 0
 1490 03b4 7176     		strb	r1, [r6, #25]
 1491              		.loc 1 1657 0
 1492 03b6 A0F800C0 		strh	ip, [r0]	@ movhi
 1493 03ba 6E4D     		ldr	r5, .L319
 1494              		.loc 1 1661 0
 1495 03bc 84F82F20 		strb	r2, [r4, #47]
 1496 03c0 DFF8C4A1 		ldr	r10, .L319+20
 1497              		.loc 1 1662 0
 1498 03c4 A0E6     		b	.L98
 1499              	.L181:
 1500              		.loc 1 1666 0
 1501 03c6 0188     		ldrh	r1, [r0]
 1502 03c8 DFF8C0C1 		ldr	ip, .L319+24
 1503 03cc F9B1     		cbz	r1, .L200
 1504              		.loc 1 1670 0
 1505 03ce ED07     		lsls	r5, r5, #31
 1506 03d0 32D5     		bpl	.L183
 1507              		.loc 1 1671 0
 1508 03d2 A6F81090 		strh	r9, [r6, #16]	@ movhi
 1509              	.L184:
 1510              		.loc 1 1682 0
 1511 03d6 758A     		ldrh	r5, [r6, #18]
 1512 03d8 A942     		cmp	r1, r5
 1513              		.loc 1 1683 0
 1514 03da 88BF     		it	hi
 1515 03dc 0580     		strhhi	r5, [r0]	@ movhi
 1516              		.loc 1 1688 0
 1517 03de 0088     		ldrh	r0, [r0]
 1518 03e0 3082     		strh	r0, [r6, #16]	@ movhi
 1519              	.L182:
 1520              		.loc 1 1697 0
 1521 03e2 0021     		movs	r1, #0
 1522 03e4 F176     		strb	r1, [r6, #27]
 1523 03e6 B6E7     		b	.L105
 1524              	.L187:
 1525              		.loc 1 1713 0
 1526 03e8 1A78     		ldrb	r2, [r3]	@ zero_extendqisi2
 1527 03ea 9507     		lsls	r5, r2, #30
ARM GAS  /tmp/cc7TW52V.s 			page 28


 1528 03ec 7FF52DAE 		bpl	.L94
 1529              		.loc 1 1714 0
 1530 03f0 2821     		movs	r1, #40
 1531              		.loc 1 1715 0
 1532 03f2 1022     		movs	r2, #16
 1533              		.loc 1 1714 0
 1534 03f4 3980     		strh	r1, [r7]	@ movhi
 1535              		.loc 1 1715 0
 1536 03f6 84F82F20 		strb	r2, [r4, #47]
 1537 03fa 5E4D     		ldr	r5, .L319
 1538 03fc DFF888A1 		ldr	r10, .L319+20
 1539              		.loc 1 1716 0
 1540 0400 84E6     		b	.L188
 1541              	.L303:
 1542              		.loc 1 920 0 discriminator 1
 1543 0402 008C     		ldrh	r0, [r0, #32]
 1544 0404 BAF80210 		ldrh	r1, [r10, #2]
 1545 0408 8842     		cmp	r0, r1
 1546 040a C3D1     		bne	.L111
 1547 040c 04E7     		b	.L110
 1548              	.L200:
 1549 040e 0846     		mov	r0, r1
 1550 0410 E7E7     		b	.L182
 1551              	.L302:
 1552              		.loc 1 742 0
 1553 0412 052B     		cmp	r3, #5
 1554 0414 7FF447AF 		bne	.L97
 1555              	.L96:
 1556              		.loc 1 749 0
 1557 0418 574B     		ldr	r3, .L319+4
 1558              		.loc 1 744 0
 1559 041a 0022     		movs	r2, #0
 1560 041c 7276     		strb	r2, [r6, #25]
 1561              		.loc 1 749 0
 1562 041e 8022     		movs	r2, #128
 1563 0420 1A70     		strb	r2, [r3]
 1564              		.loc 1 750 0
 1565 0422 0293     		str	r3, [sp, #8]
 1566 0424 FFF7FEFF 		bl	modbus_tcp_gateway
 1567              	.LVL89:
 1568              		.loc 1 753 0
 1569 0428 1422     		movs	r2, #20
 1570 042a 84F82F20 		strb	r2, [r4, #47]
 1571 042e 514D     		ldr	r5, .L319
 1572 0430 DFF854A1 		ldr	r10, .L319+20
 1573              		.loc 1 754 0
 1574 0434 029B     		ldr	r3, [sp, #8]
 1575 0436 67E6     		b	.L98
 1576              	.L183:
 1577              		.loc 1 1677 0
 1578 0438 358A     		ldrh	r5, [r6, #16]
 1579 043a 002D     		cmp	r5, #0
 1580 043c CBD0     		beq	.L184
 1581              		.loc 1 1694 0
 1582 043e ACF80050 		strh	r5, [ip]	@ movhi
 1583 0442 2846     		mov	r0, r5
 1584 0444 CDE7     		b	.L182
ARM GAS  /tmp/cc7TW52V.s 			page 29


 1585              	.L112:
 1586              		.loc 1 948 0
 1587 0446 E07D     		ldrb	r0, [r4, #23]	@ zero_extendqisi2
 1588 0448 4C4E     		ldr	r6, .L319+8
 1589              	.LVL90:
 1590 044a 0628     		cmp	r0, #6
 1591 044c 09D0     		beq	.L113
 1592              		.loc 1 962 0
 1593 044e 0128     		cmp	r0, #1
 1594 0450 1DD0     		beq	.L114
 1595              		.loc 1 964 0
 1596 0452 2A88     		ldrh	r2, [r5]
 1597              		.loc 1 965 0
 1598 0454 2B8A     		ldrh	r3, [r5, #16]
 1599              		.loc 1 964 0
 1600 0456 0132     		adds	r2, r2, #1
 1601              		.loc 1 965 0
 1602 0458 0133     		adds	r3, r3, #1
 1603 045a 2B82     		strh	r3, [r5, #16]	@ movhi
 1604              		.loc 1 964 0
 1605 045c 2A80     		strh	r2, [r5]	@ movhi
 1606 045e 464B     		ldr	r3, .L319+4
 1607              		.loc 1 967 0
 1608 0460 F3E5     		b	.L94
 1609              	.L113:
 1610              		.loc 1 1173 0
 1611 0462 AB8B     		ldrh	r3, [r5, #28]
 1612 0464 0133     		adds	r3, r3, #1
 1613 0466 AB83     		strh	r3, [r5, #28]	@ movhi
 1614 0468 424B     		ldr	r3, .L319
 1615              	.LBB23:
 1616              	.LBB24:
 1617              		.loc 1 366 0
 1618 046a 0491     		str	r1, [sp, #16]
 1619 046c 0392     		str	r2, [sp, #12]
 1620 046e 0293     		str	r3, [sp, #8]
 1621 0470 FFF7FEFF 		bl	upper_layer_chksum
 1622              	.LVL91:
 1623              	.LBE24:
 1624              	.LBE23:
 1625              		.loc 1 1177 0
 1626 0474 0499     		ldr	r1, [sp, #16]
 1627 0476 039A     		ldr	r2, [sp, #12]
 1628 0478 8842     		cmp	r0, r1
 1629 047a 029B     		ldr	r3, [sp, #8]
 1630 047c 17D0     		beq	.L119
 1631              		.loc 1 1179 0
 1632 047e 598B     		ldrh	r1, [r3, #26]
 1633              		.loc 1 1180 0
 1634 0480 1A8C     		ldrh	r2, [r3, #32]
 1635              		.loc 1 1179 0
 1636 0482 0131     		adds	r1, r1, #1
 1637              		.loc 1 1180 0
 1638 0484 0132     		adds	r2, r2, #1
 1639              		.loc 1 1179 0
 1640 0486 5983     		strh	r1, [r3, #26]	@ movhi
 1641              		.loc 1 1180 0
ARM GAS  /tmp/cc7TW52V.s 			page 30


 1642 0488 1A84     		strh	r2, [r3, #32]	@ movhi
 1643 048a 3B4B     		ldr	r3, .L319+4
 1644              		.loc 1 1182 0
 1645 048c DDE5     		b	.L94
 1646              	.L114:
 1647              		.loc 1 973 0
 1648 048e AA8A     		ldrh	r2, [r5, #20]
 1649              		.loc 1 978 0
 1650 0490 96F82210 		ldrb	r1, [r6, #34]	@ zero_extendqisi2
 1651              		.loc 1 973 0
 1652 0494 0132     		adds	r2, r2, #1
 1653              		.loc 1 978 0
 1654 0496 0829     		cmp	r1, #8
 1655              		.loc 1 973 0
 1656 0498 AA82     		strh	r2, [r5, #20]	@ movhi
 1657 049a 364A     		ldr	r2, .L319
 1658              		.loc 1 978 0
 1659 049c 7AD0     		beq	.L115
 1660              		.loc 1 979 0
 1661 049e 518A     		ldrh	r1, [r2, #18]
 1662              		.loc 1 980 0
 1663 04a0 138B     		ldrh	r3, [r2, #24]
 1664              		.loc 1 979 0
 1665 04a2 0131     		adds	r1, r1, #1
 1666              		.loc 1 980 0
 1667 04a4 0133     		adds	r3, r3, #1
 1668 04a6 1383     		strh	r3, [r2, #24]	@ movhi
 1669              		.loc 1 979 0
 1670 04a8 5182     		strh	r1, [r2, #18]	@ movhi
 1671 04aa 334B     		ldr	r3, .L319+4
 1672              		.loc 1 982 0
 1673 04ac CDE5     		b	.L94
 1674              	.L119:
 1675              		.loc 1 1191 0
 1676 04ae B08C     		ldrh	r0, [r6, #36]
 1677              		.loc 1 1193 0
 1678 04b0 B6F81AC0 		ldrh	ip, [r6, #26]
 1679              		.loc 1 1191 0
 1680 04b4 0690     		str	r0, [sp, #24]
 1681              		.loc 1 1192 0
 1682 04b6 708C     		ldrh	r0, [r6, #34]
 1683              		.loc 1 1193 0
 1684 04b8 B68B     		ldrh	r6, [r6, #28]
 1685 04ba 314B     		ldr	r3, .L319+12
 1686 04bc 0796     		str	r6, [sp, #28]
 1687 04be 0190     		str	r0, [sp, #4]
 1688 04c0 03E0     		b	.L123
 1689              	.LVL92:
 1690              	.L120:
 1691              		.loc 1 1188 0
 1692 04c2 3049     		ldr	r1, .L319+16
 1693 04c4 2833     		adds	r3, r3, #40
 1694 04c6 8B42     		cmp	r3, r1
 1695 04c8 7DD0     		beq	.L304
 1696              	.LVL93:
 1697              	.L123:
 1698              		.loc 1 1190 0
ARM GAS  /tmp/cc7TW52V.s 			page 31


 1699 04ca 13F80F1C 		ldrb	r1, [r3, #-15]	@ zero_extendqisi2
 1700 04ce A3F12806 		sub	r6, r3, #40
 1701              	.LVL94:
 1702 04d2 0591     		str	r1, [sp, #20]
 1703 04d4 0029     		cmp	r1, #0
 1704 04d6 F4D0     		beq	.L120
 1705              		.loc 1 1190 0 is_stmt 0 discriminator 1
 1706 04d8 33F8241C 		ldrh	r1, [r3, #-36]
 1707 04dc 0698     		ldr	r0, [sp, #24]
 1708 04de 8142     		cmp	r1, r0
 1709 04e0 EFD1     		bne	.L120
 1710              		.loc 1 1191 0 is_stmt 1
 1711 04e2 33F8221C 		ldrh	r1, [r3, #-34]
 1712 04e6 0198     		ldr	r0, [sp, #4]
 1713 04e8 8142     		cmp	r1, r0
 1714 04ea EAD1     		bne	.L120
 1715              		.loc 1 1192 0
 1716 04ec 33F8281C 		ldrh	r1, [r3, #-40]
 1717 04f0 6145     		cmp	r1, ip
 1718 04f2 E6D1     		bne	.L120
 1719              		.loc 1 1193 0
 1720 04f4 33F8261C 		ldrh	r1, [r3, #-38]
 1721 04f8 0798     		ldr	r0, [sp, #28]
 1722 04fa 8142     		cmp	r1, r0
 1723 04fc E1D1     		bne	.L120
 1724              	.L121:
 1725              		.loc 1 1388 0
 1726 04fe 94F82F10 		ldrb	r1, [r4, #47]	@ zero_extendqisi2
 1727              		.loc 1 1383 0
 1728 0502 1D4B     		ldr	r3, .L319+4
 1729 0504 0020     		movs	r0, #0
 1730              		.loc 1 1388 0
 1731 0506 11F0040F 		tst	r1, #4
 1732              		.loc 1 1382 0
 1733 050a C9F80060 		str	r6, [r9]
 1734              		.loc 1 1383 0
 1735 050e 1870     		strb	r0, [r3]
 1736              		.loc 1 1388 0
 1737 0510 DFF868C0 		ldr	ip, .L319+8
 1738 0514 40F04482 		bne	.L305
 1739              		.loc 1 1397 0
 1740 0518 9CF82EC0 		ldrb	ip, [ip, #46]	@ zero_extendqisi2
 1741              		.loc 1 1401 0
 1742 051c ABF11400 		sub	r0, fp, #20
 1743              		.loc 1 1397 0
 1744 0520 4FEA1C1C 		lsr	ip, ip, #4
 1745 0524 4FEA8C0C 		lsl	ip, ip, #2
 1746              		.loc 1 1401 0
 1747 0528 CCEB0000 		rsb	r0, ip, r0
 1748 052c 80B2     		uxth	r0, r0
 1749 052e 0690     		str	r0, [sp, #24]
 1750              		.loc 1 1406 0
 1751 0530 0598     		ldr	r0, [sp, #20]
 1752              		.loc 1 1397 0
 1753 0532 DFF85CB0 		ldr	fp, .L319+28
 1754              		.loc 1 1406 0
 1755 0536 00F00F00 		and	r0, r0, #15
ARM GAS  /tmp/cc7TW52V.s 			page 32


 1756 053a 0590     		str	r0, [sp, #20]
 1757              		.loc 1 1401 0
 1758 053c 0698     		ldr	r0, [sp, #24]
 1759              		.loc 1 1397 0
 1760 053e 8BF800C0 		strb	ip, [fp]
 1761              		.loc 1 1401 0
 1762 0542 3880     		strh	r0, [r7]	@ movhi
 1763              		.loc 1 1406 0
 1764 0544 0598     		ldr	r0, [sp, #20]
 1765 0546 0228     		cmp	r0, #2
 1766 0548 00F0C480 		beq	.L306
 1767              	.L144:
 1768              		.loc 1 1408 0
 1769 054c 0698     		ldr	r0, [sp, #24]
 1770 054e 10B9     		cbnz	r0, .L146
 1771              		.loc 1 1408 0 is_stmt 0 discriminator 2
 1772 0550 8807     		lsls	r0, r1, #30
 1773 0552 00F0C580 		beq	.L145
 1774              	.L146:
 1775              		.loc 1 1408 0 discriminator 1
 1776 0556 B4F826C0 		ldrh	ip, [r4, #38]
 1777 055a CDF814C0 		str	ip, [sp, #20]
 1778 055e 0598     		ldr	r0, [sp, #20]
 1779 0560 B6F808C0 		ldrh	ip, [r6, #8]
 1780 0564 6045     		cmp	r0, ip
 1781 0566 00F07082 		beq	.L307
 1782              	.L160:
 1783              		.loc 1 1791 0 is_stmt 1
 1784 056a 1022     		movs	r2, #16
 1785 056c 84F82F20 		strb	r2, [r4, #47]
 1786 0570 CAE5     		b	.L98
 1787              	.L320:
 1788 0572 00BF     		.align	2
 1789              	.L319:
 1790 0574 00000000 		.word	.LANCHOR14
 1791 0578 00000000 		.word	.LANCHOR11
 1792 057c 00000000 		.word	.LANCHOR0
 1793 0580 28000000 		.word	.LANCHOR5+40
 1794 0584 B8010000 		.word	.LANCHOR5+440
 1795 0588 00000000 		.word	.LANCHOR15
 1796 058c 00000000 		.word	.LANCHOR13
 1797 0590 00000000 		.word	.LANCHOR6
 1798              	.LVL95:
 1799              	.L115:
 1800              		.loc 1 997 0
 1801 0594 B28C     		ldrh	r2, [r6, #36]
 1802 0596 4FF6F671 		movw	r1, #65526
 1803 059a 8A42     		cmp	r2, r1
 1804              		.loc 1 995 0
 1805 059c 4FF00000 		mov	r0, #0
 1806              		.loc 1 998 0
 1807 05a0 8CBF     		ite	hi
 1808 05a2 0932     		addhi	r2, r2, #9
 1809              		.loc 1 1000 0
 1810 05a4 0832     		addls	r2, r2, #8
 1811              		.loc 1 1007 0
 1812 05a6 E98A     		ldrh	r1, [r5, #22]
ARM GAS  /tmp/cc7TW52V.s 			page 33


 1813              		.loc 1 995 0
 1814 05a8 86F82200 		strb	r0, [r6, #34]
 1815              		.loc 1 1000 0
 1816 05ac B284     		strh	r2, [r6, #36]	@ movhi
 1817              		.loc 1 1004 0
 1818 05ae A08B     		ldrh	r0, [r4, #28]
 1819 05b0 628B     		ldrh	r2, [r4, #26]
 1820              		.loc 1 1005 0
 1821 05b2 BAF80260 		ldrh	r6, [r10, #2]
 1822              		.loc 1 1007 0
 1823 05b6 0131     		adds	r1, r1, #1
 1824              		.loc 1 1005 0
 1825 05b8 6383     		strh	r3, [r4, #26]	@ movhi
 1826 05ba A683     		strh	r6, [r4, #28]	@ movhi
 1827              		.loc 1 1004 0
 1828 05bc 2084     		strh	r0, [r4, #32]	@ movhi
 1829              		.loc 1 1007 0
 1830 05be E982     		strh	r1, [r5, #22]	@ movhi
 1831              		.loc 1 1004 0
 1832 05c0 E283     		strh	r2, [r4, #30]	@ movhi
 1833 05c2 BC4B     		ldr	r3, .L321
 1834              		.loc 1 1008 0
 1835 05c4 04E6     		b	.L118
 1836              	.LVL96:
 1837              	.L304:
 1838              		.loc 1 1202 0
 1839 05c6 94F82F30 		ldrb	r3, [r4, #47]	@ zero_extendqisi2
 1840 05ca 03F03F03 		and	r3, r3, #63
 1841 05ce 022B     		cmp	r3, #2
 1842 05d0 67D0     		beq	.L288
 1843 05d2 B84B     		ldr	r3, .L321
 1844              	.L124:
 1845              		.loc 1 1218 0
 1846 05d4 94F82F10 		ldrb	r1, [r4, #47]	@ zero_extendqisi2
 1847 05d8 B74A     		ldr	r2, .L321+4
 1848 05da 4907     		lsls	r1, r1, #29
 1849 05dc 3FF535AD 		bmi	.L94
 1850              		.loc 1 1230 0
 1851 05e0 92F82DC0 		ldrb	ip, [r2, #45]	@ zero_extendqisi2
 1852              		.loc 1 1222 0
 1853 05e4 B5F824B0 		ldrh	fp, [r5, #36]
 1854              		.loc 1 1229 0
 1855 05e8 92F829E0 		ldrb	lr, [r2, #41]	@ zero_extendqisi2
 1856              		.loc 1 1234 0
 1857 05ec 92F82C90 		ldrb	r9, [r2, #44]	@ zero_extendqisi2
 1858              		.loc 1 1238 0
 1859 05f0 92F82B80 		ldrb	r8, [r2, #43]	@ zero_extendqisi2
 1860              		.loc 1 1241 0
 1861 05f4 92F82610 		ldrb	r1, [r2, #38]	@ zero_extendqisi2
 1862              		.loc 1 1222 0
 1863 05f8 0BF1010B 		add	fp, fp, #1
 1864              		.loc 1 1230 0
 1865 05fc 82F829C0 		strb	ip, [r2, #41]
 1866              		.loc 1 1241 0
 1867 0600 DFF8C4C2 		ldr	ip, .L321+20
 1868              		.loc 1 1233 0
 1869 0604 92F82860 		ldrb	r6, [r2, #40]	@ zero_extendqisi2
ARM GAS  /tmp/cc7TW52V.s 			page 34


 1870              	.LVL97:
 1871              		.loc 1 1237 0
 1872 0608 92F82700 		ldrb	r0, [r2, #39]	@ zero_extendqisi2
 1873              		.loc 1 1248 0
 1874 060c 0EF1010E 		add	lr, lr, #1
 1875              		.loc 1 1222 0
 1876 0610 A5F824B0 		strh	fp, [r5, #36]	@ movhi
 1877              		.loc 1 1242 0
 1878 0614 92F82AB0 		ldrb	fp, [r2, #42]	@ zero_extendqisi2
 1879              		.loc 1 1248 0
 1880 0618 5FFA8EFE 		uxtb	lr, lr
 1881              		.loc 1 1234 0
 1882 061c 82F82890 		strb	r9, [r2, #40]
 1883              		.loc 1 1238 0
 1884 0620 82F82780 		strb	r8, [r2, #39]
 1885              		.loc 1 1224 0
 1886 0624 4FF01409 		mov	r9, #20
 1887              		.loc 1 1225 0
 1888 0628 4FF02808 		mov	r8, #40
 1889              		.loc 1 1241 0
 1890 062c 8CF80010 		strb	r1, [ip]
 1891              		.loc 1 1226 0
 1892 0630 4FF0500C 		mov	ip, #80
 1893              		.loc 1 1248 0
 1894 0634 82F82DE0 		strb	lr, [r2, #45]
 1895              		.loc 1 1235 0
 1896 0638 82F82C60 		strb	r6, [r2, #44]
 1897              		.loc 1 1239 0
 1898 063c 82F82B00 		strb	r0, [r2, #43]
 1899              		.loc 1 1243 0
 1900 0640 82F82A10 		strb	r1, [r2, #42]
 1901              		.loc 1 1242 0
 1902 0644 82F826B0 		strb	fp, [r2, #38]
 1903              		.loc 1 1224 0
 1904 0648 82F82F90 		strb	r9, [r2, #47]
 1905              		.loc 1 1225 0
 1906 064c A7F80080 		strh	r8, [r7]	@ movhi
 1907              		.loc 1 1226 0
 1908 0650 82F82EC0 		strb	ip, [r2, #46]
 1909              		.loc 1 1248 0
 1910 0654 BEF1000F 		cmp	lr, #0
 1911 0658 0CD1     		bne	.L127
 1912              		.loc 1 1249 0
 1913 065a 0136     		adds	r6, r6, #1
 1914 065c F6B2     		uxtb	r6, r6
 1915 065e 82F82C60 		strb	r6, [r2, #44]
 1916 0662 3EB9     		cbnz	r6, .L127
 1917              		.loc 1 1250 0
 1918 0664 0130     		adds	r0, r0, #1
 1919 0666 C0B2     		uxtb	r0, r0
 1920 0668 82F82B00 		strb	r0, [r2, #43]
 1921 066c 10B9     		cbnz	r0, .L127
 1922              		.loc 1 1251 0
 1923 066e 0131     		adds	r1, r1, #1
 1924 0670 82F82A10 		strb	r1, [r2, #42]
 1925              	.L127:
 1926              		.loc 1 1257 0
ARM GAS  /tmp/cc7TW52V.s 			page 35


 1927 0674 628C     		ldrh	r2, [r4, #34]
 1928              		.loc 1 1258 0
 1929 0676 B4F824C0 		ldrh	ip, [r4, #36]
 1930              		.loc 1 1262 0
 1931 067a B4F81AE0 		ldrh	lr, [r4, #26]
 1932 067e B4F81C80 		ldrh	r8, [r4, #28]
 1933              		.loc 1 1257 0
 1934 0682 8E4E     		ldr	r6, .L321+8
 1935              		.loc 1 1263 0
 1936 0684 BAF80000 		ldrh	r0, [r10]
 1937 0688 BAF80210 		ldrh	r1, [r10, #2]
 1938              		.loc 1 1257 0
 1939 068c 3280     		strh	r2, [r6]	@ movhi
 1940              		.loc 1 1259 0
 1941 068e A284     		strh	r2, [r4, #36]	@ movhi
 1942              		.loc 1 1258 0
 1943 0690 A4F822C0 		strh	ip, [r4, #34]	@ movhi
 1944              		.loc 1 1262 0
 1945 0694 A4F81EE0 		strh	lr, [r4, #30]	@ movhi
 1946 0698 A4F82080 		strh	r8, [r4, #32]	@ movhi
 1947              		.loc 1 1263 0
 1948 069c 6083     		strh	r0, [r4, #26]	@ movhi
 1949 069e A183     		strh	r1, [r4, #28]	@ movhi
 1950              		.loc 1 1266 0
 1951 06a0 6CE5     		b	.L129
 1952              	.LVL98:
 1953              	.L288:
 1954              		.loc 1 1209 0
 1955 06a2 874B     		ldr	r3, .L321+12
 1956              		.loc 1 1206 0
 1957 06a4 854A     		ldr	r2, .L321+8
 1958 06a6 DDF818C0 		ldr	ip, [sp, #24]
 1959 06aa 0592     		str	r2, [sp, #20]
 1960              		.loc 1 1209 0
 1961 06ac 1A88     		ldrh	r2, [r3]
 1962              		.loc 1 1208 0
 1963 06ae DFF818B2 		ldr	fp, .L321+20
 1964              		.loc 1 1206 0
 1965 06b2 8249     		ldr	r1, .L321+8
 1966              		.loc 1 1208 0
 1967 06b4 0023     		movs	r3, #0
 1968              		.loc 1 1209 0
 1969 06b6 6245     		cmp	r2, ip
 1970              		.loc 1 1206 0
 1971 06b8 A1F800C0 		strh	ip, [r1]	@ movhi
 1972              		.loc 1 1208 0
 1973 06bc 8BF80030 		strb	r3, [fp]
 1974              		.loc 1 1209 0
 1975 06c0 00F0CB81 		beq	.L125
 1976              		.loc 1 1214 0
 1977 06c4 698D     		ldrh	r1, [r5, #42]
 1978              		.loc 1 1208 0
 1979 06c6 0122     		movs	r2, #1
 1980              		.loc 1 1214 0
 1981 06c8 1144     		add	r1, r1, r2
 1982 06ca 7A4B     		ldr	r3, .L321
 1983 06cc 6985     		strh	r1, [r5, #42]	@ movhi
ARM GAS  /tmp/cc7TW52V.s 			page 36


 1984              		.loc 1 1208 0
 1985 06ce 8BF80020 		strb	r2, [fp]
 1986 06d2 7FE7     		b	.L124
 1987              	.L306:
 1988              		.loc 1 1406 0 discriminator 1
 1989 06d4 01F03F0C 		and	ip, r1, #63
 1990 06d8 BCF1120F 		cmp	ip, #18
 1991 06dc 7FF436AF 		bne	.L144
 1992              	.L145:
 1993              		.loc 1 1421 0
 1994 06e0 C906     		lsls	r1, r1, #27
 1995 06e2 01D5     		bpl	.L149
 1996              		.loc 1 1421 0 is_stmt 0 discriminator 1
 1997 06e4 318A     		ldrh	r1, [r6, #16]
 1998 06e6 D9B9     		cbnz	r1, .L308
 1999              	.L149:
 2000              		.loc 1 1462 0 is_stmt 1
 2001 06e8 717E     		ldrb	r1, [r6, #25]	@ zero_extendqisi2
 2002 06ea 01F00F00 		and	r0, r1, #15
 2003 06ee 0138     		subs	r0, r0, #1
 2004 06f0 0728     		cmp	r0, #7
 2005 06f2 3FF6AAAC 		bhi	.L94
 2006 06f6 0FF2080C 		adr	ip, .L154
 2007 06fa 5CF820F0 		ldr	pc, [ip, r0, lsl #2]
 2008 06fe 00BF     		.p2align 2
 2009              	.L154:
 2010 0700 B3090000 		.word	.L153+1
 2011 0704 55090000 		.word	.L155+1
 2012 0708 65080000 		.word	.L156+1
 2013 070c 23080000 		.word	.L157+1
 2014 0710 03080000 		.word	.L158+1
 2015 0714 F1070000 		.word	.L159+1
 2016 0718 6B050000 		.word	.L160+1
 2017 071c D5070000 		.word	.L161+1
 2018              		.p2align 1
 2019              	.L308:
 2020              		.loc 1 1422 0
 2021 0720 06F10C00 		add	r0, r6, #12
 2022 0724 0392     		str	r2, [sp, #12]
 2023 0726 0293     		str	r3, [sp, #8]
 2024 0728 FFF7FEFF 		bl	uip_add32
 2025              	.LVL99:
 2026              		.loc 1 1424 0
 2027 072c 6549     		ldr	r1, .L321+16
 2028 072e 94F82AC0 		ldrb	ip, [r4, #42]	@ zero_extendqisi2
 2029 0732 0878     		ldrb	r0, [r1]	@ zero_extendqisi2
 2030 0734 039A     		ldr	r2, [sp, #12]
 2031 0736 6045     		cmp	r0, ip
 2032 0738 0590     		str	r0, [sp, #20]
 2033 073a 029B     		ldr	r3, [sp, #8]
 2034 073c D4D1     		bne	.L149
 2035              		.loc 1 1425 0 discriminator 1
 2036 073e DFF878C1 		ldr	ip, .L321+4
 2037              		.loc 1 1424 0 discriminator 1
 2038 0742 4878     		ldrb	r0, [r1, #1]	@ zero_extendqisi2
 2039              		.loc 1 1425 0 discriminator 1
 2040 0744 9CF82BC0 		ldrb	ip, [ip, #43]	@ zero_extendqisi2
ARM GAS  /tmp/cc7TW52V.s 			page 37


 2041              		.loc 1 1424 0 discriminator 1
 2042 0748 0690     		str	r0, [sp, #24]
 2043 074a 6045     		cmp	r0, ip
 2044 074c CCD1     		bne	.L149
 2045              		.loc 1 1426 0
 2046 074e DFF868C1 		ldr	ip, .L321+4
 2047              		.loc 1 1425 0
 2048 0752 8878     		ldrb	r0, [r1, #2]	@ zero_extendqisi2
 2049              		.loc 1 1426 0
 2050 0754 9CF82CC0 		ldrb	ip, [ip, #44]	@ zero_extendqisi2
 2051              		.loc 1 1425 0
 2052 0758 0190     		str	r0, [sp, #4]
 2053 075a 6045     		cmp	r0, ip
 2054 075c C4D1     		bne	.L149
 2055              		.loc 1 1427 0
 2056 075e DFF858C1 		ldr	ip, .L321+4
 2057              		.loc 1 1426 0
 2058 0762 C978     		ldrb	r1, [r1, #3]	@ zero_extendqisi2
 2059              		.loc 1 1427 0
 2060 0764 9CF82D00 		ldrb	r0, [ip, #45]	@ zero_extendqisi2
 2061              		.loc 1 1426 0
 2062 0768 8142     		cmp	r1, r0
 2063 076a BDD1     		bne	.L149
 2064              		.loc 1 1429 0
 2065 076c 0598     		ldr	r0, [sp, #20]
 2066              		.loc 1 1436 0
 2067 076e 96F81BC0 		ldrb	ip, [r6, #27]	@ zero_extendqisi2
 2068              		.loc 1 1429 0
 2069 0772 3073     		strb	r0, [r6, #12]
 2070              		.loc 1 1430 0
 2071 0774 0698     		ldr	r0, [sp, #24]
 2072              		.loc 1 1432 0
 2073 0776 F173     		strb	r1, [r6, #15]
 2074              		.loc 1 1430 0
 2075 0778 7073     		strb	r0, [r6, #13]
 2076              		.loc 1 1431 0
 2077 077a 0198     		ldr	r0, [sp, #4]
 2078 077c B073     		strb	r0, [r6, #14]
 2079              		.loc 1 1436 0
 2080 077e BCF1000F 		cmp	ip, #0
 2081 0782 1ED1     		bne	.L151
 2082              	.LVL100:
 2083              	.LBB25:
 2084              		.loc 1 1438 0
 2085 0784 96F818C0 		ldrb	ip, [r6, #24]	@ zero_extendqisi2
 2086 0788 B07E     		ldrb	r0, [r6, #26]	@ zero_extendqisi2
 2087              		.loc 1 1440 0
 2088 078a B17D     		ldrb	r1, [r6, #22]	@ zero_extendqisi2
 2089              		.loc 1 1438 0
 2090 078c C0EB0C00 		rsb	r0, r0, ip
 2091              		.loc 1 1440 0
 2092 0790 A0EBD100 		sub	r0, r0, r1, lsr #3
 2093 0794 C0B2     		uxtb	r0, r0
 2094              		.loc 1 1441 0
 2095 0796 0144     		add	r1, r1, r0
 2096 0798 5FFA81FC 		uxtb	ip, r1
 2097              		.loc 1 1440 0
ARM GAS  /tmp/cc7TW52V.s 			page 38


 2098 079c C1B2     		uxtb	r1, r0
 2099              	.LVL101:
 2100              		.loc 1 1442 0
 2101 079e 11F0800F 		tst	r1, #128
 2102              		.loc 1 1443 0
 2103 07a2 18BF     		it	ne
 2104 07a4 4142     		rsbne	r1, r0, #0
 2105              		.loc 1 1445 0
 2106 07a6 F07D     		ldrb	r0, [r6, #23]	@ zero_extendqisi2
 2107              	.LVL102:
 2108              		.loc 1 1443 0
 2109 07a8 18BF     		it	ne
 2110 07aa C9B2     		uxtbne	r1, r1
 2111              	.LVL103:
 2112              		.loc 1 1445 0
 2113 07ac A0EB9000 		sub	r0, r0, r0, lsr #2
 2114              	.LVL104:
 2115              		.loc 1 1446 0
 2116 07b0 0144     		add	r1, r1, r0
 2117              	.LVL105:
 2118 07b2 C9B2     		uxtb	r1, r1
 2119              		.loc 1 1441 0
 2120 07b4 86F816C0 		strb	ip, [r6, #22]
 2121              	.LVL106:
 2122              		.loc 1 1447 0
 2123 07b8 01EBDC0C 		add	ip, r1, ip, lsr #3
 2124 07bc 86F818C0 		strb	ip, [r6, #24]
 2125              		.loc 1 1446 0
 2126 07c0 F175     		strb	r1, [r6, #23]
 2127              	.L151:
 2128              	.LBE25:
 2129              		.loc 1 1453 0
 2130 07c2 96F818C0 		ldrb	ip, [r6, #24]	@ zero_extendqisi2
 2131              		.loc 1 1451 0
 2132 07c6 0120     		movs	r0, #1
 2133              		.loc 1 1456 0
 2134 07c8 0021     		movs	r1, #0
 2135              		.loc 1 1453 0
 2136 07ca 86F81AC0 		strb	ip, [r6, #26]
 2137              		.loc 1 1451 0
 2138 07ce 1870     		strb	r0, [r3]
 2139              		.loc 1 1456 0
 2140 07d0 3182     		strh	r1, [r6, #16]	@ movhi
 2141 07d2 89E7     		b	.L149
 2142              	.L161:
 2143              		.loc 1 1723 0
 2144 07d4 1978     		ldrb	r1, [r3]	@ zero_extendqisi2
 2145 07d6 374A     		ldr	r2, .L321
 2146 07d8 CC07     		lsls	r4, r1, #31
 2147 07da 7FF536AC 		bpl	.L94
 2148              		.loc 1 1724 0
 2149 07de 0021     		movs	r1, #0
 2150 07e0 7176     		strb	r1, [r6, #25]
 2151              		.loc 1 1725 0
 2152 07e2 1021     		movs	r1, #16
 2153 07e4 1170     		strb	r1, [r2]
 2154              		.loc 1 1726 0
ARM GAS  /tmp/cc7TW52V.s 			page 39


 2155 07e6 0293     		str	r3, [sp, #8]
 2156 07e8 FFF7FEFF 		bl	modbus_tcp_gateway
 2157              	.LVL107:
 2158 07ec 029B     		ldr	r3, [sp, #8]
 2159 07ee 2CE4     		b	.L94
 2160              	.L159:
 2161              		.loc 1 1780 0
 2162 07f0 1A78     		ldrb	r2, [r3]	@ zero_extendqisi2
 2163 07f2 D007     		lsls	r0, r2, #31
 2164 07f4 7FF529AC 		bpl	.L94
 2165              		.loc 1 1781 0
 2166 07f8 0721     		movs	r1, #7
 2167              		.loc 1 1782 0
 2168 07fa 0022     		movs	r2, #0
 2169              		.loc 1 1781 0
 2170 07fc 7176     		strb	r1, [r6, #25]
 2171              		.loc 1 1782 0
 2172 07fe B276     		strb	r2, [r6, #26]
 2173 0800 23E4     		b	.L94
 2174              	.L158:
 2175              		.loc 1 1760 0
 2176 0802 3888     		ldrh	r0, [r7]
 2177 0804 18B1     		cbz	r0, .L194
 2178              		.loc 1 1761 0
 2179 0806 0293     		str	r3, [sp, #8]
 2180 0808 FFF7FEFF 		bl	uip_add_rcv_nxt
 2181              	.LVL108:
 2182 080c 029B     		ldr	r3, [sp, #8]
 2183              	.L194:
 2184              		.loc 1 1763 0
 2185 080e 94F82F20 		ldrb	r2, [r4, #47]	@ zero_extendqisi2
 2186 0812 D207     		lsls	r2, r2, #31
 2187 0814 00F1B680 		bmi	.L309
 2188              	.L195:
 2189              		.loc 1 1771 0
 2190 0818 3A88     		ldrh	r2, [r7]
 2191 081a 002A     		cmp	r2, #0
 2192 081c 7FF4A5AE 		bne	.L160
 2193 0820 13E4     		b	.L94
 2194              	.L157:
 2195              		.loc 1 1734 0
 2196 0822 3888     		ldrh	r0, [r7]
 2197 0824 18B1     		cbz	r0, .L189
 2198              		.loc 1 1735 0
 2199 0826 0293     		str	r3, [sp, #8]
 2200 0828 FFF7FEFF 		bl	uip_add_rcv_nxt
 2201              	.LVL109:
 2202 082c 029B     		ldr	r3, [sp, #8]
 2203              	.L189:
 2204              		.loc 1 1737 0
 2205 082e 94F82F20 		ldrb	r2, [r4, #47]	@ zero_extendqisi2
 2206 0832 12F00102 		ands	r2, r2, #1
 2207 0836 00F0AA80 		beq	.L190
 2208              		.loc 1 1738 0
 2209 083a 1A78     		ldrb	r2, [r3]	@ zero_extendqisi2
 2210 083c D007     		lsls	r0, r2, #31
 2211 083e 40F19E80 		bpl	.L191
ARM GAS  /tmp/cc7TW52V.s 			page 40


 2212              		.loc 1 1740 0
 2213 0842 0022     		movs	r2, #0
 2214              		.loc 1 1739 0
 2215 0844 0721     		movs	r1, #7
 2216 0846 7176     		strb	r1, [r6, #25]
 2217              		.loc 1 1740 0
 2218 0848 B276     		strb	r2, [r6, #26]
 2219              		.loc 1 1741 0
 2220 084a 3282     		strh	r2, [r6, #16]	@ movhi
 2221              	.L293:
 2222              		.loc 1 1766 0
 2223 084c 0120     		movs	r0, #1
 2224 084e 0293     		str	r3, [sp, #8]
 2225 0850 FFF7FEFF 		bl	uip_add_rcv_nxt
 2226              	.LVL110:
 2227              		.loc 1 1767 0
 2228 0854 029B     		ldr	r3, [sp, #8]
 2229 0856 1022     		movs	r2, #16
 2230 0858 1A70     		strb	r2, [r3]
 2231              		.loc 1 1768 0
 2232 085a 0293     		str	r3, [sp, #8]
 2233 085c FFF7FEFF 		bl	modbus_tcp_gateway
 2234              	.LVL111:
 2235              		.loc 1 1769 0
 2236 0860 029B     		ldr	r3, [sp, #8]
 2237 0862 82E6     		b	.L160
 2238              	.L156:
 2239              		.loc 1 1559 0
 2240 0864 94F82F00 		ldrb	r0, [r4, #47]	@ zero_extendqisi2
 2241 0868 10F0010F 		tst	r0, #1
 2242 086c 2ED0     		beq	.L174
 2243              		.loc 1 1559 0 is_stmt 0 discriminator 1
 2244 086e 11F0100F 		tst	r1, #16
 2245 0872 2BD1     		bne	.L174
 2246              		.loc 1 1560 0 is_stmt 1
 2247 0874 328A     		ldrh	r2, [r6, #16]
 2248 0876 002A     		cmp	r2, #0
 2249 0878 7FF4E7AB 		bne	.L94
 2250              		.loc 1 1563 0
 2251 087c 3888     		ldrh	r0, [r7]
 2252 087e 0293     		str	r3, [sp, #8]
 2253 0880 0130     		adds	r0, r0, #1
 2254 0882 80B2     		uxth	r0, r0
 2255 0884 FFF7FEFF 		bl	uip_add_rcv_nxt
 2256              	.LVL112:
 2257              		.loc 1 1564 0
 2258 0888 029B     		ldr	r3, [sp, #8]
 2259              		.loc 1 1565 0
 2260 088a 3888     		ldrh	r0, [r7]
 2261              		.loc 1 1564 0
 2262 088c 1A78     		ldrb	r2, [r3]	@ zero_extendqisi2
 2263 088e 42F01001 		orr	r1, r2, #16
 2264 0892 1970     		strb	r1, [r3]
 2265 0894 0749     		ldr	r1, .L321
 2266              		.loc 1 1565 0
 2267 0896 10B1     		cbz	r0, .L175
 2268              		.loc 1 1566 0
ARM GAS  /tmp/cc7TW52V.s 			page 41


 2269 0898 42F01202 		orr	r2, r2, #18
 2270 089c 0A70     		strb	r2, [r1]
 2271              	.L175:
 2272              		.loc 1 1568 0
 2273 089e 0293     		str	r3, [sp, #8]
 2274 08a0 FFF7FEFF 		bl	modbus_tcp_gateway
 2275              	.LVL113:
 2276              		.loc 1 1569 0
 2277 08a4 0120     		movs	r0, #1
 2278              		.loc 1 1570 0
 2279 08a6 0821     		movs	r1, #8
 2280              		.loc 1 1571 0
 2281 08a8 0022     		movs	r2, #0
 2282              		.loc 1 1569 0
 2283 08aa 3082     		strh	r0, [r6, #16]	@ movhi
 2284              		.loc 1 1570 0
 2285 08ac 7176     		strb	r1, [r6, #25]
 2286              		.loc 1 1571 0
 2287 08ae F276     		strb	r2, [r6, #27]
 2288 08b0 029B     		ldr	r3, [sp, #8]
 2289 08b2 22E5     		b	.L104
 2290              	.L322:
 2291              		.align	2
 2292              	.L321:
 2293 08b4 00000000 		.word	.LANCHOR11
 2294 08b8 00000000 		.word	.LANCHOR0
 2295 08bc 00000000 		.word	.LANCHOR16
 2296 08c0 00000000 		.word	.LANCHOR4
 2297 08c4 00000000 		.word	.LANCHOR2
 2298 08c8 00000000 		.word	.LANCHOR6
 2299              	.L174:
 2300              		.loc 1 1579 0
 2301 08cc 8006     		lsls	r0, r0, #26
 2302 08ce 0DD5     		bpl	.L176
 2303              		.loc 1 1593 0
 2304 08d0 94F83490 		ldrb	r9, [r4, #52]	@ zero_extendqisi2
 2305 08d4 94F83550 		ldrb	r5, [r4, #53]	@ zero_extendqisi2
 2306 08d8 1068     		ldr	r0, [r2]
 2307              		.loc 1 1594 0
 2308 08da B7F800C0 		ldrh	ip, [r7]
 2309              		.loc 1 1593 0
 2310 08de 45EA0925 		orr	r5, r5, r9, lsl #8
 2311 08e2 2844     		add	r0, r0, r5
 2312              		.loc 1 1594 0
 2313 08e4 C5EB0C05 		rsb	r5, r5, ip
 2314              		.loc 1 1593 0
 2315 08e8 1060     		str	r0, [r2]
 2316              		.loc 1 1594 0
 2317 08ea 3D80     		strh	r5, [r7]	@ movhi
 2318              	.L176:
 2319              		.loc 1 1603 0
 2320 08ec 3888     		ldrh	r0, [r7]
 2321 08ee 58B1     		cbz	r0, .L177
 2322              		.loc 1 1603 0 is_stmt 0 discriminator 1
 2323 08f0 CD06     		lsls	r5, r1, #27
 2324 08f2 09D4     		bmi	.L177
 2325              		.loc 1 1604 0 is_stmt 1
ARM GAS  /tmp/cc7TW52V.s 			page 42


 2326 08f4 1978     		ldrb	r1, [r3]	@ zero_extendqisi2
 2327 08f6 41F00201 		orr	r1, r1, #2
 2328 08fa 1970     		strb	r1, [r3]
 2329              		.loc 1 1605 0
 2330 08fc 0392     		str	r2, [sp, #12]
 2331 08fe 0293     		str	r3, [sp, #8]
 2332 0900 FFF7FEFF 		bl	uip_add_rcv_nxt
 2333              	.LVL114:
 2334 0904 029B     		ldr	r3, [sp, #8]
 2335 0906 039A     		ldr	r2, [sp, #12]
 2336              	.L177:
 2337              		.loc 1 1620 0
 2338 0908 94F83000 		ldrb	r0, [r4, #48]	@ zero_extendqisi2
 2339 090c 94F83110 		ldrb	r1, [r4, #49]	@ zero_extendqisi2
 2340 0910 A94D     		ldr	r5, .L323
 2341 0912 01EB0021 		add	r1, r1, r0, lsl #8
 2342              		.loc 1 1621 0
 2343 0916 B08A     		ldrh	r0, [r6, #20]
 2344              		.loc 1 1620 0
 2345 0918 89B2     		uxth	r1, r1
 2346              		.loc 1 1621 0
 2347 091a 8142     		cmp	r1, r0
 2348              		.loc 1 1620 0
 2349 091c 0595     		str	r5, [sp, #20]
 2350 091e 2980     		strh	r1, [r5]	@ movhi
 2351              		.loc 1 1621 0
 2352 0920 00D8     		bhi	.L178
 2353              		.loc 1 1621 0 is_stmt 0 discriminator 1
 2354 0922 19B9     		cbnz	r1, .L179
 2355              	.L178:
 2356              		.loc 1 1623 0 is_stmt 1
 2357 0924 DDF814C0 		ldr	ip, [sp, #20]
 2358 0928 ACF80000 		strh	r0, [ip]	@ movhi
 2359              	.L179:
 2360              		.loc 1 1625 0
 2361 092c 0599     		ldr	r1, [sp, #20]
 2362 092e 0888     		ldrh	r0, [r1]
 2363              		.loc 1 1643 0
 2364 0930 1978     		ldrb	r1, [r3]	@ zero_extendqisi2
 2365              		.loc 1 1625 0
 2366 0932 7082     		strh	r0, [r6, #18]	@ movhi
 2367              		.loc 1 1643 0
 2368 0934 8907     		lsls	r1, r1, #30
 2369 0936 3FF488AB 		beq	.L94
 2370              		.loc 1 1644 0
 2371 093a A048     		ldr	r0, .L323+4
 2372 093c 0021     		movs	r1, #0
 2373 093e 0180     		strh	r1, [r0]	@ movhi
 2374              		.loc 1 1645 0
 2375 0940 0490     		str	r0, [sp, #16]
 2376 0942 0392     		str	r2, [sp, #12]
 2377 0944 0293     		str	r3, [sp, #8]
 2378 0946 FFF7FEFF 		bl	modbus_tcp_gateway
 2379              	.LVL115:
 2380 094a 029B     		ldr	r3, [sp, #8]
 2381 094c 039A     		ldr	r2, [sp, #12]
 2382 094e 0498     		ldr	r0, [sp, #16]
ARM GAS  /tmp/cc7TW52V.s 			page 43


 2383 0950 FFF7C9BB 		b	.L88
 2384              	.L155:
 2385              		.loc 1 1491 0
 2386 0954 1978     		ldrb	r1, [r3]	@ zero_extendqisi2
 2387 0956 C907     		lsls	r1, r1, #31
 2388 0958 06D5     		bpl	.L163
 2389              		.loc 1 1492 0 discriminator 1
 2390 095a 94F82F00 		ldrb	r0, [r4, #47]	@ zero_extendqisi2
 2391 095e 9849     		ldr	r1, .L323+8
 2392              		.loc 1 1491 0 discriminator 1
 2393 0960 00F03F00 		and	r0, r0, #63
 2394 0964 1228     		cmp	r0, #18
 2395 0966 42D0     		beq	.L310
 2396              	.L163:
 2397              		.loc 1 1540 0
 2398 0968 2022     		movs	r2, #32
 2399 096a 1A70     		strb	r2, [r3]
 2400              		.loc 1 1541 0
 2401 096c 0293     		str	r3, [sp, #8]
 2402 096e FFF7FEFF 		bl	modbus_tcp_gateway
 2403              	.LVL116:
 2404              		.loc 1 1543 0
 2405 0972 D9F80020 		ldr	r2, [r9]
 2406 0976 0021     		movs	r1, #0
 2407 0978 5176     		strb	r1, [r2, #25]
 2408              		.loc 1 1544 0
 2409 097a 029B     		ldr	r3, [sp, #8]
 2410 097c 2AE6     		b	.L124
 2411              	.L191:
 2412              		.loc 1 1743 0
 2413 097e 0622     		movs	r2, #6
 2414 0980 7276     		strb	r2, [r6, #25]
 2415 0982 63E7     		b	.L293
 2416              	.L309:
 2417              		.loc 1 1764 0
 2418 0984 0721     		movs	r1, #7
 2419              		.loc 1 1765 0
 2420 0986 0022     		movs	r2, #0
 2421              		.loc 1 1764 0
 2422 0988 7176     		strb	r1, [r6, #25]
 2423              		.loc 1 1765 0
 2424 098a B276     		strb	r2, [r6, #26]
 2425 098c 5EE7     		b	.L293
 2426              	.L190:
 2427              		.loc 1 1749 0
 2428 098e 1978     		ldrb	r1, [r3]	@ zero_extendqisi2
 2429 0990 C907     		lsls	r1, r1, #31
 2430 0992 7FF541AF 		bpl	.L195
 2431              		.loc 1 1750 0
 2432 0996 0521     		movs	r1, #5
 2433              		.loc 1 1751 0
 2434 0998 3282     		strh	r2, [r6, #16]	@ movhi
 2435              		.loc 1 1750 0
 2436 099a 7176     		strb	r1, [r6, #25]
 2437              		.loc 1 1752 0
 2438 099c FFF755BB 		b	.L94
 2439              	.L305:
ARM GAS  /tmp/cc7TW52V.s 			page 44


 2440              		.loc 1 1389 0
 2441 09a0 7076     		strb	r0, [r6, #25]
 2442              		.loc 1 1391 0
 2443 09a2 2022     		movs	r2, #32
 2444 09a4 1A70     		strb	r2, [r3]
 2445              		.loc 1 1392 0
 2446 09a6 0293     		str	r3, [sp, #8]
 2447 09a8 FFF7FEFF 		bl	modbus_tcp_gateway
 2448              	.LVL117:
 2449              		.loc 1 1393 0
 2450 09ac 029B     		ldr	r3, [sp, #8]
 2451 09ae FFF74CBB 		b	.L94
 2452              	.L153:
 2453              		.loc 1 1472 0
 2454 09b2 1878     		ldrb	r0, [r3]	@ zero_extendqisi2
 2455 09b4 8349     		ldr	r1, .L323+12
 2456 09b6 C007     		lsls	r0, r0, #31
 2457 09b8 7FF547AB 		bpl	.L94
 2458              		.loc 1 1476 0
 2459 09bc 3888     		ldrh	r0, [r7]
 2460              		.loc 1 1473 0
 2461 09be 4FF0030C 		mov	ip, #3
 2462              		.loc 1 1474 0
 2463 09c2 4FF0400E 		mov	lr, #64
 2464              		.loc 1 1475 0
 2465 09c6 0025     		movs	r5, #0
 2466              		.loc 1 1473 0
 2467 09c8 86F819C0 		strb	ip, [r6, #25]
 2468              		.loc 1 1474 0
 2469 09cc 81F800E0 		strb	lr, [r1]
 2470              		.loc 1 1475 0
 2471 09d0 3582     		strh	r5, [r6, #16]	@ movhi
 2472              		.loc 1 1476 0
 2473 09d2 38B1     		cbz	r0, .L162
 2474              		.loc 1 1477 0
 2475 09d4 4225     		movs	r5, #66
 2476 09d6 0D70     		strb	r5, [r1]
 2477              		.loc 1 1478 0
 2478 09d8 0392     		str	r2, [sp, #12]
 2479 09da 0293     		str	r3, [sp, #8]
 2480 09dc FFF7FEFF 		bl	uip_add_rcv_nxt
 2481              	.LVL118:
 2482 09e0 029B     		ldr	r3, [sp, #8]
 2483 09e2 039A     		ldr	r2, [sp, #12]
 2484              	.L162:
 2485              		.loc 1 1480 0
 2486 09e4 7548     		ldr	r0, .L323+4
 2487 09e6 0021     		movs	r1, #0
 2488 09e8 0180     		strh	r1, [r0]	@ movhi
 2489 09ea FFF774BB 		b	.L291
 2490              	.L310:
 2491              		.loc 1 1495 0
 2492 09ee 91F82E10 		ldrb	r1, [r1, #46]	@ zero_extendqisi2
 2493 09f2 01F0F000 		and	r0, r1, #240
 2494 09f6 5028     		cmp	r0, #80
 2495 09f8 40F30981 		ble	.L165
 2496              		.loc 1 1496 0
ARM GAS  /tmp/cc7TW52V.s 			page 45


 2497 09fc 4FEA111C 		lsr	ip, r1, #4
 2498 0a00 7149     		ldr	r1, .L323+16
 2499 0a02 ACF1050C 		sub	ip, ip, #5
 2500 0a06 0020     		movs	r0, #0
 2501 0a08 0D78     		ldrb	r5, [r1]	@ zero_extendqisi2
 2502 0a0a 4FEA8C0C 		lsl	ip, ip, #2
 2503 0a0e 8BF80000 		strb	r0, [fp]
 2504              	.L166:
 2505              		.loc 1 1496 0 is_stmt 0 discriminator 1
 2506 0a12 6045     		cmp	r0, ip
 2507 0a14 80F21B81 		bge	.L290
 2508              		.loc 1 1497 0 is_stmt 1
 2509 0a18 04EB000E 		add	lr, r4, r0
 2510 0a1c 9EF83650 		ldrb	r5, [lr, #54]	@ zero_extendqisi2
 2511              		.loc 1 1517 0
 2512 0a20 F146     		mov	r9, lr
 2513              		.loc 1 1498 0
 2514 0a22 002D     		cmp	r5, #0
 2515 0a24 00F01381 		beq	.L290
 2516              		.loc 1 1501 0
 2517 0a28 012D     		cmp	r5, #1
 2518 0a2a 00F01481 		beq	.L311
 2519              		.loc 1 1504 0
 2520 0a2e 022D     		cmp	r5, #2
 2521 0a30 00F0D080 		beq	.L312
 2522              	.L171:
 2523              		.loc 1 1517 0
 2524 0a34 99F837E0 		ldrb	lr, [r9, #55]	@ zero_extendqisi2
 2525              		.loc 1 1522 0
 2526 0a38 0EEB0009 		add	r9, lr, r0
 2527              		.loc 1 1517 0
 2528 0a3c BEF1000F 		cmp	lr, #0
 2529 0a40 00F00581 		beq	.L290
 2530              		.loc 1 1522 0
 2531 0a44 5FFA89F0 		uxtb	r0, r9
 2532 0a48 E3E7     		b	.L166
 2533              	.L307:
 2534              		.loc 1 1411 0
 2535 0a4a 5D48     		ldr	r0, .L323+8
 2536 0a4c B0F828C0 		ldrh	ip, [r0, #40]
 2537 0a50 7089     		ldrh	r0, [r6, #10]
 2538 0a52 8445     		cmp	ip, r0
 2539 0a54 7FF489AD 		bne	.L160
 2540 0a58 42E6     		b	.L145
 2541              	.L125:
 2542              	.LVL119:
 2543              		.loc 1 1278 0
 2544 0a5a 1E46     		mov	r6, r3
 2545 0a5c DFF87081 		ldr	r8, .L323+24
 2546              		.loc 1 1280 0
 2547 0a60 4FF0280C 		mov	ip, #40
 2548 0a64 CDF81CB0 		str	fp, [sp, #28]
 2549 0a68 02E0     		b	.L198
 2550              	.LVL120:
 2551              	.L132:
 2552              		.loc 1 1279 0
 2553 0a6a 092A     		cmp	r2, #9
ARM GAS  /tmp/cc7TW52V.s 			page 46


 2554 0a6c 7AD8     		bhi	.L313
 2555 0a6e 1346     		mov	r3, r2
 2556              	.LVL121:
 2557              	.L198:
 2558              		.loc 1 1280 0
 2559 0a70 0CFB0381 		mla	r1, ip, r3, r8
 2560 0a74 01F11800 		add	r0, r1, #24
 2561 0a78 90F801B0 		ldrb	fp, [r0, #1]	@ zero_extendqisi2
 2562              		.loc 1 1279 0
 2563 0a7c 5A1C     		adds	r2, r3, #1
 2564 0a7e D2B2     		uxtb	r2, r2
 2565              		.loc 1 1280 0
 2566 0a80 BBF1000F 		cmp	fp, #0
 2567 0a84 0AD0     		beq	.L314
 2568              		.loc 1 1284 0
 2569 0a86 BBF1070F 		cmp	fp, #7
 2570 0a8a EED1     		bne	.L132
 2571              		.loc 1 1285 0
 2572 0a8c 1EB1     		cbz	r6, .L133
 2573              		.loc 1 1285 0 is_stmt 0 discriminator 1
 2574 0a8e 8078     		ldrb	r0, [r0, #2]	@ zero_extendqisi2
 2575 0a90 B17E     		ldrb	r1, [r6, #26]	@ zero_extendqisi2
 2576 0a92 8842     		cmp	r0, r1
 2577 0a94 E9D9     		bls	.L132
 2578              	.L133:
 2579              		.loc 1 1287 0 is_stmt 1
 2580 0a96 0CFB0386 		mla	r6, ip, r3, r8
 2581              	.LVL122:
 2582 0a9a E6E7     		b	.L132
 2583              	.L314:
 2584 0a9c DDF81CB0 		ldr	fp, [sp, #28]
 2585              		.loc 1 1281 0
 2586 0aa0 0E46     		mov	r6, r1
 2587              	.LVL123:
 2588 0aa2 8BF80030 		strb	r3, [fp]
 2589              	.LVL124:
 2590              	.L131:
 2591              		.loc 1 1307 0
 2592 0aa6 DDF818C0 		ldr	ip, [sp, #24]
 2593              		.loc 1 1303 0
 2594 0aaa 0322     		movs	r2, #3
 2595              		.loc 1 1304 0
 2596 0aac 4FF00008 		mov	r8, #0
 2597              		.loc 1 1305 0
 2598 0ab0 0421     		movs	r1, #4
 2599              		.loc 1 1312 0
 2600 0ab2 464B     		ldr	r3, .L323+20
 2601              		.loc 1 1303 0
 2602 0ab4 B276     		strb	r2, [r6, #26]
 2603 0ab6 3276     		strb	r2, [r6, #24]
 2604              		.loc 1 1305 0
 2605 0ab8 F175     		strb	r1, [r6, #23]
 2606              		.loc 1 1307 0
 2607 0aba A6F804C0 		strh	ip, [r6, #4]	@ movhi
 2608              		.loc 1 1304 0
 2609 0abe 86F81680 		strb	r8, [r6, #22]
 2610              		.loc 1 1306 0
ARM GAS  /tmp/cc7TW52V.s 			page 47


 2611 0ac2 86F81B80 		strb	r8, [r6, #27]
 2612              		.loc 1 1308 0
 2613 0ac6 B4F822E0 		ldrh	lr, [r4, #34]
 2614              		.loc 1 1312 0
 2615 0aca 1878     		ldrb	r0, [r3]	@ zero_extendqisi2
 2616              		.loc 1 1313 0
 2617 0acc 5978     		ldrb	r1, [r3, #1]	@ zero_extendqisi2
 2618              		.loc 1 1314 0
 2619 0ace 9A78     		ldrb	r2, [r3, #2]	@ zero_extendqisi2
 2620              		.loc 1 1308 0
 2621 0ad0 A6F806E0 		strh	lr, [r6, #6]	@ movhi
 2622              		.loc 1 1315 0
 2623 0ad4 DB78     		ldrb	r3, [r3, #3]	@ zero_extendqisi2
 2624              		.loc 1 1309 0
 2625 0ad6 B4F81AE0 		ldrh	lr, [r4, #26]
 2626              		.loc 1 1312 0
 2627 0ada 3073     		strb	r0, [r6, #12]
 2628              		.loc 1 1309 0
 2629 0adc A08B     		ldrh	r0, [r4, #28]
 2630              		.loc 1 1313 0
 2631 0ade 7173     		strb	r1, [r6, #13]
 2632              		.loc 1 1314 0
 2633 0ae0 B273     		strb	r2, [r6, #14]
 2634              		.loc 1 1319 0
 2635 0ae2 94F82910 		ldrb	r1, [r4, #41]	@ zero_extendqisi2
 2636              		.loc 1 1320 0
 2637 0ae6 94F82820 		ldrb	r2, [r4, #40]	@ zero_extendqisi2
 2638              		.loc 1 1315 0
 2639 0aea F373     		strb	r3, [r6, #15]
 2640              		.loc 1 1309 0
 2641 0aec A6F800E0 		strh	lr, [r6]	@ movhi
 2642              		.loc 1 1321 0
 2643 0af0 94F82730 		ldrb	r3, [r4, #39]	@ zero_extendqisi2
 2644              		.loc 1 1322 0
 2645 0af4 94F826E0 		ldrb	lr, [r4, #38]	@ zero_extendqisi2
 2646              		.loc 1 1309 0
 2647 0af8 7080     		strh	r0, [r6, #2]	@ movhi
 2648              		.loc 1 1310 0
 2649 0afa 0120     		movs	r0, #1
 2650              		.loc 1 1320 0
 2651 0afc B272     		strb	r2, [r6, #10]
 2652              		.loc 1 1321 0
 2653 0afe 7372     		strb	r3, [r6, #9]
 2654              		.loc 1 1319 0
 2655 0b00 F172     		strb	r1, [r6, #11]
 2656              		.loc 1 1322 0
 2657 0b02 86F808E0 		strb	lr, [r6, #8]
 2658              		.loc 1 1310 0
 2659 0b06 7076     		strb	r0, [r6, #25]
 2660              		.loc 1 1316 0
 2661 0b08 3082     		strh	r0, [r6, #16]	@ movhi
 2662              		.loc 1 1300 0
 2663 0b0a C9F80060 		str	r6, [r9]
 2664              		.loc 1 1323 0
 2665 0b0e FFF7FEFF 		bl	uip_add_rcv_nxt
 2666              	.LVL125:
 2667              		.loc 1 1326 0
ARM GAS  /tmp/cc7TW52V.s 			page 48


 2668 0b12 94F82E30 		ldrb	r3, [r4, #46]	@ zero_extendqisi2
 2669 0b16 03F0F002 		and	r2, r3, #240
 2670 0b1a 502A     		cmp	r2, #80
 2671 0b1c 7FF70DAC 		ble	.L100
 2672              		.loc 1 1327 0
 2673 0b20 1B09     		lsrs	r3, r3, #4
 2674 0b22 2949     		ldr	r1, .L323+16
 2675 0b24 A3F1050E 		sub	lr, r3, #5
 2676 0b28 4FEA8E0E 		lsl	lr, lr, #2
 2677 0b2c 8BF80080 		strb	r8, [fp]
 2678 0b30 4346     		mov	r3, r8
 2679 0b32 0A78     		ldrb	r2, [r1]	@ zero_extendqisi2
 2680 0b34 0FE0     		b	.L135
 2681              	.L141:
 2682              		.loc 1 1328 0
 2683 0b36 E018     		adds	r0, r4, r3
 2684 0b38 90F83620 		ldrb	r2, [r0, #54]	@ zero_extendqisi2
 2685              		.loc 1 1348 0
 2686 0b3c 8446     		mov	ip, r0
 2687              		.loc 1 1329 0
 2688 0b3e 62B1     		cbz	r2, .L289
 2689              		.loc 1 1332 0
 2690 0b40 012A     		cmp	r2, #1
 2691 0b42 35D0     		beq	.L315
 2692              		.loc 1 1335 0
 2693 0b44 022A     		cmp	r2, #2
 2694 0b46 19D0     		beq	.L316
 2695              	.L139:
 2696              		.loc 1 1348 0
 2697 0b48 9CF83700 		ldrb	r0, [ip, #55]	@ zero_extendqisi2
 2698              		.loc 1 1353 0
 2699 0b4c 00EB030C 		add	ip, r0, r3
 2700              		.loc 1 1348 0
 2701 0b50 18B1     		cbz	r0, .L289
 2702              		.loc 1 1353 0
 2703 0b52 5FFA8CF3 		uxtb	r3, ip
 2704              	.L135:
 2705              		.loc 1 1327 0 discriminator 1
 2706 0b56 7345     		cmp	r3, lr
 2707 0b58 EDDB     		blt	.L141
 2708              	.L289:
 2709 0b5a 8BF80030 		strb	r3, [fp]
 2710 0b5e 0A70     		strb	r2, [r1]
 2711 0b60 FFF7EBBB 		b	.L100
 2712              	.L313:
 2713 0b64 DDF81CB0 		ldr	fp, [sp, #28]
 2714 0b68 8BF80020 		strb	r2, [fp]
 2715              		.loc 1 1292 0
 2716 0b6c 002E     		cmp	r6, #0
 2717 0b6e 9AD1     		bne	.L131
 2718              		.loc 1 1296 0
 2719 0b70 2A8D     		ldrh	r2, [r5, #40]
 2720 0b72 144B     		ldr	r3, .L323+12
 2721 0b74 0132     		adds	r2, r2, #1
 2722 0b76 2A85     		strh	r2, [r5, #40]	@ movhi
 2723              		.loc 1 1298 0
 2724 0b78 FFF767BA 		b	.L94
ARM GAS  /tmp/cc7TW52V.s 			page 49


 2725              	.L316:
 2726              		.loc 1 1335 0 discriminator 1
 2727 0b7c 90F83780 		ldrb	r8, [r0, #55]	@ zero_extendqisi2
 2728 0b80 B8F1040F 		cmp	r8, #4
 2729 0b84 E0D1     		bne	.L139
 2730              		.loc 1 1338 0
 2731 0b86 90F838E0 		ldrb	lr, [r0, #56]	@ zero_extendqisi2
 2732 0b8a 90F83900 		ldrb	r0, [r0, #57]	@ zero_extendqisi2
 2733 0b8e 0A70     		strb	r2, [r1]
 2734 0b90 40EA0E20 		orr	r0, r0, lr, lsl #8
 2735 0b94 0599     		ldr	r1, [sp, #20]
 2736 0b96 8BF80030 		strb	r3, [fp]
 2737              		.loc 1 1340 0
 2738 0b9a B0F5B76F 		cmp	r0, #1464
 2739 0b9e 34BF     		ite	cc
 2740 0ba0 0346     		movcc	r3, r0
 2741 0ba2 4FF4B763 		movcs	r3, #1464
 2742              		.loc 1 1338 0
 2743 0ba6 0880     		strh	r0, [r1]	@ movhi
 2744              		.loc 1 1340 0
 2745 0ba8 7382     		strh	r3, [r6, #18]	@ movhi
 2746 0baa B382     		strh	r3, [r6, #20]	@ movhi
 2747              		.loc 1 1344 0
 2748 0bac FFF7C5BB 		b	.L100
 2749              	.L315:
 2750              		.loc 1 1333 0
 2751 0bb0 0133     		adds	r3, r3, #1
 2752 0bb2 DBB2     		uxtb	r3, r3
 2753 0bb4 CFE7     		b	.L135
 2754              	.L324:
 2755 0bb6 00BF     		.align	2
 2756              	.L323:
 2757 0bb8 00000000 		.word	.LANCHOR16
 2758 0bbc 00000000 		.word	.LANCHOR13
 2759 0bc0 00000000 		.word	.LANCHOR0
 2760 0bc4 00000000 		.word	.LANCHOR11
 2761 0bc8 00000000 		.word	.LANCHOR17
 2762 0bcc 00000000 		.word	.LANCHOR8
 2763 0bd0 00000000 		.word	.LANCHOR5
 2764              	.L312:
 2765              		.loc 1 1504 0 discriminator 1
 2766 0bd4 9EF837A0 		ldrb	r10, [lr, #55]	@ zero_extendqisi2
 2767 0bd8 BAF1040F 		cmp	r10, #4
 2768 0bdc 7FF42AAF 		bne	.L171
 2769              		.loc 1 1507 0
 2770 0be0 9EF838C0 		ldrb	ip, [lr, #56]	@ zero_extendqisi2
 2771 0be4 9EF839E0 		ldrb	lr, [lr, #57]	@ zero_extendqisi2
 2772 0be8 DFF87490 		ldr	r9, .L325+4
 2773 0bec 4EEA0C2C 		orr	ip, lr, ip, lsl #8
 2774              		.loc 1 1510 0
 2775 0bf0 BCF5B76F 		cmp	ip, #1464
 2776 0bf4 34BF     		ite	cc
 2777 0bf6 E646     		movcc	lr, ip
 2778 0bf8 4FF4B76E 		movcs	lr, #1464
 2779 0bfc 8BF80000 		strb	r0, [fp]
 2780 0c00 0D70     		strb	r5, [r1]
 2781              		.loc 1 1507 0
ARM GAS  /tmp/cc7TW52V.s 			page 50


 2782 0c02 A9F800C0 		strh	ip, [r9]	@ movhi
 2783              		.loc 1 1510 0
 2784 0c06 A6F812E0 		strh	lr, [r6, #18]	@ movhi
 2785              		.loc 1 1509 0
 2786 0c0a A6F814E0 		strh	lr, [r6, #20]	@ movhi
 2787              	.L165:
 2788              		.loc 1 1529 0
 2789 0c0e 94F82850 		ldrb	r5, [r4, #40]	@ zero_extendqisi2
 2790              		.loc 1 1530 0
 2791 0c12 94F82900 		ldrb	r0, [r4, #41]	@ zero_extendqisi2
 2792              		.loc 1 1527 0
 2793 0c16 94F826C0 		ldrb	ip, [r4, #38]	@ zero_extendqisi2
 2794              		.loc 1 1528 0
 2795 0c1a 94F827E0 		ldrb	lr, [r4, #39]	@ zero_extendqisi2
 2796              		.loc 1 1526 0
 2797 0c1e 0321     		movs	r1, #3
 2798              		.loc 1 1529 0
 2799 0c20 B572     		strb	r5, [r6, #10]
 2800              		.loc 1 1530 0
 2801 0c22 F072     		strb	r0, [r6, #11]
 2802              		.loc 1 1526 0
 2803 0c24 7176     		strb	r1, [r6, #25]
 2804              		.loc 1 1527 0
 2805 0c26 86F808C0 		strb	ip, [r6, #8]
 2806              		.loc 1 1528 0
 2807 0c2a 86F809E0 		strb	lr, [r6, #9]
 2808              		.loc 1 1531 0
 2809 0c2e 0120     		movs	r0, #1
 2810 0c30 0293     		str	r3, [sp, #8]
 2811 0c32 0392     		str	r2, [sp, #12]
 2812 0c34 FFF7FEFF 		bl	uip_add_rcv_nxt
 2813              	.LVL126:
 2814              		.loc 1 1535 0
 2815 0c38 0848     		ldr	r0, .L325
 2816              		.loc 1 1533 0
 2817 0c3a 0021     		movs	r1, #0
 2818 0c3c 3182     		strh	r1, [r6, #16]	@ movhi
 2819              		.loc 1 1534 0
 2820 0c3e 3980     		strh	r1, [r7]	@ movhi
 2821              		.loc 1 1535 0
 2822 0c40 0180     		strh	r1, [r0]	@ movhi
 2823              		.loc 1 1532 0
 2824 0c42 029B     		ldr	r3, [sp, #8]
 2825 0c44 4225     		movs	r5, #66
 2826 0c46 1D70     		strb	r5, [r3]
 2827              		.loc 1 1536 0
 2828 0c48 0490     		str	r0, [sp, #16]
 2829 0c4a FFF746BA 		b	.L292
 2830              	.L290:
 2831 0c4e 8BF80000 		strb	r0, [fp]
 2832 0c52 0D70     		strb	r5, [r1]
 2833 0c54 DBE7     		b	.L165
 2834              	.L311:
 2835              		.loc 1 1502 0
 2836 0c56 0130     		adds	r0, r0, #1
 2837 0c58 C0B2     		uxtb	r0, r0
 2838 0c5a DAE6     		b	.L166
ARM GAS  /tmp/cc7TW52V.s 			page 51


 2839              	.L326:
 2840              		.align	2
 2841              	.L325:
 2842 0c5c 00000000 		.word	.LANCHOR13
 2843 0c60 00000000 		.word	.LANCHOR16
 2844              		.cfi_endproc
 2845              	.LFE13:
 2846              		.size	uip_process, .-uip_process
 2847 0c64 AFF30080 		.section	.text.htons,"ax",%progbits
 2847      AFF30080 
 2847      AFF30080 
 2848              		.align	2
 2849              		.p2align 4,,15
 2850              		.global	htons
 2851              		.thumb
 2852              		.thumb_func
 2853              		.type	htons, %function
 2854              	htons:
 2855              	.LFB14:
 2856              		.loc 1 1882 0
 2857              		.cfi_startproc
 2858              		@ args = 0, pretend = 0, frame = 0
 2859              		@ frame_needed = 0, uses_anonymous_args = 0
 2860              		@ link register save eliminated.
 2861              	.LVL127:
 2862 0000 40BA     		rev16	r0, r0
 2863              	.LVL128:
 2864              		.loc 1 1884 0
 2865 0002 80B2     		uxth	r0, r0
 2866 0004 7047     		bx	lr
 2867              		.cfi_endproc
 2868              	.LFE14:
 2869              		.size	htons, .-htons
 2870 0006 00BFAFF3 		.section	.text.uip_send,"ax",%progbits
 2870      0080AFF3 
 2870      0080
 2871              		.align	2
 2872              		.p2align 4,,15
 2873              		.global	uip_send
 2874              		.thumb
 2875              		.thumb_func
 2876              		.type	uip_send, %function
 2877              	uip_send:
 2878              	.LFB15:
 2879              		.loc 1 1888 0
 2880              		.cfi_startproc
 2881              		@ args = 0, pretend = 0, frame = 0
 2882              		@ frame_needed = 0, uses_anonymous_args = 0
 2883              		@ link register save eliminated.
 2884              	.LVL129:
 2885              		.loc 1 1889 0
 2886 0000 0A1E     		subs	r2, r1, #0
 2887              		.loc 1 1888 0
 2888 0002 0346     		mov	r3, r0
 2889              		.loc 1 1889 0
 2890 0004 09DD     		ble	.L328
 2891              		.loc 1 1891 0
ARM GAS  /tmp/cc7TW52V.s 			page 52


 2892 0006 0548     		ldr	r0, .L332
 2893              	.LVL130:
 2894              		.loc 1 1890 0
 2895 0008 0549     		ldr	r1, .L332+4
 2896              	.LVL131:
 2897              		.loc 1 1891 0
 2898 000a 0068     		ldr	r0, [r0]
 2899              		.loc 1 1890 0
 2900 000c 0A80     		strh	r2, [r1]	@ movhi
 2901              		.loc 1 1891 0
 2902 000e 8342     		cmp	r3, r0
 2903 0010 03D0     		beq	.L328
 2904              		.loc 1 1892 0
 2905 0012 1946     		mov	r1, r3
 2906 0014 92B2     		uxth	r2, r2
 2907              	.LVL132:
 2908 0016 FFF7FEBF 		b	memcpy
 2909              	.LVL133:
 2910              	.L328:
 2911 001a 7047     		bx	lr
 2912              	.L333:
 2913              		.align	2
 2914              	.L332:
 2915 001c 00000000 		.word	.LANCHOR10
 2916 0020 00000000 		.word	.LANCHOR13
 2917              		.cfi_endproc
 2918              	.LFE15:
 2919              		.size	uip_send, .-uip_send
 2920              		.global	uip_stat
 2921              		.global	uip_acc32
 2922              		.global	uip_listenports
 2923              		.global	uip_conns
 2924              		.global	uip_conn
 2925              		.global	uip_flags
 2926              		.global	uip_slen
 2927              		.global	uip_len
 2928              		.global	uip_sappdata
 2929              		.global	uip_appdata
 2930              		.global	uip_buf
 2931              		.global	uip_ethaddr
 2932              		.global	uip_netmask
 2933              		.global	uip_draddr
 2934              		.global	uip_hostaddr
 2935 0024 AFF30080 		.section	.bss.uip_conn,"aw",%nobits
 2935      AFF30080 
 2935      AFF30080 
 2936              		.align	2
 2937              		.set	.LANCHOR3,. + 0
 2938              		.type	uip_conn, %object
 2939              		.size	uip_conn, 4
 2940              	uip_conn:
 2941 0000 00000000 		.space	4
 2942              		.section	.bss.uip_conns,"aw",%nobits
 2943              		.align	2
 2944              		.set	.LANCHOR5,. + 0
 2945              		.type	uip_conns, %object
 2946              		.size	uip_conns, 400
ARM GAS  /tmp/cc7TW52V.s 			page 53


 2947              	uip_conns:
 2948 0000 00000000 		.space	400
 2948      00000000 
 2948      00000000 
 2948      00000000 
 2948      00000000 
 2949              		.section	.bss.uip_netmask,"aw",%nobits
 2950              		.align	2
 2951              		.type	uip_netmask, %object
 2952              		.size	uip_netmask, 4
 2953              	uip_netmask:
 2954 0000 00000000 		.space	4
 2955              		.section	.bss.uip_len,"aw",%nobits
 2956              		.align	1
 2957              		.set	.LANCHOR12,. + 0
 2958              		.type	uip_len, %object
 2959              		.size	uip_len, 2
 2960              	uip_len:
 2961 0000 0000     		.space	2
 2962              		.section	.bss.ipid,"aw",%nobits
 2963              		.align	1
 2964              		.set	.LANCHOR1,. + 0
 2965              		.type	ipid, %object
 2966              		.size	ipid, 2
 2967              	ipid:
 2968 0000 0000     		.space	2
 2969              		.section	.bss.uip_draddr,"aw",%nobits
 2970              		.align	2
 2971              		.type	uip_draddr, %object
 2972              		.size	uip_draddr, 4
 2973              	uip_draddr:
 2974 0000 00000000 		.space	4
 2975              		.section	.bss.uip_slen,"aw",%nobits
 2976              		.align	1
 2977              		.set	.LANCHOR13,. + 0
 2978              		.type	uip_slen, %object
 2979              		.size	uip_slen, 2
 2980              	uip_slen:
 2981 0000 0000     		.space	2
 2982              		.section	.bss.tmp16,"aw",%nobits
 2983              		.align	1
 2984              		.set	.LANCHOR16,. + 0
 2985              		.type	tmp16, %object
 2986              		.size	tmp16, 2
 2987              	tmp16:
 2988 0000 0000     		.space	2
 2989              		.section	.bss.uip_buf,"aw",%nobits
 2990              		.align	2
 2991              		.set	.LANCHOR0,. + 0
 2992              		.type	uip_buf, %object
 2993              		.size	uip_buf, 1520
 2994              	uip_buf:
 2995 0000 00000000 		.space	1520
 2995      00000000 
 2995      00000000 
 2995      00000000 
 2995      00000000 
ARM GAS  /tmp/cc7TW52V.s 			page 54


 2996              		.section	.bss.uip_appdata,"aw",%nobits
 2997              		.align	2
 2998              		.set	.LANCHOR9,. + 0
 2999              		.type	uip_appdata, %object
 3000              		.size	uip_appdata, 4
 3001              	uip_appdata:
 3002 0000 00000000 		.space	4
 3003              		.section	.bss.iss,"aw",%nobits
 3004              		.align	2
 3005              		.set	.LANCHOR8,. + 0
 3006              		.type	iss, %object
 3007              		.size	iss, 4
 3008              	iss:
 3009 0000 00000000 		.space	4
 3010              		.section	.bss.uip_hostaddr,"aw",%nobits
 3011              		.align	2
 3012              		.set	.LANCHOR15,. + 0
 3013              		.type	uip_hostaddr, %object
 3014              		.size	uip_hostaddr, 4
 3015              	uip_hostaddr:
 3016 0000 00000000 		.space	4
 3017              		.section	.bss.uip_flags,"aw",%nobits
 3018              		.set	.LANCHOR11,. + 0
 3019              		.type	uip_flags, %object
 3020              		.size	uip_flags, 1
 3021              	uip_flags:
 3022 0000 00       		.space	1
 3023              		.section	.bss.uip_acc32,"aw",%nobits
 3024              		.align	2
 3025              		.set	.LANCHOR2,. + 0
 3026              		.type	uip_acc32, %object
 3027              		.size	uip_acc32, 4
 3028              	uip_acc32:
 3029 0000 00000000 		.space	4
 3030              		.section	.bss.lastport,"aw",%nobits
 3031              		.align	1
 3032              		.set	.LANCHOR7,. + 0
 3033              		.type	lastport, %object
 3034              		.size	lastport, 2
 3035              	lastport:
 3036 0000 0000     		.space	2
 3037              		.section	.bss.uip_stat,"aw",%nobits
 3038              		.align	2
 3039              		.set	.LANCHOR14,. + 0
 3040              		.type	uip_stat, %object
 3041              		.size	uip_stat, 44
 3042              	uip_stat:
 3043 0000 00000000 		.space	44
 3043      00000000 
 3043      00000000 
 3043      00000000 
 3043      00000000 
 3044              		.section	.bss.uip_ethaddr,"aw",%nobits
 3045              		.align	2
 3046              		.type	uip_ethaddr, %object
 3047              		.size	uip_ethaddr, 6
 3048              	uip_ethaddr:
ARM GAS  /tmp/cc7TW52V.s 			page 55


 3049 0000 00000000 		.space	6
 3049      0000
 3050 0006 0000     		.section	.bss.c,"aw",%nobits
 3051              		.set	.LANCHOR6,. + 0
 3052              		.type	c, %object
 3053              		.size	c, 1
 3054              	c:
 3055 0000 00       		.space	1
 3056              		.section	.bss.uip_listenports,"aw",%nobits
 3057              		.align	2
 3058              		.set	.LANCHOR4,. + 0
 3059              		.type	uip_listenports, %object
 3060              		.size	uip_listenports, 2
 3061              	uip_listenports:
 3062 0000 0000     		.space	2
 3063 0002 0000     		.section	.bss.uip_sappdata,"aw",%nobits
 3064              		.align	2
 3065              		.set	.LANCHOR10,. + 0
 3066              		.type	uip_sappdata, %object
 3067              		.size	uip_sappdata, 4
 3068              	uip_sappdata:
 3069 0000 00000000 		.space	4
 3070              		.section	.bss.opt,"aw",%nobits
 3071              		.set	.LANCHOR17,. + 0
 3072              		.type	opt, %object
 3073              		.size	opt, 1
 3074              	opt:
 3075 0000 00       		.space	1
 3076              		.text
 3077              	.Letext0:
 3078              		.file 2 "/usr/include/newlib/machine/_default_types.h"
 3079              		.file 3 "/usr/include/newlib/stdint.h"
 3080              		.file 4 "./modbus_tcp.h"
 3081              		.file 5 "./uip-conf.h"
 3082              		.file 6 "../uip/uip.h"
 3083              		.section	.debug_info,"",%progbits
 3084              	.Ldebug_info0:
 3085 0000 CC0D0000 		.4byte	0xdcc
 3086 0004 0400     		.2byte	0x4
 3087 0006 00000000 		.4byte	.Ldebug_abbrev0
 3088 000a 04       		.byte	0x4
 3089 000b 01       		.uleb128 0x1
 3090 000c 91030000 		.4byte	.LASF131
 3091 0010 01       		.byte	0x1
 3092 0011 BA000000 		.4byte	.LASF132
 3093 0015 64010000 		.4byte	.LASF133
 3094 0019 00000000 		.4byte	.Ldebug_ranges0+0
 3095 001d 00000000 		.4byte	0
 3096 0021 00000000 		.4byte	.Ldebug_line0
 3097 0025 02       		.uleb128 0x2
 3098 0026 01       		.byte	0x1
 3099 0027 06       		.byte	0x6
 3100 0028 9C000000 		.4byte	.LASF0
 3101 002c 03       		.uleb128 0x3
 3102 002d 2F000000 		.4byte	.LASF3
 3103 0031 02       		.byte	0x2
 3104 0032 1D       		.byte	0x1d
ARM GAS  /tmp/cc7TW52V.s 			page 56


 3105 0033 37000000 		.4byte	0x37
 3106 0037 02       		.uleb128 0x2
 3107 0038 01       		.byte	0x1
 3108 0039 08       		.byte	0x8
 3109 003a 5E040000 		.4byte	.LASF1
 3110 003e 02       		.uleb128 0x2
 3111 003f 02       		.byte	0x2
 3112 0040 05       		.byte	0x5
 3113 0041 7E040000 		.4byte	.LASF2
 3114 0045 03       		.uleb128 0x3
 3115 0046 04050000 		.4byte	.LASF4
 3116 004a 02       		.byte	0x2
 3117 004b 2B       		.byte	0x2b
 3118 004c 50000000 		.4byte	0x50
 3119 0050 02       		.uleb128 0x2
 3120 0051 02       		.byte	0x2
 3121 0052 07       		.byte	0x7
 3122 0053 07020000 		.4byte	.LASF5
 3123 0057 02       		.uleb128 0x2
 3124 0058 04       		.byte	0x4
 3125 0059 05       		.byte	0x5
 3126 005a D3000000 		.4byte	.LASF6
 3127 005e 02       		.uleb128 0x2
 3128 005f 04       		.byte	0x4
 3129 0060 07       		.byte	0x7
 3130 0061 C6010000 		.4byte	.LASF7
 3131 0065 02       		.uleb128 0x2
 3132 0066 08       		.byte	0x8
 3133 0067 05       		.byte	0x5
 3134 0068 8E000000 		.4byte	.LASF8
 3135 006c 02       		.uleb128 0x2
 3136 006d 08       		.byte	0x8
 3137 006e 07       		.byte	0x7
 3138 006f 59000000 		.4byte	.LASF9
 3139 0073 04       		.uleb128 0x4
 3140 0074 04       		.byte	0x4
 3141 0075 05       		.byte	0x5
 3142 0076 696E7400 		.ascii	"int\000"
 3143 007a 02       		.uleb128 0x2
 3144 007b 04       		.byte	0x4
 3145 007c 07       		.byte	0x7
 3146 007d 57010000 		.4byte	.LASF10
 3147 0081 03       		.uleb128 0x3
 3148 0082 E2050000 		.4byte	.LASF11
 3149 0086 03       		.byte	0x3
 3150 0087 2A       		.byte	0x2a
 3151 0088 2C000000 		.4byte	0x2c
 3152 008c 03       		.uleb128 0x3
 3153 008d 11010000 		.4byte	.LASF12
 3154 0091 03       		.byte	0x3
 3155 0092 36       		.byte	0x36
 3156 0093 45000000 		.4byte	0x45
 3157 0097 05       		.uleb128 0x5
 3158 0098 55060000 		.4byte	.LASF25
 3159 009c 0C       		.byte	0xc
 3160 009d 04       		.byte	0x4
 3161 009e 2B       		.byte	0x2b
ARM GAS  /tmp/cc7TW52V.s 			page 57


 3162 009f D4000000 		.4byte	0xd4
 3163 00a3 06       		.uleb128 0x6
 3164 00a4 CD000000 		.4byte	.LASF13
 3165 00a8 04       		.byte	0x4
 3166 00a9 2C       		.byte	0x2c
 3167 00aa 81000000 		.4byte	0x81
 3168 00ae 00       		.byte	0
 3169 00af 06       		.uleb128 0x6
 3170 00b0 00000000 		.4byte	.LASF14
 3171 00b4 04       		.byte	0x4
 3172 00b5 2D       		.byte	0x2d
 3173 00b6 8C000000 		.4byte	0x8c
 3174 00ba 02       		.byte	0x2
 3175 00bb 06       		.uleb128 0x6
 3176 00bc FC040000 		.4byte	.LASF15
 3177 00c0 04       		.byte	0x4
 3178 00c1 2E       		.byte	0x2e
 3179 00c2 D4000000 		.4byte	0xd4
 3180 00c6 04       		.byte	0x4
 3181 00c7 06       		.uleb128 0x6
 3182 00c8 6C040000 		.4byte	.LASF16
 3183 00cc 04       		.byte	0x4
 3184 00cd 2F       		.byte	0x2f
 3185 00ce D4000000 		.4byte	0xd4
 3186 00d2 08       		.byte	0x8
 3187 00d3 00       		.byte	0
 3188 00d4 07       		.uleb128 0x7
 3189 00d5 04       		.byte	0x4
 3190 00d6 DA000000 		.4byte	0xda
 3191 00da 02       		.uleb128 0x2
 3192 00db 01       		.byte	0x1
 3193 00dc 08       		.byte	0x8
 3194 00dd ED040000 		.4byte	.LASF17
 3195 00e1 03       		.uleb128 0x3
 3196 00e2 E5010000 		.4byte	.LASF18
 3197 00e6 04       		.byte	0x4
 3198 00e7 39       		.byte	0x39
 3199 00e8 97000000 		.4byte	0x97
 3200 00ec 03       		.uleb128 0x3
 3201 00ed E2020000 		.4byte	.LASF19
 3202 00f1 05       		.byte	0x5
 3203 00f2 54       		.byte	0x54
 3204 00f3 81000000 		.4byte	0x81
 3205 00f7 03       		.uleb128 0x3
 3206 00f8 96050000 		.4byte	.LASF20
 3207 00fc 05       		.byte	0x5
 3208 00fd 5D       		.byte	0x5d
 3209 00fe 8C000000 		.4byte	0x8c
 3210 0102 03       		.uleb128 0x3
 3211 0103 BA010000 		.4byte	.LASF21
 3212 0107 05       		.byte	0x5
 3213 0108 67       		.byte	0x67
 3214 0109 50000000 		.4byte	0x50
 3215 010d 03       		.uleb128 0x3
 3216 010e 02030000 		.4byte	.LASF22
 3217 0112 06       		.byte	0x6
 3218 0113 3E       		.byte	0x3e
ARM GAS  /tmp/cc7TW52V.s 			page 58


 3219 0114 18010000 		.4byte	0x118
 3220 0118 08       		.uleb128 0x8
 3221 0119 F7000000 		.4byte	0xf7
 3222 011d 28010000 		.4byte	0x128
 3223 0121 09       		.uleb128 0x9
 3224 0122 28010000 		.4byte	0x128
 3225 0126 01       		.byte	0x1
 3226 0127 00       		.byte	0
 3227 0128 02       		.uleb128 0x2
 3228 0129 04       		.byte	0x4
 3229 012a 07       		.byte	0x7
 3230 012b EF020000 		.4byte	.LASF23
 3231 012f 03       		.uleb128 0x3
 3232 0130 6C050000 		.4byte	.LASF24
 3233 0134 06       		.byte	0x6
 3234 0135 43       		.byte	0x43
 3235 0136 0D010000 		.4byte	0x10d
 3236 013a 0A       		.uleb128 0xa
 3237 013b 5C020000 		.4byte	.LASF26
 3238 013f 28       		.byte	0x28
 3239 0140 06       		.byte	0x6
 3240 0141 8104     		.2byte	0x481
 3241 0143 09020000 		.4byte	0x209
 3242 0147 0B       		.uleb128 0xb
 3243 0148 21020000 		.4byte	.LASF27
 3244 014c 06       		.byte	0x6
 3245 014d 8204     		.2byte	0x482
 3246 014f 2F010000 		.4byte	0x12f
 3247 0153 00       		.byte	0
 3248 0154 0B       		.uleb128 0xb
 3249 0155 B4000000 		.4byte	.LASF28
 3250 0159 06       		.byte	0x6
 3251 015a 8404     		.2byte	0x484
 3252 015c F7000000 		.4byte	0xf7
 3253 0160 04       		.byte	0x4
 3254 0161 0B       		.uleb128 0xb
 3255 0162 1A010000 		.4byte	.LASF29
 3256 0166 06       		.byte	0x6
 3257 0167 8504     		.2byte	0x485
 3258 0169 F7000000 		.4byte	0xf7
 3259 016d 06       		.byte	0x6
 3260 016e 0B       		.uleb128 0xb
 3261 016f DA050000 		.4byte	.LASF30
 3262 0173 06       		.byte	0x6
 3263 0174 8804     		.2byte	0x488
 3264 0176 09020000 		.4byte	0x209
 3265 017a 08       		.byte	0x8
 3266 017b 0B       		.uleb128 0xb
 3267 017c 56040000 		.4byte	.LASF31
 3268 0180 06       		.byte	0x6
 3269 0181 8A04     		.2byte	0x48a
 3270 0183 09020000 		.4byte	0x209
 3271 0187 0C       		.byte	0xc
 3272 0188 0C       		.uleb128 0xc
 3273 0189 6C656E00 		.ascii	"len\000"
 3274 018d 06       		.byte	0x6
 3275 018e 8C04     		.2byte	0x48c
ARM GAS  /tmp/cc7TW52V.s 			page 59


 3276 0190 F7000000 		.4byte	0xf7
 3277 0194 10       		.byte	0x10
 3278 0195 0C       		.uleb128 0xc
 3279 0196 6D737300 		.ascii	"mss\000"
 3280 019a 06       		.byte	0x6
 3281 019b 8D04     		.2byte	0x48d
 3282 019d F7000000 		.4byte	0xf7
 3283 01a1 12       		.byte	0x12
 3284 01a2 0B       		.uleb128 0xb
 3285 01a3 47000000 		.4byte	.LASF32
 3286 01a7 06       		.byte	0x6
 3287 01a8 8F04     		.2byte	0x48f
 3288 01aa F7000000 		.4byte	0xf7
 3289 01ae 14       		.byte	0x14
 3290 01af 0C       		.uleb128 0xc
 3291 01b0 736100   		.ascii	"sa\000"
 3292 01b3 06       		.byte	0x6
 3293 01b4 9104     		.2byte	0x491
 3294 01b6 EC000000 		.4byte	0xec
 3295 01ba 16       		.byte	0x16
 3296 01bb 0C       		.uleb128 0xc
 3297 01bc 737600   		.ascii	"sv\000"
 3298 01bf 06       		.byte	0x6
 3299 01c0 9304     		.2byte	0x493
 3300 01c2 EC000000 		.4byte	0xec
 3301 01c6 17       		.byte	0x17
 3302 01c7 0C       		.uleb128 0xc
 3303 01c8 72746F00 		.ascii	"rto\000"
 3304 01cc 06       		.byte	0x6
 3305 01cd 9504     		.2byte	0x495
 3306 01cf EC000000 		.4byte	0xec
 3307 01d3 18       		.byte	0x18
 3308 01d4 0B       		.uleb128 0xb
 3309 01d5 A2050000 		.4byte	.LASF33
 3310 01d9 06       		.byte	0x6
 3311 01da 9604     		.2byte	0x496
 3312 01dc EC000000 		.4byte	0xec
 3313 01e0 19       		.byte	0x19
 3314 01e1 0B       		.uleb128 0xb
 3315 01e2 F0050000 		.4byte	.LASF34
 3316 01e6 06       		.byte	0x6
 3317 01e7 9704     		.2byte	0x497
 3318 01e9 EC000000 		.4byte	0xec
 3319 01ed 1A       		.byte	0x1a
 3320 01ee 0B       		.uleb128 0xb
 3321 01ef 20010000 		.4byte	.LASF35
 3322 01f3 06       		.byte	0x6
 3323 01f4 9804     		.2byte	0x498
 3324 01f6 EC000000 		.4byte	0xec
 3325 01fa 1B       		.byte	0x1b
 3326 01fb 0B       		.uleb128 0xb
 3327 01fc C3020000 		.4byte	.LASF36
 3328 0200 06       		.byte	0x6
 3329 0201 9C04     		.2byte	0x49c
 3330 0203 E1000000 		.4byte	0xe1
 3331 0207 1C       		.byte	0x1c
 3332 0208 00       		.byte	0
ARM GAS  /tmp/cc7TW52V.s 			page 60


 3333 0209 08       		.uleb128 0x8
 3334 020a EC000000 		.4byte	0xec
 3335 020e 19020000 		.4byte	0x219
 3336 0212 09       		.uleb128 0x9
 3337 0213 28010000 		.4byte	0x128
 3338 0217 03       		.byte	0x3
 3339 0218 00       		.byte	0
 3340 0219 0D       		.uleb128 0xd
 3341 021a 12       		.byte	0x12
 3342 021b 06       		.byte	0x6
 3343 021c D104     		.2byte	0x4d1
 3344 021e 98020000 		.4byte	0x298
 3345 0222 0B       		.uleb128 0xb
 3346 0223 9A040000 		.4byte	.LASF37
 3347 0227 06       		.byte	0x6
 3348 0228 D204     		.2byte	0x4d2
 3349 022a 02010000 		.4byte	0x102
 3350 022e 00       		.byte	0
 3351 022f 0B       		.uleb128 0xb
 3352 0230 0C010000 		.4byte	.LASF38
 3353 0234 06       		.byte	0x6
 3354 0235 D404     		.2byte	0x4d4
 3355 0237 02010000 		.4byte	0x102
 3356 023b 02       		.byte	0x2
 3357 023c 0B       		.uleb128 0xb
 3358 023d 3E030000 		.4byte	.LASF39
 3359 0241 06       		.byte	0x6
 3360 0242 D604     		.2byte	0x4d6
 3361 0244 02010000 		.4byte	0x102
 3362 0248 04       		.byte	0x4
 3363 0249 0B       		.uleb128 0xb
 3364 024a 7F000000 		.4byte	.LASF40
 3365 024e 06       		.byte	0x6
 3366 024f D804     		.2byte	0x4d8
 3367 0251 02010000 		.4byte	0x102
 3368 0255 06       		.byte	0x6
 3369 0256 0B       		.uleb128 0xb
 3370 0257 25010000 		.4byte	.LASF41
 3371 025b 06       		.byte	0x6
 3372 025c DA04     		.2byte	0x4da
 3373 025e 02010000 		.4byte	0x102
 3374 0262 08       		.byte	0x8
 3375 0263 0B       		.uleb128 0xb
 3376 0264 39000000 		.4byte	.LASF42
 3377 0268 06       		.byte	0x6
 3378 0269 DC04     		.2byte	0x4dc
 3379 026b 02010000 		.4byte	0x102
 3380 026f 0A       		.byte	0xa
 3381 0270 0B       		.uleb128 0xb
 3382 0271 E7020000 		.4byte	.LASF43
 3383 0275 06       		.byte	0x6
 3384 0276 DE04     		.2byte	0x4de
 3385 0278 02010000 		.4byte	0x102
 3386 027c 0C       		.byte	0xc
 3387 027d 0B       		.uleb128 0xb
 3388 027e 52000000 		.4byte	.LASF44
 3389 0282 06       		.byte	0x6
ARM GAS  /tmp/cc7TW52V.s 			page 61


 3390 0283 E004     		.2byte	0x4e0
 3391 0285 02010000 		.4byte	0x102
 3392 0289 0E       		.byte	0xe
 3393 028a 0B       		.uleb128 0xb
 3394 028b 91040000 		.4byte	.LASF45
 3395 028f 06       		.byte	0x6
 3396 0290 E204     		.2byte	0x4e2
 3397 0292 02010000 		.4byte	0x102
 3398 0296 10       		.byte	0x10
 3399 0297 00       		.byte	0
 3400 0298 0D       		.uleb128 0xd
 3401 0299 08       		.byte	0x8
 3402 029a 06       		.byte	0x6
 3403 029b E504     		.2byte	0x4e5
 3404 029d D6020000 		.4byte	0x2d6
 3405 02a1 0B       		.uleb128 0xb
 3406 02a2 9A040000 		.4byte	.LASF37
 3407 02a6 06       		.byte	0x6
 3408 02a7 E604     		.2byte	0x4e6
 3409 02a9 02010000 		.4byte	0x102
 3410 02ad 00       		.byte	0
 3411 02ae 0B       		.uleb128 0xb
 3412 02af 0C010000 		.4byte	.LASF38
 3413 02b3 06       		.byte	0x6
 3414 02b4 E704     		.2byte	0x4e7
 3415 02b6 02010000 		.4byte	0x102
 3416 02ba 02       		.byte	0x2
 3417 02bb 0B       		.uleb128 0xb
 3418 02bc 3E030000 		.4byte	.LASF39
 3419 02c0 06       		.byte	0x6
 3420 02c1 E804     		.2byte	0x4e8
 3421 02c3 02010000 		.4byte	0x102
 3422 02c7 04       		.byte	0x4
 3423 02c8 0B       		.uleb128 0xb
 3424 02c9 86000000 		.4byte	.LASF46
 3425 02cd 06       		.byte	0x6
 3426 02ce E904     		.2byte	0x4e9
 3427 02d0 02010000 		.4byte	0x102
 3428 02d4 06       		.byte	0x6
 3429 02d5 00       		.byte	0
 3430 02d6 0D       		.uleb128 0xd
 3431 02d7 12       		.byte	0x12
 3432 02d8 06       		.byte	0x6
 3433 02d9 EC04     		.2byte	0x4ec
 3434 02db 55030000 		.4byte	0x355
 3435 02df 0B       		.uleb128 0xb
 3436 02e0 9A040000 		.4byte	.LASF37
 3437 02e4 06       		.byte	0x6
 3438 02e5 ED04     		.2byte	0x4ed
 3439 02e7 02010000 		.4byte	0x102
 3440 02eb 00       		.byte	0
 3441 02ec 0B       		.uleb128 0xb
 3442 02ed 0C010000 		.4byte	.LASF38
 3443 02f1 06       		.byte	0x6
 3444 02f2 EE04     		.2byte	0x4ee
 3445 02f4 02010000 		.4byte	0x102
 3446 02f8 02       		.byte	0x2
ARM GAS  /tmp/cc7TW52V.s 			page 62


 3447 02f9 0B       		.uleb128 0xb
 3448 02fa 3E030000 		.4byte	.LASF39
 3449 02fe 06       		.byte	0x6
 3450 02ff EF04     		.2byte	0x4ef
 3451 0301 02010000 		.4byte	0x102
 3452 0305 04       		.byte	0x4
 3453 0306 0B       		.uleb128 0xb
 3454 0307 52000000 		.4byte	.LASF44
 3455 030b 06       		.byte	0x6
 3456 030c F004     		.2byte	0x4f0
 3457 030e 02010000 		.4byte	0x102
 3458 0312 06       		.byte	0x6
 3459 0313 0B       		.uleb128 0xb
 3460 0314 1A020000 		.4byte	.LASF47
 3461 0318 06       		.byte	0x6
 3462 0319 F204     		.2byte	0x4f2
 3463 031b 02010000 		.4byte	0x102
 3464 031f 08       		.byte	0x8
 3465 0320 0C       		.uleb128 0xc
 3466 0321 72737400 		.ascii	"rst\000"
 3467 0325 06       		.byte	0x6
 3468 0326 F404     		.2byte	0x4f4
 3469 0328 02010000 		.4byte	0x102
 3470 032c 0A       		.byte	0xa
 3471 032d 0B       		.uleb128 0xb
 3472 032e BC020000 		.4byte	.LASF48
 3473 0332 06       		.byte	0x6
 3474 0333 F504     		.2byte	0x4f5
 3475 0335 02010000 		.4byte	0x102
 3476 0339 0C       		.byte	0xc
 3477 033a 0B       		.uleb128 0xb
 3478 033b BE040000 		.4byte	.LASF49
 3479 033f 06       		.byte	0x6
 3480 0340 F604     		.2byte	0x4f6
 3481 0342 02010000 		.4byte	0x102
 3482 0346 0E       		.byte	0xe
 3483 0347 0B       		.uleb128 0xb
 3484 0348 A4040000 		.4byte	.LASF50
 3485 034c 06       		.byte	0x6
 3486 034d F804     		.2byte	0x4f8
 3487 034f 02010000 		.4byte	0x102
 3488 0353 10       		.byte	0x10
 3489 0354 00       		.byte	0
 3490 0355 0A       		.uleb128 0xa
 3491 0356 2E020000 		.4byte	.LASF51
 3492 035a 2C       		.byte	0x2c
 3493 035b 06       		.byte	0x6
 3494 035c D004     		.2byte	0x4d0
 3495 035e 89030000 		.4byte	0x389
 3496 0362 0C       		.uleb128 0xc
 3497 0363 697000   		.ascii	"ip\000"
 3498 0366 06       		.byte	0x6
 3499 0367 E404     		.2byte	0x4e4
 3500 0369 19020000 		.4byte	0x219
 3501 036d 00       		.byte	0
 3502 036e 0B       		.uleb128 0xb
 3503 036f 71030000 		.4byte	.LASF52
ARM GAS  /tmp/cc7TW52V.s 			page 63


 3504 0373 06       		.byte	0x6
 3505 0374 EB04     		.2byte	0x4eb
 3506 0376 98020000 		.4byte	0x298
 3507 037a 12       		.byte	0x12
 3508 037b 0C       		.uleb128 0xc
 3509 037c 74637000 		.ascii	"tcp\000"
 3510 0380 06       		.byte	0x6
 3511 0381 FA04     		.2byte	0x4fa
 3512 0383 D6020000 		.4byte	0x2d6
 3513 0387 1A       		.byte	0x1a
 3514 0388 00       		.byte	0
 3515 0389 0A       		.uleb128 0xa
 3516 038a 12000000 		.4byte	.LASF53
 3517 038e 2C       		.byte	0x2c
 3518 038f 06       		.byte	0x6
 3519 0390 6A05     		.2byte	0x56a
 3520 0392 9B040000 		.4byte	0x49b
 3521 0396 0C       		.uleb128 0xc
 3522 0397 76686C00 		.ascii	"vhl\000"
 3523 039b 06       		.byte	0x6
 3524 039c 7505     		.2byte	0x575
 3525 039e EC000000 		.4byte	0xec
 3526 03a2 00       		.byte	0
 3527 03a3 0C       		.uleb128 0xc
 3528 03a4 746F7300 		.ascii	"tos\000"
 3529 03a8 06       		.byte	0x6
 3530 03a9 7605     		.2byte	0x576
 3531 03ab EC000000 		.4byte	0xec
 3532 03af 01       		.byte	0x1
 3533 03b0 0C       		.uleb128 0xc
 3534 03b1 6C656E00 		.ascii	"len\000"
 3535 03b5 06       		.byte	0x6
 3536 03b6 7705     		.2byte	0x577
 3537 03b8 9B040000 		.4byte	0x49b
 3538 03bc 02       		.byte	0x2
 3539 03bd 0B       		.uleb128 0xb
 3540 03be B0050000 		.4byte	.LASF54
 3541 03c2 06       		.byte	0x6
 3542 03c3 7805     		.2byte	0x578
 3543 03c5 9B040000 		.4byte	0x49b
 3544 03c9 04       		.byte	0x4
 3545 03ca 0B       		.uleb128 0xb
 3546 03cb 46020000 		.4byte	.LASF55
 3547 03cf 06       		.byte	0x6
 3548 03d0 7905     		.2byte	0x579
 3549 03d2 9B040000 		.4byte	0x49b
 3550 03d6 06       		.byte	0x6
 3551 03d7 0C       		.uleb128 0xc
 3552 03d8 74746C00 		.ascii	"ttl\000"
 3553 03dc 06       		.byte	0x6
 3554 03dd 7A05     		.2byte	0x57a
 3555 03df EC000000 		.4byte	0xec
 3556 03e3 08       		.byte	0x8
 3557 03e4 0B       		.uleb128 0xb
 3558 03e5 C6040000 		.4byte	.LASF56
 3559 03e9 06       		.byte	0x6
 3560 03ea 7B05     		.2byte	0x57b
ARM GAS  /tmp/cc7TW52V.s 			page 64


 3561 03ec EC000000 		.4byte	0xec
 3562 03f0 09       		.byte	0x9
 3563 03f1 0B       		.uleb128 0xb
 3564 03f2 30030000 		.4byte	.LASF57
 3565 03f6 06       		.byte	0x6
 3566 03f7 7C05     		.2byte	0x57c
 3567 03f9 F7000000 		.4byte	0xf7
 3568 03fd 0A       		.byte	0xa
 3569 03fe 0B       		.uleb128 0xb
 3570 03ff F8010000 		.4byte	.LASF58
 3571 0403 06       		.byte	0x6
 3572 0404 7D05     		.2byte	0x57d
 3573 0406 18010000 		.4byte	0x118
 3574 040a 0C       		.byte	0xc
 3575 040b 0B       		.uleb128 0xb
 3576 040c 86030000 		.4byte	.LASF59
 3577 0410 06       		.byte	0x6
 3578 0411 7E05     		.2byte	0x57e
 3579 0413 18010000 		.4byte	0x118
 3580 0417 10       		.byte	0x10
 3581 0418 0B       		.uleb128 0xb
 3582 0419 47060000 		.4byte	.LASF60
 3583 041d 06       		.byte	0x6
 3584 041e 8205     		.2byte	0x582
 3585 0420 F7000000 		.4byte	0xf7
 3586 0424 14       		.byte	0x14
 3587 0425 0B       		.uleb128 0xb
 3588 0426 8D050000 		.4byte	.LASF61
 3589 042a 06       		.byte	0x6
 3590 042b 8305     		.2byte	0x583
 3591 042d F7000000 		.4byte	0xf7
 3592 0431 16       		.byte	0x16
 3593 0432 0B       		.uleb128 0xb
 3594 0433 C7000000 		.4byte	.LASF62
 3595 0437 06       		.byte	0x6
 3596 0438 8405     		.2byte	0x584
 3597 043a 09020000 		.4byte	0x209
 3598 043e 18       		.byte	0x18
 3599 043f 0B       		.uleb128 0xb
 3600 0440 51010000 		.4byte	.LASF63
 3601 0444 06       		.byte	0x6
 3602 0445 8505     		.2byte	0x585
 3603 0447 09020000 		.4byte	0x209
 3604 044b 1C       		.byte	0x1c
 3605 044c 0B       		.uleb128 0xb
 3606 044d 65020000 		.4byte	.LASF64
 3607 0451 06       		.byte	0x6
 3608 0452 8605     		.2byte	0x586
 3609 0454 EC000000 		.4byte	0xec
 3610 0458 20       		.byte	0x20
 3611 0459 0B       		.uleb128 0xb
 3612 045a EA050000 		.4byte	.LASF65
 3613 045e 06       		.byte	0x6
 3614 045f 8705     		.2byte	0x587
 3615 0461 EC000000 		.4byte	0xec
 3616 0465 21       		.byte	0x21
 3617 0466 0C       		.uleb128 0xc
ARM GAS  /tmp/cc7TW52V.s 			page 65


 3618 0467 776E6400 		.ascii	"wnd\000"
 3619 046b 06       		.byte	0x6
 3620 046c 8805     		.2byte	0x588
 3621 046e 9B040000 		.4byte	0x49b
 3622 0472 22       		.byte	0x22
 3623 0473 0B       		.uleb128 0xb
 3624 0474 F8020000 		.4byte	.LASF66
 3625 0478 06       		.byte	0x6
 3626 0479 8905     		.2byte	0x589
 3627 047b F7000000 		.4byte	0xf7
 3628 047f 24       		.byte	0x24
 3629 0480 0B       		.uleb128 0xb
 3630 0481 AD020000 		.4byte	.LASF67
 3631 0485 06       		.byte	0x6
 3632 0486 8A05     		.2byte	0x58a
 3633 0488 9B040000 		.4byte	0x49b
 3634 048c 26       		.byte	0x26
 3635 048d 0B       		.uleb128 0xb
 3636 048e 9B020000 		.4byte	.LASF68
 3637 0492 06       		.byte	0x6
 3638 0493 8B05     		.2byte	0x58b
 3639 0495 09020000 		.4byte	0x209
 3640 0499 28       		.byte	0x28
 3641 049a 00       		.byte	0
 3642 049b 08       		.uleb128 0x8
 3643 049c EC000000 		.4byte	0xec
 3644 04a0 AB040000 		.4byte	0x4ab
 3645 04a4 09       		.uleb128 0x9
 3646 04a5 28010000 		.4byte	0x128
 3647 04a9 01       		.byte	0x1
 3648 04aa 00       		.byte	0
 3649 04ab 0A       		.uleb128 0xa
 3650 04ac F6000000 		.4byte	.LASF69
 3651 04b0 1C       		.byte	0x1c
 3652 04b1 06       		.byte	0x6
 3653 04b2 8F05     		.2byte	0x58f
 3654 04b4 7B050000 		.4byte	0x57b
 3655 04b8 0C       		.uleb128 0xc
 3656 04b9 76686C00 		.ascii	"vhl\000"
 3657 04bd 06       		.byte	0x6
 3658 04be 9A05     		.2byte	0x59a
 3659 04c0 EC000000 		.4byte	0xec
 3660 04c4 00       		.byte	0
 3661 04c5 0C       		.uleb128 0xc
 3662 04c6 746F7300 		.ascii	"tos\000"
 3663 04ca 06       		.byte	0x6
 3664 04cb 9B05     		.2byte	0x59b
 3665 04cd EC000000 		.4byte	0xec
 3666 04d1 01       		.byte	0x1
 3667 04d2 0C       		.uleb128 0xc
 3668 04d3 6C656E00 		.ascii	"len\000"
 3669 04d7 06       		.byte	0x6
 3670 04d8 9C05     		.2byte	0x59c
 3671 04da 9B040000 		.4byte	0x49b
 3672 04de 02       		.byte	0x2
 3673 04df 0B       		.uleb128 0xb
 3674 04e0 B0050000 		.4byte	.LASF54
ARM GAS  /tmp/cc7TW52V.s 			page 66


 3675 04e4 06       		.byte	0x6
 3676 04e5 9D05     		.2byte	0x59d
 3677 04e7 9B040000 		.4byte	0x49b
 3678 04eb 04       		.byte	0x4
 3679 04ec 0B       		.uleb128 0xb
 3680 04ed 46020000 		.4byte	.LASF55
 3681 04f1 06       		.byte	0x6
 3682 04f2 9E05     		.2byte	0x59e
 3683 04f4 9B040000 		.4byte	0x49b
 3684 04f8 06       		.byte	0x6
 3685 04f9 0C       		.uleb128 0xc
 3686 04fa 74746C00 		.ascii	"ttl\000"
 3687 04fe 06       		.byte	0x6
 3688 04ff 9F05     		.2byte	0x59f
 3689 0501 EC000000 		.4byte	0xec
 3690 0505 08       		.byte	0x8
 3691 0506 0B       		.uleb128 0xb
 3692 0507 C6040000 		.4byte	.LASF56
 3693 050b 06       		.byte	0x6
 3694 050c A005     		.2byte	0x5a0
 3695 050e EC000000 		.4byte	0xec
 3696 0512 09       		.byte	0x9
 3697 0513 0B       		.uleb128 0xb
 3698 0514 30030000 		.4byte	.LASF57
 3699 0518 06       		.byte	0x6
 3700 0519 A105     		.2byte	0x5a1
 3701 051b F7000000 		.4byte	0xf7
 3702 051f 0A       		.byte	0xa
 3703 0520 0B       		.uleb128 0xb
 3704 0521 F8010000 		.4byte	.LASF58
 3705 0525 06       		.byte	0x6
 3706 0526 A205     		.2byte	0x5a2
 3707 0528 18010000 		.4byte	0x118
 3708 052c 0C       		.byte	0xc
 3709 052d 0B       		.uleb128 0xb
 3710 052e 86030000 		.4byte	.LASF59
 3711 0532 06       		.byte	0x6
 3712 0533 A305     		.2byte	0x5a3
 3713 0535 18010000 		.4byte	0x118
 3714 0539 10       		.byte	0x10
 3715 053a 0B       		.uleb128 0xb
 3716 053b 42000000 		.4byte	.LASF70
 3717 053f 06       		.byte	0x6
 3718 0540 A705     		.2byte	0x5a7
 3719 0542 EC000000 		.4byte	0xec
 3720 0546 14       		.byte	0x14
 3721 0547 0B       		.uleb128 0xb
 3722 0548 79050000 		.4byte	.LASF71
 3723 054c 06       		.byte	0x6
 3724 054d A705     		.2byte	0x5a7
 3725 054f EC000000 		.4byte	0xec
 3726 0553 15       		.byte	0x15
 3727 0554 0B       		.uleb128 0xb
 3728 0555 10030000 		.4byte	.LASF72
 3729 0559 06       		.byte	0x6
 3730 055a A805     		.2byte	0x5a8
 3731 055c F7000000 		.4byte	0xf7
ARM GAS  /tmp/cc7TW52V.s 			page 67


 3732 0560 16       		.byte	0x16
 3733 0561 0C       		.uleb128 0xc
 3734 0562 696400   		.ascii	"id\000"
 3735 0565 06       		.byte	0x6
 3736 0566 AA05     		.2byte	0x5aa
 3737 0568 F7000000 		.4byte	0xf7
 3738 056c 18       		.byte	0x18
 3739 056d 0B       		.uleb128 0xb
 3740 056e C7000000 		.4byte	.LASF62
 3741 0572 06       		.byte	0x6
 3742 0573 AA05     		.2byte	0x5aa
 3743 0575 F7000000 		.4byte	0xf7
 3744 0579 1A       		.byte	0x1a
 3745 057a 00       		.byte	0
 3746 057b 0A       		.uleb128 0xa
 3747 057c 16060000 		.4byte	.LASF73
 3748 0580 06       		.byte	0x6
 3749 0581 06       		.byte	0x6
 3750 0582 0606     		.2byte	0x606
 3751 0584 96050000 		.4byte	0x596
 3752 0588 0B       		.uleb128 0xb
 3753 0589 70000000 		.4byte	.LASF74
 3754 058d 06       		.byte	0x6
 3755 058e 0706     		.2byte	0x607
 3756 0590 96050000 		.4byte	0x596
 3757 0594 00       		.byte	0
 3758 0595 00       		.byte	0
 3759 0596 08       		.uleb128 0x8
 3760 0597 EC000000 		.4byte	0xec
 3761 059b A6050000 		.4byte	0x5a6
 3762 059f 09       		.uleb128 0x9
 3763 05a0 28010000 		.4byte	0x128
 3764 05a4 05       		.byte	0x5
 3765 05a5 00       		.byte	0
 3766 05a6 0E       		.uleb128 0xe
 3767 05a7 04       		.byte	0x4
 3768 05a8 0F       		.uleb128 0xf
 3769 05a9 A3020000 		.4byte	.LASF134
 3770 05ad 01       		.byte	0x1
 3771 05ae F9       		.byte	0xf9
 3772 05af 01       		.byte	0x1
 3773 05b0 CB050000 		.4byte	0x5cb
 3774 05b4 10       		.uleb128 0x10
 3775 05b5 3B050000 		.4byte	.LASF75
 3776 05b9 01       		.byte	0x1
 3777 05ba F9       		.byte	0xf9
 3778 05bb CB050000 		.4byte	0x5cb
 3779 05bf 10       		.uleb128 0x10
 3780 05c0 39030000 		.4byte	.LASF76
 3781 05c4 01       		.byte	0x1
 3782 05c5 F9       		.byte	0xf9
 3783 05c6 F7000000 		.4byte	0xf7
 3784 05ca 00       		.byte	0
 3785 05cb 07       		.uleb128 0x7
 3786 05cc 04       		.byte	0x4
 3787 05cd EC000000 		.4byte	0xec
 3788 05d1 11       		.uleb128 0x11
ARM GAS  /tmp/cc7TW52V.s 			page 68


 3789 05d2 00060000 		.4byte	.LASF135
 3790 05d6 01       		.byte	0x1
 3791 05d7 5907     		.2byte	0x759
 3792 05d9 F7000000 		.4byte	0xf7
 3793 05dd 01       		.byte	0x1
 3794 05de EF050000 		.4byte	0x5ef
 3795 05e2 12       		.uleb128 0x12
 3796 05e3 76616C00 		.ascii	"val\000"
 3797 05e7 01       		.byte	0x1
 3798 05e8 5907     		.2byte	0x759
 3799 05ea F7000000 		.4byte	0xf7
 3800 05ee 00       		.byte	0
 3801 05ef 13       		.uleb128 0x13
 3802 05f0 53030000 		.4byte	.LASF136
 3803 05f4 01       		.byte	0x1
 3804 05f5 6C01     		.2byte	0x16c
 3805 05f7 F7000000 		.4byte	0xf7
 3806 05fb 01       		.byte	0x1
 3807 05fc 14       		.uleb128 0x14
 3808 05fd 38060000 		.4byte	.LASF79
 3809 0601 01       		.byte	0x1
 3810 0602 1801     		.2byte	0x118
 3811 0604 F7000000 		.4byte	0xf7
 3812 0608 00000000 		.4byte	.LFB2
 3813 060c 50000000 		.4byte	.LFE2-.LFB2
 3814 0610 01       		.uleb128 0x1
 3815 0611 9C       		.byte	0x9c
 3816 0612 75060000 		.4byte	0x675
 3817 0616 15       		.uleb128 0x15
 3818 0617 73756D00 		.ascii	"sum\000"
 3819 061b 01       		.byte	0x1
 3820 061c 1801     		.2byte	0x118
 3821 061e F7000000 		.4byte	0xf7
 3822 0622 00000000 		.4byte	.LLST0
 3823 0626 16       		.uleb128 0x16
 3824 0627 02020000 		.4byte	.LASF77
 3825 062b 01       		.byte	0x1
 3826 062c 1801     		.2byte	0x118
 3827 062e 75060000 		.4byte	0x675
 3828 0632 55000000 		.4byte	.LLST1
 3829 0636 15       		.uleb128 0x15
 3830 0637 6C656E00 		.ascii	"len\000"
 3831 063b 01       		.byte	0x1
 3832 063c 1801     		.2byte	0x118
 3833 063e F7000000 		.4byte	0xf7
 3834 0642 76000000 		.4byte	.LLST2
 3835 0646 17       		.uleb128 0x17
 3836 0647 7400     		.ascii	"t\000"
 3837 0649 01       		.byte	0x1
 3838 064a 1A01     		.2byte	0x11a
 3839 064c F7000000 		.4byte	0xf7
 3840 0650 97000000 		.4byte	.LLST3
 3841 0654 18       		.uleb128 0x18
 3842 0655 FC040000 		.4byte	.LASF15
 3843 0659 01       		.byte	0x1
 3844 065a 1B01     		.2byte	0x11b
 3845 065c 75060000 		.4byte	0x675
ARM GAS  /tmp/cc7TW52V.s 			page 69


 3846 0660 B5000000 		.4byte	.LLST4
 3847 0664 18       		.uleb128 0x18
 3848 0665 B2020000 		.4byte	.LASF78
 3849 0669 01       		.byte	0x1
 3850 066a 1C01     		.2byte	0x11c
 3851 066c 75060000 		.4byte	0x675
 3852 0670 EB000000 		.4byte	.LLST5
 3853 0674 00       		.byte	0
 3854 0675 07       		.uleb128 0x7
 3855 0676 04       		.byte	0x4
 3856 0677 7B060000 		.4byte	0x67b
 3857 067b 19       		.uleb128 0x19
 3858 067c EC000000 		.4byte	0xec
 3859 0680 14       		.uleb128 0x14
 3860 0681 AB040000 		.4byte	.LASF80
 3861 0685 01       		.byte	0x1
 3862 0686 4901     		.2byte	0x149
 3863 0688 F7000000 		.4byte	0xf7
 3864 068c 00000000 		.4byte	.LFB5
 3865 0690 3C000000 		.4byte	.LFE5-.LFB5
 3866 0694 01       		.uleb128 0x1
 3867 0695 9C       		.byte	0x9c
 3868 0696 FA060000 		.4byte	0x6fa
 3869 069a 16       		.uleb128 0x16
 3870 069b C6040000 		.4byte	.LASF56
 3871 069f 01       		.byte	0x1
 3872 06a0 4901     		.2byte	0x149
 3873 06a2 EC000000 		.4byte	0xec
 3874 06a6 09010000 		.4byte	.LLST6
 3875 06aa 18       		.uleb128 0x18
 3876 06ab 43030000 		.4byte	.LASF81
 3877 06af 01       		.byte	0x1
 3878 06b0 4B01     		.2byte	0x14b
 3879 06b2 F7000000 		.4byte	0xf7
 3880 06b6 2A010000 		.4byte	.LLST7
 3881 06ba 17       		.uleb128 0x17
 3882 06bb 73756D00 		.ascii	"sum\000"
 3883 06bf 01       		.byte	0x1
 3884 06c0 4C01     		.2byte	0x14c
 3885 06c2 F7000000 		.4byte	0xf7
 3886 06c6 3D010000 		.4byte	.LLST8
 3887 06ca 1A       		.uleb128 0x1a
 3888 06cb 1E000000 		.4byte	.LVL24
 3889 06cf FC050000 		.4byte	0x5fc
 3890 06d3 E3060000 		.4byte	0x6e3
 3891 06d7 1B       		.uleb128 0x1b
 3892 06d8 01       		.uleb128 0x1
 3893 06d9 52       		.byte	0x52
 3894 06da 01       		.uleb128 0x1
 3895 06db 38       		.byte	0x38
 3896 06dc 1B       		.uleb128 0x1b
 3897 06dd 01       		.uleb128 0x1
 3898 06de 51       		.byte	0x51
 3899 06df 02       		.uleb128 0x2
 3900 06e0 74       		.byte	0x74
 3901 06e1 1A       		.sleb128 26
 3902 06e2 00       		.byte	0
ARM GAS  /tmp/cc7TW52V.s 			page 70


 3903 06e3 1C       		.uleb128 0x1c
 3904 06e4 28000000 		.4byte	.LVL25
 3905 06e8 FC050000 		.4byte	0x5fc
 3906 06ec 1B       		.uleb128 0x1b
 3907 06ed 01       		.uleb128 0x1
 3908 06ee 52       		.byte	0x52
 3909 06ef 02       		.uleb128 0x2
 3910 06f0 75       		.byte	0x75
 3911 06f1 00       		.sleb128 0
 3912 06f2 1B       		.uleb128 0x1b
 3913 06f3 01       		.uleb128 0x1
 3914 06f4 51       		.byte	0x51
 3915 06f5 02       		.uleb128 0x2
 3916 06f6 74       		.byte	0x74
 3917 06f7 22       		.sleb128 34
 3918 06f8 00       		.byte	0
 3919 06f9 00       		.byte	0
 3920 06fa 1D       		.uleb128 0x1d
 3921 06fb 2E010000 		.4byte	.LASF88
 3922 06ff 01       		.byte	0x1
 3923 0700 B5       		.byte	0xb5
 3924 0701 00000000 		.4byte	.LFB0
 3925 0705 0C000000 		.4byte	.LFE0-.LFB0
 3926 0709 01       		.uleb128 0x1
 3927 070a 9C       		.byte	0x9c
 3928 070b 1C070000 		.4byte	0x71c
 3929 070f 1E       		.uleb128 0x1e
 3930 0710 696400   		.ascii	"id\000"
 3931 0713 01       		.byte	0x1
 3932 0714 B5       		.byte	0xb5
 3933 0715 F7000000 		.4byte	0xf7
 3934 0719 01       		.uleb128 0x1
 3935 071a 50       		.byte	0x50
 3936 071b 00       		.byte	0
 3937 071c 1F       		.uleb128 0x1f
 3938 071d A8050000 		.4byte	0x5a8
 3939 0721 00000000 		.4byte	.LFB1
 3940 0725 58000000 		.4byte	.LFE1-.LFB1
 3941 0729 01       		.uleb128 0x1
 3942 072a 9C       		.byte	0x9c
 3943 072b 5A070000 		.4byte	0x75a
 3944 072f 20       		.uleb128 0x20
 3945 0730 B4050000 		.4byte	0x5b4
 3946 0734 71010000 		.4byte	.LLST9
 3947 0738 20       		.uleb128 0x20
 3948 0739 BF050000 		.4byte	0x5bf
 3949 073d 92010000 		.4byte	.LLST10
 3950 0741 21       		.uleb128 0x21
 3951 0742 44000000 		.4byte	.LBB19
 3952 0746 06000000 		.4byte	.LBE19-.LBB19
 3953 074a 20       		.uleb128 0x20
 3954 074b B4050000 		.4byte	0x5b4
 3955 074f BE010000 		.4byte	.LLST11
 3956 0753 22       		.uleb128 0x22
 3957 0754 BF050000 		.4byte	0x5bf
 3958 0758 00       		.byte	0
 3959 0759 00       		.byte	0
ARM GAS  /tmp/cc7TW52V.s 			page 71


 3960 075a 23       		.uleb128 0x23
 3961 075b B5050000 		.4byte	.LASF137
 3962 075f 01       		.byte	0x1
 3963 0760 9F02     		.2byte	0x29f
 3964 0762 00000000 		.4byte	.LFB12
 3965 0766 2C000000 		.4byte	.LFE12-.LFB12
 3966 076a 01       		.uleb128 0x1
 3967 076b 9C       		.byte	0x9c
 3968 076c 88070000 		.4byte	0x788
 3969 0770 15       		.uleb128 0x15
 3970 0771 6E00     		.ascii	"n\000"
 3971 0773 01       		.byte	0x1
 3972 0774 9F02     		.2byte	0x29f
 3973 0776 F7000000 		.4byte	0xf7
 3974 077a D4010000 		.4byte	.LLST12
 3975 077e 24       		.uleb128 0x24
 3976 077f 0E000000 		.4byte	.LVL39
 3977 0783 A8050000 		.4byte	0x5a8
 3978 0787 00       		.byte	0
 3979 0788 25       		.uleb128 0x25
 3980 0789 D7020000 		.4byte	.LASF82
 3981 078d 01       		.byte	0x1
 3982 078e 3701     		.2byte	0x137
 3983 0790 F7000000 		.4byte	0xf7
 3984 0794 00000000 		.4byte	.LFB3
 3985 0798 12000000 		.4byte	.LFE3-.LFB3
 3986 079c 01       		.uleb128 0x1
 3987 079d 9C       		.byte	0x9c
 3988 079e D9070000 		.4byte	0x7d9
 3989 07a2 16       		.uleb128 0x16
 3990 07a3 02020000 		.4byte	.LASF77
 3991 07a7 01       		.byte	0x1
 3992 07a8 3701     		.2byte	0x137
 3993 07aa D9070000 		.4byte	0x7d9
 3994 07ae F5010000 		.4byte	.LLST13
 3995 07b2 15       		.uleb128 0x15
 3996 07b3 6C656E00 		.ascii	"len\000"
 3997 07b7 01       		.byte	0x1
 3998 07b8 3701     		.2byte	0x137
 3999 07ba F7000000 		.4byte	0xf7
 4000 07be 21020000 		.4byte	.LLST14
 4001 07c2 1C       		.uleb128 0x1c
 4002 07c3 0C000000 		.4byte	.LVL43
 4003 07c7 FC050000 		.4byte	0x5fc
 4004 07cb 1B       		.uleb128 0x1b
 4005 07cc 01       		.uleb128 0x1
 4006 07cd 51       		.byte	0x51
 4007 07ce 03       		.uleb128 0x3
 4008 07cf F3       		.byte	0xf3
 4009 07d0 01       		.uleb128 0x1
 4010 07d1 50       		.byte	0x50
 4011 07d2 1B       		.uleb128 0x1b
 4012 07d3 01       		.uleb128 0x1
 4013 07d4 50       		.byte	0x50
 4014 07d5 01       		.uleb128 0x1
 4015 07d6 30       		.byte	0x30
 4016 07d7 00       		.byte	0
ARM GAS  /tmp/cc7TW52V.s 			page 72


 4017 07d8 00       		.byte	0
 4018 07d9 07       		.uleb128 0x7
 4019 07da 04       		.byte	0x4
 4020 07db F7000000 		.4byte	0xf7
 4021 07df 25       		.uleb128 0x25
 4022 07e0 5F050000 		.4byte	.LASF83
 4023 07e4 01       		.byte	0x1
 4024 07e5 3E01     		.2byte	0x13e
 4025 07e7 F7000000 		.4byte	0xf7
 4026 07eb 00000000 		.4byte	.LFB4
 4027 07ef 20000000 		.4byte	.LFE4-.LFB4
 4028 07f3 01       		.uleb128 0x1
 4029 07f4 9C       		.byte	0x9c
 4030 07f5 27080000 		.4byte	0x827
 4031 07f9 17       		.uleb128 0x17
 4032 07fa 73756D00 		.ascii	"sum\000"
 4033 07fe 01       		.byte	0x1
 4034 07ff 4001     		.2byte	0x140
 4035 0801 F7000000 		.4byte	0xf7
 4036 0805 42020000 		.4byte	.LLST15
 4037 0809 1C       		.uleb128 0x1c
 4038 080a 0C000000 		.4byte	.LVL45
 4039 080e FC050000 		.4byte	0x5fc
 4040 0812 1B       		.uleb128 0x1b
 4041 0813 01       		.uleb128 0x1
 4042 0814 52       		.byte	0x52
 4043 0815 01       		.uleb128 0x1
 4044 0816 44       		.byte	0x44
 4045 0817 1B       		.uleb128 0x1b
 4046 0818 01       		.uleb128 0x1
 4047 0819 51       		.byte	0x51
 4048 081a 05       		.uleb128 0x5
 4049 081b 03       		.byte	0x3
 4050 081c 0E000000 		.4byte	.LANCHOR0+14
 4051 0820 1B       		.uleb128 0x1b
 4052 0821 01       		.uleb128 0x1
 4053 0822 50       		.byte	0x50
 4054 0823 01       		.uleb128 0x1
 4055 0824 30       		.byte	0x30
 4056 0825 00       		.byte	0
 4057 0826 00       		.byte	0
 4058 0827 1F       		.uleb128 0x1f
 4059 0828 EF050000 		.4byte	0x5ef
 4060 082c 00000000 		.4byte	.LFB6
 4061 0830 06000000 		.4byte	.LFE6-.LFB6
 4062 0834 01       		.uleb128 0x1
 4063 0835 9C       		.byte	0x9c
 4064 0836 4A080000 		.4byte	0x84a
 4065 083a 26       		.uleb128 0x26
 4066 083b 06000000 		.4byte	.LVL49
 4067 083f 80060000 		.4byte	0x680
 4068 0843 1B       		.uleb128 0x1b
 4069 0844 01       		.uleb128 0x1
 4070 0845 50       		.byte	0x50
 4071 0846 01       		.uleb128 0x1
 4072 0847 36       		.byte	0x36
 4073 0848 00       		.byte	0
ARM GAS  /tmp/cc7TW52V.s 			page 73


 4074 0849 00       		.byte	0
 4075 084a 25       		.uleb128 0x25
 4076 084b 38020000 		.4byte	.LASF84
 4077 084f 01       		.byte	0x1
 4078 0850 7301     		.2byte	0x173
 4079 0852 F7000000 		.4byte	0xf7
 4080 0856 00000000 		.4byte	.LFB7
 4081 085a 06000000 		.4byte	.LFE7-.LFB7
 4082 085e 01       		.uleb128 0x1
 4083 085f 9C       		.byte	0x9c
 4084 0860 74080000 		.4byte	0x874
 4085 0864 26       		.uleb128 0x26
 4086 0865 06000000 		.4byte	.LVL50
 4087 0869 80060000 		.4byte	0x680
 4088 086d 1B       		.uleb128 0x1b
 4089 086e 01       		.uleb128 0x1
 4090 086f 50       		.byte	0x50
 4091 0870 01       		.uleb128 0x1
 4092 0871 41       		.byte	0x41
 4093 0872 00       		.byte	0
 4094 0873 00       		.byte	0
 4095 0874 27       		.uleb128 0x27
 4096 0875 3A010000 		.4byte	.LASF138
 4097 0879 01       		.byte	0x1
 4098 087a 7B01     		.2byte	0x17b
 4099 087c 00000000 		.4byte	.LFB8
 4100 0880 34000000 		.4byte	.LFE8-.LFB8
 4101 0884 01       		.uleb128 0x1
 4102 0885 9C       		.byte	0x9c
 4103 0886 25       		.uleb128 0x25
 4104 0887 0F050000 		.4byte	.LASF85
 4105 088b 01       		.byte	0x1
 4106 088c 9701     		.2byte	0x197
 4107 088e EB080000 		.4byte	0x8eb
 4108 0892 00000000 		.4byte	.LFB9
 4109 0896 10010000 		.4byte	.LFE9-.LFB9
 4110 089a 01       		.uleb128 0x1
 4111 089b 9C       		.byte	0x9c
 4112 089c EB080000 		.4byte	0x8eb
 4113 08a0 16       		.uleb128 0x16
 4114 08a1 21020000 		.4byte	.LASF27
 4115 08a5 01       		.byte	0x1
 4116 08a6 9701     		.2byte	0x197
 4117 08a8 F1080000 		.4byte	0x8f1
 4118 08ac 60020000 		.4byte	.LLST16
 4119 08b0 28       		.uleb128 0x28
 4120 08b1 1A010000 		.4byte	.LASF29
 4121 08b5 01       		.byte	0x1
 4122 08b6 9701     		.2byte	0x197
 4123 08b8 F7000000 		.4byte	0xf7
 4124 08bc 01       		.uleb128 0x1
 4125 08bd 51       		.byte	0x51
 4126 08be 18       		.uleb128 0x18
 4127 08bf D5050000 		.4byte	.LASF86
 4128 08c3 01       		.byte	0x1
 4129 08c4 9901     		.2byte	0x199
 4130 08c6 EB080000 		.4byte	0x8eb
ARM GAS  /tmp/cc7TW52V.s 			page 74


 4131 08ca 97020000 		.4byte	.LLST17
 4132 08ce 18       		.uleb128 0x18
 4133 08cf C5050000 		.4byte	.LASF87
 4134 08d3 01       		.byte	0x1
 4135 08d4 9901     		.2byte	0x199
 4136 08d6 EB080000 		.4byte	0x8eb
 4137 08da F5020000 		.4byte	.LLST18
 4138 08de 29       		.uleb128 0x29
 4139 08df 6B030000 		.4byte	.LASF95
 4140 08e3 01       		.byte	0x1
 4141 08e4 9C01     		.2byte	0x19c
 4142 08e6 00000000 		.4byte	.L47
 4143 08ea 00       		.byte	0
 4144 08eb 07       		.uleb128 0x7
 4145 08ec 04       		.byte	0x4
 4146 08ed 3A010000 		.4byte	0x13a
 4147 08f1 07       		.uleb128 0x7
 4148 08f2 04       		.byte	0x4
 4149 08f3 2F010000 		.4byte	0x12f
 4150 08f7 2A       		.uleb128 0x2a
 4151 08f8 23060000 		.4byte	.LASF89
 4152 08fc 01       		.byte	0x1
 4153 08fd 0602     		.2byte	0x206
 4154 08ff 00000000 		.4byte	.LFB10
 4155 0903 28000000 		.4byte	.LFE10-.LFB10
 4156 0907 01       		.uleb128 0x1
 4157 0908 9C       		.byte	0x9c
 4158 0909 1C090000 		.4byte	0x91c
 4159 090d 28       		.uleb128 0x28
 4160 090e 29020000 		.4byte	.LASF90
 4161 0912 01       		.byte	0x1
 4162 0913 0602     		.2byte	0x206
 4163 0915 F7000000 		.4byte	0xf7
 4164 0919 01       		.uleb128 0x1
 4165 091a 50       		.byte	0x50
 4166 091b 00       		.byte	0
 4167 091c 2A       		.uleb128 0x2a
 4168 091d 73040000 		.4byte	.LASF91
 4169 0921 01       		.byte	0x1
 4170 0922 1102     		.2byte	0x211
 4171 0924 00000000 		.4byte	.LFB11
 4172 0928 28000000 		.4byte	.LFE11-.LFB11
 4173 092c 01       		.uleb128 0x1
 4174 092d 9C       		.byte	0x9c
 4175 092e 41090000 		.4byte	0x941
 4176 0932 28       		.uleb128 0x28
 4177 0933 29020000 		.4byte	.LASF90
 4178 0937 01       		.byte	0x1
 4179 0938 1102     		.2byte	0x211
 4180 093a F7000000 		.4byte	0xf7
 4181 093e 01       		.uleb128 0x1
 4182 093f 50       		.byte	0x50
 4183 0940 00       		.byte	0
 4184 0941 2A       		.uleb128 0x2a
 4185 0942 40050000 		.4byte	.LASF92
 4186 0946 01       		.byte	0x1
 4187 0947 A902     		.2byte	0x2a9
ARM GAS  /tmp/cc7TW52V.s 			page 75


 4188 0949 00000000 		.4byte	.LFB13
 4189 094d 640C0000 		.4byte	.LFE13-.LFB13
 4190 0951 01       		.uleb128 0x1
 4191 0952 9C       		.byte	0x9c
 4192 0953 840B0000 		.4byte	0xb84
 4193 0957 16       		.uleb128 0x16
 4194 0958 9F040000 		.4byte	.LASF93
 4195 095c 01       		.byte	0x1
 4196 095d A902     		.2byte	0x2a9
 4197 095f EC000000 		.4byte	0xec
 4198 0963 49030000 		.4byte	.LLST19
 4199 0967 18       		.uleb128 0x18
 4200 0968 75000000 		.4byte	.LASF94
 4201 096c 01       		.byte	0x1
 4202 096d AB02     		.2byte	0x2ab
 4203 096f EB080000 		.4byte	0x8eb
 4204 0973 B5030000 		.4byte	.LLST20
 4205 0977 29       		.uleb128 0x29
 4206 0978 30060000 		.4byte	.LASF96
 4207 097c 01       		.byte	0x1
 4208 097d 6F06     		.2byte	0x66f
 4209 097f E6000000 		.4byte	.L88
 4210 0983 29       		.uleb128 0x29
 4211 0984 9A040000 		.4byte	.LASF37
 4212 0988 01       		.byte	0x1
 4213 0989 5207     		.2byte	0x752
 4214 098b 4A000000 		.4byte	.L94
 4215 098f 29       		.uleb128 0x29
 4216 0990 78020000 		.4byte	.LASF97
 4217 0994 01       		.byte	0x1
 4218 0995 0007     		.2byte	0x700
 4219 0997 08010000 		.4byte	.L98
 4220 099b 29       		.uleb128 0x29
 4221 099c 2B050000 		.4byte	.LASF98
 4222 09a0 01       		.byte	0x1
 4223 09a1 5005     		.2byte	0x550
 4224 09a3 3A030000 		.4byte	.L100
 4225 09a7 29       		.uleb128 0x29
 4226 09a8 D8010000 		.4byte	.LASF99
 4227 09ac 01       		.byte	0x1
 4228 09ad 5305     		.2byte	0x553
 4229 09af 06030000 		.4byte	.L102
 4230 09b3 29       		.uleb128 0x29
 4231 09b4 CB050000 		.4byte	.LASF100
 4232 09b8 01       		.byte	0x1
 4233 09b9 A206     		.2byte	0x6a2
 4234 09bb 56030000 		.4byte	.L105
 4235 09bf 29       		.uleb128 0x29
 4236 09c0 1B050000 		.4byte	.LASF101
 4237 09c4 01       		.byte	0x1
 4238 09c5 2406     		.2byte	0x624
 4239 09c7 FA020000 		.4byte	.L104
 4240 09cb 29       		.uleb128 0x29
 4241 09cc 61030000 		.4byte	.LASF102
 4242 09d0 01       		.byte	0x1
 4243 09d1 9404     		.2byte	0x494
 4244 09d3 62040000 		.4byte	.L113
ARM GAS  /tmp/cc7TW52V.s 			page 76


 4245 09d7 29       		.uleb128 0x29
 4246 09d8 1B030000 		.4byte	.LASF103
 4247 09dc 01       		.byte	0x1
 4248 09dd 4A07     		.2byte	0x74a
 4249 09df D0010000 		.4byte	.L118
 4250 09e3 29       		.uleb128 0x29
 4251 09e4 9C050000 		.4byte	.LASF104
 4252 09e8 01       		.byte	0x1
 4253 09e9 6505     		.2byte	0x565
 4254 09eb FE040000 		.4byte	.L121
 4255 09ef 29       		.uleb128 0x29
 4256 09f0 20000000 		.4byte	.LASF105
 4257 09f4 01       		.byte	0x1
 4258 09f5 BF04     		.2byte	0x4bf
 4259 09f7 D4050000 		.4byte	.L124
 4260 09fb 29       		.uleb128 0x29
 4261 09fc 4F020000 		.4byte	.LASF106
 4262 0a00 01       		.byte	0x1
 4263 0a01 F704     		.2byte	0x4f7
 4264 0a03 5A0A0000 		.4byte	.L125
 4265 0a07 29       		.uleb128 0x29
 4266 0a08 06060000 		.4byte	.LASF107
 4267 0a0c 01       		.byte	0x1
 4268 0a0d 2407     		.2byte	0x724
 4269 0a0f 7C010000 		.4byte	.L129
 4270 0a13 29       		.uleb128 0x29
 4271 0a14 88040000 		.4byte	.LASF108
 4272 0a18 01       		.byte	0x1
 4273 0a19 0407     		.2byte	0x704
 4274 0a1b 12010000 		.4byte	.L142
 4275 0a1f 29       		.uleb128 0x29
 4276 0a20 CC040000 		.4byte	.LASF109
 4277 0a24 01       		.byte	0x1
 4278 0a25 FE06     		.2byte	0x6fe
 4279 0a27 6A050000 		.4byte	.L160
 4280 0a2b 29       		.uleb128 0x29
 4281 0a2c 20030000 		.4byte	.LASF110
 4282 0a30 01       		.byte	0x1
 4283 0a31 0207     		.2byte	0x702
 4284 0a33 0C010000 		.4byte	.L188
 4285 0a37 29       		.uleb128 0x29
 4286 0a38 43010000 		.4byte	.LASF111
 4287 0a3c 01       		.byte	0x1
 4288 0a3d 3607     		.2byte	0x736
 4289 0a3f B0010000 		.4byte	.LDL1
 4290 0a43 2B       		.uleb128 0x2b
 4291 0a44 EF050000 		.4byte	0x5ef
 4292 0a48 94010000 		.4byte	.LBB21
 4293 0a4c 08000000 		.4byte	.LBE21-.LBB21
 4294 0a50 01       		.byte	0x1
 4295 0a51 3407     		.2byte	0x734
 4296 0a53 670A0000 		.4byte	0xa67
 4297 0a57 1C       		.uleb128 0x1c
 4298 0a58 9C010000 		.4byte	.LVL83
 4299 0a5c 80060000 		.4byte	0x680
 4300 0a60 1B       		.uleb128 0x1b
 4301 0a61 01       		.uleb128 0x1
ARM GAS  /tmp/cc7TW52V.s 			page 77


 4302 0a62 50       		.byte	0x50
 4303 0a63 01       		.uleb128 0x1
 4304 0a64 36       		.byte	0x36
 4305 0a65 00       		.byte	0
 4306 0a66 00       		.byte	0
 4307 0a67 2B       		.uleb128 0x2b
 4308 0a68 EF050000 		.4byte	0x5ef
 4309 0a6c 6A040000 		.4byte	.LBB23
 4310 0a70 0A000000 		.4byte	.LBE23-.LBB23
 4311 0a74 01       		.byte	0x1
 4312 0a75 9904     		.2byte	0x499
 4313 0a77 850A0000 		.4byte	0xa85
 4314 0a7b 24       		.uleb128 0x24
 4315 0a7c 74040000 		.4byte	.LVL91
 4316 0a80 80060000 		.4byte	0x680
 4317 0a84 00       		.byte	0
 4318 0a85 2C       		.uleb128 0x2c
 4319 0a86 84070000 		.4byte	.LBB25
 4320 0a8a 3E000000 		.4byte	.LBE25-.LBB25
 4321 0a8e A10A0000 		.4byte	0xaa1
 4322 0a92 17       		.uleb128 0x17
 4323 0a93 6D00     		.ascii	"m\000"
 4324 0a95 01       		.byte	0x1
 4325 0a96 9D05     		.2byte	0x59d
 4326 0a98 25000000 		.4byte	0x25
 4327 0a9c 42040000 		.4byte	.LLST21
 4328 0aa0 00       		.byte	0
 4329 0aa1 24       		.uleb128 0x24
 4330 0aa2 76000000 		.4byte	.LVL78
 4331 0aa6 AF0D0000 		.4byte	0xdaf
 4332 0aaa 24       		.uleb128 0x24
 4333 0aab E0000000 		.4byte	.LVL81
 4334 0aaf AF0D0000 		.4byte	0xdaf
 4335 0ab3 24       		.uleb128 0x24
 4336 0ab4 C4010000 		.4byte	.LVL84
 4337 0ab8 DF070000 		.4byte	0x7df
 4338 0abc 24       		.uleb128 0x24
 4339 0abd 20020000 		.4byte	.LVL87
 4340 0ac1 DF070000 		.4byte	0x7df
 4341 0ac5 24       		.uleb128 0x24
 4342 0ac6 4E030000 		.4byte	.LVL88
 4343 0aca AF0D0000 		.4byte	0xdaf
 4344 0ace 24       		.uleb128 0x24
 4345 0acf 28040000 		.4byte	.LVL89
 4346 0ad3 AF0D0000 		.4byte	0xdaf
 4347 0ad7 1A       		.uleb128 0x1a
 4348 0ad8 2C070000 		.4byte	.LVL99
 4349 0adc A8050000 		.4byte	0x5a8
 4350 0ae0 EB0A0000 		.4byte	0xaeb
 4351 0ae4 1B       		.uleb128 0x1b
 4352 0ae5 01       		.uleb128 0x1
 4353 0ae6 50       		.byte	0x50
 4354 0ae7 02       		.uleb128 0x2
 4355 0ae8 76       		.byte	0x76
 4356 0ae9 0C       		.sleb128 12
 4357 0aea 00       		.byte	0
 4358 0aeb 24       		.uleb128 0x24
ARM GAS  /tmp/cc7TW52V.s 			page 78


 4359 0aec EC070000 		.4byte	.LVL107
 4360 0af0 AF0D0000 		.4byte	0xdaf
 4361 0af4 24       		.uleb128 0x24
 4362 0af5 0C080000 		.4byte	.LVL108
 4363 0af9 5A070000 		.4byte	0x75a
 4364 0afd 24       		.uleb128 0x24
 4365 0afe 2C080000 		.4byte	.LVL109
 4366 0b02 5A070000 		.4byte	0x75a
 4367 0b06 1A       		.uleb128 0x1a
 4368 0b07 54080000 		.4byte	.LVL110
 4369 0b0b 5A070000 		.4byte	0x75a
 4370 0b0f 190B0000 		.4byte	0xb19
 4371 0b13 1B       		.uleb128 0x1b
 4372 0b14 01       		.uleb128 0x1
 4373 0b15 50       		.byte	0x50
 4374 0b16 01       		.uleb128 0x1
 4375 0b17 31       		.byte	0x31
 4376 0b18 00       		.byte	0
 4377 0b19 24       		.uleb128 0x24
 4378 0b1a 60080000 		.4byte	.LVL111
 4379 0b1e AF0D0000 		.4byte	0xdaf
 4380 0b22 24       		.uleb128 0x24
 4381 0b23 88080000 		.4byte	.LVL112
 4382 0b27 5A070000 		.4byte	0x75a
 4383 0b2b 24       		.uleb128 0x24
 4384 0b2c A4080000 		.4byte	.LVL113
 4385 0b30 AF0D0000 		.4byte	0xdaf
 4386 0b34 24       		.uleb128 0x24
 4387 0b35 04090000 		.4byte	.LVL114
 4388 0b39 5A070000 		.4byte	0x75a
 4389 0b3d 24       		.uleb128 0x24
 4390 0b3e 4A090000 		.4byte	.LVL115
 4391 0b42 AF0D0000 		.4byte	0xdaf
 4392 0b46 24       		.uleb128 0x24
 4393 0b47 72090000 		.4byte	.LVL116
 4394 0b4b AF0D0000 		.4byte	0xdaf
 4395 0b4f 24       		.uleb128 0x24
 4396 0b50 AC090000 		.4byte	.LVL117
 4397 0b54 AF0D0000 		.4byte	0xdaf
 4398 0b58 24       		.uleb128 0x24
 4399 0b59 E0090000 		.4byte	.LVL118
 4400 0b5d 5A070000 		.4byte	0x75a
 4401 0b61 1A       		.uleb128 0x1a
 4402 0b62 120B0000 		.4byte	.LVL125
 4403 0b66 5A070000 		.4byte	0x75a
 4404 0b6a 740B0000 		.4byte	0xb74
 4405 0b6e 1B       		.uleb128 0x1b
 4406 0b6f 01       		.uleb128 0x1
 4407 0b70 50       		.byte	0x50
 4408 0b71 01       		.uleb128 0x1
 4409 0b72 31       		.byte	0x31
 4410 0b73 00       		.byte	0
 4411 0b74 1C       		.uleb128 0x1c
 4412 0b75 380C0000 		.4byte	.LVL126
 4413 0b79 5A070000 		.4byte	0x75a
 4414 0b7d 1B       		.uleb128 0x1b
 4415 0b7e 01       		.uleb128 0x1
ARM GAS  /tmp/cc7TW52V.s 			page 79


 4416 0b7f 50       		.byte	0x50
 4417 0b80 01       		.uleb128 0x1
 4418 0b81 31       		.byte	0x31
 4419 0b82 00       		.byte	0
 4420 0b83 00       		.byte	0
 4421 0b84 1F       		.uleb128 0x1f
 4422 0b85 D1050000 		.4byte	0x5d1
 4423 0b89 00000000 		.4byte	.LFB14
 4424 0b8d 06000000 		.4byte	.LFE14-.LFB14
 4425 0b91 01       		.uleb128 0x1
 4426 0b92 9C       		.byte	0x9c
 4427 0b93 A10B0000 		.4byte	0xba1
 4428 0b97 20       		.uleb128 0x20
 4429 0b98 E2050000 		.4byte	0x5e2
 4430 0b9c B3040000 		.4byte	.LLST22
 4431 0ba0 00       		.byte	0
 4432 0ba1 2A       		.uleb128 0x2a
 4433 0ba2 88020000 		.4byte	.LASF112
 4434 0ba6 01       		.byte	0x1
 4435 0ba7 5F07     		.2byte	0x75f
 4436 0ba9 00000000 		.4byte	.LFB15
 4437 0bad 24000000 		.4byte	.LFE15-.LFB15
 4438 0bb1 01       		.uleb128 0x1
 4439 0bb2 9C       		.byte	0x9c
 4440 0bb3 F40B0000 		.4byte	0xbf4
 4441 0bb7 16       		.uleb128 0x16
 4442 0bb8 02020000 		.4byte	.LASF77
 4443 0bbc 01       		.byte	0x1
 4444 0bbd 5F07     		.2byte	0x75f
 4445 0bbf F40B0000 		.4byte	0xbf4
 4446 0bc3 D4040000 		.4byte	.LLST23
 4447 0bc7 15       		.uleb128 0x15
 4448 0bc8 6C656E00 		.ascii	"len\000"
 4449 0bcc 01       		.byte	0x1
 4450 0bcd 5F07     		.2byte	0x75f
 4451 0bcf 73000000 		.4byte	0x73
 4452 0bd3 0B050000 		.4byte	.LLST24
 4453 0bd7 26       		.uleb128 0x26
 4454 0bd8 1A000000 		.4byte	.LVL133
 4455 0bdc B60D0000 		.4byte	0xdb6
 4456 0be0 1B       		.uleb128 0x1b
 4457 0be1 01       		.uleb128 0x1
 4458 0be2 52       		.byte	0x52
 4459 0be3 07       		.uleb128 0x7
 4460 0be4 F3       		.byte	0xf3
 4461 0be5 01       		.uleb128 0x1
 4462 0be6 51       		.byte	0x51
 4463 0be7 0A       		.byte	0xa
 4464 0be8 FFFF     		.2byte	0xffff
 4465 0bea 1A       		.byte	0x1a
 4466 0beb 1B       		.uleb128 0x1b
 4467 0bec 01       		.uleb128 0x1
 4468 0bed 51       		.byte	0x51
 4469 0bee 03       		.uleb128 0x3
 4470 0bef F3       		.byte	0xf3
 4471 0bf0 01       		.uleb128 0x1
 4472 0bf1 50       		.byte	0x50
ARM GAS  /tmp/cc7TW52V.s 			page 80


 4473 0bf2 00       		.byte	0
 4474 0bf3 00       		.byte	0
 4475 0bf4 07       		.uleb128 0x7
 4476 0bf5 04       		.byte	0x4
 4477 0bf6 FA0B0000 		.4byte	0xbfa
 4478 0bfa 2D       		.uleb128 0x2d
 4479 0bfb 2E       		.uleb128 0x2e
 4480 0bfc 7F050000 		.4byte	.LASF113
 4481 0c00 01       		.byte	0x1
 4482 0c01 71       		.byte	0x71
 4483 0c02 060C0000 		.4byte	0xc06
 4484 0c06 19       		.uleb128 0x19
 4485 0c07 0D010000 		.4byte	0x10d
 4486 0c0b 2E       		.uleb128 0x2e
 4487 0c0c 76030000 		.4byte	.LASF114
 4488 0c10 01       		.byte	0x1
 4489 0c11 77       		.byte	0x77
 4490 0c12 160C0000 		.4byte	0xc16
 4491 0c16 19       		.uleb128 0x19
 4492 0c17 0D010000 		.4byte	0x10d
 4493 0c1b 2F       		.uleb128 0x2f
 4494 0c1c B0050000 		.4byte	.LASF54
 4495 0c20 01       		.byte	0x1
 4496 0c21 B1       		.byte	0xb1
 4497 0c22 F7000000 		.4byte	0xf7
 4498 0c26 05       		.uleb128 0x5
 4499 0c27 03       		.byte	0x3
 4500 0c28 00000000 		.4byte	ipid
 4501 0c2c 30       		.uleb128 0x30
 4502 0c2d 69737300 		.ascii	"iss\000"
 4503 0c31 01       		.byte	0x1
 4504 0c32 B7       		.byte	0xb7
 4505 0c33 09020000 		.4byte	0x209
 4506 0c37 05       		.uleb128 0x5
 4507 0c38 03       		.byte	0x3
 4508 0c39 00000000 		.4byte	iss
 4509 0c3d 2F       		.uleb128 0x2f
 4510 0c3e 77060000 		.4byte	.LASF115
 4511 0c42 01       		.byte	0x1
 4512 0c43 BB       		.byte	0xbb
 4513 0c44 F7000000 		.4byte	0xf7
 4514 0c48 05       		.uleb128 0x5
 4515 0c49 03       		.byte	0x3
 4516 0c4a 00000000 		.4byte	lastport
 4517 0c4e 30       		.uleb128 0x30
 4518 0c4f 6300     		.ascii	"c\000"
 4519 0c51 01       		.byte	0x1
 4520 0c52 C1       		.byte	0xc1
 4521 0c53 EC000000 		.4byte	0xec
 4522 0c57 05       		.uleb128 0x5
 4523 0c58 03       		.byte	0x3
 4524 0c59 00000000 		.4byte	c
 4525 0c5d 30       		.uleb128 0x30
 4526 0c5e 6F707400 		.ascii	"opt\000"
 4527 0c62 01       		.byte	0x1
 4528 0c63 C1       		.byte	0xc1
 4529 0c64 EC000000 		.4byte	0xec
ARM GAS  /tmp/cc7TW52V.s 			page 81


 4530 0c68 05       		.uleb128 0x5
 4531 0c69 03       		.byte	0x3
 4532 0c6a 00000000 		.4byte	opt
 4533 0c6e 2F       		.uleb128 0x2f
 4534 0c6f 4F060000 		.4byte	.LASF116
 4535 0c73 01       		.byte	0x1
 4536 0c74 C2       		.byte	0xc2
 4537 0c75 F7000000 		.4byte	0xf7
 4538 0c79 05       		.uleb128 0x5
 4539 0c7a 03       		.byte	0x3
 4540 0c7b 00000000 		.4byte	tmp16
 4541 0c7f 08       		.uleb128 0x8
 4542 0c80 EC000000 		.4byte	0xec
 4543 0c84 900C0000 		.4byte	0xc90
 4544 0c88 31       		.uleb128 0x31
 4545 0c89 28010000 		.4byte	0x128
 4546 0c8d EF05     		.2byte	0x5ef
 4547 0c8f 00       		.byte	0
 4548 0c90 32       		.uleb128 0x32
 4549 0c91 D9040000 		.4byte	.LASF117
 4550 0c95 01       		.byte	0x1
 4551 0c96 8B       		.byte	0x8b
 4552 0c97 7F0C0000 		.4byte	0xc7f
 4553 0c9b 05       		.uleb128 0x5
 4554 0c9c 03       		.byte	0x3
 4555 0c9d 00000000 		.4byte	uip_buf
 4556 0ca1 32       		.uleb128 0x32
 4557 0ca2 A8000000 		.4byte	.LASF118
 4558 0ca6 01       		.byte	0x1
 4559 0ca7 8F       		.byte	0x8f
 4560 0ca8 A6050000 		.4byte	0x5a6
 4561 0cac 05       		.uleb128 0x5
 4562 0cad 03       		.byte	0x3
 4563 0cae 00000000 		.4byte	uip_appdata
 4564 0cb2 32       		.uleb128 0x32
 4565 0cb3 3F060000 		.4byte	.LASF119
 4566 0cb7 01       		.byte	0x1
 4567 0cb8 9B       		.byte	0x9b
 4568 0cb9 F7000000 		.4byte	0xf7
 4569 0cbd 05       		.uleb128 0x5
 4570 0cbe 03       		.byte	0x3
 4571 0cbf 00000000 		.4byte	uip_len
 4572 0cc3 32       		.uleb128 0x32
 4573 0cc4 5C020000 		.4byte	.LASF26
 4574 0cc8 01       		.byte	0x1
 4575 0cc9 A3       		.byte	0xa3
 4576 0cca EB080000 		.4byte	0x8eb
 4577 0cce 05       		.uleb128 0x5
 4578 0ccf 03       		.byte	0x3
 4579 0cd0 00000000 		.4byte	uip_conn
 4580 0cd4 08       		.uleb128 0x8
 4581 0cd5 3A010000 		.4byte	0x13a
 4582 0cd9 E40C0000 		.4byte	0xce4
 4583 0cdd 09       		.uleb128 0x9
 4584 0cde 28010000 		.4byte	0x128
 4585 0ce2 09       		.byte	0x9
 4586 0ce3 00       		.byte	0
ARM GAS  /tmp/cc7TW52V.s 			page 82


 4587 0ce4 32       		.uleb128 0x32
 4588 0ce5 F2040000 		.4byte	.LASF120
 4589 0ce9 01       		.byte	0x1
 4590 0cea A6       		.byte	0xa6
 4591 0ceb D40C0000 		.4byte	0xcd4
 4592 0cef 05       		.uleb128 0x5
 4593 0cf0 03       		.byte	0x3
 4594 0cf1 00000000 		.4byte	uip_conns
 4595 0cf5 32       		.uleb128 0x32
 4596 0cf6 F6050000 		.4byte	.LASF121
 4597 0cfa 01       		.byte	0x1
 4598 0cfb C0       		.byte	0xc0
 4599 0cfc 09020000 		.4byte	0x209
 4600 0d00 05       		.uleb128 0x5
 4601 0d01 03       		.byte	0x3
 4602 0d02 00000000 		.4byte	uip_acc32
 4603 0d06 32       		.uleb128 0x32
 4604 0d07 6F020000 		.4byte	.LASF122
 4605 0d0b 01       		.byte	0x1
 4606 0d0c E9       		.byte	0xe9
 4607 0d0d 55030000 		.4byte	0x355
 4608 0d11 05       		.uleb128 0x5
 4609 0d12 03       		.byte	0x3
 4610 0d13 00000000 		.4byte	uip_stat
 4611 0d17 32       		.uleb128 0x32
 4612 0d18 91020000 		.4byte	.LASF123
 4613 0d1c 01       		.byte	0x1
 4614 0d1d A0       		.byte	0xa0
 4615 0d1e EC000000 		.4byte	0xec
 4616 0d22 05       		.uleb128 0x5
 4617 0d23 03       		.byte	0x3
 4618 0d24 00000000 		.4byte	uip_flags
 4619 0d28 32       		.uleb128 0x32
 4620 0d29 DC000000 		.4byte	.LASF124
 4621 0d2d 01       		.byte	0x1
 4622 0d2e 6E       		.byte	0x6e
 4623 0d2f 2F010000 		.4byte	0x12f
 4624 0d33 05       		.uleb128 0x5
 4625 0d34 03       		.byte	0x3
 4626 0d35 00000000 		.4byte	uip_hostaddr
 4627 0d39 32       		.uleb128 0x32
 4628 0d3a 06000000 		.4byte	.LASF125
 4629 0d3e 01       		.byte	0x1
 4630 0d3f 6E       		.byte	0x6e
 4631 0d40 2F010000 		.4byte	0x12f
 4632 0d44 05       		.uleb128 0x5
 4633 0d45 03       		.byte	0x3
 4634 0d46 00000000 		.4byte	uip_netmask
 4635 0d4a 32       		.uleb128 0x32
 4636 0d4b CC020000 		.4byte	.LASF126
 4637 0d4f 01       		.byte	0x1
 4638 0d50 6E       		.byte	0x6e
 4639 0d51 2F010000 		.4byte	0x12f
 4640 0d55 05       		.uleb128 0x5
 4641 0d56 03       		.byte	0x3
 4642 0d57 00000000 		.4byte	uip_draddr
 4643 0d5b 32       		.uleb128 0x32
ARM GAS  /tmp/cc7TW52V.s 			page 83


 4644 0d5c E1040000 		.4byte	.LASF127
 4645 0d60 01       		.byte	0x1
 4646 0d61 87       		.byte	0x87
 4647 0d62 7B050000 		.4byte	0x57b
 4648 0d66 05       		.uleb128 0x5
 4649 0d67 03       		.byte	0x3
 4650 0d68 00000000 		.4byte	uip_ethaddr
 4651 0d6c 32       		.uleb128 0x32
 4652 0d6d E9000000 		.4byte	.LASF128
 4653 0d71 01       		.byte	0x1
 4654 0d72 91       		.byte	0x91
 4655 0d73 A6050000 		.4byte	0x5a6
 4656 0d77 05       		.uleb128 0x5
 4657 0d78 03       		.byte	0x3
 4658 0d79 00000000 		.4byte	uip_sappdata
 4659 0d7d 32       		.uleb128 0x32
 4660 0d7e 26000000 		.4byte	.LASF129
 4661 0d82 01       		.byte	0x1
 4662 0d83 9B       		.byte	0x9b
 4663 0d84 F7000000 		.4byte	0xf7
 4664 0d88 05       		.uleb128 0x5
 4665 0d89 03       		.byte	0x3
 4666 0d8a 00000000 		.4byte	uip_slen
 4667 0d8e 08       		.uleb128 0x8
 4668 0d8f F7000000 		.4byte	0xf7
 4669 0d93 9E0D0000 		.4byte	0xd9e
 4670 0d97 09       		.uleb128 0x9
 4671 0d98 28010000 		.4byte	0x128
 4672 0d9c 00       		.byte	0
 4673 0d9d 00       		.byte	0
 4674 0d9e 32       		.uleb128 0x32
 4675 0d9f 67060000 		.4byte	.LASF130
 4676 0da3 01       		.byte	0x1
 4677 0da4 A9       		.byte	0xa9
 4678 0da5 8E0D0000 		.4byte	0xd8e
 4679 0da9 05       		.uleb128 0x5
 4680 0daa 03       		.byte	0x3
 4681 0dab 00000000 		.4byte	uip_listenports
 4682 0daf 33       		.uleb128 0x33
 4683 0db0 4C050000 		.4byte	.LASF139
 4684 0db4 04       		.byte	0x4
 4685 0db5 36       		.byte	0x36
 4686 0db6 34       		.uleb128 0x34
 4687 0db7 05010000 		.4byte	.LASF140
 4688 0dbb A6050000 		.4byte	0x5a6
 4689 0dbf 35       		.uleb128 0x35
 4690 0dc0 A6050000 		.4byte	0x5a6
 4691 0dc4 35       		.uleb128 0x35
 4692 0dc5 F40B0000 		.4byte	0xbf4
 4693 0dc9 35       		.uleb128 0x35
 4694 0dca 28010000 		.4byte	0x128
 4695 0dce 00       		.byte	0
 4696 0dcf 00       		.byte	0
 4697              		.section	.debug_abbrev,"",%progbits
 4698              	.Ldebug_abbrev0:
 4699 0000 01       		.uleb128 0x1
 4700 0001 11       		.uleb128 0x11
ARM GAS  /tmp/cc7TW52V.s 			page 84


 4701 0002 01       		.byte	0x1
 4702 0003 25       		.uleb128 0x25
 4703 0004 0E       		.uleb128 0xe
 4704 0005 13       		.uleb128 0x13
 4705 0006 0B       		.uleb128 0xb
 4706 0007 03       		.uleb128 0x3
 4707 0008 0E       		.uleb128 0xe
 4708 0009 1B       		.uleb128 0x1b
 4709 000a 0E       		.uleb128 0xe
 4710 000b 55       		.uleb128 0x55
 4711 000c 17       		.uleb128 0x17
 4712 000d 11       		.uleb128 0x11
 4713 000e 01       		.uleb128 0x1
 4714 000f 10       		.uleb128 0x10
 4715 0010 17       		.uleb128 0x17
 4716 0011 00       		.byte	0
 4717 0012 00       		.byte	0
 4718 0013 02       		.uleb128 0x2
 4719 0014 24       		.uleb128 0x24
 4720 0015 00       		.byte	0
 4721 0016 0B       		.uleb128 0xb
 4722 0017 0B       		.uleb128 0xb
 4723 0018 3E       		.uleb128 0x3e
 4724 0019 0B       		.uleb128 0xb
 4725 001a 03       		.uleb128 0x3
 4726 001b 0E       		.uleb128 0xe
 4727 001c 00       		.byte	0
 4728 001d 00       		.byte	0
 4729 001e 03       		.uleb128 0x3
 4730 001f 16       		.uleb128 0x16
 4731 0020 00       		.byte	0
 4732 0021 03       		.uleb128 0x3
 4733 0022 0E       		.uleb128 0xe
 4734 0023 3A       		.uleb128 0x3a
 4735 0024 0B       		.uleb128 0xb
 4736 0025 3B       		.uleb128 0x3b
 4737 0026 0B       		.uleb128 0xb
 4738 0027 49       		.uleb128 0x49
 4739 0028 13       		.uleb128 0x13
 4740 0029 00       		.byte	0
 4741 002a 00       		.byte	0
 4742 002b 04       		.uleb128 0x4
 4743 002c 24       		.uleb128 0x24
 4744 002d 00       		.byte	0
 4745 002e 0B       		.uleb128 0xb
 4746 002f 0B       		.uleb128 0xb
 4747 0030 3E       		.uleb128 0x3e
 4748 0031 0B       		.uleb128 0xb
 4749 0032 03       		.uleb128 0x3
 4750 0033 08       		.uleb128 0x8
 4751 0034 00       		.byte	0
 4752 0035 00       		.byte	0
 4753 0036 05       		.uleb128 0x5
 4754 0037 13       		.uleb128 0x13
 4755 0038 01       		.byte	0x1
 4756 0039 03       		.uleb128 0x3
 4757 003a 0E       		.uleb128 0xe
ARM GAS  /tmp/cc7TW52V.s 			page 85


 4758 003b 0B       		.uleb128 0xb
 4759 003c 0B       		.uleb128 0xb
 4760 003d 3A       		.uleb128 0x3a
 4761 003e 0B       		.uleb128 0xb
 4762 003f 3B       		.uleb128 0x3b
 4763 0040 0B       		.uleb128 0xb
 4764 0041 01       		.uleb128 0x1
 4765 0042 13       		.uleb128 0x13
 4766 0043 00       		.byte	0
 4767 0044 00       		.byte	0
 4768 0045 06       		.uleb128 0x6
 4769 0046 0D       		.uleb128 0xd
 4770 0047 00       		.byte	0
 4771 0048 03       		.uleb128 0x3
 4772 0049 0E       		.uleb128 0xe
 4773 004a 3A       		.uleb128 0x3a
 4774 004b 0B       		.uleb128 0xb
 4775 004c 3B       		.uleb128 0x3b
 4776 004d 0B       		.uleb128 0xb
 4777 004e 49       		.uleb128 0x49
 4778 004f 13       		.uleb128 0x13
 4779 0050 38       		.uleb128 0x38
 4780 0051 0B       		.uleb128 0xb
 4781 0052 00       		.byte	0
 4782 0053 00       		.byte	0
 4783 0054 07       		.uleb128 0x7
 4784 0055 0F       		.uleb128 0xf
 4785 0056 00       		.byte	0
 4786 0057 0B       		.uleb128 0xb
 4787 0058 0B       		.uleb128 0xb
 4788 0059 49       		.uleb128 0x49
 4789 005a 13       		.uleb128 0x13
 4790 005b 00       		.byte	0
 4791 005c 00       		.byte	0
 4792 005d 08       		.uleb128 0x8
 4793 005e 01       		.uleb128 0x1
 4794 005f 01       		.byte	0x1
 4795 0060 49       		.uleb128 0x49
 4796 0061 13       		.uleb128 0x13
 4797 0062 01       		.uleb128 0x1
 4798 0063 13       		.uleb128 0x13
 4799 0064 00       		.byte	0
 4800 0065 00       		.byte	0
 4801 0066 09       		.uleb128 0x9
 4802 0067 21       		.uleb128 0x21
 4803 0068 00       		.byte	0
 4804 0069 49       		.uleb128 0x49
 4805 006a 13       		.uleb128 0x13
 4806 006b 2F       		.uleb128 0x2f
 4807 006c 0B       		.uleb128 0xb
 4808 006d 00       		.byte	0
 4809 006e 00       		.byte	0
 4810 006f 0A       		.uleb128 0xa
 4811 0070 13       		.uleb128 0x13
 4812 0071 01       		.byte	0x1
 4813 0072 03       		.uleb128 0x3
 4814 0073 0E       		.uleb128 0xe
ARM GAS  /tmp/cc7TW52V.s 			page 86


 4815 0074 0B       		.uleb128 0xb
 4816 0075 0B       		.uleb128 0xb
 4817 0076 3A       		.uleb128 0x3a
 4818 0077 0B       		.uleb128 0xb
 4819 0078 3B       		.uleb128 0x3b
 4820 0079 05       		.uleb128 0x5
 4821 007a 01       		.uleb128 0x1
 4822 007b 13       		.uleb128 0x13
 4823 007c 00       		.byte	0
 4824 007d 00       		.byte	0
 4825 007e 0B       		.uleb128 0xb
 4826 007f 0D       		.uleb128 0xd
 4827 0080 00       		.byte	0
 4828 0081 03       		.uleb128 0x3
 4829 0082 0E       		.uleb128 0xe
 4830 0083 3A       		.uleb128 0x3a
 4831 0084 0B       		.uleb128 0xb
 4832 0085 3B       		.uleb128 0x3b
 4833 0086 05       		.uleb128 0x5
 4834 0087 49       		.uleb128 0x49
 4835 0088 13       		.uleb128 0x13
 4836 0089 38       		.uleb128 0x38
 4837 008a 0B       		.uleb128 0xb
 4838 008b 00       		.byte	0
 4839 008c 00       		.byte	0
 4840 008d 0C       		.uleb128 0xc
 4841 008e 0D       		.uleb128 0xd
 4842 008f 00       		.byte	0
 4843 0090 03       		.uleb128 0x3
 4844 0091 08       		.uleb128 0x8
 4845 0092 3A       		.uleb128 0x3a
 4846 0093 0B       		.uleb128 0xb
 4847 0094 3B       		.uleb128 0x3b
 4848 0095 05       		.uleb128 0x5
 4849 0096 49       		.uleb128 0x49
 4850 0097 13       		.uleb128 0x13
 4851 0098 38       		.uleb128 0x38
 4852 0099 0B       		.uleb128 0xb
 4853 009a 00       		.byte	0
 4854 009b 00       		.byte	0
 4855 009c 0D       		.uleb128 0xd
 4856 009d 13       		.uleb128 0x13
 4857 009e 01       		.byte	0x1
 4858 009f 0B       		.uleb128 0xb
 4859 00a0 0B       		.uleb128 0xb
 4860 00a1 3A       		.uleb128 0x3a
 4861 00a2 0B       		.uleb128 0xb
 4862 00a3 3B       		.uleb128 0x3b
 4863 00a4 05       		.uleb128 0x5
 4864 00a5 01       		.uleb128 0x1
 4865 00a6 13       		.uleb128 0x13
 4866 00a7 00       		.byte	0
 4867 00a8 00       		.byte	0
 4868 00a9 0E       		.uleb128 0xe
 4869 00aa 0F       		.uleb128 0xf
 4870 00ab 00       		.byte	0
 4871 00ac 0B       		.uleb128 0xb
ARM GAS  /tmp/cc7TW52V.s 			page 87


 4872 00ad 0B       		.uleb128 0xb
 4873 00ae 00       		.byte	0
 4874 00af 00       		.byte	0
 4875 00b0 0F       		.uleb128 0xf
 4876 00b1 2E       		.uleb128 0x2e
 4877 00b2 01       		.byte	0x1
 4878 00b3 3F       		.uleb128 0x3f
 4879 00b4 19       		.uleb128 0x19
 4880 00b5 03       		.uleb128 0x3
 4881 00b6 0E       		.uleb128 0xe
 4882 00b7 3A       		.uleb128 0x3a
 4883 00b8 0B       		.uleb128 0xb
 4884 00b9 3B       		.uleb128 0x3b
 4885 00ba 0B       		.uleb128 0xb
 4886 00bb 27       		.uleb128 0x27
 4887 00bc 19       		.uleb128 0x19
 4888 00bd 20       		.uleb128 0x20
 4889 00be 0B       		.uleb128 0xb
 4890 00bf 01       		.uleb128 0x1
 4891 00c0 13       		.uleb128 0x13
 4892 00c1 00       		.byte	0
 4893 00c2 00       		.byte	0
 4894 00c3 10       		.uleb128 0x10
 4895 00c4 05       		.uleb128 0x5
 4896 00c5 00       		.byte	0
 4897 00c6 03       		.uleb128 0x3
 4898 00c7 0E       		.uleb128 0xe
 4899 00c8 3A       		.uleb128 0x3a
 4900 00c9 0B       		.uleb128 0xb
 4901 00ca 3B       		.uleb128 0x3b
 4902 00cb 0B       		.uleb128 0xb
 4903 00cc 49       		.uleb128 0x49
 4904 00cd 13       		.uleb128 0x13
 4905 00ce 00       		.byte	0
 4906 00cf 00       		.byte	0
 4907 00d0 11       		.uleb128 0x11
 4908 00d1 2E       		.uleb128 0x2e
 4909 00d2 01       		.byte	0x1
 4910 00d3 3F       		.uleb128 0x3f
 4911 00d4 19       		.uleb128 0x19
 4912 00d5 03       		.uleb128 0x3
 4913 00d6 0E       		.uleb128 0xe
 4914 00d7 3A       		.uleb128 0x3a
 4915 00d8 0B       		.uleb128 0xb
 4916 00d9 3B       		.uleb128 0x3b
 4917 00da 05       		.uleb128 0x5
 4918 00db 27       		.uleb128 0x27
 4919 00dc 19       		.uleb128 0x19
 4920 00dd 49       		.uleb128 0x49
 4921 00de 13       		.uleb128 0x13
 4922 00df 20       		.uleb128 0x20
 4923 00e0 0B       		.uleb128 0xb
 4924 00e1 01       		.uleb128 0x1
 4925 00e2 13       		.uleb128 0x13
 4926 00e3 00       		.byte	0
 4927 00e4 00       		.byte	0
 4928 00e5 12       		.uleb128 0x12
ARM GAS  /tmp/cc7TW52V.s 			page 88


 4929 00e6 05       		.uleb128 0x5
 4930 00e7 00       		.byte	0
 4931 00e8 03       		.uleb128 0x3
 4932 00e9 08       		.uleb128 0x8
 4933 00ea 3A       		.uleb128 0x3a
 4934 00eb 0B       		.uleb128 0xb
 4935 00ec 3B       		.uleb128 0x3b
 4936 00ed 05       		.uleb128 0x5
 4937 00ee 49       		.uleb128 0x49
 4938 00ef 13       		.uleb128 0x13
 4939 00f0 00       		.byte	0
 4940 00f1 00       		.byte	0
 4941 00f2 13       		.uleb128 0x13
 4942 00f3 2E       		.uleb128 0x2e
 4943 00f4 00       		.byte	0
 4944 00f5 3F       		.uleb128 0x3f
 4945 00f6 19       		.uleb128 0x19
 4946 00f7 03       		.uleb128 0x3
 4947 00f8 0E       		.uleb128 0xe
 4948 00f9 3A       		.uleb128 0x3a
 4949 00fa 0B       		.uleb128 0xb
 4950 00fb 3B       		.uleb128 0x3b
 4951 00fc 05       		.uleb128 0x5
 4952 00fd 27       		.uleb128 0x27
 4953 00fe 19       		.uleb128 0x19
 4954 00ff 49       		.uleb128 0x49
 4955 0100 13       		.uleb128 0x13
 4956 0101 20       		.uleb128 0x20
 4957 0102 0B       		.uleb128 0xb
 4958 0103 00       		.byte	0
 4959 0104 00       		.byte	0
 4960 0105 14       		.uleb128 0x14
 4961 0106 2E       		.uleb128 0x2e
 4962 0107 01       		.byte	0x1
 4963 0108 03       		.uleb128 0x3
 4964 0109 0E       		.uleb128 0xe
 4965 010a 3A       		.uleb128 0x3a
 4966 010b 0B       		.uleb128 0xb
 4967 010c 3B       		.uleb128 0x3b
 4968 010d 05       		.uleb128 0x5
 4969 010e 27       		.uleb128 0x27
 4970 010f 19       		.uleb128 0x19
 4971 0110 49       		.uleb128 0x49
 4972 0111 13       		.uleb128 0x13
 4973 0112 11       		.uleb128 0x11
 4974 0113 01       		.uleb128 0x1
 4975 0114 12       		.uleb128 0x12
 4976 0115 06       		.uleb128 0x6
 4977 0116 40       		.uleb128 0x40
 4978 0117 18       		.uleb128 0x18
 4979 0118 9742     		.uleb128 0x2117
 4980 011a 19       		.uleb128 0x19
 4981 011b 01       		.uleb128 0x1
 4982 011c 13       		.uleb128 0x13
 4983 011d 00       		.byte	0
 4984 011e 00       		.byte	0
 4985 011f 15       		.uleb128 0x15
ARM GAS  /tmp/cc7TW52V.s 			page 89


 4986 0120 05       		.uleb128 0x5
 4987 0121 00       		.byte	0
 4988 0122 03       		.uleb128 0x3
 4989 0123 08       		.uleb128 0x8
 4990 0124 3A       		.uleb128 0x3a
 4991 0125 0B       		.uleb128 0xb
 4992 0126 3B       		.uleb128 0x3b
 4993 0127 05       		.uleb128 0x5
 4994 0128 49       		.uleb128 0x49
 4995 0129 13       		.uleb128 0x13
 4996 012a 02       		.uleb128 0x2
 4997 012b 17       		.uleb128 0x17
 4998 012c 00       		.byte	0
 4999 012d 00       		.byte	0
 5000 012e 16       		.uleb128 0x16
 5001 012f 05       		.uleb128 0x5
 5002 0130 00       		.byte	0
 5003 0131 03       		.uleb128 0x3
 5004 0132 0E       		.uleb128 0xe
 5005 0133 3A       		.uleb128 0x3a
 5006 0134 0B       		.uleb128 0xb
 5007 0135 3B       		.uleb128 0x3b
 5008 0136 05       		.uleb128 0x5
 5009 0137 49       		.uleb128 0x49
 5010 0138 13       		.uleb128 0x13
 5011 0139 02       		.uleb128 0x2
 5012 013a 17       		.uleb128 0x17
 5013 013b 00       		.byte	0
 5014 013c 00       		.byte	0
 5015 013d 17       		.uleb128 0x17
 5016 013e 34       		.uleb128 0x34
 5017 013f 00       		.byte	0
 5018 0140 03       		.uleb128 0x3
 5019 0141 08       		.uleb128 0x8
 5020 0142 3A       		.uleb128 0x3a
 5021 0143 0B       		.uleb128 0xb
 5022 0144 3B       		.uleb128 0x3b
 5023 0145 05       		.uleb128 0x5
 5024 0146 49       		.uleb128 0x49
 5025 0147 13       		.uleb128 0x13
 5026 0148 02       		.uleb128 0x2
 5027 0149 17       		.uleb128 0x17
 5028 014a 00       		.byte	0
 5029 014b 00       		.byte	0
 5030 014c 18       		.uleb128 0x18
 5031 014d 34       		.uleb128 0x34
 5032 014e 00       		.byte	0
 5033 014f 03       		.uleb128 0x3
 5034 0150 0E       		.uleb128 0xe
 5035 0151 3A       		.uleb128 0x3a
 5036 0152 0B       		.uleb128 0xb
 5037 0153 3B       		.uleb128 0x3b
 5038 0154 05       		.uleb128 0x5
 5039 0155 49       		.uleb128 0x49
 5040 0156 13       		.uleb128 0x13
 5041 0157 02       		.uleb128 0x2
 5042 0158 17       		.uleb128 0x17
ARM GAS  /tmp/cc7TW52V.s 			page 90


 5043 0159 00       		.byte	0
 5044 015a 00       		.byte	0
 5045 015b 19       		.uleb128 0x19
 5046 015c 26       		.uleb128 0x26
 5047 015d 00       		.byte	0
 5048 015e 49       		.uleb128 0x49
 5049 015f 13       		.uleb128 0x13
 5050 0160 00       		.byte	0
 5051 0161 00       		.byte	0
 5052 0162 1A       		.uleb128 0x1a
 5053 0163 898201   		.uleb128 0x4109
 5054 0166 01       		.byte	0x1
 5055 0167 11       		.uleb128 0x11
 5056 0168 01       		.uleb128 0x1
 5057 0169 31       		.uleb128 0x31
 5058 016a 13       		.uleb128 0x13
 5059 016b 01       		.uleb128 0x1
 5060 016c 13       		.uleb128 0x13
 5061 016d 00       		.byte	0
 5062 016e 00       		.byte	0
 5063 016f 1B       		.uleb128 0x1b
 5064 0170 8A8201   		.uleb128 0x410a
 5065 0173 00       		.byte	0
 5066 0174 02       		.uleb128 0x2
 5067 0175 18       		.uleb128 0x18
 5068 0176 9142     		.uleb128 0x2111
 5069 0178 18       		.uleb128 0x18
 5070 0179 00       		.byte	0
 5071 017a 00       		.byte	0
 5072 017b 1C       		.uleb128 0x1c
 5073 017c 898201   		.uleb128 0x4109
 5074 017f 01       		.byte	0x1
 5075 0180 11       		.uleb128 0x11
 5076 0181 01       		.uleb128 0x1
 5077 0182 31       		.uleb128 0x31
 5078 0183 13       		.uleb128 0x13
 5079 0184 00       		.byte	0
 5080 0185 00       		.byte	0
 5081 0186 1D       		.uleb128 0x1d
 5082 0187 2E       		.uleb128 0x2e
 5083 0188 01       		.byte	0x1
 5084 0189 3F       		.uleb128 0x3f
 5085 018a 19       		.uleb128 0x19
 5086 018b 03       		.uleb128 0x3
 5087 018c 0E       		.uleb128 0xe
 5088 018d 3A       		.uleb128 0x3a
 5089 018e 0B       		.uleb128 0xb
 5090 018f 3B       		.uleb128 0x3b
 5091 0190 0B       		.uleb128 0xb
 5092 0191 27       		.uleb128 0x27
 5093 0192 19       		.uleb128 0x19
 5094 0193 11       		.uleb128 0x11
 5095 0194 01       		.uleb128 0x1
 5096 0195 12       		.uleb128 0x12
 5097 0196 06       		.uleb128 0x6
 5098 0197 40       		.uleb128 0x40
 5099 0198 18       		.uleb128 0x18
ARM GAS  /tmp/cc7TW52V.s 			page 91


 5100 0199 9742     		.uleb128 0x2117
 5101 019b 19       		.uleb128 0x19
 5102 019c 01       		.uleb128 0x1
 5103 019d 13       		.uleb128 0x13
 5104 019e 00       		.byte	0
 5105 019f 00       		.byte	0
 5106 01a0 1E       		.uleb128 0x1e
 5107 01a1 05       		.uleb128 0x5
 5108 01a2 00       		.byte	0
 5109 01a3 03       		.uleb128 0x3
 5110 01a4 08       		.uleb128 0x8
 5111 01a5 3A       		.uleb128 0x3a
 5112 01a6 0B       		.uleb128 0xb
 5113 01a7 3B       		.uleb128 0x3b
 5114 01a8 0B       		.uleb128 0xb
 5115 01a9 49       		.uleb128 0x49
 5116 01aa 13       		.uleb128 0x13
 5117 01ab 02       		.uleb128 0x2
 5118 01ac 18       		.uleb128 0x18
 5119 01ad 00       		.byte	0
 5120 01ae 00       		.byte	0
 5121 01af 1F       		.uleb128 0x1f
 5122 01b0 2E       		.uleb128 0x2e
 5123 01b1 01       		.byte	0x1
 5124 01b2 31       		.uleb128 0x31
 5125 01b3 13       		.uleb128 0x13
 5126 01b4 11       		.uleb128 0x11
 5127 01b5 01       		.uleb128 0x1
 5128 01b6 12       		.uleb128 0x12
 5129 01b7 06       		.uleb128 0x6
 5130 01b8 40       		.uleb128 0x40
 5131 01b9 18       		.uleb128 0x18
 5132 01ba 9742     		.uleb128 0x2117
 5133 01bc 19       		.uleb128 0x19
 5134 01bd 01       		.uleb128 0x1
 5135 01be 13       		.uleb128 0x13
 5136 01bf 00       		.byte	0
 5137 01c0 00       		.byte	0
 5138 01c1 20       		.uleb128 0x20
 5139 01c2 05       		.uleb128 0x5
 5140 01c3 00       		.byte	0
 5141 01c4 31       		.uleb128 0x31
 5142 01c5 13       		.uleb128 0x13
 5143 01c6 02       		.uleb128 0x2
 5144 01c7 17       		.uleb128 0x17
 5145 01c8 00       		.byte	0
 5146 01c9 00       		.byte	0
 5147 01ca 21       		.uleb128 0x21
 5148 01cb 0B       		.uleb128 0xb
 5149 01cc 01       		.byte	0x1
 5150 01cd 11       		.uleb128 0x11
 5151 01ce 01       		.uleb128 0x1
 5152 01cf 12       		.uleb128 0x12
 5153 01d0 06       		.uleb128 0x6
 5154 01d1 00       		.byte	0
 5155 01d2 00       		.byte	0
 5156 01d3 22       		.uleb128 0x22
ARM GAS  /tmp/cc7TW52V.s 			page 92


 5157 01d4 05       		.uleb128 0x5
 5158 01d5 00       		.byte	0
 5159 01d6 31       		.uleb128 0x31
 5160 01d7 13       		.uleb128 0x13
 5161 01d8 00       		.byte	0
 5162 01d9 00       		.byte	0
 5163 01da 23       		.uleb128 0x23
 5164 01db 2E       		.uleb128 0x2e
 5165 01dc 01       		.byte	0x1
 5166 01dd 03       		.uleb128 0x3
 5167 01de 0E       		.uleb128 0xe
 5168 01df 3A       		.uleb128 0x3a
 5169 01e0 0B       		.uleb128 0xb
 5170 01e1 3B       		.uleb128 0x3b
 5171 01e2 05       		.uleb128 0x5
 5172 01e3 27       		.uleb128 0x27
 5173 01e4 19       		.uleb128 0x19
 5174 01e5 11       		.uleb128 0x11
 5175 01e6 01       		.uleb128 0x1
 5176 01e7 12       		.uleb128 0x12
 5177 01e8 06       		.uleb128 0x6
 5178 01e9 40       		.uleb128 0x40
 5179 01ea 18       		.uleb128 0x18
 5180 01eb 9742     		.uleb128 0x2117
 5181 01ed 19       		.uleb128 0x19
 5182 01ee 01       		.uleb128 0x1
 5183 01ef 13       		.uleb128 0x13
 5184 01f0 00       		.byte	0
 5185 01f1 00       		.byte	0
 5186 01f2 24       		.uleb128 0x24
 5187 01f3 898201   		.uleb128 0x4109
 5188 01f6 00       		.byte	0
 5189 01f7 11       		.uleb128 0x11
 5190 01f8 01       		.uleb128 0x1
 5191 01f9 31       		.uleb128 0x31
 5192 01fa 13       		.uleb128 0x13
 5193 01fb 00       		.byte	0
 5194 01fc 00       		.byte	0
 5195 01fd 25       		.uleb128 0x25
 5196 01fe 2E       		.uleb128 0x2e
 5197 01ff 01       		.byte	0x1
 5198 0200 3F       		.uleb128 0x3f
 5199 0201 19       		.uleb128 0x19
 5200 0202 03       		.uleb128 0x3
 5201 0203 0E       		.uleb128 0xe
 5202 0204 3A       		.uleb128 0x3a
 5203 0205 0B       		.uleb128 0xb
 5204 0206 3B       		.uleb128 0x3b
 5205 0207 05       		.uleb128 0x5
 5206 0208 27       		.uleb128 0x27
 5207 0209 19       		.uleb128 0x19
 5208 020a 49       		.uleb128 0x49
 5209 020b 13       		.uleb128 0x13
 5210 020c 11       		.uleb128 0x11
 5211 020d 01       		.uleb128 0x1
 5212 020e 12       		.uleb128 0x12
 5213 020f 06       		.uleb128 0x6
ARM GAS  /tmp/cc7TW52V.s 			page 93


 5214 0210 40       		.uleb128 0x40
 5215 0211 18       		.uleb128 0x18
 5216 0212 9742     		.uleb128 0x2117
 5217 0214 19       		.uleb128 0x19
 5218 0215 01       		.uleb128 0x1
 5219 0216 13       		.uleb128 0x13
 5220 0217 00       		.byte	0
 5221 0218 00       		.byte	0
 5222 0219 26       		.uleb128 0x26
 5223 021a 898201   		.uleb128 0x4109
 5224 021d 01       		.byte	0x1
 5225 021e 11       		.uleb128 0x11
 5226 021f 01       		.uleb128 0x1
 5227 0220 9542     		.uleb128 0x2115
 5228 0222 19       		.uleb128 0x19
 5229 0223 31       		.uleb128 0x31
 5230 0224 13       		.uleb128 0x13
 5231 0225 00       		.byte	0
 5232 0226 00       		.byte	0
 5233 0227 27       		.uleb128 0x27
 5234 0228 2E       		.uleb128 0x2e
 5235 0229 00       		.byte	0
 5236 022a 3F       		.uleb128 0x3f
 5237 022b 19       		.uleb128 0x19
 5238 022c 03       		.uleb128 0x3
 5239 022d 0E       		.uleb128 0xe
 5240 022e 3A       		.uleb128 0x3a
 5241 022f 0B       		.uleb128 0xb
 5242 0230 3B       		.uleb128 0x3b
 5243 0231 05       		.uleb128 0x5
 5244 0232 27       		.uleb128 0x27
 5245 0233 19       		.uleb128 0x19
 5246 0234 11       		.uleb128 0x11
 5247 0235 01       		.uleb128 0x1
 5248 0236 12       		.uleb128 0x12
 5249 0237 06       		.uleb128 0x6
 5250 0238 40       		.uleb128 0x40
 5251 0239 18       		.uleb128 0x18
 5252 023a 9742     		.uleb128 0x2117
 5253 023c 19       		.uleb128 0x19
 5254 023d 00       		.byte	0
 5255 023e 00       		.byte	0
 5256 023f 28       		.uleb128 0x28
 5257 0240 05       		.uleb128 0x5
 5258 0241 00       		.byte	0
 5259 0242 03       		.uleb128 0x3
 5260 0243 0E       		.uleb128 0xe
 5261 0244 3A       		.uleb128 0x3a
 5262 0245 0B       		.uleb128 0xb
 5263 0246 3B       		.uleb128 0x3b
 5264 0247 05       		.uleb128 0x5
 5265 0248 49       		.uleb128 0x49
 5266 0249 13       		.uleb128 0x13
 5267 024a 02       		.uleb128 0x2
 5268 024b 18       		.uleb128 0x18
 5269 024c 00       		.byte	0
 5270 024d 00       		.byte	0
ARM GAS  /tmp/cc7TW52V.s 			page 94


 5271 024e 29       		.uleb128 0x29
 5272 024f 0A       		.uleb128 0xa
 5273 0250 00       		.byte	0
 5274 0251 03       		.uleb128 0x3
 5275 0252 0E       		.uleb128 0xe
 5276 0253 3A       		.uleb128 0x3a
 5277 0254 0B       		.uleb128 0xb
 5278 0255 3B       		.uleb128 0x3b
 5279 0256 05       		.uleb128 0x5
 5280 0257 11       		.uleb128 0x11
 5281 0258 01       		.uleb128 0x1
 5282 0259 00       		.byte	0
 5283 025a 00       		.byte	0
 5284 025b 2A       		.uleb128 0x2a
 5285 025c 2E       		.uleb128 0x2e
 5286 025d 01       		.byte	0x1
 5287 025e 3F       		.uleb128 0x3f
 5288 025f 19       		.uleb128 0x19
 5289 0260 03       		.uleb128 0x3
 5290 0261 0E       		.uleb128 0xe
 5291 0262 3A       		.uleb128 0x3a
 5292 0263 0B       		.uleb128 0xb
 5293 0264 3B       		.uleb128 0x3b
 5294 0265 05       		.uleb128 0x5
 5295 0266 27       		.uleb128 0x27
 5296 0267 19       		.uleb128 0x19
 5297 0268 11       		.uleb128 0x11
 5298 0269 01       		.uleb128 0x1
 5299 026a 12       		.uleb128 0x12
 5300 026b 06       		.uleb128 0x6
 5301 026c 40       		.uleb128 0x40
 5302 026d 18       		.uleb128 0x18
 5303 026e 9742     		.uleb128 0x2117
 5304 0270 19       		.uleb128 0x19
 5305 0271 01       		.uleb128 0x1
 5306 0272 13       		.uleb128 0x13
 5307 0273 00       		.byte	0
 5308 0274 00       		.byte	0
 5309 0275 2B       		.uleb128 0x2b
 5310 0276 1D       		.uleb128 0x1d
 5311 0277 01       		.byte	0x1
 5312 0278 31       		.uleb128 0x31
 5313 0279 13       		.uleb128 0x13
 5314 027a 11       		.uleb128 0x11
 5315 027b 01       		.uleb128 0x1
 5316 027c 12       		.uleb128 0x12
 5317 027d 06       		.uleb128 0x6
 5318 027e 58       		.uleb128 0x58
 5319 027f 0B       		.uleb128 0xb
 5320 0280 59       		.uleb128 0x59
 5321 0281 05       		.uleb128 0x5
 5322 0282 01       		.uleb128 0x1
 5323 0283 13       		.uleb128 0x13
 5324 0284 00       		.byte	0
 5325 0285 00       		.byte	0
 5326 0286 2C       		.uleb128 0x2c
 5327 0287 0B       		.uleb128 0xb
ARM GAS  /tmp/cc7TW52V.s 			page 95


 5328 0288 01       		.byte	0x1
 5329 0289 11       		.uleb128 0x11
 5330 028a 01       		.uleb128 0x1
 5331 028b 12       		.uleb128 0x12
 5332 028c 06       		.uleb128 0x6
 5333 028d 01       		.uleb128 0x1
 5334 028e 13       		.uleb128 0x13
 5335 028f 00       		.byte	0
 5336 0290 00       		.byte	0
 5337 0291 2D       		.uleb128 0x2d
 5338 0292 26       		.uleb128 0x26
 5339 0293 00       		.byte	0
 5340 0294 00       		.byte	0
 5341 0295 00       		.byte	0
 5342 0296 2E       		.uleb128 0x2e
 5343 0297 34       		.uleb128 0x34
 5344 0298 00       		.byte	0
 5345 0299 03       		.uleb128 0x3
 5346 029a 0E       		.uleb128 0xe
 5347 029b 3A       		.uleb128 0x3a
 5348 029c 0B       		.uleb128 0xb
 5349 029d 3B       		.uleb128 0x3b
 5350 029e 0B       		.uleb128 0xb
 5351 029f 49       		.uleb128 0x49
 5352 02a0 13       		.uleb128 0x13
 5353 02a1 00       		.byte	0
 5354 02a2 00       		.byte	0
 5355 02a3 2F       		.uleb128 0x2f
 5356 02a4 34       		.uleb128 0x34
 5357 02a5 00       		.byte	0
 5358 02a6 03       		.uleb128 0x3
 5359 02a7 0E       		.uleb128 0xe
 5360 02a8 3A       		.uleb128 0x3a
 5361 02a9 0B       		.uleb128 0xb
 5362 02aa 3B       		.uleb128 0x3b
 5363 02ab 0B       		.uleb128 0xb
 5364 02ac 49       		.uleb128 0x49
 5365 02ad 13       		.uleb128 0x13
 5366 02ae 02       		.uleb128 0x2
 5367 02af 18       		.uleb128 0x18
 5368 02b0 00       		.byte	0
 5369 02b1 00       		.byte	0
 5370 02b2 30       		.uleb128 0x30
 5371 02b3 34       		.uleb128 0x34
 5372 02b4 00       		.byte	0
 5373 02b5 03       		.uleb128 0x3
 5374 02b6 08       		.uleb128 0x8
 5375 02b7 3A       		.uleb128 0x3a
 5376 02b8 0B       		.uleb128 0xb
 5377 02b9 3B       		.uleb128 0x3b
 5378 02ba 0B       		.uleb128 0xb
 5379 02bb 49       		.uleb128 0x49
 5380 02bc 13       		.uleb128 0x13
 5381 02bd 02       		.uleb128 0x2
 5382 02be 18       		.uleb128 0x18
 5383 02bf 00       		.byte	0
 5384 02c0 00       		.byte	0
ARM GAS  /tmp/cc7TW52V.s 			page 96


 5385 02c1 31       		.uleb128 0x31
 5386 02c2 21       		.uleb128 0x21
 5387 02c3 00       		.byte	0
 5388 02c4 49       		.uleb128 0x49
 5389 02c5 13       		.uleb128 0x13
 5390 02c6 2F       		.uleb128 0x2f
 5391 02c7 05       		.uleb128 0x5
 5392 02c8 00       		.byte	0
 5393 02c9 00       		.byte	0
 5394 02ca 32       		.uleb128 0x32
 5395 02cb 34       		.uleb128 0x34
 5396 02cc 00       		.byte	0
 5397 02cd 03       		.uleb128 0x3
 5398 02ce 0E       		.uleb128 0xe
 5399 02cf 3A       		.uleb128 0x3a
 5400 02d0 0B       		.uleb128 0xb
 5401 02d1 3B       		.uleb128 0x3b
 5402 02d2 0B       		.uleb128 0xb
 5403 02d3 49       		.uleb128 0x49
 5404 02d4 13       		.uleb128 0x13
 5405 02d5 3F       		.uleb128 0x3f
 5406 02d6 19       		.uleb128 0x19
 5407 02d7 02       		.uleb128 0x2
 5408 02d8 18       		.uleb128 0x18
 5409 02d9 00       		.byte	0
 5410 02da 00       		.byte	0
 5411 02db 33       		.uleb128 0x33
 5412 02dc 2E       		.uleb128 0x2e
 5413 02dd 00       		.byte	0
 5414 02de 3F       		.uleb128 0x3f
 5415 02df 19       		.uleb128 0x19
 5416 02e0 03       		.uleb128 0x3
 5417 02e1 0E       		.uleb128 0xe
 5418 02e2 3A       		.uleb128 0x3a
 5419 02e3 0B       		.uleb128 0xb
 5420 02e4 3B       		.uleb128 0x3b
 5421 02e5 0B       		.uleb128 0xb
 5422 02e6 27       		.uleb128 0x27
 5423 02e7 19       		.uleb128 0x19
 5424 02e8 3C       		.uleb128 0x3c
 5425 02e9 19       		.uleb128 0x19
 5426 02ea 00       		.byte	0
 5427 02eb 00       		.byte	0
 5428 02ec 34       		.uleb128 0x34
 5429 02ed 2E       		.uleb128 0x2e
 5430 02ee 01       		.byte	0x1
 5431 02ef 3F       		.uleb128 0x3f
 5432 02f0 19       		.uleb128 0x19
 5433 02f1 03       		.uleb128 0x3
 5434 02f2 0E       		.uleb128 0xe
 5435 02f3 27       		.uleb128 0x27
 5436 02f4 19       		.uleb128 0x19
 5437 02f5 49       		.uleb128 0x49
 5438 02f6 13       		.uleb128 0x13
 5439 02f7 34       		.uleb128 0x34
 5440 02f8 19       		.uleb128 0x19
 5441 02f9 3C       		.uleb128 0x3c
ARM GAS  /tmp/cc7TW52V.s 			page 97


 5442 02fa 19       		.uleb128 0x19
 5443 02fb 00       		.byte	0
 5444 02fc 00       		.byte	0
 5445 02fd 35       		.uleb128 0x35
 5446 02fe 05       		.uleb128 0x5
 5447 02ff 00       		.byte	0
 5448 0300 49       		.uleb128 0x49
 5449 0301 13       		.uleb128 0x13
 5450 0302 00       		.byte	0
 5451 0303 00       		.byte	0
 5452 0304 00       		.byte	0
 5453              		.section	.debug_loc,"",%progbits
 5454              	.Ldebug_loc0:
 5455              	.LLST0:
 5456 0000 00000000 		.4byte	.LVL0
 5457 0004 0C000000 		.4byte	.LVL3
 5458 0008 0100     		.2byte	0x1
 5459 000a 50       		.byte	0x50
 5460 000b 0C000000 		.4byte	.LVL3
 5461 000f 1A000000 		.4byte	.LVL6
 5462 0013 0100     		.2byte	0x1
 5463 0015 50       		.byte	0x50
 5464 0016 1C000000 		.4byte	.LVL7
 5465 001a 22000000 		.4byte	.LVL8
 5466 001e 0100     		.2byte	0x1
 5467 0020 50       		.byte	0x50
 5468 0021 24000000 		.4byte	.LVL9
 5469 0025 34000000 		.4byte	.LVL11
 5470 0029 0100     		.2byte	0x1
 5471 002b 50       		.byte	0x50
 5472 002c 38000000 		.4byte	.LVL12
 5473 0030 3C000000 		.4byte	.LVL14
 5474 0034 0100     		.2byte	0x1
 5475 0036 50       		.byte	0x50
 5476 0037 46000000 		.4byte	.LVL17
 5477 003b 4C000000 		.4byte	.LVL18
 5478 003f 0100     		.2byte	0x1
 5479 0041 50       		.byte	0x50
 5480 0042 4E000000 		.4byte	.LVL19
 5481 0046 50000000 		.4byte	.LFE2
 5482 004a 0100     		.2byte	0x1
 5483 004c 50       		.byte	0x50
 5484 004d 00000000 		.4byte	0
 5485 0051 00000000 		.4byte	0
 5486              	.LLST1:
 5487 0055 00000000 		.4byte	.LVL0
 5488 0059 34000000 		.4byte	.LVL11
 5489 005d 0100     		.2byte	0x1
 5490 005f 51       		.byte	0x51
 5491 0060 34000000 		.4byte	.LVL11
 5492 0064 50000000 		.4byte	.LFE2
 5493 0068 0400     		.2byte	0x4
 5494 006a F3       		.byte	0xf3
 5495 006b 01       		.uleb128 0x1
 5496 006c 51       		.byte	0x51
 5497 006d 9F       		.byte	0x9f
 5498 006e 00000000 		.4byte	0
ARM GAS  /tmp/cc7TW52V.s 			page 98


 5499 0072 00000000 		.4byte	0
 5500              	.LLST2:
 5501 0076 00000000 		.4byte	.LVL0
 5502 007a 02000000 		.4byte	.LVL1
 5503 007e 0100     		.2byte	0x1
 5504 0080 52       		.byte	0x52
 5505 0081 02000000 		.4byte	.LVL1
 5506 0085 50000000 		.4byte	.LFE2
 5507 0089 0400     		.2byte	0x4
 5508 008b F3       		.byte	0xf3
 5509 008c 01       		.uleb128 0x1
 5510 008d 52       		.byte	0x52
 5511 008e 9F       		.byte	0x9f
 5512 008f 00000000 		.4byte	0
 5513 0093 00000000 		.4byte	0
 5514              	.LLST3:
 5515 0097 18000000 		.4byte	.LVL5
 5516 009b 34000000 		.4byte	.LVL11
 5517 009f 0100     		.2byte	0x1
 5518 00a1 52       		.byte	0x52
 5519 00a2 42000000 		.4byte	.LVL16
 5520 00a6 50000000 		.4byte	.LFE2
 5521 00aa 0100     		.2byte	0x1
 5522 00ac 53       		.byte	0x53
 5523 00ad 00000000 		.4byte	0
 5524 00b1 00000000 		.4byte	0
 5525              	.LLST4:
 5526 00b5 00000000 		.4byte	.LVL0
 5527 00b9 0C000000 		.4byte	.LVL3
 5528 00bd 0100     		.2byte	0x1
 5529 00bf 51       		.byte	0x51
 5530 00c0 0C000000 		.4byte	.LVL3
 5531 00c4 12000000 		.4byte	.LVL4
 5532 00c8 0100     		.2byte	0x1
 5533 00ca 53       		.byte	0x53
 5534 00cb 12000000 		.4byte	.LVL4
 5535 00cf 24000000 		.4byte	.LVL9
 5536 00d3 0300     		.2byte	0x3
 5537 00d5 73       		.byte	0x73
 5538 00d6 7E       		.sleb128 -2
 5539 00d7 9F       		.byte	0x9f
 5540 00d8 24000000 		.4byte	.LVL9
 5541 00dc 2A000000 		.4byte	.LVL10
 5542 00e0 0100     		.2byte	0x1
 5543 00e2 53       		.byte	0x53
 5544 00e3 00000000 		.4byte	0
 5545 00e7 00000000 		.4byte	0
 5546              	.LLST5:
 5547 00eb 06000000 		.4byte	.LVL2
 5548 00ef 3A000000 		.4byte	.LVL13
 5549 00f3 0100     		.2byte	0x1
 5550 00f5 55       		.byte	0x55
 5551 00f6 3C000000 		.4byte	.LVL14
 5552 00fa 40000000 		.4byte	.LVL15
 5553 00fe 0100     		.2byte	0x1
 5554 0100 55       		.byte	0x55
 5555 0101 00000000 		.4byte	0
ARM GAS  /tmp/cc7TW52V.s 			page 99


 5556 0105 00000000 		.4byte	0
 5557              	.LLST6:
 5558 0109 00000000 		.4byte	.LVL20
 5559 010d 14000000 		.4byte	.LVL22
 5560 0111 0100     		.2byte	0x1
 5561 0113 50       		.byte	0x50
 5562 0114 14000000 		.4byte	.LVL22
 5563 0118 3C000000 		.4byte	.LFE5
 5564 011c 0400     		.2byte	0x4
 5565 011e F3       		.byte	0xf3
 5566 011f 01       		.uleb128 0x1
 5567 0120 50       		.byte	0x50
 5568 0121 9F       		.byte	0x9f
 5569 0122 00000000 		.4byte	0
 5570 0126 00000000 		.4byte	0
 5571              	.LLST7:
 5572 012a 12000000 		.4byte	.LVL21
 5573 012e 36000000 		.4byte	.LVL29
 5574 0132 0100     		.2byte	0x1
 5575 0134 55       		.byte	0x55
 5576 0135 00000000 		.4byte	0
 5577 0139 00000000 		.4byte	0
 5578              	.LLST8:
 5579 013d 14000000 		.4byte	.LVL22
 5580 0141 1A000000 		.4byte	.LVL23
 5581 0145 0100     		.2byte	0x1
 5582 0147 50       		.byte	0x50
 5583 0148 1E000000 		.4byte	.LVL24
 5584 014c 27000000 		.4byte	.LVL25-1
 5585 0150 0100     		.2byte	0x1
 5586 0152 50       		.byte	0x50
 5587 0153 28000000 		.4byte	.LVL25
 5588 0157 2E000000 		.4byte	.LVL26
 5589 015b 0100     		.2byte	0x1
 5590 015d 50       		.byte	0x50
 5591 015e 30000000 		.4byte	.LVL27
 5592 0162 32000000 		.4byte	.LVL28
 5593 0166 0100     		.2byte	0x1
 5594 0168 50       		.byte	0x50
 5595 0169 00000000 		.4byte	0
 5596 016d 00000000 		.4byte	0
 5597              	.LLST9:
 5598 0171 00000000 		.4byte	.LVL31
 5599 0175 1E000000 		.4byte	.LVL32
 5600 0179 0100     		.2byte	0x1
 5601 017b 50       		.byte	0x50
 5602 017c 1E000000 		.4byte	.LVL32
 5603 0180 58000000 		.4byte	.LFE1
 5604 0184 0400     		.2byte	0x4
 5605 0186 F3       		.byte	0xf3
 5606 0187 01       		.uleb128 0x1
 5607 0188 50       		.byte	0x50
 5608 0189 9F       		.byte	0x9f
 5609 018a 00000000 		.4byte	0
 5610 018e 00000000 		.4byte	0
 5611              	.LLST10:
 5612 0192 00000000 		.4byte	.LVL31
ARM GAS  /tmp/cc7TW52V.s 			page 100


 5613 0196 2C000000 		.4byte	.LVL33
 5614 019a 0100     		.2byte	0x1
 5615 019c 51       		.byte	0x51
 5616 019d 2C000000 		.4byte	.LVL33
 5617 01a1 4E000000 		.4byte	.LVL36
 5618 01a5 0400     		.2byte	0x4
 5619 01a7 F3       		.byte	0xf3
 5620 01a8 01       		.uleb128 0x1
 5621 01a9 51       		.byte	0x51
 5622 01aa 9F       		.byte	0x9f
 5623 01ab 4E000000 		.4byte	.LVL36
 5624 01af 58000000 		.4byte	.LFE1
 5625 01b3 0100     		.2byte	0x1
 5626 01b5 51       		.byte	0x51
 5627 01b6 00000000 		.4byte	0
 5628 01ba 00000000 		.4byte	0
 5629              	.LLST11:
 5630 01be 44000000 		.4byte	.LVL34
 5631 01c2 4A000000 		.4byte	.LVL35
 5632 01c6 0400     		.2byte	0x4
 5633 01c8 F3       		.byte	0xf3
 5634 01c9 01       		.uleb128 0x1
 5635 01ca 50       		.byte	0x50
 5636 01cb 9F       		.byte	0x9f
 5637 01cc 00000000 		.4byte	0
 5638 01d0 00000000 		.4byte	0
 5639              	.LLST12:
 5640 01d4 00000000 		.4byte	.LVL37
 5641 01d8 08000000 		.4byte	.LVL38
 5642 01dc 0100     		.2byte	0x1
 5643 01de 50       		.byte	0x50
 5644 01df 08000000 		.4byte	.LVL38
 5645 01e3 2C000000 		.4byte	.LFE12
 5646 01e7 0400     		.2byte	0x4
 5647 01e9 F3       		.byte	0xf3
 5648 01ea 01       		.uleb128 0x1
 5649 01eb 50       		.byte	0x50
 5650 01ec 9F       		.byte	0x9f
 5651 01ed 00000000 		.4byte	0
 5652 01f1 00000000 		.4byte	0
 5653              	.LLST13:
 5654 01f5 00000000 		.4byte	.LVL40
 5655 01f9 08000000 		.4byte	.LVL42
 5656 01fd 0100     		.2byte	0x1
 5657 01ff 50       		.byte	0x50
 5658 0200 08000000 		.4byte	.LVL42
 5659 0204 0B000000 		.4byte	.LVL43-1
 5660 0208 0100     		.2byte	0x1
 5661 020a 51       		.byte	0x51
 5662 020b 0B000000 		.4byte	.LVL43-1
 5663 020f 12000000 		.4byte	.LFE3
 5664 0213 0400     		.2byte	0x4
 5665 0215 F3       		.byte	0xf3
 5666 0216 01       		.uleb128 0x1
 5667 0217 50       		.byte	0x50
 5668 0218 9F       		.byte	0x9f
 5669 0219 00000000 		.4byte	0
ARM GAS  /tmp/cc7TW52V.s 			page 101


 5670 021d 00000000 		.4byte	0
 5671              	.LLST14:
 5672 0221 00000000 		.4byte	.LVL40
 5673 0225 06000000 		.4byte	.LVL41
 5674 0229 0100     		.2byte	0x1
 5675 022b 51       		.byte	0x51
 5676 022c 06000000 		.4byte	.LVL41
 5677 0230 12000000 		.4byte	.LFE3
 5678 0234 0400     		.2byte	0x4
 5679 0236 F3       		.byte	0xf3
 5680 0237 01       		.uleb128 0x1
 5681 0238 51       		.byte	0x51
 5682 0239 9F       		.byte	0x9f
 5683 023a 00000000 		.4byte	0
 5684 023e 00000000 		.4byte	0
 5685              	.LLST15:
 5686 0242 0C000000 		.4byte	.LVL45
 5687 0246 12000000 		.4byte	.LVL46
 5688 024a 0100     		.2byte	0x1
 5689 024c 50       		.byte	0x50
 5690 024d 14000000 		.4byte	.LVL47
 5691 0251 16000000 		.4byte	.LVL48
 5692 0255 0100     		.2byte	0x1
 5693 0257 50       		.byte	0x50
 5694 0258 00000000 		.4byte	0
 5695 025c 00000000 		.4byte	0
 5696              	.LLST16:
 5697 0260 00000000 		.4byte	.LVL51
 5698 0264 0A000000 		.4byte	.LVL52
 5699 0268 0100     		.2byte	0x1
 5700 026a 50       		.byte	0x50
 5701 026b 0A000000 		.4byte	.LVL52
 5702 026f EA000000 		.4byte	.LVL65
 5703 0273 0100     		.2byte	0x1
 5704 0275 57       		.byte	0x57
 5705 0276 EA000000 		.4byte	.LVL65
 5706 027a EC000000 		.4byte	.LVL66
 5707 027e 0400     		.2byte	0x4
 5708 0280 F3       		.byte	0xf3
 5709 0281 01       		.uleb128 0x1
 5710 0282 50       		.byte	0x50
 5711 0283 9F       		.byte	0x9f
 5712 0284 EC000000 		.4byte	.LVL66
 5713 0288 10010000 		.4byte	.LFE9
 5714 028c 0100     		.2byte	0x1
 5715 028e 57       		.byte	0x57
 5716 028f 00000000 		.4byte	0
 5717 0293 00000000 		.4byte	0
 5718              	.LLST17:
 5719 0297 26000000 		.4byte	.LVL53
 5720 029b 3A000000 		.4byte	.LVL54
 5721 029f 0100     		.2byte	0x1
 5722 02a1 53       		.byte	0x53
 5723 02a2 3A000000 		.4byte	.LVL54
 5724 02a6 48000000 		.4byte	.LVL55
 5725 02aa 0300     		.2byte	0x3
 5726 02ac 73       		.byte	0x73
ARM GAS  /tmp/cc7TW52V.s 			page 102


 5727 02ad 58       		.sleb128 -40
 5728 02ae 9F       		.byte	0x9f
 5729 02af 48000000 		.4byte	.LVL55
 5730 02b3 5E000000 		.4byte	.LVL57
 5731 02b7 0200     		.2byte	0x2
 5732 02b9 30       		.byte	0x30
 5733 02ba 9F       		.byte	0x9f
 5734 02bb 5E000000 		.4byte	.LVL57
 5735 02bf F2000000 		.4byte	.LVL67
 5736 02c3 0100     		.2byte	0x1
 5737 02c5 50       		.byte	0x50
 5738 02c6 F4000000 		.4byte	.LVL68
 5739 02ca F6000000 		.4byte	.LVL69
 5740 02ce 0100     		.2byte	0x1
 5741 02d0 50       		.byte	0x50
 5742 02d1 F8000000 		.4byte	.LVL70
 5743 02d5 FA000000 		.4byte	.LVL71
 5744 02d9 0200     		.2byte	0x2
 5745 02db 30       		.byte	0x30
 5746 02dc 9F       		.byte	0x9f
 5747 02dd FA000000 		.4byte	.LVL71
 5748 02e1 10010000 		.4byte	.LFE9
 5749 02e5 0600     		.2byte	0x6
 5750 02e7 03       		.byte	0x3
 5751 02e8 00000000 		.4byte	.LANCHOR5
 5752 02ec 9F       		.byte	0x9f
 5753 02ed 00000000 		.4byte	0
 5754 02f1 00000000 		.4byte	0
 5755              	.LLST18:
 5756 02f5 4C000000 		.4byte	.LVL56
 5757 02f9 5E000000 		.4byte	.LVL57
 5758 02fd 0600     		.2byte	0x6
 5759 02ff 03       		.byte	0x3
 5760 0300 00000000 		.4byte	uip_conns
 5761 0304 9F       		.byte	0x9f
 5762 0305 5E000000 		.4byte	.LVL57
 5763 0309 68000000 		.4byte	.LVL58
 5764 030d 0100     		.2byte	0x1
 5765 030f 5C       		.byte	0x5c
 5766 0310 68000000 		.4byte	.LVL58
 5767 0314 6C000000 		.4byte	.LVL59
 5768 0318 0100     		.2byte	0x1
 5769 031a 53       		.byte	0x53
 5770 031b 6C000000 		.4byte	.LVL59
 5771 031f 90000000 		.4byte	.LVL62
 5772 0323 0100     		.2byte	0x1
 5773 0325 5C       		.byte	0x5c
 5774 0326 EC000000 		.4byte	.LVL66
 5775 032a F8000000 		.4byte	.LVL70
 5776 032e 0100     		.2byte	0x1
 5777 0330 5C       		.byte	0x5c
 5778 0331 F8000000 		.4byte	.LVL70
 5779 0335 10010000 		.4byte	.LFE9
 5780 0339 0600     		.2byte	0x6
 5781 033b 03       		.byte	0x3
 5782 033c 00000000 		.4byte	uip_conns
 5783 0340 9F       		.byte	0x9f
ARM GAS  /tmp/cc7TW52V.s 			page 103


 5784 0341 00000000 		.4byte	0
 5785 0345 00000000 		.4byte	0
 5786              	.LLST19:
 5787 0349 00000000 		.4byte	.LVL74
 5788 034d 4A000000 		.4byte	.LVL76
 5789 0351 0100     		.2byte	0x1
 5790 0353 50       		.byte	0x50
 5791 0354 4A000000 		.4byte	.LVL76
 5792 0358 56000000 		.4byte	.LVL77
 5793 035c 0400     		.2byte	0x4
 5794 035e F3       		.byte	0xf3
 5795 035f 01       		.uleb128 0x1
 5796 0360 50       		.byte	0x50
 5797 0361 9F       		.byte	0x9f
 5798 0362 56000000 		.4byte	.LVL77
 5799 0366 75000000 		.4byte	.LVL78-1
 5800 036a 0100     		.2byte	0x1
 5801 036c 50       		.byte	0x50
 5802 036d 75000000 		.4byte	.LVL78-1
 5803 0371 7E000000 		.4byte	.LVL79
 5804 0375 0400     		.2byte	0x4
 5805 0377 F3       		.byte	0xf3
 5806 0378 01       		.uleb128 0x1
 5807 0379 50       		.byte	0x50
 5808 037a 9F       		.byte	0x9f
 5809 037b 7E000000 		.4byte	.LVL79
 5810 037f AA000000 		.4byte	.LVL80
 5811 0383 0100     		.2byte	0x1
 5812 0385 50       		.byte	0x50
 5813 0386 AA000000 		.4byte	.LVL80
 5814 038a DC010000 		.4byte	.LVL85
 5815 038e 0400     		.2byte	0x4
 5816 0390 F3       		.byte	0xf3
 5817 0391 01       		.uleb128 0x1
 5818 0392 50       		.byte	0x50
 5819 0393 9F       		.byte	0x9f
 5820 0394 DC010000 		.4byte	.LVL85
 5821 0398 F6010000 		.4byte	.LVL86
 5822 039c 0100     		.2byte	0x1
 5823 039e 50       		.byte	0x50
 5824 039f F6010000 		.4byte	.LVL86
 5825 03a3 640C0000 		.4byte	.LFE13
 5826 03a7 0400     		.2byte	0x4
 5827 03a9 F3       		.byte	0xf3
 5828 03aa 01       		.uleb128 0x1
 5829 03ab 50       		.byte	0x50
 5830 03ac 9F       		.byte	0x9f
 5831 03ad 00000000 		.4byte	0
 5832 03b1 00000000 		.4byte	0
 5833              	.LLST20:
 5834 03b5 22000000 		.4byte	.LVL75
 5835 03b9 4A000000 		.4byte	.LVL76
 5836 03bd 0100     		.2byte	0x1
 5837 03bf 56       		.byte	0x56
 5838 03c0 56000000 		.4byte	.LVL77
 5839 03c4 7C010000 		.4byte	.LVL82
 5840 03c8 0100     		.2byte	0x1
ARM GAS  /tmp/cc7TW52V.s 			page 104


 5841 03ca 56       		.byte	0x56
 5842 03cb DC010000 		.4byte	.LVL85
 5843 03cf 4A040000 		.4byte	.LVL90
 5844 03d3 0100     		.2byte	0x1
 5845 03d5 56       		.byte	0x56
 5846 03d6 C2040000 		.4byte	.LVL92
 5847 03da CA040000 		.4byte	.LVL93
 5848 03de 0100     		.2byte	0x1
 5849 03e0 56       		.byte	0x56
 5850 03e1 CA040000 		.4byte	.LVL93
 5851 03e5 D2040000 		.4byte	.LVL94
 5852 03e9 0100     		.2byte	0x1
 5853 03eb 53       		.byte	0x53
 5854 03ec D2040000 		.4byte	.LVL94
 5855 03f0 94050000 		.4byte	.LVL95
 5856 03f4 0100     		.2byte	0x1
 5857 03f6 56       		.byte	0x56
 5858 03f7 C6050000 		.4byte	.LVL96
 5859 03fb 08060000 		.4byte	.LVL97
 5860 03ff 0100     		.2byte	0x1
 5861 0401 56       		.byte	0x56
 5862 0402 A2060000 		.4byte	.LVL98
 5863 0406 5A0A0000 		.4byte	.LVL119
 5864 040a 0100     		.2byte	0x1
 5865 040c 56       		.byte	0x56
 5866 040d 5A0A0000 		.4byte	.LVL119
 5867 0411 6A0A0000 		.4byte	.LVL120
 5868 0415 0200     		.2byte	0x2
 5869 0417 30       		.byte	0x30
 5870 0418 9F       		.byte	0x9f
 5871 0419 6A0A0000 		.4byte	.LVL120
 5872 041d A20A0000 		.4byte	.LVL123
 5873 0421 0100     		.2byte	0x1
 5874 0423 56       		.byte	0x56
 5875 0424 A20A0000 		.4byte	.LVL123
 5876 0428 A60A0000 		.4byte	.LVL124
 5877 042c 0100     		.2byte	0x1
 5878 042e 51       		.byte	0x51
 5879 042f A60A0000 		.4byte	.LVL124
 5880 0433 640C0000 		.4byte	.LFE13
 5881 0437 0100     		.2byte	0x1
 5882 0439 56       		.byte	0x56
 5883 043a 00000000 		.4byte	0
 5884 043e 00000000 		.4byte	0
 5885              	.LLST21:
 5886 0442 84070000 		.4byte	.LVL100
 5887 0446 9E070000 		.4byte	.LVL101
 5888 044a 0A00     		.2byte	0xa
 5889 044c 76       		.byte	0x76
 5890 044d 18       		.sleb128 24
 5891 044e 94       		.byte	0x94
 5892 044f 01       		.byte	0x1
 5893 0450 76       		.byte	0x76
 5894 0451 1A       		.sleb128 26
 5895 0452 94       		.byte	0x94
 5896 0453 01       		.byte	0x1
 5897 0454 1C       		.byte	0x1c
ARM GAS  /tmp/cc7TW52V.s 			page 105


 5898 0455 9F       		.byte	0x9f
 5899 0456 9E070000 		.4byte	.LVL101
 5900 045a A8070000 		.4byte	.LVL102
 5901 045e 0100     		.2byte	0x1
 5902 0460 50       		.byte	0x50
 5903 0461 A8070000 		.4byte	.LVL102
 5904 0465 AC070000 		.4byte	.LVL103
 5905 0469 1A00     		.2byte	0x1a
 5906 046b 76       		.byte	0x76
 5907 046c 18       		.sleb128 24
 5908 046d 94       		.byte	0x94
 5909 046e 01       		.byte	0x1
 5910 046f 08       		.byte	0x8
 5911 0470 FF       		.byte	0xff
 5912 0471 1A       		.byte	0x1a
 5913 0472 76       		.byte	0x76
 5914 0473 16       		.sleb128 22
 5915 0474 94       		.byte	0x94
 5916 0475 01       		.byte	0x1
 5917 0476 08       		.byte	0x8
 5918 0477 FF       		.byte	0xff
 5919 0478 1A       		.byte	0x1a
 5920 0479 33       		.byte	0x33
 5921 047a 25       		.byte	0x25
 5922 047b 1C       		.byte	0x1c
 5923 047c 76       		.byte	0x76
 5924 047d 1A       		.sleb128 26
 5925 047e 94       		.byte	0x94
 5926 047f 01       		.byte	0x1
 5927 0480 08       		.byte	0x8
 5928 0481 FF       		.byte	0xff
 5929 0482 1A       		.byte	0x1a
 5930 0483 1C       		.byte	0x1c
 5931 0484 9F       		.byte	0x9f
 5932 0485 AC070000 		.4byte	.LVL103
 5933 0489 B0070000 		.4byte	.LVL104
 5934 048d 0800     		.2byte	0x8
 5935 048f 71       		.byte	0x71
 5936 0490 00       		.sleb128 0
 5937 0491 70       		.byte	0x70
 5938 0492 00       		.sleb128 0
 5939 0493 32       		.byte	0x32
 5940 0494 25       		.byte	0x25
 5941 0495 1C       		.byte	0x1c
 5942 0496 9F       		.byte	0x9f
 5943 0497 B0070000 		.4byte	.LVL104
 5944 049b B2070000 		.4byte	.LVL105
 5945 049f 0A00     		.2byte	0xa
 5946 04a1 71       		.byte	0x71
 5947 04a2 00       		.sleb128 0
 5948 04a3 76       		.byte	0x76
 5949 04a4 17       		.sleb128 23
 5950 04a5 94       		.byte	0x94
 5951 04a6 01       		.byte	0x1
 5952 04a7 32       		.byte	0x32
 5953 04a8 25       		.byte	0x25
 5954 04a9 1C       		.byte	0x1c
ARM GAS  /tmp/cc7TW52V.s 			page 106


 5955 04aa 9F       		.byte	0x9f
 5956 04ab 00000000 		.4byte	0
 5957 04af 00000000 		.4byte	0
 5958              	.LLST22:
 5959 04b3 00000000 		.4byte	.LVL127
 5960 04b7 02000000 		.4byte	.LVL128
 5961 04bb 0100     		.2byte	0x1
 5962 04bd 50       		.byte	0x50
 5963 04be 02000000 		.4byte	.LVL128
 5964 04c2 06000000 		.4byte	.LFE14
 5965 04c6 0400     		.2byte	0x4
 5966 04c8 F3       		.byte	0xf3
 5967 04c9 01       		.uleb128 0x1
 5968 04ca 50       		.byte	0x50
 5969 04cb 9F       		.byte	0x9f
 5970 04cc 00000000 		.4byte	0
 5971 04d0 00000000 		.4byte	0
 5972              	.LLST23:
 5973 04d4 00000000 		.4byte	.LVL129
 5974 04d8 08000000 		.4byte	.LVL130
 5975 04dc 0100     		.2byte	0x1
 5976 04de 50       		.byte	0x50
 5977 04df 08000000 		.4byte	.LVL130
 5978 04e3 19000000 		.4byte	.LVL133-1
 5979 04e7 0100     		.2byte	0x1
 5980 04e9 53       		.byte	0x53
 5981 04ea 19000000 		.4byte	.LVL133-1
 5982 04ee 1A000000 		.4byte	.LVL133
 5983 04f2 0400     		.2byte	0x4
 5984 04f4 F3       		.byte	0xf3
 5985 04f5 01       		.uleb128 0x1
 5986 04f6 50       		.byte	0x50
 5987 04f7 9F       		.byte	0x9f
 5988 04f8 1A000000 		.4byte	.LVL133
 5989 04fc 24000000 		.4byte	.LFE15
 5990 0500 0100     		.2byte	0x1
 5991 0502 53       		.byte	0x53
 5992 0503 00000000 		.4byte	0
 5993 0507 00000000 		.4byte	0
 5994              	.LLST24:
 5995 050b 00000000 		.4byte	.LVL129
 5996 050f 0A000000 		.4byte	.LVL131
 5997 0513 0100     		.2byte	0x1
 5998 0515 51       		.byte	0x51
 5999 0516 0A000000 		.4byte	.LVL131
 6000 051a 16000000 		.4byte	.LVL132
 6001 051e 0100     		.2byte	0x1
 6002 0520 52       		.byte	0x52
 6003 0521 16000000 		.4byte	.LVL132
 6004 0525 1A000000 		.4byte	.LVL133
 6005 0529 0400     		.2byte	0x4
 6006 052b F3       		.byte	0xf3
 6007 052c 01       		.uleb128 0x1
 6008 052d 51       		.byte	0x51
 6009 052e 9F       		.byte	0x9f
 6010 052f 1A000000 		.4byte	.LVL133
 6011 0533 24000000 		.4byte	.LFE15
ARM GAS  /tmp/cc7TW52V.s 			page 107


 6012 0537 0100     		.2byte	0x1
 6013 0539 52       		.byte	0x52
 6014 053a 00000000 		.4byte	0
 6015 053e 00000000 		.4byte	0
 6016              		.section	.debug_aranges,"",%progbits
 6017 0000 94000000 		.4byte	0x94
 6018 0004 0200     		.2byte	0x2
 6019 0006 00000000 		.4byte	.Ldebug_info0
 6020 000a 04       		.byte	0x4
 6021 000b 00       		.byte	0
 6022 000c 0000     		.2byte	0
 6023 000e 0000     		.2byte	0
 6024 0010 00000000 		.4byte	.LFB2
 6025 0014 50000000 		.4byte	.LFE2-.LFB2
 6026 0018 00000000 		.4byte	.LFB5
 6027 001c 3C000000 		.4byte	.LFE5-.LFB5
 6028 0020 00000000 		.4byte	.LFB0
 6029 0024 0C000000 		.4byte	.LFE0-.LFB0
 6030 0028 00000000 		.4byte	.LFB1
 6031 002c 58000000 		.4byte	.LFE1-.LFB1
 6032 0030 00000000 		.4byte	.LFB12
 6033 0034 2C000000 		.4byte	.LFE12-.LFB12
 6034 0038 00000000 		.4byte	.LFB3
 6035 003c 12000000 		.4byte	.LFE3-.LFB3
 6036 0040 00000000 		.4byte	.LFB4
 6037 0044 20000000 		.4byte	.LFE4-.LFB4
 6038 0048 00000000 		.4byte	.LFB6
 6039 004c 06000000 		.4byte	.LFE6-.LFB6
 6040 0050 00000000 		.4byte	.LFB7
 6041 0054 06000000 		.4byte	.LFE7-.LFB7
 6042 0058 00000000 		.4byte	.LFB8
 6043 005c 34000000 		.4byte	.LFE8-.LFB8
 6044 0060 00000000 		.4byte	.LFB9
 6045 0064 10010000 		.4byte	.LFE9-.LFB9
 6046 0068 00000000 		.4byte	.LFB10
 6047 006c 28000000 		.4byte	.LFE10-.LFB10
 6048 0070 00000000 		.4byte	.LFB11
 6049 0074 28000000 		.4byte	.LFE11-.LFB11
 6050 0078 00000000 		.4byte	.LFB13
 6051 007c 640C0000 		.4byte	.LFE13-.LFB13
 6052 0080 00000000 		.4byte	.LFB14
 6053 0084 06000000 		.4byte	.LFE14-.LFB14
 6054 0088 00000000 		.4byte	.LFB15
 6055 008c 24000000 		.4byte	.LFE15-.LFB15
 6056 0090 00000000 		.4byte	0
 6057 0094 00000000 		.4byte	0
 6058              		.section	.debug_ranges,"",%progbits
 6059              	.Ldebug_ranges0:
 6060 0000 00000000 		.4byte	.LFB2
 6061 0004 50000000 		.4byte	.LFE2
 6062 0008 00000000 		.4byte	.LFB5
 6063 000c 3C000000 		.4byte	.LFE5
 6064 0010 00000000 		.4byte	.LFB0
 6065 0014 0C000000 		.4byte	.LFE0
 6066 0018 00000000 		.4byte	.LFB1
 6067 001c 58000000 		.4byte	.LFE1
 6068 0020 00000000 		.4byte	.LFB12
ARM GAS  /tmp/cc7TW52V.s 			page 108


 6069 0024 2C000000 		.4byte	.LFE12
 6070 0028 00000000 		.4byte	.LFB3
 6071 002c 12000000 		.4byte	.LFE3
 6072 0030 00000000 		.4byte	.LFB4
 6073 0034 20000000 		.4byte	.LFE4
 6074 0038 00000000 		.4byte	.LFB6
 6075 003c 06000000 		.4byte	.LFE6
 6076 0040 00000000 		.4byte	.LFB7
 6077 0044 06000000 		.4byte	.LFE7
 6078 0048 00000000 		.4byte	.LFB8
 6079 004c 34000000 		.4byte	.LFE8
 6080 0050 00000000 		.4byte	.LFB9
 6081 0054 10010000 		.4byte	.LFE9
 6082 0058 00000000 		.4byte	.LFB10
 6083 005c 28000000 		.4byte	.LFE10
 6084 0060 00000000 		.4byte	.LFB11
 6085 0064 28000000 		.4byte	.LFE11
 6086 0068 00000000 		.4byte	.LFB13
 6087 006c 640C0000 		.4byte	.LFE13
 6088 0070 00000000 		.4byte	.LFB14
 6089 0074 06000000 		.4byte	.LFE14
 6090 0078 00000000 		.4byte	.LFB15
 6091 007c 24000000 		.4byte	.LFE15
 6092 0080 00000000 		.4byte	0
 6093 0084 00000000 		.4byte	0
 6094              		.section	.debug_line,"",%progbits
 6095              	.Ldebug_line0:
 6096 0000 BF060000 		.section	.debug_str,"MS",%progbits,1
 6096      02009C00 
 6096      00000201 
 6096      FB0E0D00 
 6096      01010101 
 6097              	.LASF14:
 6098 0000 636F756E 		.ascii	"count\000"
 6098      7400
 6099              	.LASF125:
 6100 0006 7569705F 		.ascii	"uip_netmask\000"
 6100      6E65746D 
 6100      61736B00 
 6101              	.LASF53:
 6102 0012 7569705F 		.ascii	"uip_tcpip_hdr\000"
 6102      74637069 
 6102      705F6864 
 6102      7200
 6103              	.LASF105:
 6104 0020 72657365 		.ascii	"reset\000"
 6104      7400
 6105              	.LASF129:
 6106 0026 7569705F 		.ascii	"uip_slen\000"
 6106      736C656E 
 6106      00
 6107              	.LASF3:
 6108 002f 5F5F7569 		.ascii	"__uint8_t\000"
 6108      6E74385F 
 6108      7400
 6109              	.LASF42:
 6110 0039 6C626C65 		.ascii	"lblenerr\000"
ARM GAS  /tmp/cc7TW52V.s 			page 109


 6110      6E657272 
 6110      00
 6111              	.LASF70:
 6112 0042 74797065 		.ascii	"type\000"
 6112      00
 6113              	.LASF32:
 6114 0047 696E6974 		.ascii	"initialmss\000"
 6114      69616C6D 
 6114      737300
 6115              	.LASF44:
 6116 0052 63686B65 		.ascii	"chkerr\000"
 6116      727200
 6117              	.LASF9:
 6118 0059 6C6F6E67 		.ascii	"long long unsigned int\000"
 6118      206C6F6E 
 6118      6720756E 
 6118      7369676E 
 6118      65642069 
 6119              	.LASF74:
 6120 0070 61646472 		.ascii	"addr\000"
 6120      00
 6121              	.LASF94:
 6122 0075 7569705F 		.ascii	"uip_connr\000"
 6122      636F6E6E 
 6122      7200
 6123              	.LASF40:
 6124 007f 76686C65 		.ascii	"vhlerr\000"
 6124      727200
 6125              	.LASF46:
 6126 0086 74797065 		.ascii	"typeerr\000"
 6126      65727200 
 6127              	.LASF8:
 6128 008e 6C6F6E67 		.ascii	"long long int\000"
 6128      206C6F6E 
 6128      6720696E 
 6128      7400
 6129              	.LASF0:
 6130 009c 7369676E 		.ascii	"signed char\000"
 6130      65642063 
 6130      68617200 
 6131              	.LASF118:
 6132 00a8 7569705F 		.ascii	"uip_appdata\000"
 6132      61707064 
 6132      61746100 
 6133              	.LASF28:
 6134 00b4 6C706F72 		.ascii	"lport\000"
 6134      7400
 6135              	.LASF132:
 6136 00ba 2E2E2F75 		.ascii	"../uip/uip.c\000"
 6136      69702F75 
 6136      69702E63 
 6136      00
 6137              	.LASF62:
 6138 00c7 7365716E 		.ascii	"seqno\000"
 6138      6F00
 6139              	.LASF13:
 6140 00cd 73746174 		.ascii	"state\000"
ARM GAS  /tmp/cc7TW52V.s 			page 110


 6140      6500
 6141              	.LASF6:
 6142 00d3 6C6F6E67 		.ascii	"long int\000"
 6142      20696E74 
 6142      00
 6143              	.LASF124:
 6144 00dc 7569705F 		.ascii	"uip_hostaddr\000"
 6144      686F7374 
 6144      61646472 
 6144      00
 6145              	.LASF128:
 6146 00e9 7569705F 		.ascii	"uip_sappdata\000"
 6146      73617070 
 6146      64617461 
 6146      00
 6147              	.LASF69:
 6148 00f6 7569705F 		.ascii	"uip_icmpip_hdr\000"
 6148      69636D70 
 6148      69705F68 
 6148      647200
 6149              	.LASF140:
 6150 0105 6D656D63 		.ascii	"memcpy\000"
 6150      707900
 6151              	.LASF38:
 6152 010c 72656376 		.ascii	"recv\000"
 6152      00
 6153              	.LASF12:
 6154 0111 75696E74 		.ascii	"uint16_t\000"
 6154      31365F74 
 6154      00
 6155              	.LASF29:
 6156 011a 72706F72 		.ascii	"rport\000"
 6156      7400
 6157              	.LASF35:
 6158 0120 6E727478 		.ascii	"nrtx\000"
 6158      00
 6159              	.LASF41:
 6160 0125 68626C65 		.ascii	"hblenerr\000"
 6160      6E657272 
 6160      00
 6161              	.LASF88:
 6162 012e 7569705F 		.ascii	"uip_setipid\000"
 6162      73657469 
 6162      70696400 
 6163              	.LASF138:
 6164 013a 7569705F 		.ascii	"uip_init\000"
 6164      696E6974 
 6164      00
 6165              	.LASF111:
 6166 0143 69705F73 		.ascii	"ip_send_nolen\000"
 6166      656E645F 
 6166      6E6F6C65 
 6166      6E00
 6167              	.LASF63:
 6168 0151 61636B6E 		.ascii	"ackno\000"
 6168      6F00
 6169              	.LASF10:
ARM GAS  /tmp/cc7TW52V.s 			page 111


 6170 0157 756E7369 		.ascii	"unsigned int\000"
 6170      676E6564 
 6170      20696E74 
 6170      00
 6171              	.LASF133:
 6172 0164 2F686F6D 		.ascii	"/home/dltech-deb/gdrive/Projects/RFM_to_Modbus_TCP/"
 6172      652F646C 
 6172      74656368 
 6172      2D646562 
 6172      2F676472 
 6173 0197 43686962 		.ascii	"ChibiOS/F103_ChibiOS_ENC60J28/main\000"
 6173      694F532F 
 6173      46313033 
 6173      5F436869 
 6173      62694F53 
 6174              	.LASF21:
 6175 01ba 7569705F 		.ascii	"uip_stats_t\000"
 6175      73746174 
 6175      735F7400 
 6176              	.LASF7:
 6177 01c6 6C6F6E67 		.ascii	"long unsigned int\000"
 6177      20756E73 
 6177      69676E65 
 6177      6420696E 
 6177      7400
 6178              	.LASF99:
 6179 01d8 7463705F 		.ascii	"tcp_send_syn\000"
 6179      73656E64 
 6179      5F73796E 
 6179      00
 6180              	.LASF18:
 6181 01e5 7569705F 		.ascii	"uip_tcp_appstate_t\000"
 6181      7463705F 
 6181      61707073 
 6181      74617465 
 6181      5F7400
 6182              	.LASF58:
 6183 01f8 73726369 		.ascii	"srcipaddr\000"
 6183      70616464 
 6183      7200
 6184              	.LASF77:
 6185 0202 64617461 		.ascii	"data\000"
 6185      00
 6186              	.LASF5:
 6187 0207 73686F72 		.ascii	"short unsigned int\000"
 6187      7420756E 
 6187      7369676E 
 6187      65642069 
 6187      6E7400
 6188              	.LASF47:
 6189 021a 61636B65 		.ascii	"ackerr\000"
 6189      727200
 6190              	.LASF27:
 6191 0221 72697061 		.ascii	"ripaddr\000"
 6191      64647200 
 6192              	.LASF90:
 6193 0229 706F7274 		.ascii	"port\000"
ARM GAS  /tmp/cc7TW52V.s 			page 112


 6193      00
 6194              	.LASF51:
 6195 022e 7569705F 		.ascii	"uip_stats\000"
 6195      73746174 
 6195      7300
 6196              	.LASF84:
 6197 0238 7569705F 		.ascii	"uip_udpchksum\000"
 6197      75647063 
 6197      686B7375 
 6197      6D00
 6198              	.LASF55:
 6199 0246 69706F66 		.ascii	"ipoffset\000"
 6199      66736574 
 6199      00
 6200              	.LASF106:
 6201 024f 666F756E 		.ascii	"found_listen\000"
 6201      645F6C69 
 6201      7374656E 
 6201      00
 6202              	.LASF26:
 6203 025c 7569705F 		.ascii	"uip_conn\000"
 6203      636F6E6E 
 6203      00
 6204              	.LASF64:
 6205 0265 7463706F 		.ascii	"tcpoffset\000"
 6205      66667365 
 6205      7400
 6206              	.LASF122:
 6207 026f 7569705F 		.ascii	"uip_stat\000"
 6207      73746174 
 6207      00
 6208              	.LASF97:
 6209 0278 7463705F 		.ascii	"tcp_send_nodata\000"
 6209      73656E64 
 6209      5F6E6F64 
 6209      61746100 
 6210              	.LASF112:
 6211 0288 7569705F 		.ascii	"uip_send\000"
 6211      73656E64 
 6211      00
 6212              	.LASF123:
 6213 0291 7569705F 		.ascii	"uip_flags\000"
 6213      666C6167 
 6213      7300
 6214              	.LASF68:
 6215 029b 6F707464 		.ascii	"optdata\000"
 6215      61746100 
 6216              	.LASF134:
 6217 02a3 7569705F 		.ascii	"uip_add32\000"
 6217      61646433 
 6217      3200
 6218              	.LASF67:
 6219 02ad 75726770 		.ascii	"urgp\000"
 6219      00
 6220              	.LASF78:
 6221 02b2 6C617374 		.ascii	"last_byte\000"
 6221      5F627974 
ARM GAS  /tmp/cc7TW52V.s 			page 113


 6221      6500
 6222              	.LASF48:
 6223 02bc 7265786D 		.ascii	"rexmit\000"
 6223      697400
 6224              	.LASF36:
 6225 02c3 61707073 		.ascii	"appstate\000"
 6225      74617465 
 6225      00
 6226              	.LASF126:
 6227 02cc 7569705F 		.ascii	"uip_draddr\000"
 6227      64726164 
 6227      647200
 6228              	.LASF82:
 6229 02d7 7569705F 		.ascii	"uip_chksum\000"
 6229      63686B73 
 6229      756D00
 6230              	.LASF19:
 6231 02e2 75385F74 		.ascii	"u8_t\000"
 6231      00
 6232              	.LASF43:
 6233 02e7 66726167 		.ascii	"fragerr\000"
 6233      65727200 
 6234              	.LASF23:
 6235 02ef 73697A65 		.ascii	"sizetype\000"
 6235      74797065 
 6235      00
 6236              	.LASF66:
 6237 02f8 74637063 		.ascii	"tcpchksum\000"
 6237      686B7375 
 6237      6D00
 6238              	.LASF22:
 6239 0302 7569705F 		.ascii	"uip_ip4addr_t\000"
 6239      69703461 
 6239      6464725F 
 6239      7400
 6240              	.LASF72:
 6241 0310 69636D70 		.ascii	"icmpchksum\000"
 6241      63686B73 
 6241      756D00
 6242              	.LASF103:
 6243 031b 73656E64 		.ascii	"send\000"
 6243      00
 6244              	.LASF110:
 6245 0320 7463705F 		.ascii	"tcp_send_noopts\000"
 6245      73656E64 
 6245      5F6E6F6F 
 6245      70747300 
 6246              	.LASF57:
 6247 0330 69706368 		.ascii	"ipchksum\000"
 6247      6B73756D 
 6247      00
 6248              	.LASF76:
 6249 0339 6F703136 		.ascii	"op16\000"
 6249      00
 6250              	.LASF39:
 6251 033e 73656E74 		.ascii	"sent\000"
 6251      00
ARM GAS  /tmp/cc7TW52V.s 			page 114


 6252              	.LASF81:
 6253 0343 75707065 		.ascii	"upper_layer_len\000"
 6253      725F6C61 
 6253      7965725F 
 6253      6C656E00 
 6254              	.LASF136:
 6255 0353 7569705F 		.ascii	"uip_tcpchksum\000"
 6255      74637063 
 6255      686B7375 
 6255      6D00
 6256              	.LASF102:
 6257 0361 7463705F 		.ascii	"tcp_input\000"
 6257      696E7075 
 6257      7400
 6258              	.LASF95:
 6259 036b 61676169 		.ascii	"again\000"
 6259      6E00
 6260              	.LASF52:
 6261 0371 69636D70 		.ascii	"icmp\000"
 6261      00
 6262              	.LASF114:
 6263 0376 616C6C5F 		.ascii	"all_zeroes_addr\000"
 6263      7A65726F 
 6263      65735F61 
 6263      64647200 
 6264              	.LASF59:
 6265 0386 64657374 		.ascii	"destipaddr\000"
 6265      69706164 
 6265      647200
 6266              	.LASF131:
 6267 0391 474E5520 		.ascii	"GNU C 4.8.4 20141219 (release) -mcpu=cortex-m3 -mno"
 6267      4320342E 
 6267      382E3420 
 6267      32303134 
 6267      31323139 
 6268 03c4 2D746875 		.ascii	"-thumb-interwork -mthumb -ggdb -O2 -fomit-frame-poi"
 6268      6D622D69 
 6268      6E746572 
 6268      776F726B 
 6268      202D6D74 
 6269 03f7 6E746572 		.ascii	"nter -falign-functions=16 -ffunction-sections -fdat"
 6269      202D6661 
 6269      6C69676E 
 6269      2D66756E 
 6269      6374696F 
 6270 042a 612D7365 		.ascii	"a-sections -fno-common -fno-strict-aliasing\000"
 6270      6374696F 
 6270      6E73202D 
 6270      666E6F2D 
 6270      636F6D6D 
 6271              	.LASF31:
 6272 0456 736E645F 		.ascii	"snd_nxt\000"
 6272      6E787400 
 6273              	.LASF1:
 6274 045e 756E7369 		.ascii	"unsigned char\000"
 6274      676E6564 
 6274      20636861 
ARM GAS  /tmp/cc7TW52V.s 			page 115


 6274      7200
 6275              	.LASF16:
 6276 046c 73637269 		.ascii	"script\000"
 6276      707400
 6277              	.LASF91:
 6278 0473 7569705F 		.ascii	"uip_listen\000"
 6278      6C697374 
 6278      656E00
 6279              	.LASF2:
 6280 047e 73686F72 		.ascii	"short int\000"
 6280      7420696E 
 6280      7400
 6281              	.LASF108:
 6282 0488 7463705F 		.ascii	"tcp_send\000"
 6282      73656E64 
 6282      00
 6283              	.LASF45:
 6284 0491 70726F74 		.ascii	"protoerr\000"
 6284      6F657272 
 6284      00
 6285              	.LASF37:
 6286 049a 64726F70 		.ascii	"drop\000"
 6286      00
 6287              	.LASF93:
 6288 049f 666C6167 		.ascii	"flag\000"
 6288      00
 6289              	.LASF50:
 6290 04a4 73796E72 		.ascii	"synrst\000"
 6290      737400
 6291              	.LASF80:
 6292 04ab 75707065 		.ascii	"upper_layer_chksum\000"
 6292      725F6C61 
 6292      7965725F 
 6292      63686B73 
 6292      756D00
 6293              	.LASF49:
 6294 04be 73796E64 		.ascii	"syndrop\000"
 6294      726F7000 
 6295              	.LASF56:
 6296 04c6 70726F74 		.ascii	"proto\000"
 6296      6F00
 6297              	.LASF109:
 6298 04cc 7463705F 		.ascii	"tcp_send_ack\000"
 6298      73656E64 
 6298      5F61636B 
 6298      00
 6299              	.LASF117:
 6300 04d9 7569705F 		.ascii	"uip_buf\000"
 6300      62756600 
 6301              	.LASF127:
 6302 04e1 7569705F 		.ascii	"uip_ethaddr\000"
 6302      65746861 
 6302      64647200 
 6303              	.LASF17:
 6304 04ed 63686172 		.ascii	"char\000"
 6304      00
 6305              	.LASF120:
ARM GAS  /tmp/cc7TW52V.s 			page 116


 6306 04f2 7569705F 		.ascii	"uip_conns\000"
 6306      636F6E6E 
 6306      7300
 6307              	.LASF15:
 6308 04fc 64617461 		.ascii	"dataptr\000"
 6308      70747200 
 6309              	.LASF4:
 6310 0504 5F5F7569 		.ascii	"__uint16_t\000"
 6310      6E743136 
 6310      5F7400
 6311              	.LASF85:
 6312 050f 7569705F 		.ascii	"uip_connect\000"
 6312      636F6E6E 
 6312      65637400 
 6313              	.LASF101:
 6314 051b 7463705F 		.ascii	"tcp_send_finack\000"
 6314      73656E64 
 6314      5F66696E 
 6314      61636B00 
 6315              	.LASF98:
 6316 052b 7463705F 		.ascii	"tcp_send_synack\000"
 6316      73656E64 
 6316      5F73796E 
 6316      61636B00 
 6317              	.LASF75:
 6318 053b 6F703332 		.ascii	"op32\000"
 6318      00
 6319              	.LASF92:
 6320 0540 7569705F 		.ascii	"uip_process\000"
 6320      70726F63 
 6320      65737300 
 6321              	.LASF139:
 6322 054c 6D6F6462 		.ascii	"modbus_tcp_gateway\000"
 6322      75735F74 
 6322      63705F67 
 6322      61746577 
 6322      617900
 6323              	.LASF83:
 6324 055f 7569705F 		.ascii	"uip_ipchksum\000"
 6324      69706368 
 6324      6B73756D 
 6324      00
 6325              	.LASF24:
 6326 056c 7569705F 		.ascii	"uip_ipaddr_t\000"
 6326      69706164 
 6326      64725F74 
 6326      00
 6327              	.LASF71:
 6328 0579 69636F64 		.ascii	"icode\000"
 6328      6500
 6329              	.LASF113:
 6330 057f 616C6C5F 		.ascii	"all_ones_addr\000"
 6330      6F6E6573 
 6330      5F616464 
 6330      7200
 6331              	.LASF61:
 6332 058d 64657374 		.ascii	"destport\000"
ARM GAS  /tmp/cc7TW52V.s 			page 117


 6332      706F7274 
 6332      00
 6333              	.LASF20:
 6334 0596 7531365F 		.ascii	"u16_t\000"
 6334      7400
 6335              	.LASF104:
 6336 059c 666F756E 		.ascii	"found\000"
 6336      6400
 6337              	.LASF33:
 6338 05a2 74637073 		.ascii	"tcpstateflags\000"
 6338      74617465 
 6338      666C6167 
 6338      7300
 6339              	.LASF54:
 6340 05b0 69706964 		.ascii	"ipid\000"
 6340      00
 6341              	.LASF137:
 6342 05b5 7569705F 		.ascii	"uip_add_rcv_nxt\000"
 6342      6164645F 
 6342      7263765F 
 6342      6E787400 
 6343              	.LASF87:
 6344 05c5 63636F6E 		.ascii	"cconn\000"
 6344      6E00
 6345              	.LASF100:
 6346 05cb 61707072 		.ascii	"apprexmit\000"
 6346      65786D69 
 6346      7400
 6347              	.LASF86:
 6348 05d5 636F6E6E 		.ascii	"conn\000"
 6348      00
 6349              	.LASF30:
 6350 05da 7263765F 		.ascii	"rcv_nxt\000"
 6350      6E787400 
 6351              	.LASF11:
 6352 05e2 75696E74 		.ascii	"uint8_t\000"
 6352      385F7400 
 6353              	.LASF65:
 6354 05ea 666C6167 		.ascii	"flags\000"
 6354      7300
 6355              	.LASF34:
 6356 05f0 74696D65 		.ascii	"timer\000"
 6356      7200
 6357              	.LASF121:
 6358 05f6 7569705F 		.ascii	"uip_acc32\000"
 6358      61636333 
 6358      3200
 6359              	.LASF135:
 6360 0600 68746F6E 		.ascii	"htons\000"
 6360      7300
 6361              	.LASF107:
 6362 0606 7463705F 		.ascii	"tcp_send_noconn\000"
 6362      73656E64 
 6362      5F6E6F63 
 6362      6F6E6E00 
 6363              	.LASF73:
 6364 0616 7569705F 		.ascii	"uip_eth_addr\000"
ARM GAS  /tmp/cc7TW52V.s 			page 118


 6364      6574685F 
 6364      61646472 
 6364      00
 6365              	.LASF89:
 6366 0623 7569705F 		.ascii	"uip_unlisten\000"
 6366      756E6C69 
 6366      7374656E 
 6366      00
 6367              	.LASF96:
 6368 0630 61707073 		.ascii	"appsend\000"
 6368      656E6400 
 6369              	.LASF79:
 6370 0638 63686B73 		.ascii	"chksum\000"
 6370      756D00
 6371              	.LASF119:
 6372 063f 7569705F 		.ascii	"uip_len\000"
 6372      6C656E00 
 6373              	.LASF60:
 6374 0647 73726370 		.ascii	"srcport\000"
 6374      6F727400 
 6375              	.LASF116:
 6376 064f 746D7031 		.ascii	"tmp16\000"
 6376      3600
 6377              	.LASF25:
 6378 0655 6D6F6462 		.ascii	"modbus_tcp_states\000"
 6378      75735F74 
 6378      63705F73 
 6378      74617465 
 6378      7300
 6379              	.LASF130:
 6380 0667 7569705F 		.ascii	"uip_listenports\000"
 6380      6C697374 
 6380      656E706F 
 6380      72747300 
 6381              	.LASF115:
 6382 0677 6C617374 		.ascii	"lastport\000"
 6382      706F7274 
 6382      00
 6383              		.ident	"GCC: (4.8.4-1+11-1) 4.8.4 20141219 (release)"
ARM GAS  /tmp/cc7TW52V.s 			page 119


DEFINED SYMBOLS
                            *ABS*:0000000000000000 uip.c
     /tmp/cc7TW52V.s:19     .text.chksum:0000000000000000 $t
     /tmp/cc7TW52V.s:24     .text.chksum:0000000000000000 chksum
     /tmp/cc7TW52V.s:120    .text.upper_layer_chksum:0000000000000000 $t
     /tmp/cc7TW52V.s:125    .text.upper_layer_chksum:0000000000000000 upper_layer_chksum
     /tmp/cc7TW52V.s:179    .text.upper_layer_chksum:0000000000000038 $d
     /tmp/cc7TW52V.s:184    .text.uip_setipid:0000000000000000 $t
     /tmp/cc7TW52V.s:190    .text.uip_setipid:0000000000000000 uip_setipid
     /tmp/cc7TW52V.s:205    .text.uip_setipid:0000000000000008 $d
     /tmp/cc7TW52V.s:210    .text.uip_add32:0000000000000000 $t
     /tmp/cc7TW52V.s:216    .text.uip_add32:0000000000000000 uip_add32
     /tmp/cc7TW52V.s:302    .text.uip_add32:0000000000000054 $d
     /tmp/cc7TW52V.s:307    .text.unlikely.uip_add_rcv_nxt:0000000000000000 $t
     /tmp/cc7TW52V.s:311    .text.unlikely.uip_add_rcv_nxt:0000000000000000 uip_add_rcv_nxt
     /tmp/cc7TW52V.s:355    .text.unlikely.uip_add_rcv_nxt:0000000000000024 $d
     /tmp/cc7TW52V.s:361    .text.uip_chksum:0000000000000000 $t
     /tmp/cc7TW52V.s:367    .text.uip_chksum:0000000000000000 uip_chksum
     /tmp/cc7TW52V.s:395    .text.uip_ipchksum:0000000000000000 $t
     /tmp/cc7TW52V.s:401    .text.uip_ipchksum:0000000000000000 uip_ipchksum
     /tmp/cc7TW52V.s:432    .text.uip_ipchksum:000000000000001c $d
     /tmp/cc7TW52V.s:437    .text.uip_tcpchksum:0000000000000000 $t
     /tmp/cc7TW52V.s:443    .text.uip_tcpchksum:0000000000000000 uip_tcpchksum
     /tmp/cc7TW52V.s:458    .text.uip_udpchksum:0000000000000000 $t
     /tmp/cc7TW52V.s:464    .text.uip_udpchksum:0000000000000000 uip_udpchksum
     /tmp/cc7TW52V.s:479    .text.uip_init:0000000000000000 $t
     /tmp/cc7TW52V.s:485    .text.uip_init:0000000000000000 uip_init
     /tmp/cc7TW52V.s:516    .text.uip_init:0000000000000024 $d
     /tmp/cc7TW52V.s:524    .text.uip_connect:0000000000000000 $t
     /tmp/cc7TW52V.s:530    .text.uip_connect:0000000000000000 uip_connect
     /tmp/cc7TW52V.s:732    .text.uip_connect:00000000000000fc $d
     /tmp/cc7TW52V.s:741    .text.uip_unlisten:0000000000000000 $t
     /tmp/cc7TW52V.s:747    .text.uip_unlisten:0000000000000000 uip_unlisten
     /tmp/cc7TW52V.s:783    .text.uip_unlisten:0000000000000020 $d
     /tmp/cc7TW52V.s:789    .text.uip_listen:0000000000000000 $t
     /tmp/cc7TW52V.s:795    .text.uip_listen:0000000000000000 uip_listen
     /tmp/cc7TW52V.s:832    .text.uip_listen:0000000000000020 $d
     /tmp/cc7TW52V.s:838    .text.uip_process:0000000000000000 $t
     /tmp/cc7TW52V.s:844    .text.uip_process:0000000000000000 uip_process
     /tmp/cc7TW52V.s:1295   .text.uip_process:0000000000000260 $d
     /tmp/cc7TW52V.s:1308   .text.uip_process:000000000000028c $t
     /tmp/cc7TW52V.s:1351   .text.uip_process:00000000000002d4 $d
     /tmp/cc7TW52V.s:1359   .text.uip_process:00000000000002f4 $t
     /tmp/cc7TW52V.s:1790   .text.uip_process:0000000000000574 $d
     /tmp/cc7TW52V.s:1801   .text.uip_process:0000000000000594 $t
     /tmp/cc7TW52V.s:2010   .text.uip_process:0000000000000700 $d
     /tmp/cc7TW52V.s:2018   .text.uip_process:0000000000000720 $t
     /tmp/cc7TW52V.s:2293   .text.uip_process:00000000000008b4 $d
     /tmp/cc7TW52V.s:2301   .text.uip_process:00000000000008cc $t
     /tmp/cc7TW52V.s:2757   .text.uip_process:0000000000000bb8 $d
     /tmp/cc7TW52V.s:2766   .text.uip_process:0000000000000bd4 $t
     /tmp/cc7TW52V.s:2842   .text.uip_process:0000000000000c5c $d
     /tmp/cc7TW52V.s:2848   .text.htons:0000000000000000 $t
     /tmp/cc7TW52V.s:2854   .text.htons:0000000000000000 htons
     /tmp/cc7TW52V.s:2871   .text.uip_send:0000000000000000 $t
     /tmp/cc7TW52V.s:2877   .text.uip_send:0000000000000000 uip_send
     /tmp/cc7TW52V.s:2915   .text.uip_send:000000000000001c $d
ARM GAS  /tmp/cc7TW52V.s 			page 120


     /tmp/cc7TW52V.s:3042   .bss.uip_stat:0000000000000000 uip_stat
     /tmp/cc7TW52V.s:3028   .bss.uip_acc32:0000000000000000 uip_acc32
     /tmp/cc7TW52V.s:3061   .bss.uip_listenports:0000000000000000 uip_listenports
     /tmp/cc7TW52V.s:2947   .bss.uip_conns:0000000000000000 uip_conns
     /tmp/cc7TW52V.s:2940   .bss.uip_conn:0000000000000000 uip_conn
     /tmp/cc7TW52V.s:3021   .bss.uip_flags:0000000000000000 uip_flags
     /tmp/cc7TW52V.s:2980   .bss.uip_slen:0000000000000000 uip_slen
     /tmp/cc7TW52V.s:2960   .bss.uip_len:0000000000000000 uip_len
     /tmp/cc7TW52V.s:3068   .bss.uip_sappdata:0000000000000000 uip_sappdata
     /tmp/cc7TW52V.s:3001   .bss.uip_appdata:0000000000000000 uip_appdata
     /tmp/cc7TW52V.s:2994   .bss.uip_buf:0000000000000000 uip_buf
     /tmp/cc7TW52V.s:3048   .bss.uip_ethaddr:0000000000000000 uip_ethaddr
     /tmp/cc7TW52V.s:2953   .bss.uip_netmask:0000000000000000 uip_netmask
     /tmp/cc7TW52V.s:2973   .bss.uip_draddr:0000000000000000 uip_draddr
     /tmp/cc7TW52V.s:3015   .bss.uip_hostaddr:0000000000000000 uip_hostaddr
     /tmp/cc7TW52V.s:2936   .bss.uip_conn:0000000000000000 $d
     /tmp/cc7TW52V.s:2943   .bss.uip_conns:0000000000000000 $d
     /tmp/cc7TW52V.s:2950   .bss.uip_netmask:0000000000000000 $d
     /tmp/cc7TW52V.s:2956   .bss.uip_len:0000000000000000 $d
     /tmp/cc7TW52V.s:2963   .bss.ipid:0000000000000000 $d
     /tmp/cc7TW52V.s:2967   .bss.ipid:0000000000000000 ipid
     /tmp/cc7TW52V.s:2970   .bss.uip_draddr:0000000000000000 $d
     /tmp/cc7TW52V.s:2976   .bss.uip_slen:0000000000000000 $d
     /tmp/cc7TW52V.s:2983   .bss.tmp16:0000000000000000 $d
     /tmp/cc7TW52V.s:2987   .bss.tmp16:0000000000000000 tmp16
     /tmp/cc7TW52V.s:2990   .bss.uip_buf:0000000000000000 $d
     /tmp/cc7TW52V.s:2997   .bss.uip_appdata:0000000000000000 $d
     /tmp/cc7TW52V.s:3004   .bss.iss:0000000000000000 $d
     /tmp/cc7TW52V.s:3008   .bss.iss:0000000000000000 iss
     /tmp/cc7TW52V.s:3011   .bss.uip_hostaddr:0000000000000000 $d
     /tmp/cc7TW52V.s:3022   .bss.uip_flags:0000000000000000 $d
     /tmp/cc7TW52V.s:3024   .bss.uip_acc32:0000000000000000 $d
     /tmp/cc7TW52V.s:3031   .bss.lastport:0000000000000000 $d
     /tmp/cc7TW52V.s:3035   .bss.lastport:0000000000000000 lastport
     /tmp/cc7TW52V.s:3038   .bss.uip_stat:0000000000000000 $d
     /tmp/cc7TW52V.s:3045   .bss.uip_ethaddr:0000000000000000 $d
     /tmp/cc7TW52V.s:3054   .bss.c:0000000000000000 c
     /tmp/cc7TW52V.s:3055   .bss.c:0000000000000000 $d
     /tmp/cc7TW52V.s:3057   .bss.uip_listenports:0000000000000000 $d
     /tmp/cc7TW52V.s:3064   .bss.uip_sappdata:0000000000000000 $d
     /tmp/cc7TW52V.s:3074   .bss.opt:0000000000000000 opt
     /tmp/cc7TW52V.s:3075   .bss.opt:0000000000000000 $d
                     .debug_frame:0000000000000010 $d
     /tmp/cc7TW52V.s:183    .text.upper_layer_chksum:000000000000003c $t
     /tmp/cc7TW52V.s:209    .text.uip_setipid:000000000000000c $t
     /tmp/cc7TW52V.s:306    .text.uip_add32:0000000000000058 $t
     /tmp/cc7TW52V.s:523    .text.uip_init:0000000000000034 $t
     /tmp/cc7TW52V.s:788    .text.uip_unlisten:0000000000000028 $t
     /tmp/cc7TW52V.s:837    .text.uip_listen:0000000000000028 $t
     /tmp/cc7TW52V.s:2847   .text.uip_process:0000000000000c64 $t
     /tmp/cc7TW52V.s:2935   .text.uip_send:0000000000000024 $t

UNDEFINED SYMBOLS
modbus_tcp_gateway
memcpy
