ARM GAS  /tmp/cc7TW52V.s 			page 1


   1              		.syntax unified
   2              		.cpu cortex-m3
   3              		.fpu softvfp
   4              		.eabi_attribute 20, 1
   5              		.eabi_attribute 21, 1
   6              		.eabi_attribute 23, 3
   7              		.eabi_attribute 24, 1
   8              		.eabi_attribute 25, 1
   9              		.eabi_attribute 26, 1
  10              		.eabi_attribute 30, 2
  11              		.eabi_attribute 34, 1
  12              		.eabi_attribute 18, 4
  13              		.thumb
  14              		.file	"uip.c"
  15              		.text
  16              	.Ltext0:
  17              		.cfi_sections	.debug_frame
  18              		.section	.text.chksum,"ax",%progbits
  19              		.align	2
  20              		.p2align 4,,15
  21              		.thumb
  22              		.thumb_func
  23              		.type	chksum, %function
  24              	chksum:
  25              	.LFB2:
  26              		.file 1 "../uip/uip.c"
  27              		.loc 1 281 0
  28              		.cfi_startproc
  29              		@ args = 0, pretend = 0, frame = 0
  30              		@ frame_needed = 0, uses_anonymous_args = 0
  31              		@ link register save eliminated.
  32              	.LVL0:
  33              		.loc 1 287 0
  34 0000 013A     		subs	r2, r2, #1
  35              	.LVL1:
  36              		.loc 1 281 0
  37 0002 30B4     		push	{r4, r5}
  38              		.cfi_def_cfa_offset 8
  39              		.cfi_offset 4, -8
  40              		.cfi_offset 5, -4
  41              		.loc 1 287 0
  42 0004 8D18     		adds	r5, r1, r2
  43              	.LVL2:
  44              		.loc 1 289 0
  45 0006 A942     		cmp	r1, r5
  46 0008 14D2     		bcs	.L2
  47 000a 0B46     		mov	r3, r1
  48              	.LVL3:
  49              	.L5:
  50              		.loc 1 290 0
  51 000c 1C78     		ldrb	r4, [r3]	@ zero_extendqisi2
  52 000e 5A78     		ldrb	r2, [r3, #1]	@ zero_extendqisi2
  53              		.loc 1 295 0
  54 0010 0233     		adds	r3, r3, #2
  55              	.LVL4:
  56              		.loc 1 290 0
  57 0012 02EB0422 		add	r2, r2, r4, lsl #8
ARM GAS  /tmp/cc7TW52V.s 			page 2


  58 0016 92B2     		uxth	r2, r2
  59              	.LVL5:
  60              		.loc 1 291 0
  61 0018 1044     		add	r0, r0, r2
  62              	.LVL6:
  63 001a 80B2     		uxth	r0, r0
  64              	.LVL7:
  65              		.loc 1 292 0
  66 001c 8242     		cmp	r2, r0
  67              		.loc 1 293 0
  68 001e 84BF     		itt	hi
  69 0020 0130     		addhi	r0, r0, #1
  70              	.LVL8:
  71 0022 80B2     		uxthhi	r0, r0
  72              	.LVL9:
  73              		.loc 1 289 0
  74 0024 9D42     		cmp	r5, r3
  75 0026 F1D8     		bhi	.L5
  76 0028 CB43     		mvns	r3, r1
  77              	.LVL10:
  78 002a 2B44     		add	r3, r3, r5
  79 002c 23F00103 		bic	r3, r3, #1
  80 0030 0233     		adds	r3, r3, #2
  81 0032 1944     		add	r1, r1, r3
  82              	.LVL11:
  83              	.L2:
  84              		.loc 1 298 0
  85 0034 A942     		cmp	r1, r5
  86 0036 01D0     		beq	.L8
  87              	.LVL12:
  88              		.loc 1 308 0
  89 0038 30BC     		pop	{r4, r5}
  90              	.LVL13:
  91 003a 7047     		bx	lr
  92              	.LVL14:
  93              	.L8:
  94              		.loc 1 299 0
  95 003c 0B78     		ldrb	r3, [r1]	@ zero_extendqisi2
  96              		.loc 1 308 0
  97 003e 30BC     		pop	{r4, r5}
  98              	.LVL15:
  99              		.loc 1 299 0
 100 0040 1B02     		lsls	r3, r3, #8
 101              	.LVL16:
 102              		.loc 1 300 0
 103 0042 1844     		add	r0, r0, r3
 104 0044 80B2     		uxth	r0, r0
 105              	.LVL17:
 106              		.loc 1 301 0
 107 0046 8342     		cmp	r3, r0
 108              		.loc 1 302 0
 109 0048 84BF     		itt	hi
 110 004a 0130     		addhi	r0, r0, #1
 111              	.LVL18:
 112 004c 80B2     		uxthhi	r0, r0
 113              	.LVL19:
 114              		.loc 1 308 0
ARM GAS  /tmp/cc7TW52V.s 			page 3


 115 004e 7047     		bx	lr
 116              		.cfi_endproc
 117              	.LFE2:
 118              		.size	chksum, .-chksum
 119              		.section	.text.upper_layer_chksum,"ax",%progbits
 120              		.align	2
 121              		.p2align 4,,15
 122              		.thumb
 123              		.thumb_func
 124              		.type	upper_layer_chksum, %function
 125              	upper_layer_chksum:
 126              	.LFB5:
 127              		.loc 1 330 0
 128              		.cfi_startproc
 129              		@ args = 0, pretend = 0, frame = 0
 130              		@ frame_needed = 0, uses_anonymous_args = 0
 131              	.LVL20:
 132 0000 38B5     		push	{r3, r4, r5, lr}
 133              		.cfi_def_cfa_offset 16
 134              		.cfi_offset 3, -16
 135              		.cfi_offset 4, -12
 136              		.cfi_offset 5, -8
 137              		.cfi_offset 14, -4
 138              		.loc 1 337 0
 139 0002 0D4C     		ldr	r4, .L13
 140              		.loc 1 345 0
 141 0004 0822     		movs	r2, #8
 142              		.loc 1 337 0
 143 0006 657C     		ldrb	r5, [r4, #17]	@ zero_extendqisi2
 144 0008 237C     		ldrb	r3, [r4, #16]	@ zero_extendqisi2
 145 000a 143D     		subs	r5, r5, #20
 146 000c 05EB0325 		add	r5, r5, r3, lsl #8
 147 0010 ADB2     		uxth	r5, r5
 148              	.LVL21:
 149              		.loc 1 343 0
 150 0012 2844     		add	r0, r0, r5
 151              	.LVL22:
 152              		.loc 1 345 0
 153 0014 04F11A01 		add	r1, r4, #26
 154 0018 80B2     		uxth	r0, r0
 155              	.LVL23:
 156 001a FFF7FEFF 		bl	chksum
 157              	.LVL24:
 158              		.loc 1 348 0
 159 001e 2A46     		mov	r2, r5
 160 0020 04F12201 		add	r1, r4, #34
 161 0024 FFF7FEFF 		bl	chksum
 162              	.LVL25:
 163              		.loc 1 351 0
 164 0028 10B9     		cbnz	r0, .L12
 165 002a 4FF6FF70 		movw	r0, #65535
 166              	.LVL26:
 167              		.loc 1 352 0
 168 002e 38BD     		pop	{r3, r4, r5, pc}
 169              	.LVL27:
 170              	.L12:
 171 0030 40BA     		rev16	r0, r0
ARM GAS  /tmp/cc7TW52V.s 			page 4


 172              	.LVL28:
 173 0032 80B2     		uxth	r0, r0
 174 0034 38BD     		pop	{r3, r4, r5, pc}
 175              	.LVL29:
 176              	.L14:
 177 0036 00BF     		.align	2
 178              	.L13:
 179 0038 00000000 		.word	.LANCHOR0
 180              		.cfi_endproc
 181              	.LFE5:
 182              		.size	upper_layer_chksum, .-upper_layer_chksum
 183 003c AFF30080 		.section	.text.uip_setipid,"ax",%progbits
 184              		.align	2
 185              		.p2align 4,,15
 186              		.global	uip_setipid
 187              		.thumb
 188              		.thumb_func
 189              		.type	uip_setipid, %function
 190              	uip_setipid:
 191              	.LFB0:
 192              		.loc 1 181 0
 193              		.cfi_startproc
 194              		@ args = 0, pretend = 0, frame = 0
 195              		@ frame_needed = 0, uses_anonymous_args = 0
 196              		@ link register save eliminated.
 197              	.LVL30:
 198              		.loc 1 181 0
 199 0000 014B     		ldr	r3, .L16
 200 0002 1880     		strh	r0, [r3]	@ movhi
 201 0004 7047     		bx	lr
 202              	.L17:
 203 0006 00BF     		.align	2
 204              	.L16:
 205 0008 00000000 		.word	.LANCHOR1
 206              		.cfi_endproc
 207              	.LFE0:
 208              		.size	uip_setipid, .-uip_setipid
 209 000c AFF30080 		.section	.text.uip_add32,"ax",%progbits
 210              		.align	2
 211              		.p2align 4,,15
 212              		.global	uip_add32
 213              		.thumb
 214              		.thumb_func
 215              		.type	uip_add32, %function
 216              	uip_add32:
 217              	.LFB1:
 218              		.loc 1 250 0
 219              		.cfi_startproc
 220              		@ args = 0, pretend = 0, frame = 0
 221              		@ frame_needed = 0, uses_anonymous_args = 0
 222              		@ link register save eliminated.
 223              	.LVL31:
 224 0000 70B4     		push	{r4, r5, r6}
 225              		.cfi_def_cfa_offset 12
 226              		.cfi_offset 4, -12
 227              		.cfi_offset 5, -8
 228              		.cfi_offset 6, -4
ARM GAS  /tmp/cc7TW52V.s 			page 5


 229              		.loc 1 251 0
 230 0002 C478     		ldrb	r4, [r0, #3]	@ zero_extendqisi2
 231 0004 134B     		ldr	r3, .L26
 232 0006 0C44     		add	r4, r4, r1
 233 0008 E4B2     		uxtb	r4, r4
 234 000a DC70     		strb	r4, [r3, #3]
 235              		.loc 1 252 0
 236 000c 8278     		ldrb	r2, [r0, #2]	@ zero_extendqisi2
 237 000e 0D0A     		lsrs	r5, r1, #8
 238 0010 2A44     		add	r2, r2, r5
 239 0012 D2B2     		uxtb	r2, r2
 240 0014 9A70     		strb	r2, [r3, #2]
 241              		.loc 1 253 0
 242 0016 4678     		ldrb	r6, [r0, #1]	@ zero_extendqisi2
 243              		.loc 1 256 0
 244 0018 9542     		cmp	r5, r2
 245              		.loc 1 253 0
 246 001a 5E70     		strb	r6, [r3, #1]
 247              		.loc 1 254 0
 248 001c 0078     		ldrb	r0, [r0]	@ zero_extendqisi2
 249              	.LVL32:
 250 001e 1870     		strb	r0, [r3]
 251              		.loc 1 256 0
 252 0020 03D9     		bls	.L20
 253              		.loc 1 257 0
 254 0022 0136     		adds	r6, r6, #1
 255 0024 F6B2     		uxtb	r6, r6
 256 0026 5E70     		strb	r6, [r3, #1]
 257              		.loc 1 258 0
 258 0028 8EB1     		cbz	r6, .L25
 259              	.L20:
 260              		.loc 1 264 0
 261 002a C9B2     		uxtb	r1, r1
 262              	.LVL33:
 263 002c 8C42     		cmp	r4, r1
 264 002e 0CDA     		bge	.L18
 265              		.loc 1 265 0
 266 0030 0132     		adds	r2, r2, #1
 267 0032 D2B2     		uxtb	r2, r2
 268 0034 9A70     		strb	r2, [r3, #2]
 269 0036 074B     		ldr	r3, .L26
 270              		.loc 1 266 0
 271 0038 3AB9     		cbnz	r2, .L18
 272              		.loc 1 267 0
 273 003a 5A78     		ldrb	r2, [r3, #1]	@ zero_extendqisi2
 274 003c 0132     		adds	r2, r2, #1
 275 003e D2B2     		uxtb	r2, r2
 276 0040 5A70     		strb	r2, [r3, #1]
 277              		.loc 1 268 0
 278 0042 12B9     		cbnz	r2, .L18
 279              	.LVL34:
 280              	.LBB19:
 281              	.LBB20:
 282              		.loc 1 269 0
 283 0044 1A78     		ldrb	r2, [r3]	@ zero_extendqisi2
 284 0046 0132     		adds	r2, r2, #1
 285 0048 1A70     		strb	r2, [r3]
ARM GAS  /tmp/cc7TW52V.s 			page 6


 286              	.LVL35:
 287              	.L18:
 288              	.LBE20:
 289              	.LBE19:
 290              		.loc 1 273 0
 291 004a 70BC     		pop	{r4, r5, r6}
 292 004c 7047     		bx	lr
 293              	.LVL36:
 294              	.L25:
 295              		.loc 1 259 0
 296 004e 0130     		adds	r0, r0, #1
 297 0050 1870     		strb	r0, [r3]
 298 0052 EAE7     		b	.L20
 299              	.L27:
 300              		.align	2
 301              	.L26:
 302 0054 00000000 		.word	.LANCHOR2
 303              		.cfi_endproc
 304              	.LFE1:
 305              		.size	uip_add32, .-uip_add32
 306 0058 AFF30080 		.section	.text.unlikely.uip_add_rcv_nxt,"ax",%progbits
 306      AFF30080 
 307              		.align	2
 308              		.thumb
 309              		.thumb_func
 310              		.type	uip_add_rcv_nxt, %function
 311              	uip_add_rcv_nxt:
 312              	.LFB12:
 313              		.loc 1 672 0
 314              		.cfi_startproc
 315              		@ args = 0, pretend = 0, frame = 0
 316              		@ frame_needed = 0, uses_anonymous_args = 0
 317              	.LVL37:
 318 0000 10B5     		push	{r4, lr}
 319              		.cfi_def_cfa_offset 8
 320              		.cfi_offset 4, -8
 321              		.cfi_offset 14, -4
 322              		.loc 1 673 0
 323 0002 084C     		ldr	r4, .L29
 324              		.loc 1 672 0
 325 0004 0146     		mov	r1, r0
 326              		.loc 1 673 0
 327 0006 2068     		ldr	r0, [r4]
 328              	.LVL38:
 329 0008 0830     		adds	r0, r0, #8
 330 000a FFF7FEFF 		bl	uip_add32
 331              	.LVL39:
 332              		.loc 1 674 0
 333 000e 064A     		ldr	r2, .L29+4
 334 0010 2368     		ldr	r3, [r4]
 335              		.loc 1 675 0
 336 0012 5078     		ldrb	r0, [r2, #1]	@ zero_extendqisi2
 337              		.loc 1 674 0
 338 0014 1478     		ldrb	r4, [r2]	@ zero_extendqisi2
 339              		.loc 1 676 0
 340 0016 9178     		ldrb	r1, [r2, #2]	@ zero_extendqisi2
 341              		.loc 1 677 0
ARM GAS  /tmp/cc7TW52V.s 			page 7


 342 0018 D278     		ldrb	r2, [r2, #3]	@ zero_extendqisi2
 343              		.loc 1 674 0
 344 001a 1C72     		strb	r4, [r3, #8]
 345              		.loc 1 675 0
 346 001c 5872     		strb	r0, [r3, #9]
 347              		.loc 1 676 0
 348 001e 9972     		strb	r1, [r3, #10]
 349              		.loc 1 677 0
 350 0020 DA72     		strb	r2, [r3, #11]
 351 0022 10BD     		pop	{r4, pc}
 352              	.L30:
 353              		.align	2
 354              	.L29:
 355 0024 00000000 		.word	.LANCHOR3
 356 0028 00000000 		.word	.LANCHOR2
 357              		.cfi_endproc
 358              	.LFE12:
 359              		.size	uip_add_rcv_nxt, .-uip_add_rcv_nxt
 360              		.section	.text.uip_chksum,"ax",%progbits
 361              		.align	2
 362              		.p2align 4,,15
 363              		.global	uip_chksum
 364              		.thumb
 365              		.thumb_func
 366              		.type	uip_chksum, %function
 367              	uip_chksum:
 368              	.LFB3:
 369              		.loc 1 312 0
 370              		.cfi_startproc
 371              		@ args = 0, pretend = 0, frame = 0
 372              		@ frame_needed = 0, uses_anonymous_args = 0
 373              	.LVL40:
 374 0000 0A46     		mov	r2, r1
 375 0002 08B5     		push	{r3, lr}
 376              		.cfi_def_cfa_offset 8
 377              		.cfi_offset 3, -8
 378              		.cfi_offset 14, -4
 379              		.loc 1 313 0
 380 0004 0146     		mov	r1, r0
 381              	.LVL41:
 382 0006 0020     		movs	r0, #0
 383              	.LVL42:
 384 0008 FFF7FEFF 		bl	chksum
 385              	.LVL43:
 386 000c 40BA     		rev16	r0, r0
 387              	.LVL44:
 388              		.loc 1 314 0
 389 000e 80B2     		uxth	r0, r0
 390 0010 08BD     		pop	{r3, pc}
 391              		.cfi_endproc
 392              	.LFE3:
 393              		.size	uip_chksum, .-uip_chksum
 394 0012 00BFAFF3 		.section	.text.uip_ipchksum,"ax",%progbits
 394      0080AFF3 
 394      0080AFF3 
 394      0080
 395              		.align	2
ARM GAS  /tmp/cc7TW52V.s 			page 8


 396              		.p2align 4,,15
 397              		.global	uip_ipchksum
 398              		.thumb
 399              		.thumb_func
 400              		.type	uip_ipchksum, %function
 401              	uip_ipchksum:
 402              	.LFB4:
 403              		.loc 1 319 0
 404              		.cfi_startproc
 405              		@ args = 0, pretend = 0, frame = 0
 406              		@ frame_needed = 0, uses_anonymous_args = 0
 407 0000 08B5     		push	{r3, lr}
 408              		.cfi_def_cfa_offset 8
 409              		.cfi_offset 3, -8
 410              		.cfi_offset 14, -4
 411              		.loc 1 322 0
 412 0002 0020     		movs	r0, #0
 413 0004 0549     		ldr	r1, .L36
 414 0006 1422     		movs	r2, #20
 415 0008 FFF7FEFF 		bl	chksum
 416              	.LVL45:
 417              		.loc 1 324 0
 418 000c 10B9     		cbnz	r0, .L35
 419 000e 4FF6FF70 		movw	r0, #65535
 420              	.LVL46:
 421              		.loc 1 325 0
 422 0012 08BD     		pop	{r3, pc}
 423              	.LVL47:
 424              	.L35:
 425 0014 40BA     		rev16	r0, r0
 426              	.LVL48:
 427 0016 80B2     		uxth	r0, r0
 428 0018 08BD     		pop	{r3, pc}
 429              	.L37:
 430 001a 00BF     		.align	2
 431              	.L36:
 432 001c 0E000000 		.word	.LANCHOR0+14
 433              		.cfi_endproc
 434              	.LFE4:
 435              		.size	uip_ipchksum, .-uip_ipchksum
 436              		.section	.text.uip_tcpchksum,"ax",%progbits
 437              		.align	2
 438              		.p2align 4,,15
 439              		.global	uip_tcpchksum
 440              		.thumb
 441              		.thumb_func
 442              		.type	uip_tcpchksum, %function
 443              	uip_tcpchksum:
 444              	.LFB6:
 445              		.loc 1 365 0
 446              		.cfi_startproc
 447              		@ args = 0, pretend = 0, frame = 0
 448              		@ frame_needed = 0, uses_anonymous_args = 0
 449              		@ link register save eliminated.
 450              		.loc 1 366 0
 451 0000 0620     		movs	r0, #6
 452 0002 FFF7FEBF 		b	upper_layer_chksum
ARM GAS  /tmp/cc7TW52V.s 			page 9


 453              	.LVL49:
 454              		.cfi_endproc
 455              	.LFE6:
 456              		.size	uip_tcpchksum, .-uip_tcpchksum
 457 0006 00BFAFF3 		.section	.text.uip_udpchksum,"ax",%progbits
 457      0080AFF3 
 457      0080
 458              		.align	2
 459              		.p2align 4,,15
 460              		.global	uip_udpchksum
 461              		.thumb
 462              		.thumb_func
 463              		.type	uip_udpchksum, %function
 464              	uip_udpchksum:
 465              	.LFB7:
 466              		.loc 1 372 0
 467              		.cfi_startproc
 468              		@ args = 0, pretend = 0, frame = 0
 469              		@ frame_needed = 0, uses_anonymous_args = 0
 470              		@ link register save eliminated.
 471              		.loc 1 373 0
 472 0000 1120     		movs	r0, #17
 473 0002 FFF7FEBF 		b	upper_layer_chksum
 474              	.LVL50:
 475              		.cfi_endproc
 476              	.LFE7:
 477              		.size	uip_udpchksum, .-uip_udpchksum
 478 0006 00BFAFF3 		.section	.text.uip_init,"ax",%progbits
 478      0080AFF3 
 478      0080
 479              		.align	2
 480              		.p2align 4,,15
 481              		.global	uip_init
 482              		.thumb
 483              		.thumb_func
 484              		.type	uip_init, %function
 485              	uip_init:
 486              	.LFB8:
 487              		.loc 1 380 0
 488              		.cfi_startproc
 489              		@ args = 0, pretend = 0, frame = 0
 490              		@ frame_needed = 0, uses_anonymous_args = 0
 491              		@ link register save eliminated.
 492              		.loc 1 382 0
 493 0000 084A     		ldr	r2, .L44
 494 0002 094B     		ldr	r3, .L44+4
 495 0004 0021     		movs	r1, #0
 496 0006 1180     		strh	r1, [r2]	@ movhi
 497 0008 03F5C872 		add	r2, r3, #400
 498              	.L42:
 499              		.loc 1 385 0 discriminator 2
 500 000c 5976     		strb	r1, [r3, #25]
 501 000e 2833     		adds	r3, r3, #40
 502              		.loc 1 384 0 discriminator 2
 503 0010 9342     		cmp	r3, r2
 504 0012 FBD1     		bne	.L42
 505 0014 0549     		ldr	r1, .L44+8
ARM GAS  /tmp/cc7TW52V.s 			page 10


 506              		.loc 1 388 0
 507 0016 064B     		ldr	r3, .L44+12
 508 0018 0A20     		movs	r0, #10
 509 001a 4FF48062 		mov	r2, #1024
 510 001e 0870     		strb	r0, [r1]
 511 0020 1A80     		strh	r2, [r3]	@ movhi
 512 0022 7047     		bx	lr
 513              	.L45:
 514              		.align	2
 515              	.L44:
 516 0024 00000000 		.word	.LANCHOR4
 517 0028 00000000 		.word	.LANCHOR5
 518 002c 00000000 		.word	.LANCHOR6
 519 0030 00000000 		.word	.LANCHOR7
 520              		.cfi_endproc
 521              	.LFE8:
 522              		.size	uip_init, .-uip_init
 523 0034 AFF30080 		.section	.text.uip_connect,"ax",%progbits
 523      AFF30080 
 523      AFF30080 
 524              		.align	2
 525              		.p2align 4,,15
 526              		.global	uip_connect
 527              		.thumb
 528              		.thumb_func
 529              		.type	uip_connect, %function
 530              	uip_connect:
 531              	.LFB9:
 532              		.loc 1 408 0
 533              		.cfi_startproc
 534              		@ args = 0, pretend = 0, frame = 0
 535              		@ frame_needed = 0, uses_anonymous_args = 0
 536              		@ link register save eliminated.
 537              	.LVL51:
 538              	.L47:
 539 0000 2DE9F00F 		push	{r4, r5, r6, r7, r8, r9, r10, fp}
 540              		.cfi_def_cfa_offset 32
 541              		.cfi_offset 4, -32
 542              		.cfi_offset 5, -28
 543              		.cfi_offset 6, -24
 544              		.cfi_offset 7, -20
 545              		.cfi_offset 8, -16
 546              		.cfi_offset 9, -12
 547              		.cfi_offset 10, -8
 548              		.cfi_offset 11, -4
 549 0004 3D4E     		ldr	r6, .L72
 550              		.loc 1 408 0
 551 0006 0746     		mov	r7, r0
 552 0008 3588     		ldrh	r5, [r6]
 553              	.LVL52:
 554              	.L50:
 555              		.loc 1 413 0
 556 000a 0135     		adds	r5, r5, #1
 557 000c ABB2     		uxth	r3, r5
 558              		.loc 1 416 0
 559 000e B3F5FA4F 		cmp	r3, #32000
 560 0012 34BF     		ite	cc
ARM GAS  /tmp/cc7TW52V.s 			page 11


 561 0014 1D46     		movcc	r5, r3
 562 0016 4FF48055 		movcs	r5, #4096
 563              		.loc 1 408 0
 564 001a DFF8ECC0 		ldr	ip, .L72+12
 565 001e 68BA     		rev16	r0, r5
 566 0020 80B2     		uxth	r0, r0
 567 0022 6346     		mov	r3, ip
 568 0024 0122     		movs	r2, #1
 569              	.L52:
 570              	.LVL53:
 571              		.loc 1 423 0
 572 0026 5C7E     		ldrb	r4, [r3, #25]	@ zero_extendqisi2
 573 0028 0132     		adds	r2, r2, #1
 574 002a D2B2     		uxtb	r2, r2
 575 002c 14B1     		cbz	r4, .L49
 576              		.loc 1 423 0 is_stmt 0 discriminator 1
 577 002e 9C88     		ldrh	r4, [r3, #4]
 578 0030 8442     		cmp	r4, r0
 579 0032 EAD0     		beq	.L50
 580              	.L49:
 581              		.loc 1 421 0 is_stmt 1
 582 0034 0B2A     		cmp	r2, #11
 583 0036 03F12803 		add	r3, r3, #40
 584              	.LVL54:
 585 003a F4D1     		bne	.L52
 586              		.loc 1 430 0
 587 003c DFF8CC90 		ldr	r9, .L72+16
 588              		.loc 1 432 0
 589 0040 9CF81920 		ldrb	r2, [ip, #25]	@ zero_extendqisi2
 590              		.loc 1 430 0
 591 0044 0020     		movs	r0, #0
 592 0046 3580     		strh	r5, [r6]	@ movhi
 593              	.LVL55:
 594 0048 89F80000 		strb	r0, [r9]
 595              	.LVL56:
 596              		.loc 1 432 0
 597 004c 002A     		cmp	r2, #0
 598 004e 53D0     		beq	.L61
 599 0050 2B4B     		ldr	r3, .L72+4
 600 0052 0124     		movs	r4, #1
 601 0054 03F5B478 		add	r8, r3, #360
 602              		.loc 1 431 0
 603 0058 A3F1280C 		sub	ip, r3, #40
 604 005c 09E0     		b	.L54
 605              	.LVL57:
 606              	.L56:
 607              		.loc 1 430 0
 608 005e 4345     		cmp	r3, r8
 609 0060 13D0     		beq	.L70
 610              	.L57:
 611              		.loc 1 432 0
 612 0062 5A7E     		ldrb	r2, [r3, #25]	@ zero_extendqisi2
 613 0064 651C     		adds	r5, r4, #1
 614              		.loc 1 431 0
 615 0066 9C46     		mov	ip, r3
 616              	.LVL58:
 617 0068 EDB2     		uxtb	r5, r5
ARM GAS  /tmp/cc7TW52V.s 			page 12


 618 006a 2833     		adds	r3, r3, #40
 619              	.LVL59:
 620              		.loc 1 432 0
 621 006c 002A     		cmp	r2, #0
 622 006e 3DD0     		beq	.L71
 623 0070 2C46     		mov	r4, r5
 624              	.LVL60:
 625              	.L54:
 626              		.loc 1 436 0
 627 0072 072A     		cmp	r2, #7
 628 0074 F3D1     		bne	.L56
 629              		.loc 1 437 0
 630 0076 0028     		cmp	r0, #0
 631 0078 3CD0     		beq	.L62
 632              		.loc 1 437 0 is_stmt 0 discriminator 1
 633 007a 9CF81A50 		ldrb	r5, [ip, #26]	@ zero_extendqisi2
 634 007e 827E     		ldrb	r2, [r0, #26]	@ zero_extendqisi2
 635 0080 9542     		cmp	r5, r2
 636 0082 88BF     		it	hi
 637 0084 6046     		movhi	r0, ip
 638              	.LVL61:
 639              		.loc 1 430 0 is_stmt 1 discriminator 1
 640 0086 4345     		cmp	r3, r8
 641 0088 EBD1     		bne	.L57
 642              	.L70:
 643 008a 89F80040 		strb	r4, [r9]
 644              		.loc 1 444 0
 645 008e 50B3     		cbz	r0, .L66
 646              	.LVL62:
 647              	.L59:
 648              		.loc 1 450 0
 649 0090 1C4B     		ldr	r3, .L72+8
 650 0092 3588     		ldrh	r5, [r6]
 651 0094 93F800A0 		ldrb	r10, [r3]	@ zero_extendqisi2
 652              		.loc 1 451 0
 653 0098 93F80190 		ldrb	r9, [r3, #1]	@ zero_extendqisi2
 654              		.loc 1 452 0
 655 009c 93F80280 		ldrb	r8, [r3, #2]	@ zero_extendqisi2
 656              		.loc 1 453 0
 657 00a0 93F803B0 		ldrb	fp, [r3, #3]	@ zero_extendqisi2
 658 00a4 6DBA     		rev16	r5, r5
 659              		.loc 1 458 0
 660 00a6 0023     		movs	r3, #0
 661              		.loc 1 463 0
 662 00a8 8580     		strh	r5, [r0, #4]	@ movhi
 663              		.loc 1 455 0
 664 00aa 4FF4B764 		mov	r4, #1464
 665              		.loc 1 457 0
 666 00ae 0122     		movs	r2, #1
 667              		.loc 1 448 0
 668 00b0 4FF0020C 		mov	ip, #2
 669              		.loc 1 460 0
 670 00b4 0326     		movs	r6, #3
 671              		.loc 1 462 0
 672 00b6 1025     		movs	r5, #16
 673              		.loc 1 464 0
 674 00b8 C180     		strh	r1, [r0, #6]	@ movhi
ARM GAS  /tmp/cc7TW52V.s 			page 13


 675              		.loc 1 450 0
 676 00ba 80F80CA0 		strb	r10, [r0, #12]
 677              		.loc 1 451 0
 678 00be 80F80D90 		strb	r9, [r0, #13]
 679              		.loc 1 452 0
 680 00c2 80F80E80 		strb	r8, [r0, #14]
 681              		.loc 1 453 0
 682 00c6 80F80FB0 		strb	fp, [r0, #15]
 683              		.loc 1 448 0
 684 00ca 80F819C0 		strb	ip, [r0, #25]
 685              		.loc 1 455 0
 686 00ce 4482     		strh	r4, [r0, #18]	@ movhi
 687 00d0 8482     		strh	r4, [r0, #20]	@ movhi
 688              		.loc 1 457 0
 689 00d2 0282     		strh	r2, [r0, #16]	@ movhi
 690              		.loc 1 459 0
 691 00d4 8276     		strb	r2, [r0, #26]
 692              		.loc 1 458 0
 693 00d6 C376     		strb	r3, [r0, #27]
 694              		.loc 1 461 0
 695 00d8 8375     		strb	r3, [r0, #22]
 696              		.loc 1 460 0
 697 00da 0676     		strb	r6, [r0, #24]
 698              		.loc 1 462 0
 699 00dc C575     		strb	r5, [r0, #23]
 700              	.LVL63:
 701              		.loc 1 465 0
 702 00de 3B88     		ldrh	r3, [r7]
 703 00e0 0380     		strh	r3, [r0]	@ movhi
 704 00e2 7B88     		ldrh	r3, [r7, #2]
 705 00e4 4380     		strh	r3, [r0, #2]	@ movhi
 706              	.LVL64:
 707              	.L66:
 708              		.loc 1 468 0
 709 00e6 BDE8F00F 		pop	{r4, r5, r6, r7, r8, r9, r10, fp}
 710              	.LVL65:
 711 00ea 7047     		bx	lr
 712              	.LVL66:
 713              	.L71:
 714 00ec 89F80040 		strb	r4, [r9]
 715              		.loc 1 431 0
 716 00f0 6046     		mov	r0, ip
 717              	.LVL67:
 718 00f2 CDE7     		b	.L59
 719              	.LVL68:
 720              	.L62:
 721 00f4 6046     		mov	r0, ip
 722              	.LVL69:
 723 00f6 B2E7     		b	.L56
 724              	.LVL70:
 725              	.L61:
 726 00f8 0348     		ldr	r0, .L72+12
 727              	.LVL71:
 728 00fa C9E7     		b	.L59
 729              	.L73:
 730              		.align	2
 731              	.L72:
ARM GAS  /tmp/cc7TW52V.s 			page 14


 732 00fc 00000000 		.word	.LANCHOR7
 733 0100 28000000 		.word	.LANCHOR5+40
 734 0104 00000000 		.word	.LANCHOR8
 735 0108 00000000 		.word	.LANCHOR5
 736 010c 00000000 		.word	.LANCHOR6
 737              		.cfi_endproc
 738              	.LFE9:
 739              		.size	uip_connect, .-uip_connect
 740              		.section	.text.uip_unlisten,"ax",%progbits
 741              		.align	2
 742              		.p2align 4,,15
 743              		.global	uip_unlisten
 744              		.thumb
 745              		.thumb_func
 746              		.type	uip_unlisten, %function
 747              	uip_unlisten:
 748              	.LFB10:
 749              		.loc 1 519 0
 750              		.cfi_startproc
 751              		@ args = 0, pretend = 0, frame = 0
 752              		@ frame_needed = 0, uses_anonymous_args = 0
 753              		@ link register save eliminated.
 754              	.LVL72:
 755 0000 10B4     		push	{r4}
 756              		.cfi_def_cfa_offset 4
 757              		.cfi_offset 4, -4
 758              		.loc 1 521 0
 759 0002 074B     		ldr	r3, .L77
 760              		.loc 1 520 0
 761 0004 074A     		ldr	r2, .L77+4
 762              		.loc 1 521 0
 763 0006 1C88     		ldrh	r4, [r3]
 764              		.loc 1 520 0
 765 0008 0021     		movs	r1, #0
 766              		.loc 1 521 0
 767 000a 8442     		cmp	r4, r0
 768              		.loc 1 520 0
 769 000c 18BF     		it	ne
 770 000e 0123     		movne	r3, #1
 771 0010 1170     		strb	r1, [r2]
 772              		.loc 1 522 0
 773 0012 0CBF     		ite	eq
 774 0014 1980     		strheq	r1, [r3]	@ movhi
 775              		.loc 1 520 0
 776 0016 1370     		strbne	r3, [r2]
 777              		.loc 1 526 0
 778 0018 5DF8044B 		ldr	r4, [sp], #4
 779 001c 7047     		bx	lr
 780              	.L78:
 781 001e 00BF     		.align	2
 782              	.L77:
 783 0020 00000000 		.word	.LANCHOR4
 784 0024 00000000 		.word	.LANCHOR6
 785              		.cfi_endproc
 786              	.LFE10:
 787              		.size	uip_unlisten, .-uip_unlisten
 788 0028 AFF30080 		.section	.text.uip_listen,"ax",%progbits
ARM GAS  /tmp/cc7TW52V.s 			page 15


 788      AFF30080 
 789              		.align	2
 790              		.p2align 4,,15
 791              		.global	uip_listen
 792              		.thumb
 793              		.thumb_func
 794              		.type	uip_listen, %function
 795              	uip_listen:
 796              	.LFB11:
 797              		.loc 1 530 0
 798              		.cfi_startproc
 799              		@ args = 0, pretend = 0, frame = 0
 800              		@ frame_needed = 0, uses_anonymous_args = 0
 801              		@ link register save eliminated.
 802              	.LVL73:
 803 0000 10B4     		push	{r4}
 804              		.cfi_def_cfa_offset 4
 805              		.cfi_offset 4, -4
 806              		.loc 1 532 0
 807 0002 074B     		ldr	r3, .L83
 808              		.loc 1 531 0
 809 0004 074A     		ldr	r2, .L83+4
 810              		.loc 1 532 0
 811 0006 1988     		ldrh	r1, [r3]
 812              		.loc 1 531 0
 813 0008 0024     		movs	r4, #0
 814 000a 1470     		strb	r4, [r2]
 815              		.loc 1 532 0
 816 000c 21B1     		cbz	r1, .L82
 817              		.loc 1 531 0
 818 000e 0123     		movs	r3, #1
 819 0010 1370     		strb	r3, [r2]
 820              		.loc 1 537 0
 821 0012 5DF8044B 		ldr	r4, [sp], #4
 822 0016 7047     		bx	lr
 823              	.L82:
 824              		.loc 1 533 0
 825 0018 1880     		strh	r0, [r3]	@ movhi
 826              		.loc 1 537 0
 827 001a 5DF8044B 		ldr	r4, [sp], #4
 828 001e 7047     		bx	lr
 829              	.L84:
 830              		.align	2
 831              	.L83:
 832 0020 00000000 		.word	.LANCHOR4
 833 0024 00000000 		.word	.LANCHOR6
 834              		.cfi_endproc
 835              	.LFE11:
 836              		.size	uip_listen, .-uip_listen
 837 0028 AFF30080 		.section	.text.uip_process,"ax",%progbits
 837      AFF30080 
 838              		.align	2
 839              		.p2align 4,,15
 840              		.global	uip_process
 841              		.thumb
 842              		.thumb_func
 843              		.type	uip_process, %function
ARM GAS  /tmp/cc7TW52V.s 			page 16


 844              	uip_process:
 845              	.LFB13:
 846              		.loc 1 682 0
 847              		.cfi_startproc
 848              		@ args = 0, pretend = 0, frame = 32
 849              		@ frame_needed = 0, uses_anonymous_args = 0
 850              	.LVL74:
 851 0000 2DE9F04F 		push	{r4, r5, r6, r7, r8, r9, r10, fp, lr}
 852              		.cfi_def_cfa_offset 36
 853              		.cfi_offset 4, -36
 854              		.cfi_offset 5, -32
 855              		.cfi_offset 6, -28
 856              		.cfi_offset 7, -24
 857              		.cfi_offset 8, -20
 858              		.cfi_offset 9, -16
 859              		.cfi_offset 10, -12
 860              		.cfi_offset 11, -8
 861              		.cfi_offset 14, -4
 862              		.loc 1 691 0
 863 0004 964C     		ldr	r4, .L317
 864 0006 974A     		ldr	r2, .L317+4
 865 0008 DFF87482 		ldr	r8, .L317+32
 866              		.loc 1 683 0
 867 000c DFF87492 		ldr	r9, .L317+36
 868              		.loc 1 691 0
 869 0010 04F13603 		add	r3, r4, #54
 870              		.loc 1 695 0
 871 0014 0328     		cmp	r0, #3
 872              		.loc 1 682 0
 873 0016 89B0     		sub	sp, sp, #36
 874              		.cfi_def_cfa_offset 72
 875              		.loc 1 691 0
 876 0018 1360     		str	r3, [r2]
 877 001a C8F80030 		str	r3, [r8]
 878              		.loc 1 683 0
 879 001e D9F80060 		ldr	r6, [r9]
 880              	.LVL75:
 881              		.loc 1 695 0
 882 0022 18D0     		beq	.L298
 883              		.loc 1 705 0
 884 0024 0228     		cmp	r0, #2
 885 0026 2AD0     		beq	.L299
 886              		.loc 1 826 0
 887 0028 8F4D     		ldr	r5, .L317+8
 888              		.loc 1 840 0
 889 002a A37B     		ldrb	r3, [r4, #14]	@ zero_extendqisi2
 890              		.loc 1 826 0
 891 002c 6988     		ldrh	r1, [r5, #2]
 892              		.loc 1 840 0
 893 002e 452B     		cmp	r3, #69
 894              		.loc 1 826 0
 895 0030 01F10101 		add	r1, r1, #1
 896 0034 6980     		strh	r1, [r5, #2]	@ movhi
 897              		.loc 1 840 0
 898 0036 00F0D180 		beq	.L106
 899              		.loc 1 841 0
 900 003a 2A88     		ldrh	r2, [r5]
ARM GAS  /tmp/cc7TW52V.s 			page 17


 901              		.loc 1 842 0
 902 003c EB88     		ldrh	r3, [r5, #6]
 903              		.loc 1 841 0
 904 003e 0132     		adds	r2, r2, #1
 905              		.loc 1 842 0
 906 0040 0133     		adds	r3, r3, #1
 907              		.loc 1 841 0
 908 0042 2A80     		strh	r2, [r5]	@ movhi
 909              		.loc 1 842 0
 910 0044 EB80     		strh	r3, [r5, #6]	@ movhi
 911              	.L297:
 912 0046 894B     		ldr	r3, .L317+12
 913 0048 894F     		ldr	r7, .L317+16
 914              	.LVL76:
 915              	.L94:
 916              		.loc 1 1875 0
 917 004a 0022     		movs	r2, #0
 918 004c 3A80     		strh	r2, [r7]	@ movhi
 919              		.loc 1 1876 0
 920 004e 1A70     		strb	r2, [r3]
 921              	.L85:
 922              		.loc 1 1878 0
 923 0050 09B0     		add	sp, sp, #36
 924              		@ sp needed
 925 0052 BDE8F08F 		pop	{r4, r5, r6, r7, r8, r9, r10, fp, pc}
 926              	.LVL77:
 927              	.L298:
 928              		.loc 1 696 0
 929 0056 737E     		ldrb	r3, [r6, #25]	@ zero_extendqisi2
 930 0058 03F00F03 		and	r3, r3, #15
 931 005c 032B     		cmp	r3, #3
 932 005e F2D1     		bne	.L297
 933              		.loc 1 696 0 is_stmt 0 discriminator 1
 934 0060 338A     		ldrh	r3, [r6, #16]
 935 0062 002B     		cmp	r3, #0
 936 0064 EFD1     		bne	.L297
 937              		.loc 1 698 0 is_stmt 1
 938 0066 814B     		ldr	r3, .L317+12
 939 0068 0821     		movs	r1, #8
 940 006a 1970     		strb	r1, [r3]
 941 006c 804F     		ldr	r7, .L317+16
 942              		.loc 1 699 0
 943 006e 0392     		str	r2, [sp, #12]
 944 0070 0293     		str	r3, [sp, #8]
 945 0072 FFF7FEFF 		bl	modbus_tcp_gateway
 946              	.LVL78:
 947 0076 7F48     		ldr	r0, .L317+20
 948              		.loc 1 700 0
 949 0078 039A     		ldr	r2, [sp, #12]
 950 007a 029B     		ldr	r3, [sp, #8]
 951 007c 33E0     		b	.L88
 952              	.LVL79:
 953              	.L299:
 954              		.loc 1 712 0
 955 007e 7E4B     		ldr	r3, .L317+24
 956 0080 D978     		ldrb	r1, [r3, #3]	@ zero_extendqisi2
 957 0082 0131     		adds	r1, r1, #1
ARM GAS  /tmp/cc7TW52V.s 			page 18


 958 0084 C9B2     		uxtb	r1, r1
 959 0086 D970     		strb	r1, [r3, #3]
 960 0088 61B9     		cbnz	r1, .L91
 961              		.loc 1 713 0
 962 008a 9978     		ldrb	r1, [r3, #2]	@ zero_extendqisi2
 963 008c 0131     		adds	r1, r1, #1
 964 008e C9B2     		uxtb	r1, r1
 965 0090 9970     		strb	r1, [r3, #2]
 966 0092 39B9     		cbnz	r1, .L91
 967              		.loc 1 714 0
 968 0094 5978     		ldrb	r1, [r3, #1]	@ zero_extendqisi2
 969 0096 0131     		adds	r1, r1, #1
 970 0098 C9B2     		uxtb	r1, r1
 971 009a 5970     		strb	r1, [r3, #1]
 972 009c 11B9     		cbnz	r1, .L91
 973              		.loc 1 715 0
 974 009e 1978     		ldrb	r1, [r3]	@ zero_extendqisi2
 975 00a0 0131     		adds	r1, r1, #1
 976 00a2 1970     		strb	r1, [r3]
 977              	.L91:
 978              		.loc 1 728 0
 979 00a4 717E     		ldrb	r1, [r6, #25]	@ zero_extendqisi2
 980              		.loc 1 721 0
 981 00a6 724F     		ldr	r7, .L317+16
 982              		.loc 1 722 0
 983 00a8 7248     		ldr	r0, .L317+20
 984              	.LVL80:
 985              		.loc 1 728 0
 986 00aa 01F0FD05 		and	r5, r1, #253
 987              		.loc 1 721 0
 988 00ae 0023     		movs	r3, #0
 989              		.loc 1 728 0
 990 00b0 052D     		cmp	r5, #5
 991              		.loc 1 721 0
 992 00b2 3B80     		strh	r3, [r7]	@ movhi
 993              		.loc 1 722 0
 994 00b4 0380     		strh	r3, [r0]	@ movhi
 995              		.loc 1 728 0
 996 00b6 00F0C380 		beq	.L300
 997              		.loc 1 734 0
 998 00ba 0029     		cmp	r1, #0
 999 00bc 00F0C780 		beq	.L295
 1000              		.loc 1 738 0
 1001 00c0 338A     		ldrh	r3, [r6, #16]
 1002 00c2 002B     		cmp	r3, #0
 1003 00c4 40F0E280 		bne	.L301
 1004              		.loc 1 800 0
 1005 00c8 01F00F01 		and	r1, r1, #15
 1006 00cc 0329     		cmp	r1, #3
 1007              		.loc 1 803 0
 1008 00ce 674B     		ldr	r3, .L317+12
 1009              		.loc 1 800 0
 1010 00d0 BBD1     		bne	.L94
 1011              		.loc 1 803 0
 1012 00d2 0821     		movs	r1, #8
 1013 00d4 1970     		strb	r1, [r3]
 1014              	.L291:
ARM GAS  /tmp/cc7TW52V.s 			page 19


 1015              		.loc 1 1481 0
 1016 00d6 0490     		str	r0, [sp, #16]
 1017 00d8 0392     		str	r2, [sp, #12]
 1018              	.L292:
 1019 00da 0293     		str	r3, [sp, #8]
 1020 00dc FFF7FEFF 		bl	modbus_tcp_gateway
 1021              	.LVL81:
 1022              		.loc 1 1482 0
 1023 00e0 0498     		ldr	r0, [sp, #16]
 1024 00e2 039A     		ldr	r2, [sp, #12]
 1025 00e4 029B     		ldr	r3, [sp, #8]
 1026              	.L88:
 1027              		.loc 1 1649 0
 1028 00e6 1D78     		ldrb	r5, [r3]	@ zero_extendqisi2
 1029 00e8 05F02001 		and	r1, r5, #32
 1030 00ec 01F0FF0C 		and	ip, r1, #255
 1031 00f0 0029     		cmp	r1, #0
 1032 00f2 00F05481 		beq	.L180
 1033              		.loc 1 1650 0
 1034 00f6 0022     		movs	r2, #0
 1035              		.loc 1 1652 0
 1036 00f8 1421     		movs	r1, #20
 1037 00fa 5B4D     		ldr	r5, .L317+8
 1038 00fc DFF888A1 		ldr	r10, .L317+40
 1039              		.loc 1 1651 0
 1040 0100 7276     		strb	r2, [r6, #25]
 1041              		.loc 1 1650 0
 1042 0102 0280     		strh	r2, [r0]	@ movhi
 1043              		.loc 1 1652 0
 1044 0104 84F82F10 		strb	r1, [r4, #47]
 1045              	.L98:
 1046              		.loc 1 1793 0
 1047 0108 2822     		movs	r2, #40
 1048 010a 3A80     		strh	r2, [r7]	@ movhi
 1049              	.L188:
 1050              		.loc 1 1795 0
 1051 010c 5022     		movs	r2, #80
 1052 010e 84F82E20 		strb	r2, [r4, #46]
 1053              	.L142:
 1054              		.loc 1 1801 0
 1055 0112 327A     		ldrb	r2, [r6, #8]	@ zero_extendqisi2
 1056              		.loc 1 1811 0
 1057 0114 4FF0060C 		mov	ip, #6
 1058              		.loc 1 1801 0
 1059 0118 84F82A20 		strb	r2, [r4, #42]
 1060              		.loc 1 1802 0
 1061 011c 727A     		ldrb	r2, [r6, #9]	@ zero_extendqisi2
 1062              		.loc 1 1816 0
 1063 011e BAF80210 		ldrh	r1, [r10, #2]
 1064              		.loc 1 1802 0
 1065 0122 84F82B20 		strb	r2, [r4, #43]
 1066              		.loc 1 1803 0
 1067 0126 B27A     		ldrb	r2, [r6, #10]	@ zero_extendqisi2
 1068              		.loc 1 1816 0
 1069 0128 BAF800E0 		ldrh	lr, [r10]
 1070              		.loc 1 1803 0
 1071 012c 84F82C20 		strb	r2, [r4, #44]
ARM GAS  /tmp/cc7TW52V.s 			page 20


 1072              		.loc 1 1804 0
 1073 0130 F07A     		ldrb	r0, [r6, #11]	@ zero_extendqisi2
 1074              		.loc 1 1801 0
 1075 0132 4B4A     		ldr	r2, .L317
 1076              		.loc 1 1804 0
 1077 0134 84F82D00 		strb	r0, [r4, #45]
 1078              		.loc 1 1806 0
 1079 0138 307B     		ldrb	r0, [r6, #12]	@ zero_extendqisi2
 1080 013a 84F82600 		strb	r0, [r4, #38]
 1081              		.loc 1 1807 0
 1082 013e 707B     		ldrb	r0, [r6, #13]	@ zero_extendqisi2
 1083 0140 84F82700 		strb	r0, [r4, #39]
 1084              		.loc 1 1808 0
 1085 0144 B07B     		ldrb	r0, [r6, #14]	@ zero_extendqisi2
 1086 0146 84F82800 		strb	r0, [r4, #40]
 1087              		.loc 1 1809 0
 1088 014a F07B     		ldrb	r0, [r6, #15]	@ zero_extendqisi2
 1089              		.loc 1 1811 0
 1090 014c 84F817C0 		strb	ip, [r4, #23]
 1091              		.loc 1 1809 0
 1092 0150 84F82900 		strb	r0, [r4, #41]
 1093              		.loc 1 1813 0
 1094 0154 B088     		ldrh	r0, [r6, #4]
 1095 0156 6084     		strh	r0, [r4, #34]	@ movhi
 1096              		.loc 1 1814 0
 1097 0158 F088     		ldrh	r0, [r6, #6]
 1098              		.loc 1 1816 0
 1099 015a A4F81AE0 		strh	lr, [r4, #26]	@ movhi
 1100              		.loc 1 1814 0
 1101 015e A084     		strh	r0, [r4, #36]	@ movhi
 1102              		.loc 1 1816 0
 1103 0160 A183     		strh	r1, [r4, #28]	@ movhi
 1104              		.loc 1 1817 0
 1105 0162 3188     		ldrh	r1, [r6]
 1106 0164 E183     		strh	r1, [r4, #30]	@ movhi
 1107 0166 7188     		ldrh	r1, [r6, #2]
 1108 0168 2184     		strh	r1, [r4, #32]	@ movhi
 1109              		.loc 1 1819 0
 1110 016a 717E     		ldrb	r1, [r6, #25]	@ zero_extendqisi2
 1111 016c C906     		lsls	r1, r1, #27
 1112 016e 40F10681 		bpl	.L196
 1113              		.loc 1 1822 0
 1114 0172 0021     		movs	r1, #0
 1115 0174 82F83110 		strb	r1, [r2, #49]
 1116 0178 82F83010 		strb	r1, [r2, #48]
 1117              	.LVL82:
 1118              	.L129:
 1119              		.loc 1 1836 0
 1120 017c 3A88     		ldrh	r2, [r7]
 1121              		.loc 1 1840 0
 1122 017e 0026     		movs	r6, #0
 1123              		.loc 1 1836 0
 1124 0180 170A     		lsrs	r7, r2, #8
 1125              		.loc 1 1829 0
 1126 0182 4021     		movs	r1, #64
 1127              		.loc 1 1837 0
 1128 0184 6274     		strb	r2, [r4, #17]
ARM GAS  /tmp/cc7TW52V.s 			page 21


 1129              		.loc 1 1836 0
 1130 0186 2774     		strb	r7, [r4, #16]
 1131              		.loc 1 1829 0
 1132 0188 A175     		strb	r1, [r4, #22]
 1133              		.loc 1 1840 0
 1134 018a 84F83560 		strb	r6, [r4, #53]
 1135 018e 84F83460 		strb	r6, [r4, #52]
 1136              		.loc 1 1843 0
 1137 0192 6686     		strh	r6, [r4, #50]	@ movhi
 1138              	.LBB21:
 1139              	.LBB22:
 1140              		.loc 1 366 0
 1141 0194 0620     		movs	r0, #6
 1142 0196 0293     		str	r3, [sp, #8]
 1143 0198 FFF7FEFF 		bl	upper_layer_chksum
 1144              	.LVL83:
 1145              	.LBE22:
 1146              	.LBE21:
 1147              		.loc 1 1856 0
 1148 019c 3749     		ldr	r1, .L317+28
 1149              		.loc 1 1844 0
 1150 019e C043     		mvns	r0, r0
 1151              		.loc 1 1856 0
 1152 01a0 0A88     		ldrh	r2, [r1]
 1153              		.loc 1 1853 0
 1154 01a2 4527     		movs	r7, #69
 1155              		.loc 1 1856 0
 1156 01a4 0132     		adds	r2, r2, #1
 1157 01a6 92B2     		uxth	r2, r2
 1158              		.loc 1 1857 0
 1159 01a8 4FEA122E 		lsr	lr, r2, #8
 1160              		.loc 1 1858 0
 1161 01ac E274     		strb	r2, [r4, #19]
 1162              		.loc 1 1844 0
 1163 01ae 6086     		strh	r0, [r4, #50]	@ movhi
 1164              	.LDL1:
 1165              		.loc 1 1854 0
 1166 01b0 E673     		strb	r6, [r4, #15]
 1167              		.loc 1 1855 0
 1168 01b2 6675     		strb	r6, [r4, #21]
 1169 01b4 2675     		strb	r6, [r4, #20]
 1170              		.loc 1 1860 0
 1171 01b6 2683     		strh	r6, [r4, #24]	@ movhi
 1172              		.loc 1 1857 0
 1173 01b8 84F812E0 		strb	lr, [r4, #18]
 1174              		.loc 1 1853 0
 1175 01bc A773     		strb	r7, [r4, #14]
 1176              		.loc 1 1856 0
 1177 01be 0A80     		strh	r2, [r1]	@ movhi
 1178              		.loc 1 1861 0
 1179 01c0 FFF7FEFF 		bl	uip_ipchksum
 1180              	.LVL84:
 1181              		.loc 1 1865 0
 1182 01c4 EA8B     		ldrh	r2, [r5, #30]
 1183              		.loc 1 1861 0
 1184 01c6 C043     		mvns	r0, r0
 1185              		.loc 1 1865 0
ARM GAS  /tmp/cc7TW52V.s 			page 22


 1186 01c8 0132     		adds	r2, r2, #1
 1187              		.loc 1 1861 0
 1188 01ca 2083     		strh	r0, [r4, #24]	@ movhi
 1189              		.loc 1 1865 0
 1190 01cc EA83     		strh	r2, [r5, #30]	@ movhi
 1191 01ce 029B     		ldr	r3, [sp, #8]
 1192              	.L118:
 1193              		.loc 1 1870 0
 1194 01d0 A988     		ldrh	r1, [r5, #4]
 1195              		.loc 1 1872 0
 1196 01d2 0022     		movs	r2, #0
 1197              		.loc 1 1870 0
 1198 01d4 0131     		adds	r1, r1, #1
 1199 01d6 A980     		strh	r1, [r5, #4]	@ movhi
 1200              		.loc 1 1872 0
 1201 01d8 1A70     		strb	r2, [r3]
 1202              		.loc 1 1873 0
 1203 01da 39E7     		b	.L85
 1204              	.LVL85:
 1205              	.L106:
 1206              		.loc 1 855 0
 1207 01dc 244F     		ldr	r7, .L317+16
 1208 01de 94F810B0 		ldrb	fp, [r4, #16]	@ zero_extendqisi2
 1209 01e2 617C     		ldrb	r1, [r4, #17]	@ zero_extendqisi2
 1210 01e4 3B88     		ldrh	r3, [r7]
 1211 01e6 01EB0B2B 		add	fp, r1, fp, lsl #8
 1212 01ea 9B45     		cmp	fp, r3
 1213 01ec 2FDC     		bgt	.L295
 1214              		.loc 1 875 0
 1215 01ee 237D     		ldrb	r3, [r4, #20]	@ zero_extendqisi2
 1216              		.loc 1 856 0
 1217 01f0 1FFA8BFB 		uxth	fp, fp
 1218              		.loc 1 875 0
 1219 01f4 9806     		lsls	r0, r3, #26
 1220              	.LVL86:
 1221              		.loc 1 856 0
 1222 01f6 A7F800B0 		strh	fp, [r7]	@ movhi
 1223              		.loc 1 875 0
 1224 01fa 2AD1     		bne	.L107
 1225              		.loc 1 875 0 is_stmt 0 discriminator 1
 1226 01fc 637D     		ldrb	r3, [r4, #21]	@ zero_extendqisi2
 1227 01fe 43BB     		cbnz	r3, .L107
 1228              		.loc 1 891 0 is_stmt 1
 1229 0200 DFF884A0 		ldr	r10, .L317+40
 1230 0204 BAF80030 		ldrh	r3, [r10]
 1231 0208 002B     		cmp	r3, #0
 1232 020a 40F0BF80 		bne	.L109
 1233              		.loc 1 891 0 is_stmt 0 discriminator 1
 1234 020e BAF80210 		ldrh	r1, [r10, #2]
 1235 0212 0029     		cmp	r1, #0
 1236 0214 40F0BA80 		bne	.L109
 1237              	.L110:
 1238              		.loc 1 939 0 is_stmt 1
 1239 0218 0392     		str	r2, [sp, #12]
 1240 021a 0293     		str	r3, [sp, #8]
 1241 021c FFF7FEFF 		bl	uip_ipchksum
 1242              	.LVL87:
ARM GAS  /tmp/cc7TW52V.s 			page 23


 1243 0220 0146     		mov	r1, r0
 1244 0222 4FF6FF70 		movw	r0, #65535
 1245 0226 8142     		cmp	r1, r0
 1246 0228 039A     		ldr	r2, [sp, #12]
 1247 022a 029B     		ldr	r3, [sp, #8]
 1248 022c 00F00B81 		beq	.L112
 1249              		.loc 1 941 0
 1250 0230 2A88     		ldrh	r2, [r5]
 1251              		.loc 1 942 0
 1252 0232 EB89     		ldrh	r3, [r5, #14]
 1253              		.loc 1 941 0
 1254 0234 0132     		adds	r2, r2, #1
 1255              		.loc 1 942 0
 1256 0236 0133     		adds	r3, r3, #1
 1257 0238 EB81     		strh	r3, [r5, #14]	@ movhi
 1258              		.loc 1 941 0
 1259 023a 2A80     		strh	r2, [r5]	@ movhi
 1260 023c 0B4B     		ldr	r3, .L317+12
 1261              		.loc 1 944 0
 1262 023e 04E7     		b	.L94
 1263              	.L300:
 1264              		.loc 1 730 0
 1265 0240 B27E     		ldrb	r2, [r6, #26]	@ zero_extendqisi2
 1266 0242 0132     		adds	r2, r2, #1
 1267 0244 D2B2     		uxtb	r2, r2
 1268              		.loc 1 731 0
 1269 0246 782A     		cmp	r2, #120
 1270              		.loc 1 730 0
 1271 0248 B276     		strb	r2, [r6, #26]
 1272              		.loc 1 731 0
 1273 024a 00F09580 		beq	.L283
 1274              	.L295:
 1275 024e 074B     		ldr	r3, .L317+12
 1276              		.loc 1 886 0
 1277 0250 FBE6     		b	.L94
 1278              	.L107:
 1279              		.loc 1 883 0
 1280 0252 2A88     		ldrh	r2, [r5]
 1281              		.loc 1 884 0
 1282 0254 AB89     		ldrh	r3, [r5, #12]
 1283              		.loc 1 883 0
 1284 0256 0132     		adds	r2, r2, #1
 1285              		.loc 1 884 0
 1286 0258 0133     		adds	r3, r3, #1
 1287              		.loc 1 883 0
 1288 025a 2A80     		strh	r2, [r5]	@ movhi
 1289              		.loc 1 884 0
 1290 025c AB81     		strh	r3, [r5, #12]	@ movhi
 1291 025e F6E7     		b	.L295
 1292              	.L318:
 1293              		.align	2
 1294              	.L317:
 1295 0260 00000000 		.word	.LANCHOR0
 1296 0264 00000000 		.word	.LANCHOR9
 1297 0268 00000000 		.word	.LANCHOR14
 1298 026c 00000000 		.word	.LANCHOR11
 1299 0270 00000000 		.word	.LANCHOR12
ARM GAS  /tmp/cc7TW52V.s 			page 24


 1300 0274 00000000 		.word	.LANCHOR13
 1301 0278 00000000 		.word	.LANCHOR8
 1302 027c 00000000 		.word	.LANCHOR1
 1303 0280 00000000 		.word	.LANCHOR10
 1304 0284 00000000 		.word	.LANCHOR3
 1305 0288 00000000 		.word	.LANCHOR15
 1306              	.L301:
 1307              		.loc 1 739 0
 1308 028c B37E     		ldrb	r3, [r6, #26]	@ zero_extendqisi2
 1309 028e 5D1E     		subs	r5, r3, #1
 1310 0290 B576     		strb	r5, [r6, #26]
 1311 0292 002B     		cmp	r3, #0
 1312 0294 DBD1     		bne	.L295
 1313              		.loc 1 740 0
 1314 0296 F37E     		ldrb	r3, [r6, #27]	@ zero_extendqisi2
 1315 0298 082B     		cmp	r3, #8
 1316 029a 00F0BD80 		beq	.L96
 1317              		.loc 1 740 0 is_stmt 0 discriminator 1
 1318 029e 0139     		subs	r1, r1, #1
 1319 02a0 0129     		cmp	r1, #1
 1320 02a2 40F2B680 		bls	.L302
 1321              	.L97:
 1322              		.loc 1 758 0 is_stmt 1
 1323 02a6 042B     		cmp	r3, #4
 1324 02a8 9BBF     		ittet	ls
 1325 02aa 0321     		movls	r1, #3
 1326 02ac 9940     		lslls	r1, r1, r3
 1327 02ae 3021     		movhi	r1, #48
 1328 02b0 C9B2     		uxtbls	r1, r1
 1329              		.loc 1 761 0
 1330 02b2 0133     		adds	r3, r3, #1
 1331              		.loc 1 769 0
 1332 02b4 AF4D     		ldr	r5, .L319
 1333              		.loc 1 758 0
 1334 02b6 B176     		strb	r1, [r6, #26]
 1335              		.loc 1 761 0
 1336 02b8 F376     		strb	r3, [r6, #27]
 1337              		.loc 1 769 0
 1338 02ba EB8C     		ldrh	r3, [r5, #38]
 1339 02bc 0133     		adds	r3, r3, #1
 1340 02be EB84     		strh	r3, [r5, #38]	@ movhi
 1341              		.loc 1 770 0
 1342 02c0 717E     		ldrb	r1, [r6, #25]	@ zero_extendqisi2
 1343 02c2 01F00F01 		and	r1, r1, #15
 1344 02c6 4B1E     		subs	r3, r1, #1
 1345 02c8 072B     		cmp	r3, #7
 1346 02ca C0D8     		bhi	.L295
 1347 02cc 0FF2040C 		adr	ip, .L101
 1348 02d0 5CF823F0 		ldr	pc, [ip, r3, lsl #2]
 1349              		.p2align 2
 1350              	.L101:
 1351 02d4 37030000 		.word	.L230+1
 1352 02d8 03030000 		.word	.L231+1
 1353 02dc 3F030000 		.word	.L103+1
 1354 02e0 F5020000 		.word	.L232+1
 1355 02e4 4F020000 		.word	.L295+1
 1356 02e8 F5020000 		.word	.L232+1
ARM GAS  /tmp/cc7TW52V.s 			page 25


 1357 02ec 4F020000 		.word	.L295+1
 1358 02f0 F5020000 		.word	.L232+1
 1359              		.p2align 1
 1360              	.L232:
 1361 02f4 A04B     		ldr	r3, .L319+4
 1362 02f6 DFF890A2 		ldr	r10, .L319+20
 1363              	.L104:
 1364              		.loc 1 1573 0
 1365 02fa 1122     		movs	r2, #17
 1366 02fc 84F82F20 		strb	r2, [r4, #47]
 1367              		.loc 1 1574 0
 1368 0300 02E7     		b	.L98
 1369              	.L231:
 1370 0302 DFF884A2 		ldr	r10, .L319+20
 1371              	.L102:
 1372              		.loc 1 1377 0
 1373 0306 6023     		movs	r3, #96
 1374              		.loc 1 1372 0
 1375 0308 4FF00208 		mov	r8, #2
 1376              		.loc 1 1373 0
 1377 030c 4FF0040C 		mov	ip, #4
 1378              		.loc 1 1374 0
 1379 0310 4FF0050E 		mov	lr, #5
 1380              		.loc 1 1375 0
 1381 0314 B820     		movs	r0, #184
 1382              		.loc 1 1376 0
 1383 0316 2C22     		movs	r2, #44
 1384              		.loc 1 1377 0
 1385 0318 84F82E30 		strb	r3, [r4, #46]
 1386              		.loc 1 1364 0
 1387 031c 84F82F10 		strb	r1, [r4, #47]
 1388              		.loc 1 1372 0
 1389 0320 84F83680 		strb	r8, [r4, #54]
 1390              		.loc 1 1373 0
 1391 0324 84F837C0 		strb	ip, [r4, #55]
 1392              		.loc 1 1374 0
 1393 0328 84F838E0 		strb	lr, [r4, #56]
 1394              		.loc 1 1375 0
 1395 032c 84F83900 		strb	r0, [r4, #57]
 1396              		.loc 1 1376 0
 1397 0330 3A80     		strh	r2, [r7]	@ movhi
 1398 0332 914B     		ldr	r3, .L319+4
 1399              		.loc 1 1378 0
 1400 0334 EDE6     		b	.L142
 1401              	.L230:
 1402 0336 DFF850A2 		ldr	r10, .L319+20
 1403              	.L100:
 1404 033a 1221     		movs	r1, #18
 1405 033c E3E7     		b	.L102
 1406              	.L103:
 1407              		.loc 1 788 0
 1408 033e 8E4B     		ldr	r3, .L319+4
 1409 0340 0421     		movs	r1, #4
 1410 0342 1970     		strb	r1, [r3]
 1411              		.loc 1 789 0
 1412 0344 0490     		str	r0, [sp, #16]
 1413 0346 0392     		str	r2, [sp, #12]
ARM GAS  /tmp/cc7TW52V.s 			page 26


 1414 0348 0293     		str	r3, [sp, #8]
 1415 034a FFF7FEFF 		bl	modbus_tcp_gateway
 1416              	.LVL88:
 1417 034e 0498     		ldr	r0, [sp, #16]
 1418              		.loc 1 790 0
 1419 0350 039A     		ldr	r2, [sp, #12]
 1420 0352 0088     		ldrh	r0, [r0]
 1421 0354 029B     		ldr	r3, [sp, #8]
 1422              	.L105:
 1423              		.loc 1 1699 0
 1424 0356 D8F80010 		ldr	r1, [r8]
 1425 035a 1160     		str	r1, [r2]
 1426              		.loc 1 1703 0
 1427 035c 0028     		cmp	r0, #0
 1428 035e 43D0     		beq	.L187
 1429              		.loc 1 1703 0 is_stmt 0 discriminator 1
 1430 0360 328A     		ldrh	r2, [r6, #16]
 1431 0362 002A     		cmp	r2, #0
 1432 0364 40D0     		beq	.L187
 1433              		.loc 1 1705 0 is_stmt 1
 1434 0366 2832     		adds	r2, r2, #40
 1435              		.loc 1 1707 0
 1436 0368 1821     		movs	r1, #24
 1437              		.loc 1 1705 0
 1438 036a 3A80     		strh	r2, [r7]	@ movhi
 1439              		.loc 1 1707 0
 1440 036c 84F82F10 		strb	r1, [r4, #47]
 1441 0370 804D     		ldr	r5, .L319
 1442 0372 DFF814A2 		ldr	r10, .L319+20
 1443              		.loc 1 1709 0
 1444 0376 C9E6     		b	.L188
 1445              	.L283:
 1446              		.loc 1 732 0
 1447 0378 7376     		strb	r3, [r6, #25]
 1448 037a 7F4B     		ldr	r3, .L319+4
 1449 037c 65E6     		b	.L94
 1450              	.L196:
 1451              		.loc 1 1824 0
 1452 037e 0520     		movs	r0, #5
 1453              		.loc 1 1825 0
 1454 0380 B821     		movs	r1, #184
 1455              		.loc 1 1824 0
 1456 0382 82F83000 		strb	r0, [r2, #48]
 1457              		.loc 1 1825 0
 1458 0386 82F83110 		strb	r1, [r2, #49]
 1459 038a F7E6     		b	.L129
 1460              	.L109:
 1461              		.loc 1 920 0
 1462 038c E18B     		ldrh	r1, [r4, #30]
 1463 038e 7B48     		ldr	r0, .L319+8
 1464 0390 9942     		cmp	r1, r3
 1465 0392 36D0     		beq	.L303
 1466              	.L111:
 1467              		.loc 1 921 0
 1468 0394 2A88     		ldrh	r2, [r5]
 1469 0396 784B     		ldr	r3, .L319+4
 1470 0398 0132     		adds	r2, r2, #1
ARM GAS  /tmp/cc7TW52V.s 			page 27


 1471 039a 2A80     		strh	r2, [r5]	@ movhi
 1472              		.loc 1 922 0
 1473 039c 55E6     		b	.L94
 1474              	.L180:
 1475              		.loc 1 1656 0
 1476 039e 05F01001 		and	r1, r5, #16
 1477 03a2 01F0FF09 		and	r9, r1, #255
 1478 03a6 71B1     		cbz	r1, .L181
 1479              		.loc 1 1658 0
 1480 03a8 0125     		movs	r5, #1
 1481              		.loc 1 1659 0
 1482 03aa 0421     		movs	r1, #4
 1483              		.loc 1 1661 0
 1484 03ac 1122     		movs	r2, #17
 1485              		.loc 1 1658 0
 1486 03ae 3582     		strh	r5, [r6, #16]	@ movhi
 1487              		.loc 1 1660 0
 1488 03b0 86F81BC0 		strb	ip, [r6, #27]
 1489              		.loc 1 1659 0
 1490 03b4 7176     		strb	r1, [r6, #25]
 1491              		.loc 1 1657 0
 1492 03b6 A0F800C0 		strh	ip, [r0]	@ movhi
 1493 03ba 6E4D     		ldr	r5, .L319
 1494              		.loc 1 1661 0
 1495 03bc 84F82F20 		strb	r2, [r4, #47]
 1496 03c0 DFF8C4A1 		ldr	r10, .L319+20
 1497              		.loc 1 1662 0
 1498 03c4 A0E6     		b	.L98
 1499              	.L181:
 1500              		.loc 1 1666 0
 1501 03c6 0188     		ldrh	r1, [r0]
 1502 03c8 DFF8C0C1 		ldr	ip, .L319+24
 1503 03cc F9B1     		cbz	r1, .L200
 1504              		.loc 1 1670 0
 1505 03ce ED07     		lsls	r5, r5, #31
 1506 03d0 32D5     		bpl	.L183
 1507              		.loc 1 1671 0
 1508 03d2 A6F81090 		strh	r9, [r6, #16]	@ movhi
 1509              	.L184:
 1510              		.loc 1 1682 0
 1511 03d6 758A     		ldrh	r5, [r6, #18]
 1512 03d8 A942     		cmp	r1, r5
 1513              		.loc 1 1683 0
 1514 03da 88BF     		it	hi
 1515 03dc 0580     		strhhi	r5, [r0]	@ movhi
 1516              		.loc 1 1688 0
 1517 03de 0088     		ldrh	r0, [r0]
 1518 03e0 3082     		strh	r0, [r6, #16]	@ movhi
 1519              	.L182:
 1520              		.loc 1 1697 0
 1521 03e2 0021     		movs	r1, #0
 1522 03e4 F176     		strb	r1, [r6, #27]
 1523 03e6 B6E7     		b	.L105
 1524              	.L187:
 1525              		.loc 1 1713 0
 1526 03e8 1A78     		ldrb	r2, [r3]	@ zero_extendqisi2
 1527 03ea 9507     		lsls	r5, r2, #30
ARM GAS  /tmp/cc7TW52V.s 			page 28


 1528 03ec 7FF52DAE 		bpl	.L94
 1529              		.loc 1 1714 0
 1530 03f0 2821     		movs	r1, #40
 1531              		.loc 1 1715 0
 1532 03f2 1022     		movs	r2, #16
 1533              		.loc 1 1714 0
 1534 03f4 3980     		strh	r1, [r7]	@ movhi
 1535              		.loc 1 1715 0
 1536 03f6 84F82F20 		strb	r2, [r4, #47]
 1537 03fa 5E4D     		ldr	r5, .L319
 1538 03fc DFF888A1 		ldr	r10, .L319+20
 1539              		.loc 1 1716 0
 1540 0400 84E6     		b	.L188
 1541              	.L303:
 1542              		.loc 1 920 0 discriminator 1
 1543 0402 008C     		ldrh	r0, [r0, #32]
 1544 0404 BAF80210 		ldrh	r1, [r10, #2]
 1545 0408 8842     		cmp	r0, r1
 1546 040a C3D1     		bne	.L111
 1547 040c 04E7     		b	.L110
 1548              	.L200:
 1549 040e 0846     		mov	r0, r1
 1550 0410 E7E7     		b	.L182
 1551              	.L302:
 1552              		.loc 1 742 0
 1553 0412 052B     		cmp	r3, #5
 1554 0414 7FF447AF 		bne	.L97
 1555              	.L96:
 1556              		.loc 1 749 0
 1557 0418 574B     		ldr	r3, .L319+4
 1558              		.loc 1 744 0
 1559 041a 0022     		movs	r2, #0
 1560 041c 7276     		strb	r2, [r6, #25]
 1561              		.loc 1 749 0
 1562 041e 8022     		movs	r2, #128
 1563 0420 1A70     		strb	r2, [r3]
 1564              		.loc 1 750 0
 1565 0422 0293     		str	r3, [sp, #8]
 1566 0424 FFF7FEFF 		bl	modbus_tcp_gateway
 1567              	.LVL89:
 1568              		.loc 1 753 0
 1569 0428 1422     		movs	r2, #20
 1570 042a 84F82F20 		strb	r2, [r4, #47]
 1571 042e 514D     		ldr	r5, .L319
 1572 0430 DFF854A1 		ldr	r10, .L319+20
 1573              		.loc 1 754 0
 1574 0434 029B     		ldr	r3, [sp, #8]
 1575 0436 67E6     		b	.L98
 1576              	.L183:
 1577              		.loc 1 1677 0
 1578 0438 358A     		ldrh	r5, [r6, #16]
 1579 043a 002D     		cmp	r5, #0
 1580 043c CBD0     		beq	.L184
 1581              		.loc 1 1694 0
 1582 043e ACF80050 		strh	r5, [ip]	@ movhi
 1583 0442 2846     		mov	r0, r5
 1584 0444 CDE7     		b	.L182
ARM GAS  /tmp/cc7TW52V.s 			page 29


 1585              	.L112:
 1586              		.loc 1 948 0
 1587 0446 E07D     		ldrb	r0, [r4, #23]	@ zero_extendqisi2
 1588 0448 4C4E     		ldr	r6, .L319+8
 1589              	.LVL90:
 1590 044a 0628     		cmp	r0, #6
 1591 044c 09D0     		beq	.L113
 1592              		.loc 1 962 0
 1593 044e 0128     		cmp	r0, #1
 1594 0450 1DD0     		beq	.L114
 1595              		.loc 1 964 0
 1596 0452 2A88     		ldrh	r2, [r5]
 1597              		.loc 1 965 0
 1598 0454 2B8A     		ldrh	r3, [r5, #16]
 1599              		.loc 1 964 0
 1600 0456 0132     		adds	r2, r2, #1
 1601              		.loc 1 965 0
 1602 0458 0133     		adds	r3, r3, #1
 1603 045a 2B82     		strh	r3, [r5, #16]	@ movhi
 1604              		.loc 1 964 0
 1605 045c 2A80     		strh	r2, [r5]	@ movhi
 1606 045e 464B     		ldr	r3, .L319+4
 1607              		.loc 1 967 0
 1608 0460 F3E5     		b	.L94
 1609              	.L113:
 1610              		.loc 1 1173 0
 1611 0462 AB8B     		ldrh	r3, [r5, #28]
 1612 0464 0133     		adds	r3, r3, #1
 1613 0466 AB83     		strh	r3, [r5, #28]	@ movhi
 1614 0468 424B     		ldr	r3, .L319
 1615              	.LBB23:
 1616              	.LBB24:
 1617              		.loc 1 366 0
 1618 046a 0491     		str	r1, [sp, #16]
 1619 046c 0392     		str	r2, [sp, #12]
 1620 046e 0293     		str	r3, [sp, #8]
 1621 0470 FFF7FEFF 		bl	upper_layer_chksum
 1622              	.LVL91:
 1623              	.LBE24:
 1624              	.LBE23:
 1625              		.loc 1 1177 0
 1626 0474 0499     		ldr	r1, [sp, #16]
 1627 0476 039A     		ldr	r2, [sp, #12]
 1628 0478 8842     		cmp	r0, r1
 1629 047a 029B     		ldr	r3, [sp, #8]
 1630 047c 17D0     		beq	.L119
 1631              		.loc 1 1179 0
 1632 047e 598B     		ldrh	r1, [r3, #26]
 1633              		.loc 1 1180 0
 1634 0480 1A8C     		ldrh	r2, [r3, #32]
 1635              		.loc 1 1179 0
 1636 0482 0131     		adds	r1, r1, #1
 1637              		.loc 1 1180 0
 1638 0484 0132     		adds	r2, r2, #1
 1639              		.loc 1 1179 0
 1640 0486 5983     		strh	r1, [r3, #26]	@ movhi
 1641              		.loc 1 1180 0
ARM GAS  /tmp/cc7TW52V.s 			page 30


 1642 0488 1A84     		strh	r2, [r3, #32]	@ movhi
 1643 048a 3B4B     		ldr	r3, .L319+4
 1644              		.loc 1 1182 0
 1645 048c DDE5     		b	.L94
 1646              	.L114:
 1647              		.loc 1 973 0
 1648 048e AA8A     		ldrh	r2, [r5, #20]
 1649              		.loc 1 978 0
 1650 0490 96F82210 		ldrb	r1, [r6, #34]	@ zero_extendqisi2
 1651              		.loc 1 973 0
 1652 0494 0132     		adds	r2, r2, #1
 1653              		.loc 1 978 0
 1654 0496 0829     		cmp	r1, #8
 1655              		.loc 1 973 0
 1656 0498 AA82     		strh	r2, [r5, #20]	@ movhi
 1657 049a 364A     		ldr	r2, .L319
 1658              		.loc 1 978 0
 1659 049c 7AD0     		beq	.L115
 1660              		.loc 1 979 0
 1661 049e 518A     		ldrh	r1, [r2, #18]
 1662              		.loc 1 980 0
 1663 04a0 138B     		ldrh	r3, [r2, #24]
 1664              		.loc 1 979 0
 1665 04a2 0131     		adds	r1, r1, #1
 1666              		.loc 1 980 0
 1667 04a4 0133     		adds	r3, r3, #1
 1668 04a6 1383     		strh	r3, [r2, #24]	@ movhi
 1669              		.loc 1 979 0
 1670 04a8 5182     		strh	r1, [r2, #18]	@ movhi
 1671 04aa 334B     		ldr	r3, .L319+4
 1672              		.loc 1 982 0
 1673 04ac CDE5     		b	.L94
 1674              	.L119:
 1675              		.loc 1 1191 0
 1676 04ae B08C     		ldrh	r0, [r6, #36]
 1677              		.loc 1 1193 0
 1678 04b0 B6F81AC0 		ldrh	ip, [r6, #26]
 1679              		.loc 1 1191 0
 1680 04b4 0690     		str	r0, [sp, #24]
 1681              		.loc 1 1192 0
 1682 04b6 708C     		ldrh	r0, [r6, #34]
 1683              		.loc 1 1193 0
 1684 04b8 B68B     		ldrh	r6, [r6, #28]
 1685 04ba 314B     		ldr	r3, .L319+12
 1686 04bc 0796     		str	r6, [sp, #28]
 1687 04be 0190     		str	r0, [sp, #4]
 1688 04c0 03E0     		b	.L123
 1689              	.LVL92:
 1690              	.L120:
 1691              		.loc 1 1188 0
 1692 04c2 3049     		ldr	r1, .L319+16
 1693 04c4 2833     		adds	r3, r3, #40
 1694 04c6 8B42     		cmp	r3, r1
 1695 04c8 7DD0     		beq	.L304
 1696              	.LVL93:
 1697              	.L123:
 1698              		.loc 1 1190 0
ARM GAS  /tmp/cc7TW52V.s 			page 31


 1699 04ca 13F80F1C 		ldrb	r1, [r3, #-15]	@ zero_extendqisi2
 1700 04ce A3F12806 		sub	r6, r3, #40
 1701              	.LVL94:
 1702 04d2 0591     		str	r1, [sp, #20]
 1703 04d4 0029     		cmp	r1, #0
 1704 04d6 F4D0     		beq	.L120
 1705              		.loc 1 1190 0 is_stmt 0 discriminator 1
 1706 04d8 33F8241C 		ldrh	r1, [r3, #-36]
 1707 04dc 0698     		ldr	r0, [sp, #24]
 1708 04de 8142     		cmp	r1, r0
 1709 04e0 EFD1     		bne	.L120
 1710              		.loc 1 1191 0 is_stmt 1
 1711 04e2 33F8221C 		ldrh	r1, [r3, #-34]
 1712 04e6 0198     		ldr	r0, [sp, #4]
 1713 04e8 8142     		cmp	r1, r0
 1714 04ea EAD1     		bne	.L120
 1715              		.loc 1 1192 0
 1716 04ec 33F8281C 		ldrh	r1, [r3, #-40]
 1717 04f0 6145     		cmp	r1, ip
 1718 04f2 E6D1     		bne	.L120
 1719              		.loc 1 1193 0
 1720 04f4 33F8261C 		ldrh	r1, [r3, #-38]
 1721 04f8 0798     		ldr	r0, [sp, #28]
 1722 04fa 8142     		cmp	r1, r0
 1723 04fc E1D1     		bne	.L120
 1724              	.L121:
 1725              		.loc 1 1388 0
 1726 04fe 94F82F10 		ldrb	r1, [r4, #47]	@ zero_extendqisi2
 1727              		.loc 1 1383 0
 1728 0502 1D4B     		ldr	r3, .L319+4
 1729 0504 0020     		movs	r0, #0
 1730              		.loc 1 1388 0
 1731 0506 11F0040F 		tst	r1, #4
 1732              		.loc 1 1382 0
 1733 050a C9F80060 		str	r6, [r9]
 1734              		.loc 1 1383 0
 1735 050e 1870     		strb	r0, [r3]
 1736              		.loc 1 1388 0
 1737 0510 DFF868C0 		ldr	ip, .L319+8
 1738 0514 40F04482 		bne	.L305
 1739              		.loc 1 1397 0
 1740 0518 9CF82EC0 		ldrb	ip, [ip, #46]	@ zero_extendqisi2
 1741              		.loc 1 1401 0
 1742 051c ABF11400 		sub	r0, fp, #20
 1743              		.loc 1 1397 0
 1744 0520 4FEA1C1C 		lsr	ip, ip, #4
 1745 0524 4FEA8C0C 		lsl	ip, ip, #2
 1746              		.loc 1 1401 0
 1747 0528 CCEB0000 		rsb	r0, ip, r0
 1748 052c 80B2     		uxth	r0, r0
 1749 052e 0690     		str	r0, [sp, #24]
 1750              		.loc 1 1406 0
 1751 0530 0598     		ldr	r0, [sp, #20]
 1752              		.loc 1 1397 0
 1753 0532 DFF85CB0 		ldr	fp, .L319+28
 1754              		.loc 1 1406 0
 1755 0536 00F00F00 		and	r0, r0, #15
ARM GAS  /tmp/cc7TW52V.s 			page 32


 1756 053a 0590     		str	r0, [sp, #20]
 1757              		.loc 1 1401 0
 1758 053c 0698     		ldr	r0, [sp, #24]
 1759              		.loc 1 1397 0
 1760 053e 8BF800C0 		strb	ip, [fp]
 1761              		.loc 1 1401 0
 1762 0542 3880     		strh	r0, [r7]	@ movhi
 1763              		.loc 1 1406 0
 1764 0544 0598     		ldr	r0, [sp, #20]
 1765 0546 0228     		cmp	r0, #2
 1766 0548 00F0C480 		beq	.L306
 1767              	.L144:
 1768              		.loc 1 1408 0
 1769 054c 0698     		ldr	r0, [sp, #24]
 1770 054e 10B9     		cbnz	r0, .L146
 1771              		.loc 1 1408 0 is_stmt 0 discriminator 2
 1772 0550 8807     		lsls	r0, r1, #30
 1773 0552 00F0C580 		beq	.L145
 1774              	.L146:
 1775              		.loc 1 1408 0 discriminator 1
 1776 0556 B4F826C0 		ldrh	ip, [r4, #38]
 1777 055a CDF814C0 		str	ip, [sp, #20]
 1778 055e 0598     		ldr	r0, [sp, #20]
 1779 0560 B6F808C0 		ldrh	ip, [r6, #8]
 1780 0564 6045     		cmp	r0, ip
 1781 0566 00F07082 		beq	.L307
 1782              	.L160:
 1783              		.loc 1 1791 0 is_stmt 1
 1784 056a 1022     		movs	r2, #16
 1785 056c 84F82F20 		strb	r2, [r4, #47]
 1786 0570 CAE5     		b	.L98
 1787              	.L320:
 1788 0572 00BF     		.align	2
 1789              	.L319:
 1790 0574 00000000 		.word	.LANCHOR14
 1791 0578 00000000 		.word	.LANCHOR11
 1792 057c 00000000 		.word	.LANCHOR0
 1793 0580 28000000 		.word	.LANCHOR5+40
 1794 0584 B8010000 		.word	.LANCHOR5+440
 1795 0588 00000000 		.word	.LANCHOR15
 1796 058c 00000000 		.word	.LANCHOR13
 1797 0590 00000000 		.word	.LANCHOR6
 1798              	.LVL95:
 1799              	.L115:
 1800              		.loc 1 997 0
 1801 0594 B28C     		ldrh	r2, [r6, #36]
 1802 0596 4FF6F671 		movw	r1, #65526
 1803 059a 8A42     		cmp	r2, r1
 1804              		.loc 1 995 0
 1805 059c 4FF00000 		mov	r0, #0
 1806              		.loc 1 998 0
 1807 05a0 8CBF     		ite	hi
 1808 05a2 0932     		addhi	r2, r2, #9
 1809              		.loc 1 1000 0
 1810 05a4 0832     		addls	r2, r2, #8
 1811              		.loc 1 1007 0
 1812 05a6 E98A     		ldrh	r1, [r5, #22]
ARM GAS  /tmp/cc7TW52V.s 			page 33


 1813              		.loc 1 995 0
 1814 05a8 86F82200 		strb	r0, [r6, #34]
 1815              		.loc 1 1000 0
 1816 05ac B284     		strh	r2, [r6, #36]	@ movhi
 1817              		.loc 1 1004 0
 1818 05ae A08B     		ldrh	r0, [r4, #28]
 1819 05b0 628B     		ldrh	r2, [r4, #26]
 1820              		.loc 1 1005 0
 1821 05b2 BAF80260 		ldrh	r6, [r10, #2]
 1822              		.loc 1 1007 0
 1823 05b6 0131     		adds	r1, r1, #1
 1824              		.loc 1 1005 0
 1825 05b8 6383     		strh	r3, [r4, #26]	@ movhi
 1826 05ba A683     		strh	r6, [r4, #28]	@ movhi
 1827              		.loc 1 1004 0
 1828 05bc 2084     		strh	r0, [r4, #32]	@ movhi
 1829              		.loc 1 1007 0
 1830 05be E982     		strh	r1, [r5, #22]	@ movhi
 1831              		.loc 1 1004 0
 1832 05c0 E283     		strh	r2, [r4, #30]	@ movhi
 1833 05c2 BC4B     		ldr	r3, .L321
 1834              		.loc 1 1008 0
 1835 05c4 04E6     		b	.L118
 1836              	.LVL96:
 1837              	.L304:
 1838              		.loc 1 1202 0
 1839 05c6 94F82F30 		ldrb	r3, [r4, #47]	@ zero_extendqisi2
 1840 05ca 03F03F03 		and	r3, r3, #63
 1841 05ce 022B     		cmp	r3, #2
 1842 05d0 67D0     		beq	.L288
 1843 05d2 B84B     		ldr	r3, .L321
 1844              	.L124:
 1845              		.loc 1 1218 0
 1846 05d4 94F82F10 		ldrb	r1, [r4, #47]	@ zero_extendqisi2
 1847 05d8 B74A     		ldr	r2, .L321+4
 1848 05da 4907     		lsls	r1, r1, #29
 1849 05dc 3FF535AD 		bmi	.L94
 1850              		.loc 1 1230 0
 1851 05e0 92F82DC0 		ldrb	ip, [r2, #45]	@ zero_extendqisi2
 1852              		.loc 1 1222 0
 1853 05e4 B5F824B0 		ldrh	fp, [r5, #36]
 1854              		.loc 1 1229 0
 1855 05e8 92F829E0 		ldrb	lr, [r2, #41]	@ zero_extendqisi2
 1856              		.loc 1 1234 0
 1857 05ec 92F82C90 		ldrb	r9, [r2, #44]	@ zero_extendqisi2
 1858              		.loc 1 1238 0
 1859 05f0 92F82B80 		ldrb	r8, [r2, #43]	@ zero_extendqisi2
 1860              		.loc 1 1241 0
 1861 05f4 92F82610 		ldrb	r1, [r2, #38]	@ zero_extendqisi2
 1862              		.loc 1 1222 0
 1863 05f8 0BF1010B 		add	fp, fp, #1
 1864              		.loc 1 1230 0
 1865 05fc 82F829C0 		strb	ip, [r2, #41]
 1866              		.loc 1 1241 0
 1867 0600 DFF8C4C2 		ldr	ip, .L321+20
 1868              		.loc 1 1233 0
 1869 0604 92F82860 		ldrb	r6, [r2, #40]	@ zero_extendqisi2
ARM GAS  /tmp/cc7TW52V.s 			page 34


 1870              	.LVL97:
 1871              		.loc 1 1237 0
 1872 0608 92F82700 		ldrb	r0, [r2, #39]	@ zero_extendqisi2
 1873              		.loc 1 1248 0
 1874 060c 0EF1010E 		add	lr, lr, #1
 1875              		.loc 1 1222 0
 1876 0610 A5F824B0 		strh	fp, [r5, #36]	@ movhi
 1877              		.loc 1 1242 0
 1878 0614 92F82AB0 		ldrb	fp, [r2, #42]	@ zero_extendqisi2
 1879              		.loc 1 1248 0
 1880 0618 5FFA8EFE 		uxtb	lr, lr
 1881              		.loc 1 1234 0
 1882 061c 82F82890 		strb	r9, [r2, #40]
 1883              		.loc 1 1238 0
 1884 0620 82F82780 		strb	r8, [r2, #39]
 1885              		.loc 1 1224 0
 1886 0624 4FF01409 		mov	r9, #20
 1887              		.loc 1 1225 0
 1888 0628 4FF02808 		mov	r8, #40
 1889              		.loc 1 1241 0
 1890 062c 8CF80010 		strb	r1, [ip]
 1891              		.loc 1 1226 0
 1892 0630 4FF0500C 		mov	ip, #80
 1893              		.loc 1 1248 0
 1894 0634 82F82DE0 		strb	lr, [r2, #45]
 1895              		.loc 1 1235 0
 1896 0638 82F82C60 		strb	r6, [r2, #44]
 1897              		.loc 1 1239 0
 1898 063c 82F82B00 		strb	r0, [r2, #43]
 1899              		.loc 1 1243 0
 1900 0640 82F82A10 		strb	r1, [r2, #42]
 1901              		.loc 1 1242 0
 1902 0644 82F826B0 		strb	fp, [r2, #38]
 1903              		.loc 1 1224 0
 1904 0648 82F82F90 		strb	r9, [r2, #47]
 1905              		.loc 1 1225 0
 1906 064c A7F80080 		strh	r8, [r7]	@ movhi
 1907              		.loc 1 1226 0
 1908 0650 82F82EC0 		strb	ip, [r2, #46]
 1909              		.loc 1 1248 0
 1910 0654 BEF1000F 		cmp	lr, #0
 1911 0658 0CD1     		bne	.L127
 1912              		.loc 1 1249 0
 1913 065a 0136     		adds	r6, r6, #1
 1914 065c F6B2     		uxtb	r6, r6
 1915 065e 82F82C60 		strb	r6, [r2, #44]
 1916 0662 3EB9     		cbnz	r6, .L127
 1917              		.loc 1 1250 0
 1918 0664 0130     		adds	r0, r0, #1
 1919 0666 C0B2     		uxtb	r0, r0
 1920 0668 82F82B00 		strb	r0, [r2, #43]
 1921 066c 10B9     		cbnz	r0, .L127
 1922              		.loc 1 1251 0
 1923 066e 0131     		adds	r1, r1, #1
 1924 0670 82F82A10 		strb	r1, [r2, #42]
 1925              	.L127:
 1926              		.loc 1 1257 0
ARM GAS  /tmp/cc7TW52V.s 			page 35


 1927 0674 628C     		ldrh	r2, [r4, #34]
 1928              		.loc 1 1258 0
 1929 0676 B4F824C0 		ldrh	ip, [r4, #36]
 1930              		.loc 1 1262 0
 1931 067a B4F81AE0 		ldrh	lr, [r4, #26]
 1932 067e B4F81C80 		ldrh	r8, [r4, #28]
 1933              		.loc 1 1257 0
 1934 0682 8E4E     		ldr	r6, .L321+8
 1935              		.loc 1 1263 0
 1936 0684 BAF80000 		ldrh	r0, [r10]
 1937 0688 BAF80210 		ldrh	r1, [r10, #2]
 1938              		.loc 1 1257 0
 1939 068c 3280     		strh	r2, [r6]	@ movhi
 1940              		.loc 1 1259 0
 1941 068e A284     		strh	r2, [r4, #36]	@ movhi
 1942              		.loc 1 1258 0
 1943 0690 A4F822C0 		strh	ip, [r4, #34]	@ movhi
 1944              		.loc 1 1262 0
 1945 0694 A4F81EE0 		strh	lr, [r4, #30]	@ movhi
 1946 0698 A4F82080 		strh	r8, [r4, #32]	@ movhi
 1947              		.loc 1 1263 0
 1948 069c 6083     		strh	r0, [r4, #26]	@ movhi
 1949 069e A183     		strh	r1, [r4, #28]	@ movhi
 1950              		.loc 1 1266 0
 1951 06a0 6CE5     		b	.L129
 1952              	.LVL98:
 1953              	.L288:
 1954              		.loc 1 1209 0
 1955 06a2 874B     		ldr	r3, .L321+12
 1956              		.loc 1 1206 0
 1957 06a4 854A     		ldr	r2, .L321+8
 1958 06a6 DDF818C0 		ldr	ip, [sp, #24]
 1959 06aa 0592     		str	r2, [sp, #20]
 1960              		.loc 1 1209 0
 1961 06ac 1A88     		ldrh	r2, [r3]
 1962              		.loc 1 1208 0
 1963 06ae DFF818B2 		ldr	fp, .L321+20
 1964              		.loc 1 1206 0
 1965 06b2 8249     		ldr	r1, .L321+8
 1966              		.loc 1 1208 0
 1967 06b4 0023     		movs	r3, #0
 1968              		.loc 1 1209 0
 1969 06b6 6245     		cmp	r2, ip
 1970              		.loc 1 1206 0
 1971 06b8 A1F800C0 		strh	ip, [r1]	@ movhi
 1972              		.loc 1 1208 0
 1973 06bc 8BF80030 		strb	r3, [fp]
 1974              		.loc 1 1209 0
 1975 06c0 00F0CB81 		beq	.L125
 1976              		.loc 1 1214 0
 1977 06c4 698D     		ldrh	r1, [r5, #42]
 1978              		.loc 1 1208 0
 1979 06c6 0122     		movs	r2, #1
 1980              		.loc 1 1214 0
 1981 06c8 1144     		add	r1, r1, r2
 1982 06ca 7A4B     		ldr	r3, .L321
 1983 06cc 6985     		strh	r1, [r5, #42]	@ movhi
ARM GAS  /tmp/cc7TW52V.s 			page 36


 1984              		.loc 1 1208 0
 1985 06ce 8BF80020 		strb	r2, [fp]
 1986 06d2 7FE7     		b	.L124
 1987              	.L306:
 1988              		.loc 1 1406 0 discriminator 1
 1989 06d4 01F03F0C 		and	ip, r1, #63
 1990 06d8 BCF1120F 		cmp	ip, #18
 1991 06dc 7FF436AF 		bne	.L144
 1992              	.L145:
 1993              		.loc 1 1421 0
 1994 06e0 C906     		lsls	r1, r1, #27
 1995 06e2 01D5     		bpl	.L149
 1996              		.loc 1 1421 0 is_stmt 0 discriminator 1
 1997 06e4 318A     		ldrh	r1, [r6, #16]
 1998 06e6 D9B9     		cbnz	r1, .L308
 1999              	.L149:
 2000              		.loc 1 1462 0 is_stmt 1
 2001 06e8 717E     		ldrb	r1, [r6, #25]	@ zero_extendqisi2
 2002 06ea 01F00F00 		and	r0, r1, #15
 2003 06ee 0138     		subs	r0, r0, #1
 2004 06f0 0728     		cmp	r0, #7
 2005 06f2 3FF6AAAC 		bhi	.L94
 2006 06f6 0FF2080C 		adr	ip, .L154
 2007 06fa 5CF820F0 		ldr	pc, [ip, r0, lsl #2]
 2008 06fe 00BF     		.p2align 2
 2009              	.L154:
 2010 0700 B3090000 		.word	.L153+1
 2011 0704 55090000 		.word	.L155+1
 2012 0708 65080000 		.word	.L156+1
 2013 070c 23080000 		.word	.L157+1
 2014 0710 03080000 		.word	.L158+1
 2015 0714 F1070000 		.word	.L159+1
 2016 0718 6B050000 		.word	.L160+1
 2017 071c D5070000 		.word	.L161+1
 2018              		.p2align 1
 2019              	.L308:
 2020              		.loc 1 1422 0
 2021 0720 06F10C00 		add	r0, r6, #12
 2022 0724 0392     		str	r2, [sp, #12]
 2023 0726 0293     		str	r3, [sp, #8]
 2024 0728 FFF7FEFF 		bl	uip_add32
 2025              	.LVL99:
 2026              		.loc 1 1424 0
 2027 072c 6549     		ldr	r1, .L321+16
 2028 072e 94F82AC0 		ldrb	ip, [r4, #42]	@ zero_extendqisi2
 2029 0732 0878     		ldrb	r0, [r1]	@ zero_extendqisi2
 2030 0734 039A     		ldr	r2, [sp, #12]
 2031 0736 6045     		cmp	r0, ip
 2032 0738 0590     		str	r0, [sp, #20]
 2033 073a 029B     		ldr	r3, [sp, #8]
 2034 073c D4D1     		bne	.L149
 2035              		.loc 1 1425 0 discriminator 1
 2036 073e DFF878C1 		ldr	ip, .L321+4
 2037              		.loc 1 1424 0 discriminator 1
 2038 0742 4878     		ldrb	r0, [r1, #1]	@ zero_extendqisi2
 2039              		.loc 1 1425 0 discriminator 1
 2040 0744 9CF82BC0 		ldrb	ip, [ip, #43]	@ zero_extendqisi2
ARM GAS  /tmp/cc7TW52V.s 			page 37


 2041              		.loc 1 1424 0 discriminator 1
 2042 0748 0690     		str	r0, [sp, #24]
 2043 074a 6045     		cmp	r0, ip
 2044 074c CCD1     		bne	.L149
 2045              		.loc 1 1426 0
 2046 074e DFF868C1 		ldr	ip, .L321+4
 2047              		.loc 1 1425 0
 2048 0752 8878     		ldrb	r0, [r1, #2]	@ zero_extendqisi2
 2049              		.loc 1 1426 0
 2050 0754 9CF82CC0 		ldrb	ip, [ip, #44]	@ zero_extendqisi2
 2051              		.loc 1 1425 0
 2052 0758 0190     		str	r0, [sp, #4]
 2053 075a 6045     		cmp	r0, ip
 2054 075c C4D1     		bne	.L149
 2055              		.loc 1 1427 0
 2056 075e DFF858C1 		ldr	ip, .L321+4
 2057              		.loc 1 1426 0
 2058 0762 C978     		ldrb	r1, [r1, #3]	@ zero_extendqisi2
 2059              		.loc 1 1427 0
 2060 0764 9CF82D00 		ldrb	r0, [ip, #45]	@ zero_extendqisi2
 2061              		.loc 1 1426 0
 2062 0768 8142     		cmp	r1, r0
 2063 076a BDD1     		bne	.L149
 2064              		.loc 1 1429 0
 2065 076c 0598     		ldr	r0, [sp, #20]
 2066              		.loc 1 1436 0
 2067 076e 96F81BC0 		ldrb	ip, [r6, #27]	@ zero_extendqisi2
 2068              		.loc 1 1429 0
 2069 0772 3073     		strb	r0, [r6, #12]
 2070              		.loc 1 1430 0
 2071 0774 0698     		ldr	r0, [sp, #24]
 2072              		.loc 1 1432 0
 2073 0776 F173     		strb	r1, [r6, #15]
 2074              		.loc 1 1430 0
 2075 0778 7073     		strb	r0, [r6, #13]
 2076              		.loc 1 1431 0
 2077 077a 0198     		ldr	r0, [sp, #4]
 2078 077c B073     		strb	r0, [r6, #14]
 2079              		.loc 1 1436 0
 2080 077e BCF1000F 		cmp	ip, #0
 2081 0782 1ED1     		bne	.L151
 2082              	.LVL100:
 2083              	.LBB25:
 2084              		.loc 1 1438 0
 2085 0784 96F818C0 		ldrb	ip, [r6, #24]	@ zero_extendqisi2
 2086 0788 B07E     		ldrb	r0, [r6, #26]	@ zero_extendqisi2
 2087              		.loc 1 1440 0
 2088 078a B17D     		ldrb	r1, [r6, #22]	@ zero_extendqisi2
 2089              		.loc 1 1438 0
 2090 078c C0EB0C00 		rsb	r0, r0, ip
 2091              		.loc 1 1440 0
 2092 0790 A0EBD100 		sub	r0, r0, r1, lsr #3
 2093 0794 C0B2     		uxtb	r0, r0
 2094              		.loc 1 1441 0
 2095 0796 0144     		add	r1, r1, r0
 2096 0798 5FFA81FC 		uxtb	ip, r1
 2097              		.loc 1 1440 0
ARM GAS  /tmp/cc7TW52V.s 			page 38


 2098 079c C1B2     		uxtb	r1, r0
 2099              	.LVL101:
 2100              		.loc 1 1442 0
 2101 079e 11F0800F 		tst	r1, #128
 2102              		.loc 1 1443 0
 2103 07a2 18BF     		it	ne
 2104 07a4 4142     		rsbne	r1, r0, #0
 2105              		.loc 1 1445 0
 2106 07a6 F07D     		ldrb	r0, [r6, #23]	@ zero_extendqisi2
 2107              	.LVL102:
 2108              		.loc 1 1443 0
 2109 07a8 18BF     		it	ne
 2110 07aa C9B2     		uxtbne	r1, r1
 2111              	.LVL103:
 2112              		.loc 1 1445 0
 2113 07ac A0EB9000 		sub	r0, r0, r0, lsr #2
 2114              	.LVL104:
 2115              		.loc 1 1446 0
 2116 07b0 0144     		add	r1, r1, r0
 2117              	.LVL105:
 2118 07b2 C9B2     		uxtb	r1, r1
 2119              		.loc 1 1441 0
 2120 07b4 86F816C0 		strb	ip, [r6, #22]
 2121              	.LVL106:
 2122              		.loc 1 1447 0
 2123 07b8 01EBDC0C 		add	ip, r1, ip, lsr #3
 2124 07bc 86F818C0 		strb	ip, [r6, #24]
 2125              		.loc 1 1446 0
 2126 07c0 F175     		strb	r1, [r6, #23]
 2127              	.L151:
 2128              	.LBE25:
 2129              		.loc 1 1453 0
 2130 07c2 96F818C0 		ldrb	ip, [r6, #24]	@ zero_extendqisi2
 2131              		.loc 1 1451 0
 2132 07c6 0120     		movs	r0, #1
 2133              		.loc 1 1456 0
 2134 07c8 0021     		movs	r1, #0
 2135              		.loc 1 1453 0
 2136 07ca 86F81AC0 		strb	ip, [r6, #26]
 2137              		.loc 1 1451 0
 2138 07ce 1870     		strb	r0, [r3]
 2139              		.loc 1 1456 0
 2140 07d0 3182     		strh	r1, [r6, #16]	@ movhi
 2141 07d2 89E7     		b	.L149
 2142              	.L161:
 2143              		.loc 1 1723 0
 2144 07d4 1978     		ldrb	r1, [r3]	@ zero_extendqisi2
 2145 07d6 374A     		ldr	r2, .L321
 2146 07d8 CC07     		lsls	r4, r1, #31
 2147 07da 7FF536AC 		bpl	.L94
 2148              		.loc 1 1724 0
 2149 07de 0021     		movs	r1, #0
 2150 07e0 7176     		strb	r1, [r6, #25]
 2151              		.loc 1 1725 0
 2152 07e2 1021     		movs	r1, #16
 2153 07e4 1170     		strb	r1, [r2]
 2154              		.loc 1 1726 0
ARM GAS  /tmp/cc7TW52V.s 			page 39


 2155 07e6 0293     		str	r3, [sp, #8]
 2156 07e8 FFF7FEFF 		bl	modbus_tcp_gateway
 2157              	.LVL107:
 2158 07ec 029B     		ldr	r3, [sp, #8]
 2159 07ee 2CE4     		b	.L94
 2160              	.L159:
 2161              		.loc 1 1780 0
 2162 07f0 1A78     		ldrb	r2, [r3]	@ zero_extendqisi2
 2163 07f2 D007     		lsls	r0, r2, #31
 2164 07f4 7FF529AC 		bpl	.L94
 2165              		.loc 1 1781 0
 2166 07f8 0721     		movs	r1, #7
 2167              		.loc 1 1782 0
 2168 07fa 0022     		movs	r2, #0
 2169              		.loc 1 1781 0
 2170 07fc 7176     		strb	r1, [r6, #25]
 2171              		.loc 1 1782 0
 2172 07fe B276     		strb	r2, [r6, #26]
 2173 0800 23E4     		b	.L94
 2174              	.L158:
 2175              		.loc 1 1760 0
 2176 0802 3888     		ldrh	r0, [r7]
 2177 0804 18B1     		cbz	r0, .L194
 2178              		.loc 1 1761 0
 2179 0806 0293     		str	r3, [sp, #8]
 2180 0808 FFF7FEFF 		bl	uip_add_rcv_nxt
 2181              	.LVL108:
 2182 080c 029B     		ldr	r3, [sp, #8]
 2183              	.L194:
 2184              		.loc 1 1763 0
 2185 080e 94F82F20 		ldrb	r2, [r4, #47]	@ zero_extendqisi2
 2186 0812 D207     		lsls	r2, r2, #31
 2187 0814 00F1B680 		bmi	.L309
 2188              	.L195:
 2189              		.loc 1 1771 0
 2190 0818 3A88     		ldrh	r2, [r7]
 2191 081a 002A     		cmp	r2, #0
 2192 081c 7FF4A5AE 		bne	.L160
 2193 0820 13E4     		b	.L94
 2194              	.L157:
 2195              		.loc 1 1734 0
 2196 0822 3888     		ldrh	r0, [r7]
 2197 0824 18B1     		cbz	r0, .L189
 2198              		.loc 1 1735 0
 2199 0826 0293     		str	r3, [sp, #8]
 2200 0828 FFF7FEFF 		bl	uip_add_rcv_nxt
 2201              	.LVL109:
 2202 082c 029B     		ldr	r3, [sp, #8]
 2203              	.L189:
 2204              		.loc 1 1737 0
 2205 082e 94F82F20 		ldrb	r2, [r4, #47]	@ zero_extendqisi2
 2206 0832 12F00102 		ands	r2, r2, #1
 2207 0836 00F0AA80 		beq	.L190
 2208              		.loc 1 1738 0
 2209 083a 1A78     		ldrb	r2, [r3]	@ zero_extendqisi2
 2210 083c D007     		lsls	r0, r2, #31
 2211 083e 40F19E80 		bpl	.L191
ARM GAS  /tmp/cc7TW52V.s 			page 40


 2212              		.loc 1 1740 0
 2213 0842 0022     		movs	r2, #0
 2214              		.loc 1 1739 0
 2215 0844 0721     		movs	r1, #7
 2216 0846 7176     		strb	r1, [r6, #25]
 2217              		.loc 1 1740 0
 2218 0848 B276     		strb	r2, [r6, #26]
 2219              		.loc 1 1741 0
 2220 084a 3282     		strh	r2, [r6, #16]	@ movhi
 2221              	.L293:
 2222              		.loc 1 1766 0
 2223 084c 0120     		movs	r0, #1
 2224 084e 0293     		str	r3, [sp, #8]
 2225 0850 FFF7FEFF 		bl	uip_add_rcv_nxt
 2226              	.LVL110:
 2227              		.loc 1 1767 0
 2228 0854 029B     		ldr	r3, [sp, #8]
 2229 0856 1022     		movs	r2, #16
 2230 0858 1A70     		strb	r2, [r3]
 2231              		.loc 1 1768 0
 2232 085a 0293     		str	r3, [sp, #8]
 2233 085c FFF7FEFF 		bl	modbus_tcp_gateway
 2234              	.LVL111:
 2235              		.loc 1 1769 0
 2236 0860 029B     		ldr	r3, [sp, #8]
 2237 0862 82E6     		b	.L160
 2238              	.L156:
 2239              		.loc 1 1559 0
 2240 0864 94F82F00 		ldrb	r0, [r4, #47]	@ zero_extendqisi2
 2241 0868 10F0010F 		tst	r0, #1
 2242 086c 2ED0     		beq	.L174
 2243              		.loc 1 1559 0 is_stmt 0 discriminator 1
 2244 086e 11F0100F 		tst	r1, #16
 2245 0872 2BD1     		bne	.L174
 2246              		.loc 1 1560 0 is_stmt 1
 2247 0874 328A     		ldrh	r2, [r6, #16]
 2248 0876 002A     		cmp	r2, #0
 2249 0878 7FF4E7AB 		bne	.L94
 2250              		.loc 1 1563 0
 2251 087c 3888     		ldrh	r0, [r7]
 2252 087e 0293     		str	r3, [sp, #8]
 2253 0880 0130     		adds	r0, r0, #1
 2254 0882 80B2     		uxth	r0, r0
 2255 0884 FFF7FEFF 		bl	uip_add_rcv_nxt
 2256              	.LVL112:
 2257              		.loc 1 1564 0
 2258 0888 029B     		ldr	r3, [sp, #8]
 2259              		.loc 1 1565 0
 2260 088a 3888     		ldrh	r0, [r7]
 2261              		.loc 1 1564 0
 2262 088c 1A78     		ldrb	r2, [r3]	@ zero_extendqisi2
 2263 088e 42F01001 		orr	r1, r2, #16
 2264 0892 1970     		strb	r1, [r3]
 2265 0894 0749     		ldr	r1, .L321
 2266              		.loc 1 1565 0
 2267 0896 10B1     		cbz	r0, .L175
 2268              		.loc 1 1566 0
ARM GAS  /tmp/cc7TW52V.s 			page 41


 2269 0898 42F01202 		orr	r2, r2, #18
 2270 089c 0A70     		strb	r2, [r1]
 2271              	.L175:
 2272              		.loc 1 1568 0
 2273 089e 0293     		str	r3, [sp, #8]
 2274 08a0 FFF7FEFF 		bl	modbus_tcp_gateway
 2275              	.LVL113:
 2276              		.loc 1 1569 0
 2277 08a4 0120     		movs	r0, #1
 2278              		.loc 1 1570 0
 2279 08a6 0821     		movs	r1, #8
 2280              		.loc 1 1571 0
 2281 08a8 0022     		movs	r2, #0
 2282              		.loc 1 1569 0
 2283 08aa 3082     		strh	r0, [r6, #16]	@ movhi
 2284              		.loc 1 1570 0
 2285 08ac 7176     		strb	r1, [r6, #25]
 2286              		.loc 1 1571 0
 2287 08ae F276     		strb	r2, [r6, #27]
 2288 08b0 029B     		ldr	r3, [sp, #8]
 2289 08b2 22E5     		b	.L104
 2290              	.L322:
 2291              		.align	2
 2292              	.L321:
 2293 08b4 00000000 		.word	.LANCHOR11
 2294 08b8 00000000 		.word	.LANCHOR0
 2295 08bc 00000000 		.word	.LANCHOR16
 2296 08c0 00000000 		.word	.LANCHOR4
 2297 08c4 00000000 		.word	.LANCHOR2
 2298 08c8 00000000 		.word	.LANCHOR6
 2299              	.L174:
 2300              		.loc 1 1579 0
 2301 08cc 8006     		lsls	r0, r0, #26
 2302 08ce 0DD5     		bpl	.L176
 2303              		.loc 1 1593 0
 2304 08d0 94F83490 		ldrb	r9, [r4, #52]	@ zero_extendqisi2
 2305 08d4 94F83550 		ldrb	r5, [r4, #53]	@ zero_extendqisi2
 2306 08d8 1068     		ldr	r0, [r2]
 2307              		.loc 1 1594 0
 2308 08da B7F800C0 		ldrh	ip, [r7]
 2309              		.loc 1 1593 0
 2310 08de 45EA0925 		orr	r5, r5, r9, lsl #8
 2311 08e2 2844     		add	r0, r0, r5
 2312              		.loc 1 1594 0
 2313 08e4 C5EB0C05 		rsb	r5, r5, ip
 2314              		.loc 1 1593 0
 2315 08e8 1060     		str	r0, [r2]
 2316              		.loc 1 1594 0
 2317 08ea 3D80     		strh	r5, [r7]	@ movhi
 2318              	.L176:
 2319              		.loc 1 1603 0
 2320 08ec 3888     		ldrh	r0, [r7]
 2321 08ee 58B1     		cbz	r0, .L177
 2322              		.loc 1 1603 0 is_stmt 0 discriminator 1
 2323 08f0 CD06     		lsls	r5, r1, #27
 2324 08f2 09D4     		bmi	.L177
 2325              		.loc 1 1604 0 is_stmt 1
ARM GAS  /tmp/cc7TW52V.s 			page 42


 2326 08f4 1978     		ldrb	r1, [r3]	@ zero_extendqisi2
 2327 08f6 41F00201 		orr	r1, r1, #2
 2328 08fa 1970     		strb	r1, [r3]
 2329              		.loc 1 1605 0
 2330 08fc 0392     		str	r2, [sp, #12]
 2331 08fe 0293     		str	r3, [sp, #8]
 2332 0900 FFF7FEFF 		bl	uip_add_rcv_nxt
 2333              	.LVL114:
 2334 0904 029B     		ldr	r3, [sp, #8]
 2335 0906 039A     		ldr	r2, [sp, #12]
 2336              	.L177:
 2337              		.loc 1 1620 0
 2338 0908 94F83000 		ldrb	r0, [r4, #48]	@ zero_extendqisi2
 2339 090c 94F83110 		ldrb	r1, [r4, #49]	@ zero_extendqisi2
 2340 0910 A94D     		ldr	r5, .L323
 2341 0912 01EB0021 		add	r1, r1, r0, lsl #8
 2342              		.loc 1 1621 0
 2343 0916 B08A     		ldrh	r0, [r6, #20]
 2344              		.loc 1 1620 0
 2345 0918 89B2     		uxth	r1, r1
 2346              		.loc 1 1621 0
 2347 091a 8142     		cmp	r1, r0
 2348              		.loc 1 1620 0
 2349 091c 0595     		str	r5, [sp, #20]
 2350 091e 2980     		strh	r1, [r5]	@ movhi
 2351              		.loc 1 1621 0
 2352 0920 00D8     		bhi	.L178
 2353              		.loc 1 1621 0 is_stmt 0 discriminator 1
 2354 0922 19B9     		cbnz	r1, .L179
 2355              	.L178:
 2356              		.loc 1 1623 0 is_stmt 1
 2357 0924 DDF814C0 		ldr	ip, [sp, #20]
 2358 0928 ACF80000 		strh	r0, [ip]	@ movhi
 2359              	.L179:
 2360              		.loc 1 1625 0
 2361 092c 0599     		ldr	r1, [sp, #20]
 2362 092e 0888     		ldrh	r0, [r1]
 2363              		.loc 1 1643 0
 2364 0930 1978     		ldrb	r1, [r3]	@ zero_extendqisi2
 2365              		.loc 1 1625 0
 2366 0932 7082     		strh	r0, [r6, #18]	@ movhi
 2367              		.loc 1 1643 0
 2368 0934 8907     		lsls	r1, r1, #30
 2369 0936 3FF488AB 		beq	.L94
 2370              		.loc 1 1644 0
 2371 093a A048     		ldr	r0, .L323+4
 2372 093c 0021     		movs	r1, #0
 2373 093e 0180     		strh	r1, [r0]	@ movhi
 2374              		.loc 1 1645 0
 2375 0940 0490     		str	r0, [sp, #16]
 2376 0942 0392     		str	r2, [sp, #12]
 2377 0944 0293     		str	r3, [sp, #8]
 2378 0946 FFF7FEFF 		bl	modbus_tcp_gateway
 2379              	.LVL115:
 2380 094a 029B     		ldr	r3, [sp, #8]
 2381 094c 039A     		ldr	r2, [sp, #12]
 2382 094e 0498     		ldr	r0, [sp, #16]
ARM GAS  /tmp/cc7TW52V.s 			page 43


 2383 0950 FFF7C9BB 		b	.L88
 2384              	.L155:
 2385              		.loc 1 1491 0
 2386 0954 1978     		ldrb	r1, [r3]	@ zero_extendqisi2
 2387 0956 C907     		lsls	r1, r1, #31
 2388 0958 06D5     		bpl	.L163
 2389              		.loc 1 1492 0 discriminator 1
 2390 095a 94F82F00 		ldrb	r0, [r4, #47]	@ zero_extendqisi2
 2391 095e 9849     		ldr	r1, .L323+8
 2392              		.loc 1 1491 0 discriminator 1
 2393 0960 00F03F00 		and	r0, r0, #63
 2394 0964 1228     		cmp	r0, #18
 2395 0966 42D0     		beq	.L310
 2396              	.L163:
 2397              		.loc 1 1540 0
 2398 0968 2022     		movs	r2, #32
 2399 096a 1A70     		strb	r2, [r3]
 2400              		.loc 1 1541 0
 2401 096c 0293     		str	r3, [sp, #8]
 2402 096e FFF7FEFF 		bl	modbus_tcp_gateway
 2403              	.LVL116:
 2404              		.loc 1 1543 0
 2405 0972 D9F80020 		ldr	r2, [r9]
 2406 0976 0021     		movs	r1, #0
 2407 0978 5176     		strb	r1, [r2, #25]
 2408              		.loc 1 1544 0
 2409 097a 029B     		ldr	r3, [sp, #8]
 2410 097c 2AE6     		b	.L124
 2411              	.L191:
 2412              		.loc 1 1743 0
 2413 097e 0622     		movs	r2, #6
 2414 0980 7276     		strb	r2, [r6, #25]
 2415 0982 63E7     		b	.L293
 2416              	.L309:
 2417              		.loc 1 1764 0
 2418 0984 0721     		movs	r1, #7
 2419              		.loc 1 1765 0
 2420 0986 0022     		movs	r2, #0
 2421              		.loc 1 1764 0
 2422 0988 7176     		strb	r1, [r6, #25]
 2423              		.loc 1 1765 0
 2424 098a B276     		strb	r2, [r6, #26]
 2425 098c 5EE7     		b	.L293
 2426              	.L190:
 2427              		.loc 1 1749 0
 2428 098e 1978     		ldrb	r1, [r3]	@ zero_extendqisi2
 2429 0990 C907     		lsls	r1, r1, #31
 2430 0992 7FF541AF 		bpl	.L195
 2431              		.loc 1 1750 0
 2432 0996 0521     		movs	r1, #5
 2433              		.loc 1 1751 0
 2434 0998 3282     		strh	r2, [r6, #16]	@ movhi
 2435              		.loc 1 1750 0
 2436 099a 7176     		strb	r1, [r6, #25]
 2437              		.loc 1 1752 0
 2438 099c FFF755BB 		b	.L94
 2439              	.L305:
ARM GAS  /tmp/cc7TW52V.s 			page 44


 2440              		.loc 1 1389 0
 2441 09a0 7076     		strb	r0, [r6, #25]
 2442              		.loc 1 1391 0
 2443 09a2 2022     		movs	r2, #32
 2444 09a4 1A70     		strb	r2, [r3]
 2445              		.loc 1 1392 0
 2446 09a6 0293     		str	r3, [sp, #8]
 2447 09a8 FFF7FEFF 		bl	modbus_tcp_gateway
 2448              	.LVL117:
 2449              		.loc 1 1393 0
 2450 09ac 029B     		ldr	r3, [sp, #8]
 2451 09ae FFF74CBB 		b	.L94
 2452              	.L153:
 2453              		.loc 1 1472 0
 2454 09b2 1878     		ldrb	r0, [r3]	@ zero_extendqisi2
 2455 09b4 8349     		ldr	r1, .L323+12
 2456 09b6 C007     		lsls	r0, r0, #31
 2457 09b8 7FF547AB 		bpl	.L94
 2458              		.loc 1 1476 0
 2459 09bc 3888     		ldrh	r0, [r7]
 2460              		.loc 1 1473 0
 2461 09be 4FF0030C 		mov	ip, #3
 2462              		.loc 1 1474 0
 2463 09c2 4FF0400E 		mov	lr, #64
 2464              		.loc 1 1475 0
 2465 09c6 0025     		movs	r5, #0
 2466              		.loc 1 1473 0
 2467 09c8 86F819C0 		strb	ip, [r6, #25]
 2468              		.loc 1 1474 0
 2469 09cc 81F800E0 		strb	lr, [r1]
 2470              		.loc 1 1475 0
 2471 09d0 3582     		strh	r5, [r6, #16]	@ movhi
 2472              		.loc 1 1476 0
 2473 09d2 38B1     		cbz	r0, .L162
 2474              		.loc 1 1477 0
 2475 09d4 4225     		movs	r5, #66
 2476 09d6 0D70     		strb	r5, [r1]
 2477              		.loc 1 1478 0
 2478 09d8 0392     		str	r2, [sp, #12]
 2479 09da 0293     		str	r3, [sp, #8]
 2480 09dc FFF7FEFF 		bl	uip_add_rcv_nxt
 2481              	.LVL118:
 2482 09e0 029B     		ldr	r3, [sp, #8]
 2483 09e2 039A     		ldr	r2, [sp, #12]
 2484              	.L162:
 2485              		.loc 1 1480 0
 2486 09e4 7548     		ldr	r0, .L323+4
 2487 09e6 0021     		movs	r1, #0
 2488 09e8 0180     		strh	r1, [r0]	@ movhi
 2489 09ea FFF774BB 		b	.L291
 2490              	.L310:
 2491              		.loc 1 1495 0
 2492 09ee 91F82E10 		ldrb	r1, [r1, #46]	@ zero_extendqisi2
 2493 09f2 01F0F000 		and	r0, r1, #240
 2494 09f6 5028     		cmp	r0, #80
 2495 09f8 40F30981 		ble	.L165
 2496              		.loc 1 1496 0
ARM GAS  /tmp/cc7TW52V.s 			page 45


 2497 09fc 4FEA111C 		lsr	ip, r1, #4
 2498 0a00 7149     		ldr	r1, .L323+16
 2499 0a02 ACF1050C 		sub	ip, ip, #5
 2500 0a06 0020     		movs	r0, #0
 2501 0a08 0D78     		ldrb	r5, [r1]	@ zero_extendqisi2
 2502 0a0a 4FEA8C0C 		lsl	ip, ip, #2
 2503 0a0e 8BF80000 		strb	r0, [fp]
 2504              	.L166:
 2505              		.loc 1 1496 0 is_stmt 0 discriminator 1
 2506 0a12 6045     		cmp	r0, ip
 2507 0a14 80F21B81 		bge	.L290
 2508              		.loc 1 1497 0 is_stmt 1
 2509 0a18 04EB000E 		add	lr, r4, r0
 2510 0a1c 9EF83650 		ldrb	r5, [lr, #54]	@ zero_extendqisi2
 2511              		.loc 1 1517 0
 2512 0a20 F146     		mov	r9, lr
 2513              		.loc 1 1498 0
 2514 0a22 002D     		cmp	r5, #0
 2515 0a24 00F01381 		beq	.L290
 2516              		.loc 1 1501 0
 2517 0a28 012D     		cmp	r5, #1
 2518 0a2a 00F01481 		beq	.L311
 2519              		.loc 1 1504 0
 2520 0a2e 022D     		cmp	r5, #2
 2521 0a30 00F0D080 		beq	.L312
 2522              	.L171:
 2523              		.loc 1 1517 0
 2524 0a34 99F837E0 		ldrb	lr, [r9, #55]	@ zero_extendqisi2
 2525              		.loc 1 1522 0
 2526 0a38 0EEB0009 		add	r9, lr, r0
 2527              		.loc 1 1517 0
 2528 0a3c BEF1000F 		cmp	lr, #0
 2529 0a40 00F00581 		beq	.L290
 2530              		.loc 1 1522 0
 2531 0a44 5FFA89F0 		uxtb	r0, r9
 2532 0a48 E3E7     		b	.L166
 2533              	.L307:
 2534              		.loc 1 1411 0
 2535 0a4a 5D48     		ldr	r0, .L323+8
 2536 0a4c B0F828C0 		ldrh	ip, [r0, #40]
 2537 0a50 7089     		ldrh	r0, [r6, #10]
 2538 0a52 8445     		cmp	ip, r0
 2539 0a54 7FF489AD 		bne	.L160
 2540 0a58 42E6     		b	.L145
 2541              	.L125:
 2542              	.LVL119:
 2543              		.loc 1 1278 0
 2544 0a5a 1E46     		mov	r6, r3
 2545 0a5c DFF87081 		ldr	r8, .L323+24
 2546              		.loc 1 1280 0
 2547 0a60 4FF0280C 		mov	ip, #40
 2548 0a64 CDF81CB0 		str	fp, [sp, #28]
 2549 0a68 02E0     		b	.L198
 2550              	.LVL120:
 2551              	.L132:
 2552              		.loc 1 1279 0
 2553 0a6a 092A     		cmp	r2, #9
ARM GAS  /tmp/cc7TW52V.s 			page 46


 2554 0a6c 7AD8     		bhi	.L313
 2555 0a6e 1346     		mov	r3, r2
 2556              	.LVL121:
 2557              	.L198:
 2558              		.loc 1 1280 0
 2559 0a70 0CFB0381 		mla	r1, ip, r3, r8
 2560 0a74 01F11800 		add	r0, r1, #24
 2561 0a78 90F801B0 		ldrb	fp, [r0, #1]	@ zero_extendqisi2
 2562              		.loc 1 1279 0
 2563 0a7c 5A1C     		adds	r2, r3, #1
 2564 0a7e D2B2     		uxtb	r2, r2
 2565              		.loc 1 1280 0
 2566 0a80 BBF1000F 		cmp	fp, #0
 2567 0a84 0AD0     		beq	.L314
 2568              		.loc 1 1284 0
 2569 0a86 BBF1070F 		cmp	fp, #7
 2570 0a8a EED1     		bne	.L132
 2571              		.loc 1 1285 0
 2572 0a8c 1EB1     		cbz	r6, .L133
 2573              		.loc 1 1285 0 is_stmt 0 discriminator 1
 2574 0a8e 8078     		ldrb	r0, [r0, #2]	@ zero_extendqisi2
 2575 0a90 B17E     		ldrb	r1, [r6, #26]	@ zero_extendqisi2
 2576 0a92 8842     		cmp	r0, r1
 2577 0a94 E9D9     		bls	.L132
 2578              	.L133:
 2579              		.loc 1 1287 0 is_stmt 1
 2580 0a96 0CFB0386 		mla	r6, ip, r3, r8
 2581              	.LVL122:
 2582 0a9a E6E7     		b	.L132
 2583              	.L314:
 2584 0a9c DDF81CB0 		ldr	fp, [sp, #28]
 2585              		.loc 1 1281 0
 2586 0aa0 0E46     		mov	r6, r1
 2587              	.LVL123:
 2588 0aa2 8BF80030 		strb	r3, [fp]
 2589              	.LVL124:
 2590              	.L131:
 2591              		.loc 1 1307 0
 2592 0aa6 DDF818C0 		ldr	ip, [sp, #24]
 2593              		.loc 1 1303 0
 2594 0aaa 0322     		movs	r2, #3
 2595              		.loc 1 1304 0
 2596 0aac 4FF00008 		mov	r8, #0
 2597              		.loc 1 1305 0
 2598 0ab0 0421     		movs	r1, #4
 2599              		.loc 1 1312 0
 2600 0ab2 464B     		ldr	r3, .L323+20
 2601              		.loc 1 1303 0
 2602 0ab4 B276     		strb	r2, [r6, #26]
 2603 0ab6 3276     		strb	r2, [r6, #24]
 2604              		.loc 1 1305 0
 2605 0ab8 F175     		strb	r1, [r6, #23]
 2606              		.loc 1 1307 0
 2607 0aba A6F804C0 		strh	ip, [r6, #4]	@ movhi
 2608              		.loc 1 1304 0
 2609 0abe 86F81680 		strb	r8, [r6, #22]
 2610              		.loc 1 1306 0
ARM GAS  /tmp/cc7TW52V.s 			page 47


 2611 0ac2 86F81B80 		strb	r8, [r6, #27]
 2612              		.loc 1 1308 0
 2613 0ac6 B4F822E0 		ldrh	lr, [r4, #34]
 2614              		.loc 1 1312 0
 2615 0aca 1878     		ldrb	r0, [r3]	@ zero_extendqisi2
 2616              		.loc 1 1313 0
 2617 0acc 5978     		ldrb	r1, [r3, #1]	@ zero_extendqisi2
 2618              		.loc 1 1314 0
 2619 0ace 9A78     		ldrb	r2, [r3, #2]	@ zero_extendqisi2
 2620              		.loc 1 1308 0
 2621 0ad0 A6F806E0 		strh	lr, [r6, #6]	@ movhi
 2622              		.loc 1 1315 0
 2623 0ad4 DB78     		ldrb	r3, [r3, #3]	@ zero_extendqisi2
 2624              		.loc 1 1309 0
 2625 0ad6 B4F81AE0 		ldrh	lr, [r4, #26]
 2626              		.loc 1 1312 0
 2627 0ada 3073     		strb	r0, [r6, #12]
 2628              		.loc 1 1309 0
 2629 0adc A08B     		ldrh	r0, [r4, #28]
 2630              		.loc 1 1313 0
 2631 0ade 7173     		strb	r1, [r6, #13]
 2632              		.loc 1 1314 0
 2633 0ae0 B273     		strb	r2, [r6, #14]
 2634              		.loc 1 1319 0
 2635 0ae2 94F82910 		ldrb	r1, [r4, #41]	@ zero_extendqisi2
 2636              		.loc 1 1320 0
 2637 0ae6 94F82820 		ldrb	r2, [r4, #40]	@ zero_extendqisi2
 2638              		.loc 1 1315 0
 2639 0aea F373     		strb	r3, [r6, #15]
 2640              		.loc 1 1309 0
 2641 0aec A6F800E0 		strh	lr, [r6]	@ movhi
 2642              		.loc 1 1321 0
 2643 0af0 94F82730 		ldrb	r3, [r4, #39]	@ zero_extendqisi2
 2644              		.loc 1 1322 0
 2645 0af4 94F826E0 		ldrb	lr, [r4, #38]	@ zero_extendqisi2
 2646              		.loc 1 1309 0
 2647 0af8 7080     		strh	r0, [r6, #2]	@ movhi
 2648              		.loc 1 1310 0
 2649 0afa 0120     		movs	r0, #1
 2650              		.loc 1 1320 0
 2651 0afc B272     		strb	r2, [r6, #10]
 2652              		.loc 1 1321 0
 2653 0afe 7372     		strb	r3, [r6, #9]
 2654              		.loc 1 1319 0
 2655 0b00 F172     		strb	r1, [r6, #11]
 2656              		.loc 1 1322 0
 2657 0b02 86F808E0 		strb	lr, [r6, #8]
 2658              		.loc 1 1310 0
 2659 0b06 7076     		strb	r0, [r6, #25]
 2660              		.loc 1 1316 0
 2661 0b08 3082     		strh	r0, [r6, #16]	@ movhi
 2662              		.loc 1 1300 0
 2663 0b0a C9F80060 		str	r6, [r9]
 2664              		.loc 1 1323 0
 2665 0b0e FFF7FEFF 		bl	uip_add_rcv_nxt
 2666              	.LVL125:
 2667              		.loc 1 1326 0
ARM GAS  /tmp/cc7TW52V.s 			page 48


 2668 0b12 94F82E30 		ldrb	r3, [r4, #46]	@ zero_extendqisi2
 2669 0b16 03F0F002 		and	r2, r3, #240
 2670 0b1a 502A     		cmp	r2, #80
 2671 0b1c 7FF70DAC 		ble	.L100
 2672              		.loc 1 1327 0
 2673 0b20 1B09     		lsrs	r3, r3, #4
 2674 0b22 2949     		ldr	r1, .L323+16
 2675 0b24 A3F1050E 		sub	lr, r3, #5
 2676 0b28 4FEA8E0E 		lsl	lr, lr, #2
 2677 0b2c 8BF80080 		strb	r8, [fp]
 2678 0b30 4346     		mov	r3, r8
 2679 0b32 0A78     		ldrb	r2, [r1]	@ zero_extendqisi2
 2680 0b34 0FE0     		b	.L135
 2681              	.L141:
 2682              		.loc 1 1328 0
 2683 0b36 E018     		adds	r0, r4, r3
 2684 0b38 90F83620 		ldrb	r2, [r0, #54]	@ zero_extendqisi2
 2685              		.loc 1 1348 0
 2686 0b3c 8446     		mov	ip, r0
 2687              		.loc 1 1329 0
 2688 0b3e 62B1     		cbz	r2, .L289
 2689              		.loc 1 1332 0
 2690 0b40 012A     		cmp	r2, #1
 2691 0b42 35D0     		beq	.L315
 2692              		.loc 1 1335 0
 2693 0b44 022A     		cmp	r2, #2
 2694 0b46 19D0     		beq	.L316
 2695              	.L139:
 2696              		.loc 1 1348 0
 2697 0b48 9CF83700 		ldrb	r0, [ip, #55]	@ zero_extendqisi2
 2698              		.loc 1 1353 0
 2699 0b4c 00EB030C 		add	ip, r0, r3
 2700              		.loc 1 1348 0
 2701 0b50 18B1     		cbz	r0, .L289
 2702              		.loc 1 1353 0
 2703 0b52 5FFA8CF3 		uxtb	r3, ip
 2704              	.L135:
 2705              		.loc 1 1327 0 discriminator 1
 2706 0b56 7345     		cmp	r3, lr
 2707 0b58 EDDB     		blt	.L141
 2708              	.L289:
 2709 0b5a 8BF80030 		strb	r3, [fp]
 2710 0b5e 0A70     		strb	r2, [r1]
 2711 0b60 FFF7EBBB 		b	.L100
 2712              	.L313:
 2713 0b64 DDF81CB0 		ldr	fp, [sp, #28]
 2714 0b68 8BF80020 		strb	r2, [fp]
 2715              		.loc 1 1292 0
 2716 0b6c 002E     		cmp	r6, #0
 2717 0b6e 9AD1     		bne	.L131
 2718              		.loc 1 1296 0
 2719 0b70 2A8D     		ldrh	r2, [r5, #40]
 2720 0b72 144B     		ldr	r3, .L323+12
 2721 0b74 0132     		adds	r2, r2, #1
 2722 0b76 2A85     		strh	r2, [r5, #40]	@ movhi
 2723              		.loc 1 1298 0
 2724 0b78 FFF767BA 		b	.L94
ARM GAS  /tmp/cc7TW52V.s 			page 49


 2725              	.L316:
 2726              		.loc 1 1335 0 discriminator 1
 2727 0b7c 90F83780 		ldrb	r8, [r0, #55]	@ zero_extendqisi2
 2728 0b80 B8F1040F 		cmp	r8, #4
 2729 0b84 E0D1     		bne	.L139
 2730              		.loc 1 1338 0
 2731 0b86 90F838E0 		ldrb	lr, [r0, #56]	@ zero_extendqisi2
 2732 0b8a 90F83900 		ldrb	r0, [r0, #57]	@ zero_extendqisi2
 2733 0b8e 0A70     		strb	r2, [r1]
 2734 0b90 40EA0E20 		orr	r0, r0, lr, lsl #8
 2735 0b94 0599     		ldr	r1, [sp, #20]
 2736 0b96 8BF80030 		strb	r3, [fp]
 2737              		.loc 1 1340 0
 2738 0b9a B0F5B76F 		cmp	r0, #1464
 2739 0b9e 34BF     		ite	cc
 2740 0ba0 0346     		movcc	r3, r0
 2741 0ba2 4FF4B763 		movcs	r3, #1464
 2742              		.loc 1 1338 0
 2743 0ba6 0880     		strh	r0, [r1]	@ movhi
 2744              		.loc 1 1340 0
 2745 0ba8 7382     		strh	r3, [r6, #18]	@ movhi
 2746 0baa B382     		strh	r3, [r6, #20]	@ movhi
 2747              		.loc 1 1344 0
 2748 0bac FFF7C5BB 		b	.L100
 2749              	.L315:
 2750              		.loc 1 1333 0
 2751 0bb0 0133     		adds	r3, r3, #1
 2752 0bb2 DBB2     		uxtb	r3, r3
 2753 0bb4 CFE7     		b	.L135
 2754              	.L324:
 2755 0bb6 00BF     		.align	2
 2756              	.L323:
 2757 0bb8 00000000 		.word	.LANCHOR16
 2758 0bbc 00000000 		.word	.LANCHOR13
 2759 0bc0 00000000 		.word	.LANCHOR0
 2760 0bc4 00000000 		.word	.LANCHOR11
 2761 0bc8 00000000 		.word	.LANCHOR17
 2762 0bcc 00000000 		.word	.LANCHOR8
 2763 0bd0 00000000 		.word	.LANCHOR5
 2764              	.L312:
 2765              		.loc 1 1504 0 discriminator 1
 2766 0bd4 9EF837A0 		ldrb	r10, [lr, #55]	@ zero_extendqisi2
 2767 0bd8 BAF1040F 		cmp	r10, #4
 2768 0bdc 7FF42AAF 		bne	.L171
 2769              		.loc 1 1507 0
 2770 0be0 9EF838C0 		ldrb	ip, [lr, #56]	@ zero_extendqisi2
 2771 0be4 9EF839E0 		ldrb	lr, [lr, #57]	@ zero_extendqisi2
 2772 0be8 DFF87490 		ldr	r9, .L325+4
 2773 0bec 4EEA0C2C 		orr	ip, lr, ip, lsl #8
 2774              		.loc 1 1510 0
 2775 0bf0 BCF5B76F 		cmp	ip, #1464
 2776 0bf4 34BF     		ite	cc
 2777 0bf6 E646     		movcc	lr, ip
 2778 0bf8 4FF4B76E 		movcs	lr, #1464
 2779 0bfc 8BF80000 		strb	r0, [fp]
 2780 0c00 0D70     		strb	r5, [r1]
 2781              		.loc 1 1507 0
ARM GAS  /tmp/cc7TW52V.s 			page 50


 2782 0c02 A9F800C0 		strh	ip, [r9]	@ movhi
 2783              		.loc 1 1510 0
 2784 0c06 A6F812E0 		strh	lr, [r6, #18]	@ movhi
 2785              		.loc 1 1509 0
 2786 0c0a A6F814E0 		strh	lr, [r6, #20]	@ movhi
 2787              	.L165:
 2788              		.loc 1 1529 0
 2789 0c0e 94F82850 		ldrb	r5, [r4, #40]	@ zero_extendqisi2
 2790              		.loc 1 1530 0
 2791 0c12 94F82900 		ldrb	r0, [r4, #41]	@ zero_extendqisi2
 2792              		.loc 1 1527 0
 2793 0c16 94F826C0 		ldrb	ip, [r4, #38]	@ zero_extendqisi2
 2794              		.loc 1 1528 0
 2795 0c1a 94F827E0 		ldrb	lr, [r4, #39]	@ zero_extendqisi2
 2796              		.loc 1 1526 0
 2797 0c1e 0321     		movs	r1, #3
 2798              		.loc 1 1529 0
 2799 0c20 B572     		strb	r5, [r6, #10]
 2800              		.loc 1 1530 0
 2801 0c22 F072     		strb	r0, [r6, #11]
 2802              		.loc 1 1526 0
 2803 0c24 7176     		strb	r1, [r6, #25]
 2804              		.loc 1 1527 0
 2805 0c26 86F808C0 		strb	ip, [r6, #8]
 2806              		.loc 1 1528 0
 2807 0c2a 86F809E0 		strb	lr, [r6, #9]
 2808              		.loc 1 1531 0
 2809 0c2e 0120     		movs	r0, #1
 2810 0c30 0293     		str	r3, [sp, #8]
 2811 0c32 0392     		str	r2, [sp, #12]
 2812 0c34 FFF7FEFF 		bl	uip_add_rcv_nxt
 2813              	.LVL126:
 2814              		.loc 1 1535 0
 2815 0c38 0848     		ldr	r0, .L325
 2816              		.loc 1 1533 0
 2817 0c3a 0021     		movs	r1, #0
 2818 0c3c 3182     		strh	r1, [r6, #16]	@ movhi
 2819              		.loc 1 1534 0
 2820 0c3e 3980     		strh	r1, [r7]	@ movhi
 2821              		.loc 1 1535 0
 2822 0c40 0180     		strh	r1, [r0]	@ movhi
 2823              		.loc 1 1532 0
 2824 0c42 029B     		ldr	r3, [sp, #8]
 2825 0c44 4225     		movs	r5, #66
 2826 0c46 1D70     		strb	r5, [r3]
 2827              		.loc 1 1536 0
 2828 0c48 0490     		str	r0, [sp, #16]
 2829 0c4a FFF746BA 		b	.L292
 2830              	.L290:
 2831 0c4e 8BF80000 		strb	r0, [fp]
 2832 0c52 0D70     		strb	r5, [r1]
 2833 0c54 DBE7     		b	.L165
 2834              	.L311:
 2835              		.loc 1 1502 0
 2836 0c56 0130     		adds	r0, r0, #1
 2837 0c58 C0B2     		uxtb	r0, r0
 2838 0c5a DAE6     		b	.L166
ARM GAS  /tmp/cc7TW52V.s 			page 51


 2839              	.L326:
 2840              		.align	2
 2841              	.L325:
 2842 0c5c 00000000 		.word	.LANCHOR13
 2843 0c60 00000000 		.word	.LANCHOR16
 2844              		.cfi_endproc
 2845              	.LFE13:
 2846              		.size	uip_process, .-uip_process
 2847 0c64 AFF30080 		.section	.text.htons,"ax",%progbits
 2847      AFF30080 
 2847      AFF30080 
 2848              		.align	2
 2849              		.p2align 4,,15
 2850              		.global	htons
 2851              		.thumb
 2852              		.thumb_func
 2853              		.type	htons, %function
 2854              	htons:
 2855              	.LFB14:
 2856              		.loc 1 1882 0
 2857              		.cfi_startproc
 2858              		@ args = 0, pretend = 0, frame = 0
 2859              		@ frame_needed = 0, uses_anonymous_args = 0
 2860              		@ link register save eliminated.
 2861              	.LVL127:
 2862 0000 40BA     		rev16	r0, r0
 2863              	.LVL128:
 2864              		.loc 1 1884 0
 2865 0002 80B2     		uxth	r0, r0
 2866 0004 7047     		bx	lr
 2867              		.cfi_endproc
 2868              	.LFE14:
 2869              		.size	htons, .-htons
 2870 0006 00BFAFF3 		.section	.text.uip_send,"ax",%progbits
 2870      0080AFF3 
 2870      0080
 2871              		.align	2
 2872              		.p2align 4,,15
 2873              		.global	uip_send
 2874              		.thumb
 2875              		.thumb_func
 2876              		.type	uip_send, %function
 2877              	uip_send:
 2878              	.LFB15:
 2879              		.loc 1 1888 0
 2880              		.cfi_startproc
 2881              		@ args = 0, pretend = 0, frame = 0
 2882              		@ frame_needed = 0, uses_anonymous_args = 0
 2883              		@ link register save eliminated.
 2884              	.LVL129:
 2885              		.loc 1 1889 0
 2886 0000 0A1E     		subs	r2, r1, #0
 2887              		.loc 1 1888 0
 2888 0002 0346     		mov	r3, r0
 2889              		.loc 1 1889 0
 2890 0004 09DD     		ble	.L328
 2891              		.loc 1 1891 0
ARM GAS  /tmp/cc7TW52V.s 			page 52


 2892 0006 0548     		ldr	r0, .L332
 2893              	.LVL130:
 2894              		.loc 1 1890 0
 2895 0008 0549     		ldr	r1, .L332+4
 2896              	.LVL131:
 2897              		.loc 1 1891 0
 2898 000a 0068     		ldr	r0, [r0]
 2899              		.loc 1 1890 0
 2900 000c 0A80     		strh	r2, [r1]	@ movhi
 2901              		.loc 1 1891 0
 2902 000e 8342     		cmp	r3, r0
 2903 0010 03D0     		beq	.L328
 2904              		.loc 1 1892 0
 2905 0012 1946     		mov	r1, r3
 2906 0014 92B2     		uxth	r2, r2
 2907              	.LVL132:
 2908 0016 FFF7FEBF 		b	memcpy
 2909              	.LVL133:
 2910              	.L328:
 2911 001a 7047     		bx	lr
 2912              	.L333:
 2913              		.align	2
 2914              	.L332:
 2915 001c 00000000 		.word	.LANCHOR10
 2916 0020 00000000 		.word	.LANCHOR13
 2917              		.cfi_endproc
 2918              	.LFE15:
 2919              		.size	uip_send, .-uip_send
 2920              		.global	uip_stat
 2921              		.global	uip_acc32
 2922              		.global	uip_listenports
 2923              		.global	uip_conns
 2924              		.global	uip_conn
 2925              		.global	uip_flags
 2926              		.global	uip_slen
 2927              		.global	uip_len
 2928              		.global	uip_sappdata
 2929              		.global	uip_appdata
 2930              		.global	uip_buf
 2931              		.global	uip_ethaddr
 2932              		.global	uip_netmask
 2933              		.global	uip_draddr
 2934              		.global	uip_hostaddr
 2935 0024 AFF30080 		.section	.bss.uip_conn,"aw",%nobits
 2935      AFF30080 
 2935      AFF30080 
 2936              		.align	2
 2937              		.set	.LANCHOR3,. + 0
 2938              		.type	uip_conn, %object
 2939              		.size	uip_conn, 4
 2940              	uip_conn:
 2941 0000 00000000 		.space	4
 2942              		.section	.bss.uip_conns,"aw",%nobits
 2943              		.align	2
 2944              		.set	.LANCHOR5,. + 0
 2945              		.type	uip_conns, %object
 2946              		.size	uip_conns, 400
ARM GAS  /tmp/cc7TW52V.s 			page 53


 2947              	uip_conns:
 2948 0000 00000000 		.space	400
 2948      00000000 
 2948      00000000 
 2948      00000000 
 2948      00000000 
 2949              		.section	.bss.uip_netmask,"aw",%nobits
 2950              		.align	2
 2951              		.type	uip_netmask, %object
 2952              		.size	uip_netmask, 4
 2953              	uip_netmask:
 2954 0000 00000000 		.space	4
 2955              		.section	.bss.uip_len,"aw",%nobits
 2956              		.align	1
 2957              		.set	.LANCHOR12,. + 0
 2958              		.type	uip_len, %object
 2959              		.size	uip_len, 2
 2960              	uip_len:
 2961 0000 0000     		.space	2
 2962              		.section	.bss.ipid,"aw",%nobits
 2963              		.align	1
 2964              		.set	.LANCHOR1,. + 0
 2965              		.type	ipid, %object
 2966              		.size	ipid, 2
 2967              	ipid:
 2968 0000 0000     		.space	2
 2969              		.section	.bss.uip_draddr,"aw",%nobits
 2970              		.align	2
 2971              		.type	uip_draddr, %object
 2972              		.size	uip_draddr, 4
 2973              	uip_draddr:
 2974 0000 00000000 		.space	4
 2975              		.section	.bss.uip_slen,"aw",%nobits
 2976              		.align	1
 2977              		.set	.LANCHOR13,. + 0
 2978              		.type	uip_slen, %object
 2979              		.size	uip_slen, 2
 2980              	uip_slen:
 2981 0000 0000     		.space	2
 2982              		.section	.bss.tmp16,"aw",%nobits
 2983              		.align	1
 2984              		.set	.LANCHOR16,. + 0
 2985              		.type	tmp16, %object
 2986              		.size	tmp16, 2
 2987              	tmp16:
 2988 0000 0000     		.space	2
 2989              		.section	.bss.uip_buf,"aw",%nobits
 2990              		.align	2
 2991              		.set	.LANCHOR0,. + 0
 2992              		.type	uip_buf, %object
 2993              		.size	uip_buf, 1520
 2994              	uip_buf:
 2995 0000 00000000 		.space	1520
 2995      00000000 
 2995      00000000 
 2995      00000000 
 2995      00000000 
ARM GAS  /tmp/cc7TW52V.s 			page 54


 2996              		.section	.bss.uip_appdata,"aw",%nobits
 2997              		.align	2
 2998              		.set	.LANCHOR9,. + 0
 2999              		.type	uip_appdata, %object
 3000              		.size	uip_appdata, 4
 3001              	uip_appdata:
 3002 0000 00000000 		.space	4
 3003              		.section	.bss.iss,"aw",%nobits
 3004              		.align	2
 3005              		.set	.LANCHOR8,. + 0
 3006              		.type	iss, %object
 3007              		.size	iss, 4
 3008              	iss:
 3009 0000 00000000 		.space	4
 3010              		.section	.bss.uip_hostaddr,"aw",%nobits
 3011              		.align	2
 3012              		.set	.LANCHOR15,. + 0
 3013              		.type	uip_hostaddr, %object
 3014              		.size	uip_hostaddr, 4
 3015              	uip_hostaddr:
 3016 0000 00000000 		.space	4
 3017              		.section	.bss.uip_flags,"aw",%nobits
 3018              		.set	.LANCHOR11,. + 0
 3019              		.type	uip_flags, %object
 3020              		.size	uip_flags, 1
 3021              	uip_flags:
 3022 0000 00       		.space	1
 3023              		.section	.bss.uip_acc32,"aw",%nobits
 3024              		.align	2
 3025              		.set	.LANCHOR2,. + 0
 3026              		.type	uip_acc32, %object
 3027              		.size	uip_acc32, 4
 3028              	uip_acc32:
 3029 0000 00000000 		.space	4
 3030              		.section	.bss.lastport,"aw",%nobits
 3031              		.align	1
 3032              		.set	.LANCHOR7,. + 0
 3033              		.type	lastport, %object
 3034              		.size	lastport, 2
 3035              	lastport:
 3036 0000 0000     		.space	2
 3037              		.section	.bss.uip_stat,"aw",%nobits
 3038              		.align	2
 3039              		.set	.LANCHOR14,. + 0
 3040              		.type	uip_stat, %object
 3041              		.size	uip_stat, 44
 3042              	uip_stat:
 3043 0000 00000000 		.space	44
 3043      00000000 
 3043      00000000 
 3043      00000000 
 3043      00000000 
 3044              		.section	.bss.uip_ethaddr,"aw",%nobits
 3045              		.align	2
 3046              		.type	uip_ethaddr, %object
 3047              		.size	uip_ethaddr, 6
 3048              	uip_ethaddr:
ARM GAS  /tmp/cc7TW52V.s 			page 55


 3049 0000 00000000 		.space	6
 3049      0000
 3050 0006 0000     		.section	.bss.c,"aw",%nobits
 3051              		.set	.LANCHOR6,. + 0
 3052              		.type	c, %object
 3053              		.size	c, 1
 3054              	c:
 3055 0000 00       		.space	1
 3056              		.section	.bss.uip_listenports,"aw",%nobits
 3057              		.align	2
 3058              		.set	.LANCHOR4,. + 0
 3059              		.type	uip_listenports, %object
 3060              		.size	uip_listenports, 2
 3061              	uip_listenports:
 3062 0000 0000     		.space	2
 3063 0002 0000     		.section	.bss.uip_sappdata,"aw",%nobits
 3064              		.align	2
 3065              		.set	.LANCHOR10,. + 0
 3066              		.type	uip_sappdata, %object
 3067              		.size	uip_sappdata, 4
 3068              	uip_sappdata:
 3069 0000 00000000 		.space	4
 3070              		.section	.bss.opt,"aw",%nobits
 3071              		.set	.LANCHOR17,. + 0
 3072              		.type	opt, %object
 3073              		.size	opt, 1
 3074              	opt:
 3075 0000 00       		.space	1
 3076              		.text
 3077              	.Letext0:
 3078              		.file 2 "/usr/include/newlib/machine/_default_types.h"
 3079              		.file 3 "/usr/include/newlib/stdint.h"
 3080              		.file 4 "./modbus_tcp.h"
 3081              		.file 5 "./uip-conf.h"
 3082              		.file 6 "../uip/uip.h"