ARM GAS  /tmp/cciOqgza.s 			page 1


   1              		.syntax unified
   2              		.cpu cortex-m3
   3              		.fpu softvfp
   4              		.eabi_attribute 20, 1
   5              		.eabi_attribute 21, 1
   6              		.eabi_attribute 23, 3
   7              		.eabi_attribute 24, 1
   8              		.eabi_attribute 25, 1
   9              		.eabi_attribute 26, 1
  10              		.eabi_attribute 30, 2
  11              		.eabi_attribute 34, 1
  12              		.eabi_attribute 18, 4
  13              		.thumb
  14              		.file	"uip_arp.c"
  15              		.text
  16              	.Ltext0:
  17              		.cfi_sections	.debug_frame
  18              		.section	.text.uip_arp_update.constprop.0,"ax",%progbits
  19              		.align	2
  20              		.p2align 4,,15
  21              		.thumb
  22              		.thumb_func
  23              		.type	uip_arp_update.constprop.0, %function
  24              	uip_arp_update.constprop.0:
  25              	.LFB5:
  26              		.file 1 "../uip/uip_arp.c"
  27              		.loc 1 158 0
  28              		.cfi_startproc
  29              		@ args = 0, pretend = 0, frame = 0
  30              		@ frame_needed = 0, uses_anonymous_args = 0
  31              		@ link register save eliminated.
  32              	.LVL0:
  33 0000 2DE9F007 		push	{r4, r5, r6, r7, r8, r9, r10}
  34              		.cfi_def_cfa_offset 28
  35              		.cfi_offset 4, -28
  36              		.cfi_offset 5, -24
  37              		.cfi_offset 6, -20
  38              		.cfi_offset 7, -16
  39              		.cfi_offset 8, -12
  40              		.cfi_offset 9, -8
  41              		.cfi_offset 10, -4
  42              		.loc 1 173 0
  43 0004 3B4B     		ldr	r3, .L27
  44              		.loc 1 174 0
  45 0006 3C4E     		ldr	r6, .L27+4
  46              		.loc 1 173 0
  47 0008 B3F81CC0 		ldrh	ip, [r3, #28]	@ unaligned
  48              		.loc 1 174 0
  49 000c B3F81E80 		ldrh	r8, [r3, #30]	@ unaligned
  50              		.loc 1 164 0
  51 0010 3A4D     		ldr	r5, .L27+8
  52              		.loc 1 174 0
  53 0012 3346     		mov	r3, r6
  54 0014 0122     		movs	r2, #1
  55 0016 0027     		movs	r7, #0
  56 0018 05E0     		b	.L5
  57              	.LVL1:
ARM GAS  /tmp/cciOqgza.s 			page 2


  58              	.L2:
  59              		.loc 1 164 0
  60 001a 0929     		cmp	r1, #9
  61 001c 03F10C03 		add	r3, r3, #12
  62              	.LVL2:
  63 0020 17D0     		beq	.L4
  64 0022 1746     		mov	r7, r2
  65 0024 0A46     		mov	r2, r1
  66              	.LVL3:
  67              	.L5:
  68              		.loc 1 168 0
  69 0026 1888     		ldrh	r0, [r3]
  70 0028 511C     		adds	r1, r2, #1
  71 002a C9B2     		uxtb	r1, r1
  72 002c 0028     		cmp	r0, #0
  73 002e F4D0     		beq	.L2
  74              		.loc 1 169 0
  75 0030 5C88     		ldrh	r4, [r3, #2]
  76              		.loc 1 168 0
  77 0032 002C     		cmp	r4, #0
  78 0034 F1D0     		beq	.L2
  79              		.loc 1 173 0
  80 0036 6045     		cmp	r0, ip
  81 0038 EFD1     		bne	.L2
  82 003a 4445     		cmp	r4, r8
  83 003c EDD1     		bne	.L2
  84              		.loc 1 177 0
  85 003e 304A     		ldr	r2, .L27+12
  86              	.LVL4:
  87              		.loc 1 178 0
  88 0040 304C     		ldr	r4, .L27+16
  89              		.loc 1 177 0
  90 0042 1068     		ldr	r0, [r2]	@ unaligned
  91 0044 9188     		ldrh	r1, [r2, #4]	@ unaligned
  92              		.loc 1 178 0
  93 0046 2278     		ldrb	r2, [r4]	@ zero_extendqisi2
  94              	.LVL5:
  95 0048 2F70     		strb	r7, [r5]
  96              		.loc 1 177 0
  97 004a 5860     		str	r0, [r3, #4]	@ unaligned
  98 004c 1981     		strh	r1, [r3, #8]	@ unaligned
  99              		.loc 1 178 0
 100 004e 9A72     		strb	r2, [r3, #10]
 101 0050 24E0     		b	.L1
 102              	.LVL6:
 103              	.L4:
 104              		.loc 1 189 0
 105 0052 294B     		ldr	r3, .L27+4
 106              	.LVL7:
 107 0054 0122     		movs	r2, #1
 108 0056 0027     		movs	r7, #0
 109 0058 01E0     		b	.L9
 110              	.LVL8:
 111              	.L26:
 112 005a 1746     		mov	r7, r2
 113 005c 0A46     		mov	r2, r1
 114              	.LVL9:
ARM GAS  /tmp/cciOqgza.s 			page 3


 115              	.L9:
 116              		.loc 1 191 0
 117 005e 1888     		ldrh	r0, [r3]
 118 0060 511C     		adds	r1, r2, #1
 119 0062 C9B2     		uxtb	r1, r1
 120              		.loc 1 190 0
 121 0064 1C46     		mov	r4, r3
 122              		.loc 1 191 0
 123 0066 10B9     		cbnz	r0, .L6
 124 0068 5888     		ldrh	r0, [r3, #2]
 125 006a 0028     		cmp	r0, #0
 126 006c 3CD0     		beq	.L25
 127              	.L6:
 128              		.loc 1 189 0
 129 006e 0929     		cmp	r1, #9
 130 0070 03F10C03 		add	r3, r3, #12
 131              	.LVL10:
 132 0074 F1D1     		bne	.L26
 133              		.loc 1 199 0
 134 0076 082A     		cmp	r2, #8
 135 0078 2A70     		strb	r2, [r5]
 136 007a 224B     		ldr	r3, .L27+16
 137 007c 11D0     		beq	.L10
 138 007e 93F800C0 		ldrb	ip, [r3]	@ zero_extendqisi2
 139              	.L7:
 140              		.loc 1 215 0
 141 0082 2149     		ldr	r1, .L27+20
 142              	.LVL11:
 143 0084 2346     		mov	r3, r4
 144              		.loc 1 216 0
 145 0086 0A46     		mov	r2, r1
 146 0088 52F8060D 		ldr	r0, [r2, #-6]!	@ unaligned
 147              		.loc 1 215 0
 148 008c 0968     		ldr	r1, [r1]	@ unaligned
 149              	.LVL12:
 150              		.loc 1 216 0
 151 008e 9288     		ldrh	r2, [r2, #4]	@ unaligned
 152              		.loc 1 215 0
 153 0090 43F8041B 		str	r1, [r3], #4	@ unaligned
 154              		.loc 1 216 0
 155 0094 6060     		str	r0, [r4, #4]	@ unaligned
 156 0096 9A80     		strh	r2, [r3, #4]	@ unaligned
 157              		.loc 1 217 0
 158 0098 84F80AC0 		strb	ip, [r4, #10]
 159              	.LVL13:
 160              	.L1:
 161              		.loc 1 218 0
 162 009c BDE8F007 		pop	{r4, r5, r6, r7, r8, r9, r10}
 163 00a0 7047     		bx	lr
 164              	.LVL14:
 165              	.L10:
 166 00a2 0027     		movs	r7, #0
 167              		.loc 1 200 0
 168 00a4 DFF864A0 		ldr	r10, .L27+24
 169              		.loc 1 201 0
 170 00a8 DFF86490 		ldr	r9, .L27+28
 171 00ac 124A     		ldr	r2, .L27+4
ARM GAS  /tmp/cciOqgza.s 			page 4


 172 00ae 93F800C0 		ldrb	ip, [r3]	@ zero_extendqisi2
 173 00b2 B846     		mov	r8, r7
 174 00b4 3B46     		mov	r3, r7
 175              	.LVL15:
 176              	.L23:
 177              		.loc 1 204 0
 178 00b6 917A     		ldrb	r1, [r2, #10]	@ zero_extendqisi2
 179 00b8 DCB2     		uxtb	r4, r3
 180              	.LVL16:
 181 00ba C1EB0C01 		rsb	r1, r1, ip
 182 00be B942     		cmp	r1, r7
 183 00c0 03F10103 		add	r3, r3, #1
 184              		.loc 1 206 0
 185 00c4 C4BF     		itt	gt
 186 00c6 A046     		movgt	r8, r4
 187              		.loc 1 205 0
 188 00c8 CFB2     		uxtbgt	r7, r1
 189              		.loc 1 202 0
 190 00ca 082B     		cmp	r3, #8
 191 00cc 02F10C02 		add	r2, r2, #12
 192              	.LVL17:
 193 00d0 F1D1     		bne	.L23
 194              		.loc 1 210 0
 195 00d2 08EB4804 		add	r4, r8, r8, lsl #1
 196 00d6 8AF80070 		strb	r7, [r10]
 197 00da 89F80080 		strb	r8, [r9]
 198              		.loc 1 209 0
 199 00de 85F80080 		strb	r8, [r5]
 200              		.loc 1 210 0
 201 00e2 06EB8404 		add	r4, r6, r4, lsl #2
 202              	.LVL18:
 203 00e6 CCE7     		b	.L7
 204              	.LVL19:
 205              	.L25:
 206 00e8 064B     		ldr	r3, .L27+16
 207              	.LVL20:
 208 00ea 2F70     		strb	r7, [r5]
 209 00ec 93F800C0 		ldrb	ip, [r3]	@ zero_extendqisi2
 210 00f0 C7E7     		b	.L7
 211              	.L28:
 212 00f2 00BF     		.align	2
 213              	.L27:
 214 00f4 00000000 		.word	uip_buf
 215 00f8 00000000 		.word	.LANCHOR1
 216 00fc 00000000 		.word	.LANCHOR0
 217 0100 16000000 		.word	uip_buf+22
 218 0104 00000000 		.word	.LANCHOR2
 219 0108 1C000000 		.word	uip_buf+28
 220 010c 00000000 		.word	.LANCHOR3
 221 0110 00000000 		.word	.LANCHOR4
 222              		.cfi_endproc
 223              	.LFE5:
 224              		.size	uip_arp_update.constprop.0, .-uip_arp_update.constprop.0
 225 0114 AFF30080 		.section	.text.uip_arp_init,"ax",%progbits
 225      AFF30080 
 225      AFF30080 
 226              		.align	2
ARM GAS  /tmp/cciOqgza.s 			page 5


 227              		.p2align 4,,15
 228              		.global	uip_arp_init
 229              		.thumb
 230              		.thumb_func
 231              		.type	uip_arp_init, %function
 232              	uip_arp_init:
 233              	.LFB0:
 234              		.loc 1 126 0
 235              		.cfi_startproc
 236              		@ args = 0, pretend = 0, frame = 0
 237              		@ frame_needed = 0, uses_anonymous_args = 0
 238              		@ link register save eliminated.
 239 0000 10B4     		push	{r4}
 240              		.cfi_def_cfa_offset 4
 241              		.cfi_offset 4, -4
 242 0002 074A     		ldr	r2, .L33
 243 0004 074C     		ldr	r4, .L33+4
 244              		.loc 1 126 0
 245 0006 0123     		movs	r3, #1
 246              		.loc 1 128 0
 247 0008 0020     		movs	r0, #0
 248              	.L31:
 249 000a 591C     		adds	r1, r3, #1
 250              		.loc 1 127 0 discriminator 2
 251 000c 2370     		strb	r3, [r4]
 252 000e CBB2     		uxtb	r3, r1
 253 0010 092B     		cmp	r3, #9
 254              		.loc 1 128 0 discriminator 2
 255 0012 42F80C0B 		str	r0, [r2], #12
 256              		.loc 1 127 0 discriminator 2
 257 0016 F8D1     		bne	.L31
 258              		.loc 1 130 0
 259 0018 5DF8044B 		ldr	r4, [sp], #4
 260 001c 7047     		bx	lr
 261              	.L34:
 262 001e 00BF     		.align	2
 263              	.L33:
 264 0020 00000000 		.word	.LANCHOR1
 265 0024 00000000 		.word	.LANCHOR0
 266              		.cfi_endproc
 267              	.LFE0:
 268              		.size	uip_arp_init, .-uip_arp_init
 269 0028 AFF30080 		.section	.text.uip_arp_timer,"ax",%progbits
 269      AFF30080 
 270              		.align	2
 271              		.p2align 4,,15
 272              		.global	uip_arp_timer
 273              		.thumb
 274              		.thumb_func
 275              		.type	uip_arp_timer, %function
 276              	uip_arp_timer:
 277              	.LFB1:
 278              		.loc 1 143 0
 279              		.cfi_startproc
 280              		@ args = 0, pretend = 0, frame = 0
 281              		@ frame_needed = 0, uses_anonymous_args = 0
 282              		@ link register save eliminated.
ARM GAS  /tmp/cciOqgza.s 			page 6


 283 0000 F0B4     		push	{r4, r5, r6, r7}
 284              		.cfi_def_cfa_offset 16
 285              		.cfi_offset 4, -16
 286              		.cfi_offset 5, -12
 287              		.cfi_offset 6, -8
 288              		.cfi_offset 7, -4
 289              		.loc 1 146 0
 290 0002 154A     		ldr	r2, .L44
 291              		.loc 1 147 0
 292 0004 154D     		ldr	r5, .L44+4
 293              		.loc 1 146 0
 294 0006 1678     		ldrb	r6, [r2]	@ zero_extendqisi2
 295 0008 154B     		ldr	r3, .L44+8
 296 000a 0136     		adds	r6, r6, #1
 297 000c F6B2     		uxtb	r6, r6
 298 000e 1670     		strb	r6, [r2]
 299              		.loc 1 151 0
 300 0010 0027     		movs	r7, #0
 301              		.loc 1 147 0
 302 0012 0122     		movs	r2, #1
 303 0014 05E0     		b	.L38
 304              	.LVL21:
 305              	.L36:
 306 0016 2A70     		strb	r2, [r5]
 307 0018 CAB2     		uxtb	r2, r1
 308 001a 092A     		cmp	r2, #9
 309 001c 03F10C03 		add	r3, r3, #12
 310              	.LVL22:
 311 0020 18D0     		beq	.L43
 312              	.LVL23:
 313              	.L38:
 314              		.loc 1 149 0
 315 0022 5C88     		ldrh	r4, [r3, #2]
 316 0024 1888     		ldrh	r0, [r3]
 317 0026 511C     		adds	r1, r2, #1
 318 0028 2043     		orrs	r0, r0, r4
 319 002a 80B2     		uxth	r0, r0
 320 002c 0028     		cmp	r0, #0
 321 002e F2D0     		beq	.L36
 322              		.loc 1 150 0 discriminator 1
 323 0030 987A     		ldrb	r0, [r3, #10]	@ zero_extendqisi2
 324 0032 301A     		subs	r0, r6, r0
 325              		.loc 1 149 0 discriminator 1
 326 0034 7728     		cmp	r0, #119
 327 0036 EEDD     		ble	.L36
 328              		.loc 1 151 0
 329 0038 1846     		mov	r0, r3
 330 003a 00F8017B 		strb	r7, [r0], #1
 331 003e 0130     		adds	r0, r0, #1
 332              		.loc 1 147 0
 333 0040 2A70     		strb	r2, [r5]
 334 0042 CAB2     		uxtb	r2, r1
 335              		.loc 1 151 0
 336 0044 5F70     		strb	r7, [r3, #1]
 337              		.loc 1 147 0
 338 0046 092A     		cmp	r2, #9
 339              		.loc 1 151 0
ARM GAS  /tmp/cciOqgza.s 			page 7


 340 0048 00F8017B 		strb	r7, [r0], #1
 341 004c 0770     		strb	r7, [r0]
 342 004e 03F10C03 		add	r3, r3, #12
 343              	.LVL24:
 344              		.loc 1 147 0
 345 0052 E6D1     		bne	.L38
 346              	.LVL25:
 347              	.L43:
 348              		.loc 1 155 0
 349 0054 F0BC     		pop	{r4, r5, r6, r7}
 350 0056 7047     		bx	lr
 351              	.L45:
 352              		.align	2
 353              	.L44:
 354 0058 00000000 		.word	.LANCHOR2
 355 005c 00000000 		.word	.LANCHOR0
 356 0060 00000000 		.word	.LANCHOR1
 357              		.cfi_endproc
 358              	.LFE1:
 359              		.size	uip_arp_timer, .-uip_arp_timer
 360 0064 AFF30080 		.section	.text.uip_arp_arpin,"ax",%progbits
 360      AFF30080 
 360      AFF30080 
 361              		.align	2
 362              		.p2align 4,,15
 363              		.global	uip_arp_arpin
 364              		.thumb
 365              		.thumb_func
 366              		.type	uip_arp_arpin, %function
 367              	uip_arp_arpin:
 368              	.LFB3:
 369              		.loc 1 279 0
 370              		.cfi_startproc
 371              		@ args = 0, pretend = 0, frame = 0
 372              		@ frame_needed = 0, uses_anonymous_args = 0
 373 0000 2DE9F84F 		push	{r3, r4, r5, r6, r7, r8, r9, r10, fp, lr}
 374              		.cfi_def_cfa_offset 40
 375              		.cfi_offset 3, -40
 376              		.cfi_offset 4, -36
 377              		.cfi_offset 5, -32
 378              		.cfi_offset 6, -28
 379              		.cfi_offset 7, -24
 380              		.cfi_offset 8, -20
 381              		.cfi_offset 9, -16
 382              		.cfi_offset 10, -12
 383              		.cfi_offset 11, -8
 384              		.cfi_offset 14, -4
 385              		.loc 1 281 0
 386 0004 304C     		ldr	r4, .L53
 387 0006 2388     		ldrh	r3, [r4]
 388 0008 292B     		cmp	r3, #41
 389 000a 12D9     		bls	.L51
 390              		.loc 1 287 0
 391 000c 2F4D     		ldr	r5, .L53+4
 392              		.loc 1 285 0
 393 000e 0026     		movs	r6, #0
 394              		.loc 1 287 0
ARM GAS  /tmp/cciOqgza.s 			page 8


 395 0010 AB8A     		ldrh	r3, [r5, #20]	@ unaligned
 396              		.loc 1 285 0
 397 0012 2680     		strh	r6, [r4]	@ movhi
 398              		.loc 1 287 0
 399 0014 B3F5807F 		cmp	r3, #256
 400 0018 04D0     		beq	.L49
 401 001a B3F5007F 		cmp	r3, #512
 402 001e 0CD0     		beq	.L50
 403 0020 BDE8F88F 		pop	{r3, r4, r5, r6, r7, r8, r9, r10, fp, pc}
 404              	.L49:
 405              		.loc 1 291 0
 406 0024 2A4F     		ldr	r7, .L53+8
 407 0026 EA8C     		ldrh	r2, [r5, #38]	@ unaligned
 408 0028 3B88     		ldrh	r3, [r7]
 409 002a 9A42     		cmp	r2, r3
 410 002c 12D0     		beq	.L52
 411              	.L46:
 412 002e BDE8F88F 		pop	{r3, r4, r5, r6, r7, r8, r9, r10, fp, pc}
 413              	.L51:
 414              		.loc 1 282 0
 415 0032 0023     		movs	r3, #0
 416 0034 2380     		strh	r3, [r4]	@ movhi
 417              		.loc 1 283 0
 418 0036 BDE8F88F 		pop	{r3, r4, r5, r6, r7, r8, r9, r10, fp, pc}
 419              	.L50:
 420              		.loc 1 317 0
 421 003a 254B     		ldr	r3, .L53+8
 422 003c E98C     		ldrh	r1, [r5, #38]	@ unaligned
 423 003e 1A88     		ldrh	r2, [r3]
 424 0040 9142     		cmp	r1, r2
 425 0042 F4D1     		bne	.L46
 426              		.loc 1 317 0 is_stmt 0 discriminator 1
 427 0044 2A8D     		ldrh	r2, [r5, #40]	@ unaligned
 428 0046 5B88     		ldrh	r3, [r3, #2]
 429 0048 9A42     		cmp	r2, r3
 430 004a F0D1     		bne	.L46
 431              		.loc 1 324 0 is_stmt 1
 432 004c BDE8F84F 		pop	{r3, r4, r5, r6, r7, r8, r9, r10, fp, lr}
 433              		.loc 1 318 0
 434 0050 FFF7FEBF 		b	uip_arp_update.constprop.0
 435              	.LVL26:
 436              	.L52:
 437              		.loc 1 291 0 discriminator 1
 438 0054 2A8D     		ldrh	r2, [r5, #40]	@ unaligned
 439 0056 7B88     		ldrh	r3, [r7, #2]
 440 0058 9A42     		cmp	r2, r3
 441 005a E8D1     		bne	.L46
 442              		.loc 1 295 0
 443 005c FFF7FEFF 		bl	uip_arp_update.constprop.0
 444              	.LVL27:
 445              		.loc 1 298 0
 446 0060 0223     		movs	r3, #2
 447              		.loc 1 300 0
 448 0062 2946     		mov	r1, r5
 449              		.loc 1 298 0
 450 0064 6B75     		strb	r3, [r5, #21]
 451              		.loc 1 300 0
ARM GAS  /tmp/cciOqgza.s 			page 9


 452 0066 51F8168F 		ldr	r8, [r1, #22]!	@ unaligned
 453              		.loc 1 301 0
 454 006a 1A4B     		ldr	r3, .L53+12
 455              		.loc 1 300 0
 456 006c B1F804C0 		ldrh	ip, [r1, #4]	@ unaligned
 457              		.loc 1 301 0
 458 0070 1A68     		ldr	r2, [r3]	@ unaligned
 459 0072 9B88     		ldrh	r3, [r3, #4]	@ unaligned
 460              		.loc 1 300 0
 461 0074 C5F82080 		str	r8, [r5, #32]	@ unaligned
 462 0078 A5F824C0 		strh	ip, [r5, #36]	@ unaligned
 463              		.loc 1 301 0
 464 007c C5F81620 		str	r2, [r5, #22]	@ unaligned
 465 0080 8B80     		strh	r3, [r1, #4]	@ unaligned
 466              		.loc 1 305 0
 467 0082 B5F81C90 		ldrh	r9, [r5, #28]	@ unaligned
 468              		.loc 1 306 0
 469 0086 B5F81E80 		ldrh	r8, [r5, #30]	@ unaligned
 470              		.loc 1 307 0
 471 008a B7F800C0 		ldrh	ip, [r7]
 472              		.loc 1 303 0
 473 008e B5F824B0 		ldrh	fp, [r5, #36]	@ unaligned
 474 0092 D5F820A0 		ldr	r10, [r5, #32]	@ unaligned
 475              		.loc 1 308 0
 476 0096 7F88     		ldrh	r7, [r7, #2]
 477              		.loc 1 310 0
 478 0098 0820     		movs	r0, #8
 479 009a 0621     		movs	r1, #6
 480              		.loc 1 302 0
 481 009c 6B81     		strh	r3, [r5, #10]	@ unaligned
 482              		.loc 1 311 0
 483 009e 4FF02A03 		mov	r3, #42	@ movhi
 484              		.loc 1 298 0
 485 00a2 2E75     		strb	r6, [r5, #20]
 486              		.loc 1 302 0
 487 00a4 C5F80620 		str	r2, [r5, #6]	@ unaligned
 488              		.loc 1 303 0
 489 00a8 A5F804B0 		strh	fp, [r5, #4]	@ unaligned
 490 00ac C5F800A0 		str	r10, [r5]	@ unaligned
 491              		.loc 1 305 0
 492 00b0 A5F82690 		strh	r9, [r5, #38]	@ unaligned
 493              		.loc 1 306 0
 494 00b4 A5F82880 		strh	r8, [r5, #40]	@ unaligned
 495              		.loc 1 307 0
 496 00b8 A5F81CC0 		strh	ip, [r5, #28]	@ unaligned
 497              		.loc 1 308 0
 498 00bc EF83     		strh	r7, [r5, #30]	@ unaligned
 499              		.loc 1 310 0
 500 00be 2873     		strb	r0, [r5, #12]
 501 00c0 6973     		strb	r1, [r5, #13]
 502              		.loc 1 311 0
 503 00c2 2380     		strh	r3, [r4]	@ movhi
 504 00c4 BDE8F88F 		pop	{r3, r4, r5, r6, r7, r8, r9, r10, fp, pc}
 505              	.L54:
 506              		.align	2
 507              	.L53:
 508 00c8 00000000 		.word	uip_len
ARM GAS  /tmp/cciOqgza.s 			page 10


 509 00cc 00000000 		.word	uip_buf
 510 00d0 00000000 		.word	uip_hostaddr
 511 00d4 00000000 		.word	uip_ethaddr
 512              		.cfi_endproc
 513              	.LFE3:
 514              		.size	uip_arp_arpin, .-uip_arp_arpin
 515 00d8 AFF30080 		.section	.text.uip_arp_out,"ax",%progbits
 515      AFF30080 
 516              		.align	2
 517              		.p2align 4,,15
 518              		.global	uip_arp_out
 519              		.thumb
 520              		.thumb_func
 521              		.type	uip_arp_out, %function
 522              	uip_arp_out:
 523              	.LFB4:
 524              		.loc 1 355 0
 525              		.cfi_startproc
 526              		@ args = 0, pretend = 0, frame = 0
 527              		@ frame_needed = 0, uses_anonymous_args = 0
 528 0000 2DE9F84F 		push	{r3, r4, r5, r6, r7, r8, r9, r10, fp, lr}
 529              		.cfi_def_cfa_offset 40
 530              		.cfi_offset 3, -40
 531              		.cfi_offset 4, -36
 532              		.cfi_offset 5, -32
 533              		.cfi_offset 6, -28
 534              		.cfi_offset 7, -24
 535              		.cfi_offset 8, -20
 536              		.cfi_offset 9, -16
 537              		.cfi_offset 10, -12
 538              		.cfi_offset 11, -8
 539              		.cfi_offset 14, -4
 540              		.loc 1 366 0
 541 0004 504E     		ldr	r6, .L71
 542 0006 4FF6FF73 		movw	r3, #65535
 543 000a F28B     		ldrh	r2, [r6, #30]	@ unaligned
 544 000c 95B2     		uxth	r5, r2
 545 000e 9D42     		cmp	r5, r3
 546 0010 4FD0     		beq	.L68
 547              	.L56:
 548              		.loc 1 370 0
 549 0012 DFF85881 		ldr	r8, .L71+36
 550 0016 4D4B     		ldr	r3, .L71+4
 551 0018 B8F80000 		ldrh	r0, [r8]
 552 001c 1988     		ldrh	r1, [r3]
 553 001e 6840     		eors	r0, r0, r5
 554 0020 0842     		tst	r0, r1
 555 0022 3BD0     		beq	.L69
 556              	.L58:
 557              		.loc 1 374 0
 558 0024 4A4B     		ldr	r3, .L71+8
 559 0026 4B4F     		ldr	r7, .L71+12
 560 0028 1D88     		ldrh	r5, [r3]
 561 002a 5B88     		ldrh	r3, [r3, #2]
 562 002c 3D80     		strh	r5, [r7]	@ movhi
 563 002e 7B80     		strh	r3, [r7, #2]	@ movhi
 564              	.L60:
ARM GAS  /tmp/cciOqgza.s 			page 11


 565              		.loc 1 380 0
 566 0030 DFF83CA1 		ldr	r10, .L71+40
 567              		.loc 1 382 0
 568 0034 B7F80290 		ldrh	r9, [r7, #2]
 569 0038 474B     		ldr	r3, .L71+16
 570 003a 0124     		movs	r4, #1
 571 003c 4FF0000C 		mov	ip, #0
 572 0040 05E0     		b	.L64
 573              	.LVL28:
 574              	.L61:
 575              		.loc 1 380 0
 576 0042 092A     		cmp	r2, #9
 577 0044 03F10C03 		add	r3, r3, #12
 578 0048 0DD0     		beq	.L63
 579 004a A446     		mov	ip, r4
 580 004c 1446     		mov	r4, r2
 581              	.LVL29:
 582              	.L64:
 583              		.loc 1 382 0
 584 004e 1988     		ldrh	r1, [r3]
 585 0050 621C     		adds	r2, r4, #1
 586 0052 A942     		cmp	r1, r5
 587 0054 D2B2     		uxtb	r2, r2
 588              		.loc 1 381 0
 589 0056 1846     		mov	r0, r3
 590              		.loc 1 382 0
 591 0058 F3D1     		bne	.L61
 592              		.loc 1 382 0 is_stmt 0 discriminator 1
 593 005a 5988     		ldrh	r1, [r3, #2]
 594 005c 4945     		cmp	r1, r9
 595 005e F0D1     		bne	.L61
 596 0060 8AF800C0 		strb	ip, [r10]
 597 0064 03E0     		b	.L65
 598              	.LVL30:
 599              	.L63:
 600              		.loc 1 387 0 is_stmt 1
 601 0066 082C     		cmp	r4, #8
 602 0068 8AF80040 		strb	r4, [r10]
 603 006c 2AD0     		beq	.L70
 604              	.L65:
 605              		.loc 1 412 0
 606 006e 0346     		mov	r3, r0
 607 0070 53F8040F 		ldr	r0, [r3, #4]!	@ unaligned
 608              	.LVL31:
 609 0074 9B88     		ldrh	r3, [r3, #4]	@ unaligned
 610              	.LVL32:
 611 0076 3060     		str	r0, [r6]	@ unaligned
 612 0078 B380     		strh	r3, [r6, #4]	@ unaligned
 613              	.L57:
 614              		.loc 1 418 0
 615 007a 384B     		ldr	r3, .L71+20
 616              		.loc 1 414 0
 617 007c 384A     		ldr	r2, .L71+24
 618              		.loc 1 418 0
 619 007e 1F88     		ldrh	r7, [r3]
 620              		.loc 1 414 0
 621 0080 1568     		ldr	r5, [r2]	@ unaligned
ARM GAS  /tmp/cciOqgza.s 			page 12


 622 0082 9488     		ldrh	r4, [r2, #4]	@ unaligned
 623 0084 3748     		ldr	r0, .L71+28
 624              		.loc 1 418 0
 625 0086 0E37     		adds	r7, r7, #14
 626              		.loc 1 416 0
 627 0088 0021     		movs	r1, #0
 628 008a 0822     		movs	r2, #8
 629              		.loc 1 414 0
 630 008c C6F80650 		str	r5, [r6, #6]	@ unaligned
 631              		.loc 1 418 0
 632 0090 1F80     		strh	r7, [r3]	@ movhi
 633              		.loc 1 414 0
 634 0092 8480     		strh	r4, [r0, #4]	@ unaligned
 635              		.loc 1 416 0
 636 0094 7173     		strb	r1, [r6, #13]
 637 0096 3273     		strb	r2, [r6, #12]
 638 0098 BDE8F88F 		pop	{r3, r4, r5, r6, r7, r8, r9, r10, fp, pc}
 639              	.L69:
 640              		.loc 1 370 0 discriminator 1
 641 009c 318C     		ldrh	r1, [r6, #32]	@ unaligned
 642 009e B8F80200 		ldrh	r0, [r8, #2]
 643 00a2 5B88     		ldrh	r3, [r3, #2]
 644 00a4 4840     		eors	r0, r0, r1
 645 00a6 1842     		tst	r0, r3
 646 00a8 BCD1     		bne	.L58
 647              		.loc 1 377 0
 648 00aa 2A4F     		ldr	r7, .L71+12
 649 00ac 3A80     		strh	r2, [r7]	@ movhi
 650 00ae 7980     		strh	r1, [r7, #2]	@ movhi
 651 00b0 BEE7     		b	.L60
 652              	.L68:
 653              		.loc 1 366 0 discriminator 1
 654 00b2 338C     		ldrh	r3, [r6, #32]	@ unaligned
 655 00b4 AB42     		cmp	r3, r5
 656 00b6 ACD1     		bne	.L56
 657              		.loc 1 367 0
 658 00b8 2B4B     		ldr	r3, .L71+32
 659 00ba 1868     		ldr	r0, [r3]	@ unaligned
 660 00bc 9B88     		ldrh	r3, [r3, #4]	@ unaligned
 661 00be 3060     		str	r0, [r6]	@ unaligned
 662 00c0 B380     		strh	r3, [r6, #4]	@ unaligned
 663 00c2 DAE7     		b	.L57
 664              	.LVL33:
 665              	.L70:
 666              		.loc 1 391 0
 667 00c4 FF21     		movs	r1, #255
 668 00c6 0622     		movs	r2, #6
 669 00c8 1F48     		ldr	r0, .L71
 670              	.LVL34:
 671 00ca FFF7FEFF 		bl	memset
 672              	.LVL35:
 673              		.loc 1 393 0
 674 00ce 244B     		ldr	r3, .L71+24
 675 00d0 244A     		ldr	r2, .L71+28
 676              		.loc 1 396 0
 677 00d2 7988     		ldrh	r1, [r7, #2]
 678              		.loc 1 393 0
ARM GAS  /tmp/cciOqgza.s 			page 13


 679 00d4 9888     		ldrh	r0, [r3, #4]	@ unaligned
 680 00d6 1F68     		ldr	r7, [r3]	@ unaligned
 681              		.loc 1 397 0
 682 00d8 B8F80090 		ldrh	r9, [r8]
 683              		.loc 1 405 0
 684 00dc 02F1300B 		add	fp, r2, #48
 685              		.loc 1 403 0
 686 00e0 3473     		strb	r4, [r6, #12]
 687              		.loc 1 405 0
 688 00e2 DFF890A0 		ldr	r10, .L71+44
 689              		.loc 1 397 0
 690 00e6 B8F80280 		ldrh	r8, [r8, #2]
 691              		.loc 1 393 0
 692 00ea C6F80670 		str	r7, [r6, #6]	@ unaligned
 693              		.loc 1 394 0
 694 00ee C6F81670 		str	r7, [r6, #22]	@ unaligned
 695              		.loc 1 393 0
 696 00f2 9080     		strh	r0, [r2, #4]	@ unaligned
 697              		.loc 1 394 0
 698 00f4 9082     		strh	r0, [r2, #20]	@ unaligned
 699              		.loc 1 407 0
 700 00f6 194A     		ldr	r2, .L71+20
 701              		.loc 1 392 0
 702 00f8 0023     		movs	r3, #0
 703              		.loc 1 407 0
 704 00fa 4FF02A0C 		mov	ip, #42
 705              		.loc 1 396 0
 706 00fe 3185     		strh	r1, [r6, #40]	@ unaligned
 707 0100 F584     		strh	r5, [r6, #38]	@ unaligned
 708              		.loc 1 398 0
 709 0102 0121     		movs	r1, #1
 710              		.loc 1 401 0
 711 0104 0625     		movs	r5, #6
 712              		.loc 1 400 0
 713 0106 3474     		strb	r4, [r6, #16]
 714              		.loc 1 402 0
 715 0108 0424     		movs	r4, #4
 716              		.loc 1 405 0
 717 010a CAF800B0 		str	fp, [r10]
 718              		.loc 1 397 0
 719 010e A6F81C90 		strh	r9, [r6, #28]	@ unaligned
 720 0112 A6F81E80 		strh	r8, [r6, #30]	@ unaligned
 721              		.loc 1 407 0
 722 0116 A2F800C0 		strh	ip, [r2]	@ movhi
 723              		.loc 1 392 0
 724 011a 86F82030 		strb	r3, [r6, #32]
 725 011e 86F82130 		strb	r3, [r6, #33]
 726 0122 86F82230 		strb	r3, [r6, #34]
 727 0126 86F82330 		strb	r3, [r6, #35]
 728 012a 86F82430 		strb	r3, [r6, #36]
 729 012e 86F82530 		strb	r3, [r6, #37]
 730              		.loc 1 398 0
 731 0132 3375     		strb	r3, [r6, #20]
 732              		.loc 1 399 0
 733 0134 B373     		strb	r3, [r6, #14]
 734              		.loc 1 400 0
 735 0136 7374     		strb	r3, [r6, #17]
ARM GAS  /tmp/cciOqgza.s 			page 14


 736              		.loc 1 398 0
 737 0138 7175     		strb	r1, [r6, #21]
 738              		.loc 1 399 0
 739 013a F173     		strb	r1, [r6, #15]
 740              		.loc 1 401 0
 741 013c B574     		strb	r5, [r6, #18]
 742              		.loc 1 403 0
 743 013e 7573     		strb	r5, [r6, #13]
 744              		.loc 1 402 0
 745 0140 F474     		strb	r4, [r6, #19]
 746              		.loc 1 408 0
 747 0142 BDE8F88F 		pop	{r3, r4, r5, r6, r7, r8, r9, r10, fp, pc}
 748              	.L72:
 749 0146 00BF     		.align	2
 750              	.L71:
 751 0148 00000000 		.word	uip_buf
 752 014c 00000000 		.word	uip_netmask
 753 0150 00000000 		.word	uip_draddr
 754 0154 00000000 		.word	.LANCHOR6
 755 0158 00000000 		.word	.LANCHOR1
 756 015c 00000000 		.word	uip_len
 757 0160 00000000 		.word	uip_ethaddr
 758 0164 06000000 		.word	uip_buf+6
 759 0168 00000000 		.word	.LANCHOR5
 760 016c 00000000 		.word	uip_hostaddr
 761 0170 00000000 		.word	.LANCHOR0
 762 0174 00000000 		.word	uip_appdata
 763              		.cfi_endproc
 764              	.LFE4:
 765              		.size	uip_arp_out, .-uip_arp_out
 766 0178 AFF30080 		.section	.bss.i,"aw",%nobits
 766      AFF30080 
 767              		.set	.LANCHOR0,. + 0
 768              		.type	i, %object
 769              		.size	i, 1
 770              	i:
 771 0000 00       		.space	1
 772              		.section	.bss.tmpage,"aw",%nobits
 773              		.set	.LANCHOR3,. + 0
 774              		.type	tmpage, %object
 775              		.size	tmpage, 1
 776              	tmpage:
 777 0000 00       		.space	1
 778              		.section	.bss.arp_table,"aw",%nobits
 779              		.align	2
 780              		.set	.LANCHOR1,. + 0
 781              		.type	arp_table, %object
 782              		.size	arp_table, 96
 783              	arp_table:
 784 0000 00000000 		.space	96
 784      00000000 
 784      00000000 
 784      00000000 
 784      00000000 
 785              		.section	.rodata.broadcast_ethaddr,"a",%progbits
 786              		.align	2
 787              		.set	.LANCHOR5,. + 0
ARM GAS  /tmp/cciOqgza.s 			page 15


 788              		.type	broadcast_ethaddr, %object
 789              		.size	broadcast_ethaddr, 6
 790              	broadcast_ethaddr:
 791 0000 FF       		.byte	-1
 792 0001 FF       		.byte	-1
 793 0002 FF       		.byte	-1
 794 0003 FF       		.byte	-1
 795 0004 FF       		.byte	-1
 796 0005 FF       		.byte	-1
 797 0006 0000     		.section	.bss.c,"aw",%nobits
 798              		.set	.LANCHOR4,. + 0
 799              		.type	c, %object
 800              		.size	c, 1
 801              	c:
 802 0000 00       		.space	1
 803              		.section	.bss.arptime,"aw",%nobits
 804              		.set	.LANCHOR2,. + 0
 805              		.type	arptime, %object
 806              		.size	arptime, 1
 807              	arptime:
 808 0000 00       		.space	1
 809              		.section	.bss.ipaddr,"aw",%nobits
 810              		.align	2
 811              		.set	.LANCHOR6,. + 0
 812              		.type	ipaddr, %object
 813              		.size	ipaddr, 4
 814              	ipaddr:
 815 0000 00000000 		.space	4
 816              		.text
 817              	.Letext0:
 818              		.file 2 "/usr/include/newlib/machine/_default_types.h"
 819              		.file 3 "/usr/include/newlib/stdint.h"
 820              		.file 4 "./uip-conf.h"
 821              		.file 5 "../uip/uip.h"
 822              		.file 6 "../uip/uip_arp.h"
 823              		.file 7 "/usr/lib/gcc/arm-none-eabi/4.8/include/stddef.h"
 824              		.file 8 "/usr/include/newlib/string.h"