ARM GAS  /tmp/cciOqgza.s 			page 1


   1              		.syntax unified
   2              		.cpu cortex-m3
   3              		.fpu softvfp
   4              		.eabi_attribute 20, 1
   5              		.eabi_attribute 21, 1
   6              		.eabi_attribute 23, 3
   7              		.eabi_attribute 24, 1
   8              		.eabi_attribute 25, 1
   9              		.eabi_attribute 26, 1
  10              		.eabi_attribute 30, 2
  11              		.eabi_attribute 34, 1
  12              		.eabi_attribute 18, 4
  13              		.thumb
  14              		.file	"uip_arp.c"
  15              		.text
  16              	.Ltext0:
  17              		.cfi_sections	.debug_frame
  18              		.section	.text.uip_arp_update.constprop.0,"ax",%progbits
  19              		.align	2
  20              		.p2align 4,,15
  21              		.thumb
  22              		.thumb_func
  23              		.type	uip_arp_update.constprop.0, %function
  24              	uip_arp_update.constprop.0:
  25              	.LFB5:
  26              		.file 1 "../uip/uip_arp.c"
  27              		.loc 1 158 0
  28              		.cfi_startproc
  29              		@ args = 0, pretend = 0, frame = 0
  30              		@ frame_needed = 0, uses_anonymous_args = 0
  31              		@ link register save eliminated.
  32              	.LVL0:
  33 0000 2DE9F007 		push	{r4, r5, r6, r7, r8, r9, r10}
  34              		.cfi_def_cfa_offset 28
  35              		.cfi_offset 4, -28
  36              		.cfi_offset 5, -24
  37              		.cfi_offset 6, -20
  38              		.cfi_offset 7, -16
  39              		.cfi_offset 8, -12
  40              		.cfi_offset 9, -8
  41              		.cfi_offset 10, -4
  42              		.loc 1 173 0
  43 0004 3B4B     		ldr	r3, .L27
  44              		.loc 1 174 0
  45 0006 3C4E     		ldr	r6, .L27+4
  46              		.loc 1 173 0
  47 0008 B3F81CC0 		ldrh	ip, [r3, #28]	@ unaligned
  48              		.loc 1 174 0
  49 000c B3F81E80 		ldrh	r8, [r3, #30]	@ unaligned
  50              		.loc 1 164 0
  51 0010 3A4D     		ldr	r5, .L27+8
  52              		.loc 1 174 0
  53 0012 3346     		mov	r3, r6
  54 0014 0122     		movs	r2, #1
  55 0016 0027     		movs	r7, #0
  56 0018 05E0     		b	.L5
  57              	.LVL1:
ARM GAS  /tmp/cciOqgza.s 			page 2


  58              	.L2:
  59              		.loc 1 164 0
  60 001a 0929     		cmp	r1, #9
  61 001c 03F10C03 		add	r3, r3, #12
  62              	.LVL2:
  63 0020 17D0     		beq	.L4
  64 0022 1746     		mov	r7, r2
  65 0024 0A46     		mov	r2, r1
  66              	.LVL3:
  67              	.L5:
  68              		.loc 1 168 0
  69 0026 1888     		ldrh	r0, [r3]
  70 0028 511C     		adds	r1, r2, #1
  71 002a C9B2     		uxtb	r1, r1
  72 002c 0028     		cmp	r0, #0
  73 002e F4D0     		beq	.L2
  74              		.loc 1 169 0
  75 0030 5C88     		ldrh	r4, [r3, #2]
  76              		.loc 1 168 0
  77 0032 002C     		cmp	r4, #0
  78 0034 F1D0     		beq	.L2
  79              		.loc 1 173 0
  80 0036 6045     		cmp	r0, ip
  81 0038 EFD1     		bne	.L2
  82 003a 4445     		cmp	r4, r8
  83 003c EDD1     		bne	.L2
  84              		.loc 1 177 0
  85 003e 304A     		ldr	r2, .L27+12
  86              	.LVL4:
  87              		.loc 1 178 0
  88 0040 304C     		ldr	r4, .L27+16
  89              		.loc 1 177 0
  90 0042 1068     		ldr	r0, [r2]	@ unaligned
  91 0044 9188     		ldrh	r1, [r2, #4]	@ unaligned
  92              		.loc 1 178 0
  93 0046 2278     		ldrb	r2, [r4]	@ zero_extendqisi2
  94              	.LVL5:
  95 0048 2F70     		strb	r7, [r5]
  96              		.loc 1 177 0
  97 004a 5860     		str	r0, [r3, #4]	@ unaligned
  98 004c 1981     		strh	r1, [r3, #8]	@ unaligned
  99              		.loc 1 178 0
 100 004e 9A72     		strb	r2, [r3, #10]
 101 0050 24E0     		b	.L1
 102              	.LVL6:
 103              	.L4:
 104              		.loc 1 189 0
 105 0052 294B     		ldr	r3, .L27+4
 106              	.LVL7:
 107 0054 0122     		movs	r2, #1
 108 0056 0027     		movs	r7, #0
 109 0058 01E0     		b	.L9
 110              	.LVL8:
 111              	.L26:
 112 005a 1746     		mov	r7, r2
 113 005c 0A46     		mov	r2, r1
 114              	.LVL9:
ARM GAS  /tmp/cciOqgza.s 			page 3


 115              	.L9:
 116              		.loc 1 191 0
 117 005e 1888     		ldrh	r0, [r3]
 118 0060 511C     		adds	r1, r2, #1
 119 0062 C9B2     		uxtb	r1, r1
 120              		.loc 1 190 0
 121 0064 1C46     		mov	r4, r3
 122              		.loc 1 191 0
 123 0066 10B9     		cbnz	r0, .L6
 124 0068 5888     		ldrh	r0, [r3, #2]
 125 006a 0028     		cmp	r0, #0
 126 006c 3CD0     		beq	.L25
 127              	.L6:
 128              		.loc 1 189 0
 129 006e 0929     		cmp	r1, #9
 130 0070 03F10C03 		add	r3, r3, #12
 131              	.LVL10:
 132 0074 F1D1     		bne	.L26
 133              		.loc 1 199 0
 134 0076 082A     		cmp	r2, #8
 135 0078 2A70     		strb	r2, [r5]
 136 007a 224B     		ldr	r3, .L27+16
 137 007c 11D0     		beq	.L10
 138 007e 93F800C0 		ldrb	ip, [r3]	@ zero_extendqisi2
 139              	.L7:
 140              		.loc 1 215 0
 141 0082 2149     		ldr	r1, .L27+20
 142              	.LVL11:
 143 0084 2346     		mov	r3, r4
 144              		.loc 1 216 0
 145 0086 0A46     		mov	r2, r1
 146 0088 52F8060D 		ldr	r0, [r2, #-6]!	@ unaligned
 147              		.loc 1 215 0
 148 008c 0968     		ldr	r1, [r1]	@ unaligned
 149              	.LVL12:
 150              		.loc 1 216 0
 151 008e 9288     		ldrh	r2, [r2, #4]	@ unaligned
 152              		.loc 1 215 0
 153 0090 43F8041B 		str	r1, [r3], #4	@ unaligned
 154              		.loc 1 216 0
 155 0094 6060     		str	r0, [r4, #4]	@ unaligned
 156 0096 9A80     		strh	r2, [r3, #4]	@ unaligned
 157              		.loc 1 217 0
 158 0098 84F80AC0 		strb	ip, [r4, #10]
 159              	.LVL13:
 160              	.L1:
 161              		.loc 1 218 0
 162 009c BDE8F007 		pop	{r4, r5, r6, r7, r8, r9, r10}
 163 00a0 7047     		bx	lr
 164              	.LVL14:
 165              	.L10:
 166 00a2 0027     		movs	r7, #0
 167              		.loc 1 200 0
 168 00a4 DFF864A0 		ldr	r10, .L27+24
 169              		.loc 1 201 0
 170 00a8 DFF86490 		ldr	r9, .L27+28
 171 00ac 124A     		ldr	r2, .L27+4
ARM GAS  /tmp/cciOqgza.s 			page 4


 172 00ae 93F800C0 		ldrb	ip, [r3]	@ zero_extendqisi2
 173 00b2 B846     		mov	r8, r7
 174 00b4 3B46     		mov	r3, r7
 175              	.LVL15:
 176              	.L23:
 177              		.loc 1 204 0
 178 00b6 917A     		ldrb	r1, [r2, #10]	@ zero_extendqisi2
 179 00b8 DCB2     		uxtb	r4, r3
 180              	.LVL16:
 181 00ba C1EB0C01 		rsb	r1, r1, ip
 182 00be B942     		cmp	r1, r7
 183 00c0 03F10103 		add	r3, r3, #1
 184              		.loc 1 206 0
 185 00c4 C4BF     		itt	gt
 186 00c6 A046     		movgt	r8, r4
 187              		.loc 1 205 0
 188 00c8 CFB2     		uxtbgt	r7, r1
 189              		.loc 1 202 0
 190 00ca 082B     		cmp	r3, #8
 191 00cc 02F10C02 		add	r2, r2, #12
 192              	.LVL17:
 193 00d0 F1D1     		bne	.L23
 194              		.loc 1 210 0
 195 00d2 08EB4804 		add	r4, r8, r8, lsl #1
 196 00d6 8AF80070 		strb	r7, [r10]
 197 00da 89F80080 		strb	r8, [r9]
 198              		.loc 1 209 0
 199 00de 85F80080 		strb	r8, [r5]
 200              		.loc 1 210 0
 201 00e2 06EB8404 		add	r4, r6, r4, lsl #2
 202              	.LVL18:
 203 00e6 CCE7     		b	.L7
 204              	.LVL19:
 205              	.L25:
 206 00e8 064B     		ldr	r3, .L27+16
 207              	.LVL20:
 208 00ea 2F70     		strb	r7, [r5]
 209 00ec 93F800C0 		ldrb	ip, [r3]	@ zero_extendqisi2
 210 00f0 C7E7     		b	.L7
 211              	.L28:
 212 00f2 00BF     		.align	2
 213              	.L27:
 214 00f4 00000000 		.word	uip_buf
 215 00f8 00000000 		.word	.LANCHOR1
 216 00fc 00000000 		.word	.LANCHOR0
 217 0100 16000000 		.word	uip_buf+22
 218 0104 00000000 		.word	.LANCHOR2
 219 0108 1C000000 		.word	uip_buf+28
 220 010c 00000000 		.word	.LANCHOR3
 221 0110 00000000 		.word	.LANCHOR4
 222              		.cfi_endproc
 223              	.LFE5:
 224              		.size	uip_arp_update.constprop.0, .-uip_arp_update.constprop.0
 225 0114 AFF30080 		.section	.text.uip_arp_init,"ax",%progbits
 225      AFF30080 
 225      AFF30080 
 226              		.align	2
ARM GAS  /tmp/cciOqgza.s 			page 5


 227              		.p2align 4,,15
 228              		.global	uip_arp_init
 229              		.thumb
 230              		.thumb_func
 231              		.type	uip_arp_init, %function
 232              	uip_arp_init:
 233              	.LFB0:
 234              		.loc 1 126 0
 235              		.cfi_startproc
 236              		@ args = 0, pretend = 0, frame = 0
 237              		@ frame_needed = 0, uses_anonymous_args = 0
 238              		@ link register save eliminated.
 239 0000 10B4     		push	{r4}
 240              		.cfi_def_cfa_offset 4
 241              		.cfi_offset 4, -4
 242 0002 074A     		ldr	r2, .L33
 243 0004 074C     		ldr	r4, .L33+4
 244              		.loc 1 126 0
 245 0006 0123     		movs	r3, #1
 246              		.loc 1 128 0
 247 0008 0020     		movs	r0, #0
 248              	.L31:
 249 000a 591C     		adds	r1, r3, #1
 250              		.loc 1 127 0 discriminator 2
 251 000c 2370     		strb	r3, [r4]
 252 000e CBB2     		uxtb	r3, r1
 253 0010 092B     		cmp	r3, #9
 254              		.loc 1 128 0 discriminator 2
 255 0012 42F80C0B 		str	r0, [r2], #12
 256              		.loc 1 127 0 discriminator 2
 257 0016 F8D1     		bne	.L31
 258              		.loc 1 130 0
 259 0018 5DF8044B 		ldr	r4, [sp], #4
 260 001c 7047     		bx	lr
 261              	.L34:
 262 001e 00BF     		.align	2
 263              	.L33:
 264 0020 00000000 		.word	.LANCHOR1
 265 0024 00000000 		.word	.LANCHOR0
 266              		.cfi_endproc
 267              	.LFE0:
 268              		.size	uip_arp_init, .-uip_arp_init
 269 0028 AFF30080 		.section	.text.uip_arp_timer,"ax",%progbits
 269      AFF30080 
 270              		.align	2
 271              		.p2align 4,,15
 272              		.global	uip_arp_timer
 273              		.thumb
 274              		.thumb_func
 275              		.type	uip_arp_timer, %function
 276              	uip_arp_timer:
 277              	.LFB1:
 278              		.loc 1 143 0
 279              		.cfi_startproc
 280              		@ args = 0, pretend = 0, frame = 0
 281              		@ frame_needed = 0, uses_anonymous_args = 0
 282              		@ link register save eliminated.
ARM GAS  /tmp/cciOqgza.s 			page 6


 283 0000 F0B4     		push	{r4, r5, r6, r7}
 284              		.cfi_def_cfa_offset 16
 285              		.cfi_offset 4, -16
 286              		.cfi_offset 5, -12
 287              		.cfi_offset 6, -8
 288              		.cfi_offset 7, -4
 289              		.loc 1 146 0
 290 0002 154A     		ldr	r2, .L44
 291              		.loc 1 147 0
 292 0004 154D     		ldr	r5, .L44+4
 293              		.loc 1 146 0
 294 0006 1678     		ldrb	r6, [r2]	@ zero_extendqisi2
 295 0008 154B     		ldr	r3, .L44+8
 296 000a 0136     		adds	r6, r6, #1
 297 000c F6B2     		uxtb	r6, r6
 298 000e 1670     		strb	r6, [r2]
 299              		.loc 1 151 0
 300 0010 0027     		movs	r7, #0
 301              		.loc 1 147 0
 302 0012 0122     		movs	r2, #1
 303 0014 05E0     		b	.L38
 304              	.LVL21:
 305              	.L36:
 306 0016 2A70     		strb	r2, [r5]
 307 0018 CAB2     		uxtb	r2, r1
 308 001a 092A     		cmp	r2, #9
 309 001c 03F10C03 		add	r3, r3, #12
 310              	.LVL22:
 311 0020 18D0     		beq	.L43
 312              	.LVL23:
 313              	.L38:
 314              		.loc 1 149 0
 315 0022 5C88     		ldrh	r4, [r3, #2]
 316 0024 1888     		ldrh	r0, [r3]
 317 0026 511C     		adds	r1, r2, #1
 318 0028 2043     		orrs	r0, r0, r4
 319 002a 80B2     		uxth	r0, r0
 320 002c 0028     		cmp	r0, #0
 321 002e F2D0     		beq	.L36
 322              		.loc 1 150 0 discriminator 1
 323 0030 987A     		ldrb	r0, [r3, #10]	@ zero_extendqisi2
 324 0032 301A     		subs	r0, r6, r0
 325              		.loc 1 149 0 discriminator 1
 326 0034 7728     		cmp	r0, #119
 327 0036 EEDD     		ble	.L36
 328              		.loc 1 151 0
 329 0038 1846     		mov	r0, r3
 330 003a 00F8017B 		strb	r7, [r0], #1
 331 003e 0130     		adds	r0, r0, #1
 332              		.loc 1 147 0
 333 0040 2A70     		strb	r2, [r5]
 334 0042 CAB2     		uxtb	r2, r1
 335              		.loc 1 151 0
 336 0044 5F70     		strb	r7, [r3, #1]
 337              		.loc 1 147 0
 338 0046 092A     		cmp	r2, #9
 339              		.loc 1 151 0
ARM GAS  /tmp/cciOqgza.s 			page 7


 340 0048 00F8017B 		strb	r7, [r0], #1
 341 004c 0770     		strb	r7, [r0]
 342 004e 03F10C03 		add	r3, r3, #12
 343              	.LVL24:
 344              		.loc 1 147 0
 345 0052 E6D1     		bne	.L38
 346              	.LVL25:
 347              	.L43:
 348              		.loc 1 155 0
 349 0054 F0BC     		pop	{r4, r5, r6, r7}
 350 0056 7047     		bx	lr
 351              	.L45:
 352              		.align	2
 353              	.L44:
 354 0058 00000000 		.word	.LANCHOR2
 355 005c 00000000 		.word	.LANCHOR0
 356 0060 00000000 		.word	.LANCHOR1
 357              		.cfi_endproc
 358              	.LFE1:
 359              		.size	uip_arp_timer, .-uip_arp_timer
 360 0064 AFF30080 		.section	.text.uip_arp_arpin,"ax",%progbits
 360      AFF30080 
 360      AFF30080 
 361              		.align	2
 362              		.p2align 4,,15
 363              		.global	uip_arp_arpin
 364              		.thumb
 365              		.thumb_func
 366              		.type	uip_arp_arpin, %function
 367              	uip_arp_arpin:
 368              	.LFB3:
 369              		.loc 1 279 0
 370              		.cfi_startproc
 371              		@ args = 0, pretend = 0, frame = 0
 372              		@ frame_needed = 0, uses_anonymous_args = 0
 373 0000 2DE9F84F 		push	{r3, r4, r5, r6, r7, r8, r9, r10, fp, lr}
 374              		.cfi_def_cfa_offset 40
 375              		.cfi_offset 3, -40
 376              		.cfi_offset 4, -36
 377              		.cfi_offset 5, -32
 378              		.cfi_offset 6, -28
 379              		.cfi_offset 7, -24
 380              		.cfi_offset 8, -20
 381              		.cfi_offset 9, -16
 382              		.cfi_offset 10, -12
 383              		.cfi_offset 11, -8
 384              		.cfi_offset 14, -4
 385              		.loc 1 281 0
 386 0004 304C     		ldr	r4, .L53
 387 0006 2388     		ldrh	r3, [r4]
 388 0008 292B     		cmp	r3, #41
 389 000a 12D9     		bls	.L51
 390              		.loc 1 287 0
 391 000c 2F4D     		ldr	r5, .L53+4
 392              		.loc 1 285 0
 393 000e 0026     		movs	r6, #0
 394              		.loc 1 287 0
ARM GAS  /tmp/cciOqgza.s 			page 8


 395 0010 AB8A     		ldrh	r3, [r5, #20]	@ unaligned
 396              		.loc 1 285 0
 397 0012 2680     		strh	r6, [r4]	@ movhi
 398              		.loc 1 287 0
 399 0014 B3F5807F 		cmp	r3, #256
 400 0018 04D0     		beq	.L49
 401 001a B3F5007F 		cmp	r3, #512
 402 001e 0CD0     		beq	.L50
 403 0020 BDE8F88F 		pop	{r3, r4, r5, r6, r7, r8, r9, r10, fp, pc}
 404              	.L49:
 405              		.loc 1 291 0
 406 0024 2A4F     		ldr	r7, .L53+8
 407 0026 EA8C     		ldrh	r2, [r5, #38]	@ unaligned
 408 0028 3B88     		ldrh	r3, [r7]
 409 002a 9A42     		cmp	r2, r3
 410 002c 12D0     		beq	.L52
 411              	.L46:
 412 002e BDE8F88F 		pop	{r3, r4, r5, r6, r7, r8, r9, r10, fp, pc}
 413              	.L51:
 414              		.loc 1 282 0
 415 0032 0023     		movs	r3, #0
 416 0034 2380     		strh	r3, [r4]	@ movhi
 417              		.loc 1 283 0
 418 0036 BDE8F88F 		pop	{r3, r4, r5, r6, r7, r8, r9, r10, fp, pc}
 419              	.L50:
 420              		.loc 1 317 0
 421 003a 254B     		ldr	r3, .L53+8
 422 003c E98C     		ldrh	r1, [r5, #38]	@ unaligned
 423 003e 1A88     		ldrh	r2, [r3]
 424 0040 9142     		cmp	r1, r2
 425 0042 F4D1     		bne	.L46
 426              		.loc 1 317 0 is_stmt 0 discriminator 1
 427 0044 2A8D     		ldrh	r2, [r5, #40]	@ unaligned
 428 0046 5B88     		ldrh	r3, [r3, #2]
 429 0048 9A42     		cmp	r2, r3
 430 004a F0D1     		bne	.L46
 431              		.loc 1 324 0 is_stmt 1
 432 004c BDE8F84F 		pop	{r3, r4, r5, r6, r7, r8, r9, r10, fp, lr}
 433              		.loc 1 318 0
 434 0050 FFF7FEBF 		b	uip_arp_update.constprop.0
 435              	.LVL26:
 436              	.L52:
 437              		.loc 1 291 0 discriminator 1
 438 0054 2A8D     		ldrh	r2, [r5, #40]	@ unaligned
 439 0056 7B88     		ldrh	r3, [r7, #2]
 440 0058 9A42     		cmp	r2, r3
 441 005a E8D1     		bne	.L46
 442              		.loc 1 295 0
 443 005c FFF7FEFF 		bl	uip_arp_update.constprop.0
 444              	.LVL27:
 445              		.loc 1 298 0
 446 0060 0223     		movs	r3, #2
 447              		.loc 1 300 0
 448 0062 2946     		mov	r1, r5
 449              		.loc 1 298 0
 450 0064 6B75     		strb	r3, [r5, #21]
 451              		.loc 1 300 0
ARM GAS  /tmp/cciOqgza.s 			page 9


 452 0066 51F8168F 		ldr	r8, [r1, #22]!	@ unaligned
 453              		.loc 1 301 0
 454 006a 1A4B     		ldr	r3, .L53+12
 455              		.loc 1 300 0
 456 006c B1F804C0 		ldrh	ip, [r1, #4]	@ unaligned
 457              		.loc 1 301 0
 458 0070 1A68     		ldr	r2, [r3]	@ unaligned
 459 0072 9B88     		ldrh	r3, [r3, #4]	@ unaligned
 460              		.loc 1 300 0
 461 0074 C5F82080 		str	r8, [r5, #32]	@ unaligned
 462 0078 A5F824C0 		strh	ip, [r5, #36]	@ unaligned
 463              		.loc 1 301 0
 464 007c C5F81620 		str	r2, [r5, #22]	@ unaligned
 465 0080 8B80     		strh	r3, [r1, #4]	@ unaligned
 466              		.loc 1 305 0
 467 0082 B5F81C90 		ldrh	r9, [r5, #28]	@ unaligned
 468              		.loc 1 306 0
 469 0086 B5F81E80 		ldrh	r8, [r5, #30]	@ unaligned
 470              		.loc 1 307 0
 471 008a B7F800C0 		ldrh	ip, [r7]
 472              		.loc 1 303 0
 473 008e B5F824B0 		ldrh	fp, [r5, #36]	@ unaligned
 474 0092 D5F820A0 		ldr	r10, [r5, #32]	@ unaligned
 475              		.loc 1 308 0
 476 0096 7F88     		ldrh	r7, [r7, #2]
 477              		.loc 1 310 0
 478 0098 0820     		movs	r0, #8
 479 009a 0621     		movs	r1, #6
 480              		.loc 1 302 0
 481 009c 6B81     		strh	r3, [r5, #10]	@ unaligned
 482              		.loc 1 311 0
 483 009e 4FF02A03 		mov	r3, #42	@ movhi
 484              		.loc 1 298 0
 485 00a2 2E75     		strb	r6, [r5, #20]
 486              		.loc 1 302 0
 487 00a4 C5F80620 		str	r2, [r5, #6]	@ unaligned
 488              		.loc 1 303 0
 489 00a8 A5F804B0 		strh	fp, [r5, #4]	@ unaligned
 490 00ac C5F800A0 		str	r10, [r5]	@ unaligned
 491              		.loc 1 305 0
 492 00b0 A5F82690 		strh	r9, [r5, #38]	@ unaligned
 493              		.loc 1 306 0
 494 00b4 A5F82880 		strh	r8, [r5, #40]	@ unaligned
 495              		.loc 1 307 0
 496 00b8 A5F81CC0 		strh	ip, [r5, #28]	@ unaligned
 497              		.loc 1 308 0
 498 00bc EF83     		strh	r7, [r5, #30]	@ unaligned
 499              		.loc 1 310 0
 500 00be 2873     		strb	r0, [r5, #12]
 501 00c0 6973     		strb	r1, [r5, #13]
 502              		.loc 1 311 0
 503 00c2 2380     		strh	r3, [r4]	@ movhi
 504 00c4 BDE8F88F 		pop	{r3, r4, r5, r6, r7, r8, r9, r10, fp, pc}
 505              	.L54:
 506              		.align	2
 507              	.L53:
 508 00c8 00000000 		.word	uip_len
ARM GAS  /tmp/cciOqgza.s 			page 10


 509 00cc 00000000 		.word	uip_buf
 510 00d0 00000000 		.word	uip_hostaddr
 511 00d4 00000000 		.word	uip_ethaddr
 512              		.cfi_endproc
 513              	.LFE3:
 514              		.size	uip_arp_arpin, .-uip_arp_arpin
 515 00d8 AFF30080 		.section	.text.uip_arp_out,"ax",%progbits
 515      AFF30080 
 516              		.align	2
 517              		.p2align 4,,15
 518              		.global	uip_arp_out
 519              		.thumb
 520              		.thumb_func
 521              		.type	uip_arp_out, %function
 522              	uip_arp_out:
 523              	.LFB4:
 524              		.loc 1 355 0
 525              		.cfi_startproc
 526              		@ args = 0, pretend = 0, frame = 0
 527              		@ frame_needed = 0, uses_anonymous_args = 0
 528 0000 2DE9F84F 		push	{r3, r4, r5, r6, r7, r8, r9, r10, fp, lr}
 529              		.cfi_def_cfa_offset 40
 530              		.cfi_offset 3, -40
 531              		.cfi_offset 4, -36
 532              		.cfi_offset 5, -32
 533              		.cfi_offset 6, -28
 534              		.cfi_offset 7, -24
 535              		.cfi_offset 8, -20
 536              		.cfi_offset 9, -16
 537              		.cfi_offset 10, -12
 538              		.cfi_offset 11, -8
 539              		.cfi_offset 14, -4
 540              		.loc 1 366 0
 541 0004 504E     		ldr	r6, .L71
 542 0006 4FF6FF73 		movw	r3, #65535
 543 000a F28B     		ldrh	r2, [r6, #30]	@ unaligned
 544 000c 95B2     		uxth	r5, r2
 545 000e 9D42     		cmp	r5, r3
 546 0010 4FD0     		beq	.L68
 547              	.L56:
 548              		.loc 1 370 0
 549 0012 DFF85881 		ldr	r8, .L71+36
 550 0016 4D4B     		ldr	r3, .L71+4
 551 0018 B8F80000 		ldrh	r0, [r8]
 552 001c 1988     		ldrh	r1, [r3]
 553 001e 6840     		eors	r0, r0, r5
 554 0020 0842     		tst	r0, r1
 555 0022 3BD0     		beq	.L69
 556              	.L58:
 557              		.loc 1 374 0
 558 0024 4A4B     		ldr	r3, .L71+8
 559 0026 4B4F     		ldr	r7, .L71+12
 560 0028 1D88     		ldrh	r5, [r3]
 561 002a 5B88     		ldrh	r3, [r3, #2]
 562 002c 3D80     		strh	r5, [r7]	@ movhi
 563 002e 7B80     		strh	r3, [r7, #2]	@ movhi
 564              	.L60:
ARM GAS  /tmp/cciOqgza.s 			page 11


 565              		.loc 1 380 0
 566 0030 DFF83CA1 		ldr	r10, .L71+40
 567              		.loc 1 382 0
 568 0034 B7F80290 		ldrh	r9, [r7, #2]
 569 0038 474B     		ldr	r3, .L71+16
 570 003a 0124     		movs	r4, #1
 571 003c 4FF0000C 		mov	ip, #0
 572 0040 05E0     		b	.L64
 573              	.LVL28:
 574              	.L61:
 575              		.loc 1 380 0
 576 0042 092A     		cmp	r2, #9
 577 0044 03F10C03 		add	r3, r3, #12
 578 0048 0DD0     		beq	.L63
 579 004a A446     		mov	ip, r4
 580 004c 1446     		mov	r4, r2
 581              	.LVL29:
 582              	.L64:
 583              		.loc 1 382 0
 584 004e 1988     		ldrh	r1, [r3]
 585 0050 621C     		adds	r2, r4, #1
 586 0052 A942     		cmp	r1, r5
 587 0054 D2B2     		uxtb	r2, r2
 588              		.loc 1 381 0
 589 0056 1846     		mov	r0, r3
 590              		.loc 1 382 0
 591 0058 F3D1     		bne	.L61
 592              		.loc 1 382 0 is_stmt 0 discriminator 1
 593 005a 5988     		ldrh	r1, [r3, #2]
 594 005c 4945     		cmp	r1, r9
 595 005e F0D1     		bne	.L61
 596 0060 8AF800C0 		strb	ip, [r10]
 597 0064 03E0     		b	.L65
 598              	.LVL30:
 599              	.L63:
 600              		.loc 1 387 0 is_stmt 1
 601 0066 082C     		cmp	r4, #8
 602 0068 8AF80040 		strb	r4, [r10]
 603 006c 2AD0     		beq	.L70
 604              	.L65:
 605              		.loc 1 412 0
 606 006e 0346     		mov	r3, r0
 607 0070 53F8040F 		ldr	r0, [r3, #4]!	@ unaligned
 608              	.LVL31:
 609 0074 9B88     		ldrh	r3, [r3, #4]	@ unaligned
 610              	.LVL32:
 611 0076 3060     		str	r0, [r6]	@ unaligned
 612 0078 B380     		strh	r3, [r6, #4]	@ unaligned
 613              	.L57:
 614              		.loc 1 418 0
 615 007a 384B     		ldr	r3, .L71+20
 616              		.loc 1 414 0
 617 007c 384A     		ldr	r2, .L71+24
 618              		.loc 1 418 0
 619 007e 1F88     		ldrh	r7, [r3]
 620              		.loc 1 414 0
 621 0080 1568     		ldr	r5, [r2]	@ unaligned
ARM GAS  /tmp/cciOqgza.s 			page 12


 622 0082 9488     		ldrh	r4, [r2, #4]	@ unaligned
 623 0084 3748     		ldr	r0, .L71+28
 624              		.loc 1 418 0
 625 0086 0E37     		adds	r7, r7, #14
 626              		.loc 1 416 0
 627 0088 0021     		movs	r1, #0
 628 008a 0822     		movs	r2, #8
 629              		.loc 1 414 0
 630 008c C6F80650 		str	r5, [r6, #6]	@ unaligned
 631              		.loc 1 418 0
 632 0090 1F80     		strh	r7, [r3]	@ movhi
 633              		.loc 1 414 0
 634 0092 8480     		strh	r4, [r0, #4]	@ unaligned
 635              		.loc 1 416 0
 636 0094 7173     		strb	r1, [r6, #13]
 637 0096 3273     		strb	r2, [r6, #12]
 638 0098 BDE8F88F 		pop	{r3, r4, r5, r6, r7, r8, r9, r10, fp, pc}
 639              	.L69:
 640              		.loc 1 370 0 discriminator 1
 641 009c 318C     		ldrh	r1, [r6, #32]	@ unaligned
 642 009e B8F80200 		ldrh	r0, [r8, #2]
 643 00a2 5B88     		ldrh	r3, [r3, #2]
 644 00a4 4840     		eors	r0, r0, r1
 645 00a6 1842     		tst	r0, r3
 646 00a8 BCD1     		bne	.L58
 647              		.loc 1 377 0
 648 00aa 2A4F     		ldr	r7, .L71+12
 649 00ac 3A80     		strh	r2, [r7]	@ movhi
 650 00ae 7980     		strh	r1, [r7, #2]	@ movhi
 651 00b0 BEE7     		b	.L60
 652              	.L68:
 653              		.loc 1 366 0 discriminator 1
 654 00b2 338C     		ldrh	r3, [r6, #32]	@ unaligned
 655 00b4 AB42     		cmp	r3, r5
 656 00b6 ACD1     		bne	.L56
 657              		.loc 1 367 0
 658 00b8 2B4B     		ldr	r3, .L71+32
 659 00ba 1868     		ldr	r0, [r3]	@ unaligned
 660 00bc 9B88     		ldrh	r3, [r3, #4]	@ unaligned
 661 00be 3060     		str	r0, [r6]	@ unaligned
 662 00c0 B380     		strh	r3, [r6, #4]	@ unaligned
 663 00c2 DAE7     		b	.L57
 664              	.LVL33:
 665              	.L70:
 666              		.loc 1 391 0
 667 00c4 FF21     		movs	r1, #255
 668 00c6 0622     		movs	r2, #6
 669 00c8 1F48     		ldr	r0, .L71
 670              	.LVL34:
 671 00ca FFF7FEFF 		bl	memset
 672              	.LVL35:
 673              		.loc 1 393 0
 674 00ce 244B     		ldr	r3, .L71+24
 675 00d0 244A     		ldr	r2, .L71+28
 676              		.loc 1 396 0
 677 00d2 7988     		ldrh	r1, [r7, #2]
 678              		.loc 1 393 0
ARM GAS  /tmp/cciOqgza.s 			page 13


 679 00d4 9888     		ldrh	r0, [r3, #4]	@ unaligned
 680 00d6 1F68     		ldr	r7, [r3]	@ unaligned
 681              		.loc 1 397 0
 682 00d8 B8F80090 		ldrh	r9, [r8]
 683              		.loc 1 405 0
 684 00dc 02F1300B 		add	fp, r2, #48
 685              		.loc 1 403 0
 686 00e0 3473     		strb	r4, [r6, #12]
 687              		.loc 1 405 0
 688 00e2 DFF890A0 		ldr	r10, .L71+44
 689              		.loc 1 397 0
 690 00e6 B8F80280 		ldrh	r8, [r8, #2]
 691              		.loc 1 393 0
 692 00ea C6F80670 		str	r7, [r6, #6]	@ unaligned
 693              		.loc 1 394 0
 694 00ee C6F81670 		str	r7, [r6, #22]	@ unaligned
 695              		.loc 1 393 0
 696 00f2 9080     		strh	r0, [r2, #4]	@ unaligned
 697              		.loc 1 394 0
 698 00f4 9082     		strh	r0, [r2, #20]	@ unaligned
 699              		.loc 1 407 0
 700 00f6 194A     		ldr	r2, .L71+20
 701              		.loc 1 392 0
 702 00f8 0023     		movs	r3, #0
 703              		.loc 1 407 0
 704 00fa 4FF02A0C 		mov	ip, #42
 705              		.loc 1 396 0
 706 00fe 3185     		strh	r1, [r6, #40]	@ unaligned
 707 0100 F584     		strh	r5, [r6, #38]	@ unaligned
 708              		.loc 1 398 0
 709 0102 0121     		movs	r1, #1
 710              		.loc 1 401 0
 711 0104 0625     		movs	r5, #6
 712              		.loc 1 400 0
 713 0106 3474     		strb	r4, [r6, #16]
 714              		.loc 1 402 0
 715 0108 0424     		movs	r4, #4
 716              		.loc 1 405 0
 717 010a CAF800B0 		str	fp, [r10]
 718              		.loc 1 397 0
 719 010e A6F81C90 		strh	r9, [r6, #28]	@ unaligned
 720 0112 A6F81E80 		strh	r8, [r6, #30]	@ unaligned
 721              		.loc 1 407 0
 722 0116 A2F800C0 		strh	ip, [r2]	@ movhi
 723              		.loc 1 392 0
 724 011a 86F82030 		strb	r3, [r6, #32]
 725 011e 86F82130 		strb	r3, [r6, #33]
 726 0122 86F82230 		strb	r3, [r6, #34]
 727 0126 86F82330 		strb	r3, [r6, #35]
 728 012a 86F82430 		strb	r3, [r6, #36]
 729 012e 86F82530 		strb	r3, [r6, #37]
 730              		.loc 1 398 0
 731 0132 3375     		strb	r3, [r6, #20]
 732              		.loc 1 399 0
 733 0134 B373     		strb	r3, [r6, #14]
 734              		.loc 1 400 0
 735 0136 7374     		strb	r3, [r6, #17]
ARM GAS  /tmp/cciOqgza.s 			page 14


 736              		.loc 1 398 0
 737 0138 7175     		strb	r1, [r6, #21]
 738              		.loc 1 399 0
 739 013a F173     		strb	r1, [r6, #15]
 740              		.loc 1 401 0
 741 013c B574     		strb	r5, [r6, #18]
 742              		.loc 1 403 0
 743 013e 7573     		strb	r5, [r6, #13]
 744              		.loc 1 402 0
 745 0140 F474     		strb	r4, [r6, #19]
 746              		.loc 1 408 0
 747 0142 BDE8F88F 		pop	{r3, r4, r5, r6, r7, r8, r9, r10, fp, pc}
 748              	.L72:
 749 0146 00BF     		.align	2
 750              	.L71:
 751 0148 00000000 		.word	uip_buf
 752 014c 00000000 		.word	uip_netmask
 753 0150 00000000 		.word	uip_draddr
 754 0154 00000000 		.word	.LANCHOR6
 755 0158 00000000 		.word	.LANCHOR1
 756 015c 00000000 		.word	uip_len
 757 0160 00000000 		.word	uip_ethaddr
 758 0164 06000000 		.word	uip_buf+6
 759 0168 00000000 		.word	.LANCHOR5
 760 016c 00000000 		.word	uip_hostaddr
 761 0170 00000000 		.word	.LANCHOR0
 762 0174 00000000 		.word	uip_appdata
 763              		.cfi_endproc
 764              	.LFE4:
 765              		.size	uip_arp_out, .-uip_arp_out
 766 0178 AFF30080 		.section	.bss.i,"aw",%nobits
 766      AFF30080 
 767              		.set	.LANCHOR0,. + 0
 768              		.type	i, %object
 769              		.size	i, 1
 770              	i:
 771 0000 00       		.space	1
 772              		.section	.bss.tmpage,"aw",%nobits
 773              		.set	.LANCHOR3,. + 0
 774              		.type	tmpage, %object
 775              		.size	tmpage, 1
 776              	tmpage:
 777 0000 00       		.space	1
 778              		.section	.bss.arp_table,"aw",%nobits
 779              		.align	2
 780              		.set	.LANCHOR1,. + 0
 781              		.type	arp_table, %object
 782              		.size	arp_table, 96
 783              	arp_table:
 784 0000 00000000 		.space	96
 784      00000000 
 784      00000000 
 784      00000000 
 784      00000000 
 785              		.section	.rodata.broadcast_ethaddr,"a",%progbits
 786              		.align	2
 787              		.set	.LANCHOR5,. + 0
ARM GAS  /tmp/cciOqgza.s 			page 15


 788              		.type	broadcast_ethaddr, %object
 789              		.size	broadcast_ethaddr, 6
 790              	broadcast_ethaddr:
 791 0000 FF       		.byte	-1
 792 0001 FF       		.byte	-1
 793 0002 FF       		.byte	-1
 794 0003 FF       		.byte	-1
 795 0004 FF       		.byte	-1
 796 0005 FF       		.byte	-1
 797 0006 0000     		.section	.bss.c,"aw",%nobits
 798              		.set	.LANCHOR4,. + 0
 799              		.type	c, %object
 800              		.size	c, 1
 801              	c:
 802 0000 00       		.space	1
 803              		.section	.bss.arptime,"aw",%nobits
 804              		.set	.LANCHOR2,. + 0
 805              		.type	arptime, %object
 806              		.size	arptime, 1
 807              	arptime:
 808 0000 00       		.space	1
 809              		.section	.bss.ipaddr,"aw",%nobits
 810              		.align	2
 811              		.set	.LANCHOR6,. + 0
 812              		.type	ipaddr, %object
 813              		.size	ipaddr, 4
 814              	ipaddr:
 815 0000 00000000 		.space	4
 816              		.text
 817              	.Letext0:
 818              		.file 2 "/usr/include/newlib/machine/_default_types.h"
 819              		.file 3 "/usr/include/newlib/stdint.h"
 820              		.file 4 "./uip-conf.h"
 821              		.file 5 "../uip/uip.h"
 822              		.file 6 "../uip/uip_arp.h"
 823              		.file 7 "/usr/lib/gcc/arm-none-eabi/4.8/include/stddef.h"
 824              		.file 8 "/usr/include/newlib/string.h"
 825              		.section	.debug_info,"",%progbits
 826              	.Ldebug_info0:
 827 0000 C5040000 		.4byte	0x4c5
 828 0004 0400     		.2byte	0x4
 829 0006 00000000 		.4byte	.Ldebug_abbrev0
 830 000a 04       		.byte	0x4
 831 000b 01       		.uleb128 0x1
 832 000c F2010000 		.4byte	.LASF63
 833 0010 01       		.byte	0x1
 834 0011 0B030000 		.4byte	.LASF64
 835 0015 D6000000 		.4byte	.LASF65
 836 0019 00000000 		.4byte	.Ldebug_ranges0+0
 837 001d 00000000 		.4byte	0
 838 0021 00000000 		.4byte	.Ldebug_line0
 839 0025 02       		.uleb128 0x2
 840 0026 01       		.byte	0x1
 841 0027 06       		.byte	0x6
 842 0028 5D000000 		.4byte	.LASF0
 843 002c 03       		.uleb128 0x3
 844 002d 13000000 		.4byte	.LASF3
ARM GAS  /tmp/cciOqgza.s 			page 16


 845 0031 02       		.byte	0x2
 846 0032 1D       		.byte	0x1d
 847 0033 37000000 		.4byte	0x37
 848 0037 02       		.uleb128 0x2
 849 0038 01       		.byte	0x1
 850 0039 08       		.byte	0x8
 851 003a C0020000 		.4byte	.LASF1
 852 003e 02       		.uleb128 0x2
 853 003f 02       		.byte	0x2
 854 0040 05       		.byte	0x5
 855 0041 DB020000 		.4byte	.LASF2
 856 0045 03       		.uleb128 0x3
 857 0046 3A030000 		.4byte	.LASF4
 858 004a 02       		.byte	0x2
 859 004b 2B       		.byte	0x2b
 860 004c 50000000 		.4byte	0x50
 861 0050 02       		.uleb128 0x2
 862 0051 02       		.byte	0x2
 863 0052 07       		.byte	0x7
 864 0053 48010000 		.4byte	.LASF5
 865 0057 02       		.uleb128 0x2
 866 0058 04       		.byte	0x4
 867 0059 05       		.byte	0x5
 868 005a 93000000 		.4byte	.LASF6
 869 005e 02       		.uleb128 0x2
 870 005f 04       		.byte	0x4
 871 0060 07       		.byte	0x7
 872 0061 2C010000 		.4byte	.LASF7
 873 0065 02       		.uleb128 0x2
 874 0066 08       		.byte	0x8
 875 0067 05       		.byte	0x5
 876 0068 4F000000 		.4byte	.LASF8
 877 006c 02       		.uleb128 0x2
 878 006d 08       		.byte	0x8
 879 006e 07       		.byte	0x7
 880 006f 2C000000 		.4byte	.LASF9
 881 0073 04       		.uleb128 0x4
 882 0074 04       		.byte	0x4
 883 0075 05       		.byte	0x5
 884 0076 696E7400 		.ascii	"int\000"
 885 007a 02       		.uleb128 0x2
 886 007b 04       		.byte	0x4
 887 007c 07       		.byte	0x7
 888 007d C9000000 		.4byte	.LASF10
 889 0081 03       		.uleb128 0x3
 890 0082 96030000 		.4byte	.LASF11
 891 0086 03       		.byte	0x3
 892 0087 2A       		.byte	0x2a
 893 0088 2C000000 		.4byte	0x2c
 894 008c 03       		.uleb128 0x3
 895 008d B1000000 		.4byte	.LASF12
 896 0091 03       		.byte	0x3
 897 0092 36       		.byte	0x36
 898 0093 45000000 		.4byte	0x45
 899 0097 02       		.uleb128 0x2
 900 0098 01       		.byte	0x1
 901 0099 08       		.byte	0x8
ARM GAS  /tmp/cciOqgza.s 			page 17


 902 009a 24030000 		.4byte	.LASF13
 903 009e 03       		.uleb128 0x3
 904 009f A7010000 		.4byte	.LASF14
 905 00a3 04       		.byte	0x4
 906 00a4 54       		.byte	0x54
 907 00a5 81000000 		.4byte	0x81
 908 00a9 03       		.uleb128 0x3
 909 00aa 6E030000 		.4byte	.LASF15
 910 00ae 04       		.byte	0x4
 911 00af 5D       		.byte	0x5d
 912 00b0 8C000000 		.4byte	0x8c
 913 00b4 03       		.uleb128 0x3
 914 00b5 B5010000 		.4byte	.LASF16
 915 00b9 05       		.byte	0x5
 916 00ba 3E       		.byte	0x3e
 917 00bb BF000000 		.4byte	0xbf
 918 00bf 05       		.uleb128 0x5
 919 00c0 A9000000 		.4byte	0xa9
 920 00c4 CF000000 		.4byte	0xcf
 921 00c8 06       		.uleb128 0x6
 922 00c9 CF000000 		.4byte	0xcf
 923 00cd 01       		.byte	0x1
 924 00ce 00       		.byte	0
 925 00cf 02       		.uleb128 0x2
 926 00d0 04       		.byte	0x4
 927 00d1 07       		.byte	0x7
 928 00d2 AC010000 		.4byte	.LASF17
 929 00d6 03       		.uleb128 0x3
 930 00d7 45030000 		.4byte	.LASF18
 931 00db 05       		.byte	0x5
 932 00dc 43       		.byte	0x43
 933 00dd B4000000 		.4byte	0xb4
 934 00e1 05       		.uleb128 0x5
 935 00e2 9E000000 		.4byte	0x9e
 936 00e6 F1000000 		.4byte	0xf1
 937 00ea 06       		.uleb128 0x6
 938 00eb CF000000 		.4byte	0xcf
 939 00ef 01       		.byte	0x1
 940 00f0 00       		.byte	0
 941 00f1 07       		.uleb128 0x7
 942 00f2 A6030000 		.4byte	.LASF19
 943 00f6 06       		.byte	0x6
 944 00f7 05       		.byte	0x5
 945 00f8 0606     		.2byte	0x606
 946 00fa 0C010000 		.4byte	0x10c
 947 00fe 08       		.uleb128 0x8
 948 00ff 43000000 		.4byte	.LASF21
 949 0103 05       		.byte	0x5
 950 0104 0706     		.2byte	0x607
 951 0106 0C010000 		.4byte	0x10c
 952 010a 00       		.byte	0
 953 010b 00       		.byte	0
 954 010c 05       		.uleb128 0x5
 955 010d 9E000000 		.4byte	0x9e
 956 0111 1C010000 		.4byte	0x11c
 957 0115 06       		.uleb128 0x6
 958 0116 CF000000 		.4byte	0xcf
ARM GAS  /tmp/cciOqgza.s 			page 18


 959 011a 05       		.byte	0x5
 960 011b 00       		.byte	0
 961 011c 09       		.uleb128 0x9
 962 011d 87000000 		.4byte	.LASF20
 963 0121 0E       		.byte	0xe
 964 0122 06       		.byte	0x6
 965 0123 3F       		.byte	0x3f
 966 0124 4D010000 		.4byte	0x14d
 967 0128 0A       		.uleb128 0xa
 968 0129 E2010000 		.4byte	.LASF22
 969 012d 06       		.byte	0x6
 970 012e 40       		.byte	0x40
 971 012f F1000000 		.4byte	0xf1
 972 0133 00       		.byte	0
 973 0134 0B       		.uleb128 0xb
 974 0135 73726300 		.ascii	"src\000"
 975 0139 06       		.byte	0x6
 976 013a 41       		.byte	0x41
 977 013b F1000000 		.4byte	0xf1
 978 013f 06       		.byte	0x6
 979 0140 0A       		.uleb128 0xa
 980 0141 27000000 		.4byte	.LASF23
 981 0145 06       		.byte	0x6
 982 0146 42       		.byte	0x42
 983 0147 A9000000 		.4byte	0xa9
 984 014b 0C       		.byte	0xc
 985 014c 00       		.byte	0
 986 014d 03       		.uleb128 0x3
 987 014e 0C000000 		.4byte	.LASF24
 988 0152 07       		.byte	0x7
 989 0153 D4       		.byte	0xd4
 990 0154 7A000000 		.4byte	0x7a
 991 0158 0C       		.uleb128 0xc
 992 0159 04       		.byte	0x4
 993 015a 09       		.uleb128 0x9
 994 015b 66030000 		.4byte	.LASF25
 995 015f 2A       		.byte	0x2a
 996 0160 01       		.byte	0x1
 997 0161 42       		.byte	0x42
 998 0162 DF010000 		.4byte	0x1df
 999 0166 0A       		.uleb128 0xa
 1000 0167 48000000 		.4byte	.LASF26
 1001 016b 01       		.byte	0x1
 1002 016c 43       		.byte	0x43
 1003 016d 1C010000 		.4byte	0x11c
 1004 0171 00       		.byte	0
 1005 0172 0A       		.uleb128 0xa
 1006 0173 52030000 		.4byte	.LASF27
 1007 0177 01       		.byte	0x1
 1008 0178 44       		.byte	0x44
 1009 0179 A9000000 		.4byte	0xa9
 1010 017d 0E       		.byte	0xe
 1011 017e 0A       		.uleb128 0xa
 1012 017f B7020000 		.4byte	.LASF28
 1013 0183 01       		.byte	0x1
 1014 0184 45       		.byte	0x45
 1015 0185 A9000000 		.4byte	0xa9
ARM GAS  /tmp/cciOqgza.s 			page 19


 1016 0189 10       		.byte	0x10
 1017 018a 0A       		.uleb128 0xa
 1018 018b FF020000 		.4byte	.LASF29
 1019 018f 01       		.byte	0x1
 1020 0190 46       		.byte	0x46
 1021 0191 9E000000 		.4byte	0x9e
 1022 0195 12       		.byte	0x12
 1023 0196 0A       		.uleb128 0xa
 1024 0197 F6020000 		.4byte	.LASF30
 1025 019b 01       		.byte	0x1
 1026 019c 47       		.byte	0x47
 1027 019d 9E000000 		.4byte	0x9e
 1028 01a1 13       		.byte	0x13
 1029 01a2 0A       		.uleb128 0xa
 1030 01a3 BB030000 		.4byte	.LASF31
 1031 01a7 01       		.byte	0x1
 1032 01a8 48       		.byte	0x48
 1033 01a9 A9000000 		.4byte	0xa9
 1034 01ad 14       		.byte	0x14
 1035 01ae 0A       		.uleb128 0xa
 1036 01af 9C000000 		.4byte	.LASF32
 1037 01b3 01       		.byte	0x1
 1038 01b4 49       		.byte	0x49
 1039 01b5 F1000000 		.4byte	0xf1
 1040 01b9 16       		.byte	0x16
 1041 01ba 0A       		.uleb128 0xa
 1042 01bb 9E030000 		.4byte	.LASF33
 1043 01bf 01       		.byte	0x1
 1044 01c0 4A       		.byte	0x4a
 1045 01c1 BF000000 		.4byte	0xbf
 1046 01c5 1C       		.byte	0x1c
 1047 01c6 0A       		.uleb128 0xa
 1048 01c7 75000000 		.4byte	.LASF34
 1049 01cb 01       		.byte	0x1
 1050 01cc 4B       		.byte	0x4b
 1051 01cd F1000000 		.4byte	0xf1
 1052 01d1 20       		.byte	0x20
 1053 01d2 0A       		.uleb128 0xa
 1054 01d3 8E030000 		.4byte	.LASF35
 1055 01d7 01       		.byte	0x1
 1056 01d8 4C       		.byte	0x4c
 1057 01d9 BF000000 		.4byte	0xbf
 1058 01dd 26       		.byte	0x26
 1059 01de 00       		.byte	0
 1060 01df 09       		.uleb128 0x9
 1061 01e0 1D000000 		.4byte	.LASF36
 1062 01e4 22       		.byte	0x22
 1063 01e5 01       		.byte	0x1
 1064 01e6 4F       		.byte	0x4f
 1065 01e7 70020000 		.4byte	0x270
 1066 01eb 0A       		.uleb128 0xa
 1067 01ec 48000000 		.4byte	.LASF26
 1068 01f0 01       		.byte	0x1
 1069 01f1 50       		.byte	0x50
 1070 01f2 1C010000 		.4byte	0x11c
 1071 01f6 00       		.byte	0
 1072 01f7 0B       		.uleb128 0xb
ARM GAS  /tmp/cciOqgza.s 			page 20


 1073 01f8 76686C00 		.ascii	"vhl\000"
 1074 01fc 01       		.byte	0x1
 1075 01fd 52       		.byte	0x52
 1076 01fe 9E000000 		.4byte	0x9e
 1077 0202 0E       		.byte	0xe
 1078 0203 0B       		.uleb128 0xb
 1079 0204 746F7300 		.ascii	"tos\000"
 1080 0208 01       		.byte	0x1
 1081 0209 53       		.byte	0x53
 1082 020a 9E000000 		.4byte	0x9e
 1083 020e 0F       		.byte	0xf
 1084 020f 0B       		.uleb128 0xb
 1085 0210 6C656E00 		.ascii	"len\000"
 1086 0214 01       		.byte	0x1
 1087 0215 54       		.byte	0x54
 1088 0216 E1000000 		.4byte	0xe1
 1089 021a 10       		.byte	0x10
 1090 021b 0A       		.uleb128 0xa
 1091 021c E5020000 		.4byte	.LASF37
 1092 0220 01       		.byte	0x1
 1093 0221 55       		.byte	0x55
 1094 0222 E1000000 		.4byte	0xe1
 1095 0226 12       		.byte	0x12
 1096 0227 0A       		.uleb128 0xa
 1097 0228 6D010000 		.4byte	.LASF38
 1098 022c 01       		.byte	0x1
 1099 022d 56       		.byte	0x56
 1100 022e E1000000 		.4byte	0xe1
 1101 0232 14       		.byte	0x14
 1102 0233 0B       		.uleb128 0xb
 1103 0234 74746C00 		.ascii	"ttl\000"
 1104 0238 01       		.byte	0x1
 1105 0239 57       		.byte	0x57
 1106 023a 9E000000 		.4byte	0x9e
 1107 023e 16       		.byte	0x16
 1108 023f 0A       		.uleb128 0xa
 1109 0240 05030000 		.4byte	.LASF39
 1110 0244 01       		.byte	0x1
 1111 0245 58       		.byte	0x58
 1112 0246 9E000000 		.4byte	0x9e
 1113 024a 17       		.byte	0x17
 1114 024b 0A       		.uleb128 0xa
 1115 024c D9010000 		.4byte	.LASF40
 1116 0250 01       		.byte	0x1
 1117 0251 59       		.byte	0x59
 1118 0252 A9000000 		.4byte	0xa9
 1119 0256 18       		.byte	0x18
 1120 0257 0A       		.uleb128 0xa
 1121 0258 3E010000 		.4byte	.LASF41
 1122 025c 01       		.byte	0x1
 1123 025d 5A       		.byte	0x5a
 1124 025e BF000000 		.4byte	0xbf
 1125 0262 1A       		.byte	0x1a
 1126 0263 0A       		.uleb128 0xa
 1127 0264 E7010000 		.4byte	.LASF42
 1128 0268 01       		.byte	0x1
 1129 0269 5B       		.byte	0x5b
ARM GAS  /tmp/cciOqgza.s 			page 21


 1130 026a BF000000 		.4byte	0xbf
 1131 026e 1E       		.byte	0x1e
 1132 026f 00       		.byte	0
 1133 0270 09       		.uleb128 0x9
 1134 0271 7D000000 		.4byte	.LASF43
 1135 0275 0C       		.byte	0xc
 1136 0276 01       		.byte	0x1
 1137 0277 63       		.byte	0x63
 1138 0278 A1020000 		.4byte	0x2a1
 1139 027c 0A       		.uleb128 0xa
 1140 027d 87030000 		.4byte	.LASF44
 1141 0281 01       		.byte	0x1
 1142 0282 64       		.byte	0x64
 1143 0283 BF000000 		.4byte	0xbf
 1144 0287 00       		.byte	0
 1145 0288 0A       		.uleb128 0xa
 1146 0289 B3030000 		.4byte	.LASF45
 1147 028d 01       		.byte	0x1
 1148 028e 65       		.byte	0x65
 1149 028f F1000000 		.4byte	0xf1
 1150 0293 04       		.byte	0x4
 1151 0294 0A       		.uleb128 0xa
 1152 0295 59030000 		.4byte	.LASF46
 1153 0299 01       		.byte	0x1
 1154 029a 66       		.byte	0x66
 1155 029b 9E000000 		.4byte	0x9e
 1156 029f 0A       		.byte	0xa
 1157 02a0 00       		.byte	0
 1158 02a1 0D       		.uleb128 0xd
 1159 02a2 BA000000 		.4byte	.LASF66
 1160 02a6 01       		.byte	0x1
 1161 02a7 9E       		.byte	0x9e
 1162 02a8 01       		.byte	0x1
 1163 02a9 CF020000 		.4byte	0x2cf
 1164 02ad 0E       		.uleb128 0xe
 1165 02ae 87030000 		.4byte	.LASF44
 1166 02b2 01       		.byte	0x1
 1167 02b3 9E       		.byte	0x9e
 1168 02b4 CF020000 		.4byte	0x2cf
 1169 02b8 0E       		.uleb128 0xe
 1170 02b9 B3030000 		.4byte	.LASF45
 1171 02bd 01       		.byte	0x1
 1172 02be 9E       		.byte	0x9e
 1173 02bf D5020000 		.4byte	0x2d5
 1174 02c3 0F       		.uleb128 0xf
 1175 02c4 D2010000 		.4byte	.LASF50
 1176 02c8 01       		.byte	0x1
 1177 02c9 A0       		.byte	0xa0
 1178 02ca DB020000 		.4byte	0x2db
 1179 02ce 00       		.byte	0
 1180 02cf 10       		.uleb128 0x10
 1181 02d0 04       		.byte	0x4
 1182 02d1 A9000000 		.4byte	0xa9
 1183 02d5 10       		.uleb128 0x10
 1184 02d6 04       		.byte	0x4
 1185 02d7 F1000000 		.4byte	0xf1
 1186 02db 10       		.uleb128 0x10
ARM GAS  /tmp/cciOqgza.s 			page 22


 1187 02dc 04       		.byte	0x4
 1188 02dd 70020000 		.4byte	0x270
 1189 02e1 11       		.uleb128 0x11
 1190 02e2 A1020000 		.4byte	0x2a1
 1191 02e6 00000000 		.4byte	.LFB5
 1192 02ea 14010000 		.4byte	.LFE5-.LFB5
 1193 02ee 01       		.uleb128 0x1
 1194 02ef 9C       		.byte	0x9c
 1195 02f0 10030000 		.4byte	0x310
 1196 02f4 12       		.uleb128 0x12
 1197 02f5 C3020000 		.4byte	0x2c3
 1198 02f9 00000000 		.4byte	.LLST0
 1199 02fd 13       		.uleb128 0x13
 1200 02fe B8020000 		.4byte	0x2b8
 1201 0302 9D000000 		.4byte	.LLST1
 1202 0306 13       		.uleb128 0x13
 1203 0307 AD020000 		.4byte	0x2ad
 1204 030b B0000000 		.4byte	.LLST2
 1205 030f 00       		.byte	0
 1206 0310 14       		.uleb128 0x14
 1207 0311 CE020000 		.4byte	.LASF67
 1208 0315 01       		.byte	0x1
 1209 0316 7D       		.byte	0x7d
 1210 0317 00000000 		.4byte	.LFB0
 1211 031b 28000000 		.4byte	.LFE0-.LFB0
 1212 031f 01       		.uleb128 0x1
 1213 0320 9C       		.byte	0x9c
 1214 0321 15       		.uleb128 0x15
 1215 0322 76010000 		.4byte	.LASF47
 1216 0326 01       		.byte	0x1
 1217 0327 8E       		.byte	0x8e
 1218 0328 00000000 		.4byte	.LFB1
 1219 032c 64000000 		.4byte	.LFE1-.LFB1
 1220 0330 01       		.uleb128 0x1
 1221 0331 9C       		.byte	0x9c
 1222 0332 46030000 		.4byte	0x346
 1223 0336 16       		.uleb128 0x16
 1224 0337 D2010000 		.4byte	.LASF50
 1225 033b 01       		.byte	0x1
 1226 033c 90       		.byte	0x90
 1227 033d DB020000 		.4byte	0x2db
 1228 0341 C3000000 		.4byte	.LLST3
 1229 0345 00       		.byte	0
 1230 0346 17       		.uleb128 0x17
 1231 0347 99010000 		.4byte	.LASF48
 1232 034b 01       		.byte	0x1
 1233 034c 1601     		.2byte	0x116
 1234 034e 00000000 		.4byte	.LFB3
 1235 0352 D8000000 		.4byte	.LFE3-.LFB3
 1236 0356 01       		.uleb128 0x1
 1237 0357 9C       		.byte	0x9c
 1238 0358 6F030000 		.4byte	0x36f
 1239 035c 18       		.uleb128 0x18
 1240 035d 54000000 		.4byte	.LVL26
 1241 0361 E1020000 		.4byte	0x2e1
 1242 0365 19       		.uleb128 0x19
 1243 0366 60000000 		.4byte	.LVL27
ARM GAS  /tmp/cciOqgza.s 			page 23


 1244 036a E1020000 		.4byte	0x2e1
 1245 036e 00       		.byte	0
 1246 036f 17       		.uleb128 0x17
 1247 0370 7B030000 		.4byte	.LASF49
 1248 0374 01       		.byte	0x1
 1249 0375 6201     		.2byte	0x162
 1250 0377 00000000 		.4byte	.LFB4
 1251 037b 78010000 		.4byte	.LFE4-.LFB4
 1252 037f 01       		.uleb128 0x1
 1253 0380 9C       		.byte	0x9c
 1254 0381 B1030000 		.4byte	0x3b1
 1255 0385 1A       		.uleb128 0x1a
 1256 0386 D2010000 		.4byte	.LASF50
 1257 038a 01       		.byte	0x1
 1258 038b 6401     		.2byte	0x164
 1259 038d DB020000 		.4byte	0x2db
 1260 0391 FB000000 		.4byte	.LLST4
 1261 0395 1B       		.uleb128 0x1b
 1262 0396 CE000000 		.4byte	.LVL35
 1263 039a AD040000 		.4byte	0x4ad
 1264 039e 1C       		.uleb128 0x1c
 1265 039f 01       		.uleb128 0x1
 1266 03a0 52       		.byte	0x52
 1267 03a1 01       		.uleb128 0x1
 1268 03a2 36       		.byte	0x36
 1269 03a3 1C       		.uleb128 0x1c
 1270 03a4 01       		.uleb128 0x1
 1271 03a5 51       		.byte	0x51
 1272 03a6 02       		.uleb128 0x2
 1273 03a7 08       		.byte	0x8
 1274 03a8 FF       		.byte	0xff
 1275 03a9 1C       		.uleb128 0x1c
 1276 03aa 01       		.uleb128 0x1
 1277 03ab 50       		.byte	0x50
 1278 03ac 02       		.uleb128 0x2
 1279 03ad 76       		.byte	0x76
 1280 03ae 00       		.sleb128 0
 1281 03af 00       		.byte	0
 1282 03b0 00       		.byte	0
 1283 03b1 1D       		.uleb128 0x1d
 1284 03b2 5B010000 		.4byte	.LASF51
 1285 03b6 01       		.byte	0x1
 1286 03b7 69       		.byte	0x69
 1287 03b8 C2030000 		.4byte	0x3c2
 1288 03bc 05       		.uleb128 0x5
 1289 03bd 03       		.byte	0x3
 1290 03be 00000000 		.4byte	broadcast_ethaddr
 1291 03c2 1E       		.uleb128 0x1e
 1292 03c3 F1000000 		.4byte	0xf1
 1293 03c7 0F       		.uleb128 0xf
 1294 03c8 29030000 		.4byte	.LASF52
 1295 03cc 01       		.byte	0x1
 1296 03cd 6B       		.byte	0x6b
 1297 03ce D2030000 		.4byte	0x3d2
 1298 03d2 1E       		.uleb128 0x1e
 1299 03d3 BF000000 		.4byte	0xbf
 1300 03d7 05       		.uleb128 0x5
ARM GAS  /tmp/cciOqgza.s 			page 24


 1301 03d8 70020000 		.4byte	0x270
 1302 03dc E7030000 		.4byte	0x3e7
 1303 03e0 06       		.uleb128 0x6
 1304 03e1 CF000000 		.4byte	0xcf
 1305 03e5 07       		.byte	0x7
 1306 03e6 00       		.byte	0
 1307 03e7 1D       		.uleb128 0x1d
 1308 03e8 84010000 		.4byte	.LASF53
 1309 03ec 01       		.byte	0x1
 1310 03ed 6D       		.byte	0x6d
 1311 03ee D7030000 		.4byte	0x3d7
 1312 03f2 05       		.uleb128 0x5
 1313 03f3 03       		.byte	0x3
 1314 03f4 00000000 		.4byte	arp_table
 1315 03f8 1D       		.uleb128 0x1d
 1316 03f9 87030000 		.4byte	.LASF44
 1317 03fd 01       		.byte	0x1
 1318 03fe 6E       		.byte	0x6e
 1319 03ff BF000000 		.4byte	0xbf
 1320 0403 05       		.uleb128 0x5
 1321 0404 03       		.byte	0x3
 1322 0405 00000000 		.4byte	ipaddr
 1323 0409 1F       		.uleb128 0x1f
 1324 040a 6900     		.ascii	"i\000"
 1325 040c 01       		.byte	0x1
 1326 040d 6F       		.byte	0x6f
 1327 040e 9E000000 		.4byte	0x9e
 1328 0412 05       		.uleb128 0x5
 1329 0413 03       		.byte	0x3
 1330 0414 00000000 		.4byte	i
 1331 0418 1F       		.uleb128 0x1f
 1332 0419 6300     		.ascii	"c\000"
 1333 041b 01       		.byte	0x1
 1334 041c 6F       		.byte	0x6f
 1335 041d 9E000000 		.4byte	0x9e
 1336 0421 05       		.uleb128 0x5
 1337 0422 03       		.byte	0x3
 1338 0423 00000000 		.4byte	c
 1339 0427 1D       		.uleb128 0x1d
 1340 0428 CA010000 		.4byte	.LASF54
 1341 042c 01       		.byte	0x1
 1342 042d 71       		.byte	0x71
 1343 042e 9E000000 		.4byte	0x9e
 1344 0432 05       		.uleb128 0x5
 1345 0433 03       		.byte	0x3
 1346 0434 00000000 		.4byte	arptime
 1347 0438 1D       		.uleb128 0x1d
 1348 0439 C3010000 		.4byte	.LASF55
 1349 043d 01       		.byte	0x1
 1350 043e 72       		.byte	0x72
 1351 043f 9E000000 		.4byte	0x9e
 1352 0443 05       		.uleb128 0x5
 1353 0444 03       		.byte	0x3
 1354 0445 00000000 		.4byte	tmpage
 1355 0449 05       		.uleb128 0x5
 1356 044a 9E000000 		.4byte	0x9e
 1357 044e 5A040000 		.4byte	0x45a
ARM GAS  /tmp/cciOqgza.s 			page 25


 1358 0452 20       		.uleb128 0x20
 1359 0453 CF000000 		.4byte	0xcf
 1360 0457 EF05     		.2byte	0x5ef
 1361 0459 00       		.byte	0
 1362 045a 21       		.uleb128 0x21
 1363 045b 1C030000 		.4byte	.LASF56
 1364 045f 05       		.byte	0x5
 1365 0460 A601     		.2byte	0x1a6
 1366 0462 49040000 		.4byte	0x449
 1367 0466 21       		.uleb128 0x21
 1368 0467 69000000 		.4byte	.LASF57
 1369 046b 05       		.byte	0x5
 1370 046c 4B04     		.2byte	0x44b
 1371 046e 58010000 		.4byte	0x158
 1372 0472 21       		.uleb128 0x21
 1373 0473 5E030000 		.4byte	.LASF58
 1374 0477 05       		.byte	0x5
 1375 0478 6E04     		.2byte	0x46e
 1376 047a A9000000 		.4byte	0xa9
 1377 047e 21       		.uleb128 0x21
 1378 047f A4000000 		.4byte	.LASF59
 1379 0483 05       		.byte	0x5
 1380 0484 FE05     		.2byte	0x5fe
 1381 0486 D6000000 		.4byte	0xd6
 1382 048a 21       		.uleb128 0x21
 1383 048b 00000000 		.4byte	.LASF60
 1384 048f 05       		.byte	0x5
 1385 0490 FE05     		.2byte	0x5fe
 1386 0492 D6000000 		.4byte	0xd6
 1387 0496 21       		.uleb128 0x21
 1388 0497 8E010000 		.4byte	.LASF61
 1389 049b 05       		.byte	0x5
 1390 049c FE05     		.2byte	0x5fe
 1391 049e D6000000 		.4byte	0xd6
 1392 04a2 22       		.uleb128 0x22
 1393 04a3 EA020000 		.4byte	.LASF62
 1394 04a7 06       		.byte	0x6
 1395 04a8 3A       		.byte	0x3a
 1396 04a9 F1000000 		.4byte	0xf1
 1397 04ad 23       		.uleb128 0x23
 1398 04ae 74030000 		.4byte	.LASF68
 1399 04b2 08       		.byte	0x8
 1400 04b3 19       		.byte	0x19
 1401 04b4 58010000 		.4byte	0x158
 1402 04b8 24       		.uleb128 0x24
 1403 04b9 58010000 		.4byte	0x158
 1404 04bd 24       		.uleb128 0x24
 1405 04be 73000000 		.4byte	0x73
 1406 04c2 24       		.uleb128 0x24
 1407 04c3 4D010000 		.4byte	0x14d
 1408 04c7 00       		.byte	0
 1409 04c8 00       		.byte	0
 1410              		.section	.debug_abbrev,"",%progbits
 1411              	.Ldebug_abbrev0:
 1412 0000 01       		.uleb128 0x1
 1413 0001 11       		.uleb128 0x11
 1414 0002 01       		.byte	0x1
ARM GAS  /tmp/cciOqgza.s 			page 26


 1415 0003 25       		.uleb128 0x25
 1416 0004 0E       		.uleb128 0xe
 1417 0005 13       		.uleb128 0x13
 1418 0006 0B       		.uleb128 0xb
 1419 0007 03       		.uleb128 0x3
 1420 0008 0E       		.uleb128 0xe
 1421 0009 1B       		.uleb128 0x1b
 1422 000a 0E       		.uleb128 0xe
 1423 000b 55       		.uleb128 0x55
 1424 000c 17       		.uleb128 0x17
 1425 000d 11       		.uleb128 0x11
 1426 000e 01       		.uleb128 0x1
 1427 000f 10       		.uleb128 0x10
 1428 0010 17       		.uleb128 0x17
 1429 0011 00       		.byte	0
 1430 0012 00       		.byte	0
 1431 0013 02       		.uleb128 0x2
 1432 0014 24       		.uleb128 0x24
 1433 0015 00       		.byte	0
 1434 0016 0B       		.uleb128 0xb
 1435 0017 0B       		.uleb128 0xb
 1436 0018 3E       		.uleb128 0x3e
 1437 0019 0B       		.uleb128 0xb
 1438 001a 03       		.uleb128 0x3
 1439 001b 0E       		.uleb128 0xe
 1440 001c 00       		.byte	0
 1441 001d 00       		.byte	0
 1442 001e 03       		.uleb128 0x3
 1443 001f 16       		.uleb128 0x16
 1444 0020 00       		.byte	0
 1445 0021 03       		.uleb128 0x3
 1446 0022 0E       		.uleb128 0xe
 1447 0023 3A       		.uleb128 0x3a
 1448 0024 0B       		.uleb128 0xb
 1449 0025 3B       		.uleb128 0x3b
 1450 0026 0B       		.uleb128 0xb
 1451 0027 49       		.uleb128 0x49
 1452 0028 13       		.uleb128 0x13
 1453 0029 00       		.byte	0
 1454 002a 00       		.byte	0
 1455 002b 04       		.uleb128 0x4
 1456 002c 24       		.uleb128 0x24
 1457 002d 00       		.byte	0
 1458 002e 0B       		.uleb128 0xb
 1459 002f 0B       		.uleb128 0xb
 1460 0030 3E       		.uleb128 0x3e
 1461 0031 0B       		.uleb128 0xb
 1462 0032 03       		.uleb128 0x3
 1463 0033 08       		.uleb128 0x8
 1464 0034 00       		.byte	0
 1465 0035 00       		.byte	0
 1466 0036 05       		.uleb128 0x5
 1467 0037 01       		.uleb128 0x1
 1468 0038 01       		.byte	0x1
 1469 0039 49       		.uleb128 0x49
 1470 003a 13       		.uleb128 0x13
 1471 003b 01       		.uleb128 0x1
ARM GAS  /tmp/cciOqgza.s 			page 27


 1472 003c 13       		.uleb128 0x13
 1473 003d 00       		.byte	0
 1474 003e 00       		.byte	0
 1475 003f 06       		.uleb128 0x6
 1476 0040 21       		.uleb128 0x21
 1477 0041 00       		.byte	0
 1478 0042 49       		.uleb128 0x49
 1479 0043 13       		.uleb128 0x13
 1480 0044 2F       		.uleb128 0x2f
 1481 0045 0B       		.uleb128 0xb
 1482 0046 00       		.byte	0
 1483 0047 00       		.byte	0
 1484 0048 07       		.uleb128 0x7
 1485 0049 13       		.uleb128 0x13
 1486 004a 01       		.byte	0x1
 1487 004b 03       		.uleb128 0x3
 1488 004c 0E       		.uleb128 0xe
 1489 004d 0B       		.uleb128 0xb
 1490 004e 0B       		.uleb128 0xb
 1491 004f 3A       		.uleb128 0x3a
 1492 0050 0B       		.uleb128 0xb
 1493 0051 3B       		.uleb128 0x3b
 1494 0052 05       		.uleb128 0x5
 1495 0053 01       		.uleb128 0x1
 1496 0054 13       		.uleb128 0x13
 1497 0055 00       		.byte	0
 1498 0056 00       		.byte	0
 1499 0057 08       		.uleb128 0x8
 1500 0058 0D       		.uleb128 0xd
 1501 0059 00       		.byte	0
 1502 005a 03       		.uleb128 0x3
 1503 005b 0E       		.uleb128 0xe
 1504 005c 3A       		.uleb128 0x3a
 1505 005d 0B       		.uleb128 0xb
 1506 005e 3B       		.uleb128 0x3b
 1507 005f 05       		.uleb128 0x5
 1508 0060 49       		.uleb128 0x49
 1509 0061 13       		.uleb128 0x13
 1510 0062 38       		.uleb128 0x38
 1511 0063 0B       		.uleb128 0xb
 1512 0064 00       		.byte	0
 1513 0065 00       		.byte	0
 1514 0066 09       		.uleb128 0x9
 1515 0067 13       		.uleb128 0x13
 1516 0068 01       		.byte	0x1
 1517 0069 03       		.uleb128 0x3
 1518 006a 0E       		.uleb128 0xe
 1519 006b 0B       		.uleb128 0xb
 1520 006c 0B       		.uleb128 0xb
 1521 006d 3A       		.uleb128 0x3a
 1522 006e 0B       		.uleb128 0xb
 1523 006f 3B       		.uleb128 0x3b
 1524 0070 0B       		.uleb128 0xb
 1525 0071 01       		.uleb128 0x1
 1526 0072 13       		.uleb128 0x13
 1527 0073 00       		.byte	0
 1528 0074 00       		.byte	0
ARM GAS  /tmp/cciOqgza.s 			page 28


 1529 0075 0A       		.uleb128 0xa
 1530 0076 0D       		.uleb128 0xd
 1531 0077 00       		.byte	0
 1532 0078 03       		.uleb128 0x3
 1533 0079 0E       		.uleb128 0xe
 1534 007a 3A       		.uleb128 0x3a
 1535 007b 0B       		.uleb128 0xb
 1536 007c 3B       		.uleb128 0x3b
 1537 007d 0B       		.uleb128 0xb
 1538 007e 49       		.uleb128 0x49
 1539 007f 13       		.uleb128 0x13
 1540 0080 38       		.uleb128 0x38
 1541 0081 0B       		.uleb128 0xb
 1542 0082 00       		.byte	0
 1543 0083 00       		.byte	0
 1544 0084 0B       		.uleb128 0xb
 1545 0085 0D       		.uleb128 0xd
 1546 0086 00       		.byte	0
 1547 0087 03       		.uleb128 0x3
 1548 0088 08       		.uleb128 0x8
 1549 0089 3A       		.uleb128 0x3a
 1550 008a 0B       		.uleb128 0xb
 1551 008b 3B       		.uleb128 0x3b
 1552 008c 0B       		.uleb128 0xb
 1553 008d 49       		.uleb128 0x49
 1554 008e 13       		.uleb128 0x13
 1555 008f 38       		.uleb128 0x38
 1556 0090 0B       		.uleb128 0xb
 1557 0091 00       		.byte	0
 1558 0092 00       		.byte	0
 1559 0093 0C       		.uleb128 0xc
 1560 0094 0F       		.uleb128 0xf
 1561 0095 00       		.byte	0
 1562 0096 0B       		.uleb128 0xb
 1563 0097 0B       		.uleb128 0xb
 1564 0098 00       		.byte	0
 1565 0099 00       		.byte	0
 1566 009a 0D       		.uleb128 0xd
 1567 009b 2E       		.uleb128 0x2e
 1568 009c 01       		.byte	0x1
 1569 009d 03       		.uleb128 0x3
 1570 009e 0E       		.uleb128 0xe
 1571 009f 3A       		.uleb128 0x3a
 1572 00a0 0B       		.uleb128 0xb
 1573 00a1 3B       		.uleb128 0x3b
 1574 00a2 0B       		.uleb128 0xb
 1575 00a3 27       		.uleb128 0x27
 1576 00a4 19       		.uleb128 0x19
 1577 00a5 20       		.uleb128 0x20
 1578 00a6 0B       		.uleb128 0xb
 1579 00a7 01       		.uleb128 0x1
 1580 00a8 13       		.uleb128 0x13
 1581 00a9 00       		.byte	0
 1582 00aa 00       		.byte	0
 1583 00ab 0E       		.uleb128 0xe
 1584 00ac 05       		.uleb128 0x5
 1585 00ad 00       		.byte	0
ARM GAS  /tmp/cciOqgza.s 			page 29


 1586 00ae 03       		.uleb128 0x3
 1587 00af 0E       		.uleb128 0xe
 1588 00b0 3A       		.uleb128 0x3a
 1589 00b1 0B       		.uleb128 0xb
 1590 00b2 3B       		.uleb128 0x3b
 1591 00b3 0B       		.uleb128 0xb
 1592 00b4 49       		.uleb128 0x49
 1593 00b5 13       		.uleb128 0x13
 1594 00b6 00       		.byte	0
 1595 00b7 00       		.byte	0
 1596 00b8 0F       		.uleb128 0xf
 1597 00b9 34       		.uleb128 0x34
 1598 00ba 00       		.byte	0
 1599 00bb 03       		.uleb128 0x3
 1600 00bc 0E       		.uleb128 0xe
 1601 00bd 3A       		.uleb128 0x3a
 1602 00be 0B       		.uleb128 0xb
 1603 00bf 3B       		.uleb128 0x3b
 1604 00c0 0B       		.uleb128 0xb
 1605 00c1 49       		.uleb128 0x49
 1606 00c2 13       		.uleb128 0x13
 1607 00c3 00       		.byte	0
 1608 00c4 00       		.byte	0
 1609 00c5 10       		.uleb128 0x10
 1610 00c6 0F       		.uleb128 0xf
 1611 00c7 00       		.byte	0
 1612 00c8 0B       		.uleb128 0xb
 1613 00c9 0B       		.uleb128 0xb
 1614 00ca 49       		.uleb128 0x49
 1615 00cb 13       		.uleb128 0x13
 1616 00cc 00       		.byte	0
 1617 00cd 00       		.byte	0
 1618 00ce 11       		.uleb128 0x11
 1619 00cf 2E       		.uleb128 0x2e
 1620 00d0 01       		.byte	0x1
 1621 00d1 31       		.uleb128 0x31
 1622 00d2 13       		.uleb128 0x13
 1623 00d3 11       		.uleb128 0x11
 1624 00d4 01       		.uleb128 0x1
 1625 00d5 12       		.uleb128 0x12
 1626 00d6 06       		.uleb128 0x6
 1627 00d7 40       		.uleb128 0x40
 1628 00d8 18       		.uleb128 0x18
 1629 00d9 9742     		.uleb128 0x2117
 1630 00db 19       		.uleb128 0x19
 1631 00dc 01       		.uleb128 0x1
 1632 00dd 13       		.uleb128 0x13
 1633 00de 00       		.byte	0
 1634 00df 00       		.byte	0
 1635 00e0 12       		.uleb128 0x12
 1636 00e1 34       		.uleb128 0x34
 1637 00e2 00       		.byte	0
 1638 00e3 31       		.uleb128 0x31
 1639 00e4 13       		.uleb128 0x13
 1640 00e5 02       		.uleb128 0x2
 1641 00e6 17       		.uleb128 0x17
 1642 00e7 00       		.byte	0
ARM GAS  /tmp/cciOqgza.s 			page 30


 1643 00e8 00       		.byte	0
 1644 00e9 13       		.uleb128 0x13
 1645 00ea 05       		.uleb128 0x5
 1646 00eb 00       		.byte	0
 1647 00ec 31       		.uleb128 0x31
 1648 00ed 13       		.uleb128 0x13
 1649 00ee 02       		.uleb128 0x2
 1650 00ef 17       		.uleb128 0x17
 1651 00f0 00       		.byte	0
 1652 00f1 00       		.byte	0
 1653 00f2 14       		.uleb128 0x14
 1654 00f3 2E       		.uleb128 0x2e
 1655 00f4 00       		.byte	0
 1656 00f5 3F       		.uleb128 0x3f
 1657 00f6 19       		.uleb128 0x19
 1658 00f7 03       		.uleb128 0x3
 1659 00f8 0E       		.uleb128 0xe
 1660 00f9 3A       		.uleb128 0x3a
 1661 00fa 0B       		.uleb128 0xb
 1662 00fb 3B       		.uleb128 0x3b
 1663 00fc 0B       		.uleb128 0xb
 1664 00fd 27       		.uleb128 0x27
 1665 00fe 19       		.uleb128 0x19
 1666 00ff 11       		.uleb128 0x11
 1667 0100 01       		.uleb128 0x1
 1668 0101 12       		.uleb128 0x12
 1669 0102 06       		.uleb128 0x6
 1670 0103 40       		.uleb128 0x40
 1671 0104 18       		.uleb128 0x18
 1672 0105 9742     		.uleb128 0x2117
 1673 0107 19       		.uleb128 0x19
 1674 0108 00       		.byte	0
 1675 0109 00       		.byte	0
 1676 010a 15       		.uleb128 0x15
 1677 010b 2E       		.uleb128 0x2e
 1678 010c 01       		.byte	0x1
 1679 010d 3F       		.uleb128 0x3f
 1680 010e 19       		.uleb128 0x19
 1681 010f 03       		.uleb128 0x3
 1682 0110 0E       		.uleb128 0xe
 1683 0111 3A       		.uleb128 0x3a
 1684 0112 0B       		.uleb128 0xb
 1685 0113 3B       		.uleb128 0x3b
 1686 0114 0B       		.uleb128 0xb
 1687 0115 27       		.uleb128 0x27
 1688 0116 19       		.uleb128 0x19
 1689 0117 11       		.uleb128 0x11
 1690 0118 01       		.uleb128 0x1
 1691 0119 12       		.uleb128 0x12
 1692 011a 06       		.uleb128 0x6
 1693 011b 40       		.uleb128 0x40
 1694 011c 18       		.uleb128 0x18
 1695 011d 9742     		.uleb128 0x2117
 1696 011f 19       		.uleb128 0x19
 1697 0120 01       		.uleb128 0x1
 1698 0121 13       		.uleb128 0x13
 1699 0122 00       		.byte	0
ARM GAS  /tmp/cciOqgza.s 			page 31


 1700 0123 00       		.byte	0
 1701 0124 16       		.uleb128 0x16
 1702 0125 34       		.uleb128 0x34
 1703 0126 00       		.byte	0
 1704 0127 03       		.uleb128 0x3
 1705 0128 0E       		.uleb128 0xe
 1706 0129 3A       		.uleb128 0x3a
 1707 012a 0B       		.uleb128 0xb
 1708 012b 3B       		.uleb128 0x3b
 1709 012c 0B       		.uleb128 0xb
 1710 012d 49       		.uleb128 0x49
 1711 012e 13       		.uleb128 0x13
 1712 012f 02       		.uleb128 0x2
 1713 0130 17       		.uleb128 0x17
 1714 0131 00       		.byte	0
 1715 0132 00       		.byte	0
 1716 0133 17       		.uleb128 0x17
 1717 0134 2E       		.uleb128 0x2e
 1718 0135 01       		.byte	0x1
 1719 0136 3F       		.uleb128 0x3f
 1720 0137 19       		.uleb128 0x19
 1721 0138 03       		.uleb128 0x3
 1722 0139 0E       		.uleb128 0xe
 1723 013a 3A       		.uleb128 0x3a
 1724 013b 0B       		.uleb128 0xb
 1725 013c 3B       		.uleb128 0x3b
 1726 013d 05       		.uleb128 0x5
 1727 013e 27       		.uleb128 0x27
 1728 013f 19       		.uleb128 0x19
 1729 0140 11       		.uleb128 0x11
 1730 0141 01       		.uleb128 0x1
 1731 0142 12       		.uleb128 0x12
 1732 0143 06       		.uleb128 0x6
 1733 0144 40       		.uleb128 0x40
 1734 0145 18       		.uleb128 0x18
 1735 0146 9742     		.uleb128 0x2117
 1736 0148 19       		.uleb128 0x19
 1737 0149 01       		.uleb128 0x1
 1738 014a 13       		.uleb128 0x13
 1739 014b 00       		.byte	0
 1740 014c 00       		.byte	0
 1741 014d 18       		.uleb128 0x18
 1742 014e 898201   		.uleb128 0x4109
 1743 0151 00       		.byte	0
 1744 0152 11       		.uleb128 0x11
 1745 0153 01       		.uleb128 0x1
 1746 0154 9542     		.uleb128 0x2115
 1747 0156 19       		.uleb128 0x19
 1748 0157 31       		.uleb128 0x31
 1749 0158 13       		.uleb128 0x13
 1750 0159 00       		.byte	0
 1751 015a 00       		.byte	0
 1752 015b 19       		.uleb128 0x19
 1753 015c 898201   		.uleb128 0x4109
 1754 015f 00       		.byte	0
 1755 0160 11       		.uleb128 0x11
 1756 0161 01       		.uleb128 0x1
ARM GAS  /tmp/cciOqgza.s 			page 32


 1757 0162 31       		.uleb128 0x31
 1758 0163 13       		.uleb128 0x13
 1759 0164 00       		.byte	0
 1760 0165 00       		.byte	0
 1761 0166 1A       		.uleb128 0x1a
 1762 0167 34       		.uleb128 0x34
 1763 0168 00       		.byte	0
 1764 0169 03       		.uleb128 0x3
 1765 016a 0E       		.uleb128 0xe
 1766 016b 3A       		.uleb128 0x3a
 1767 016c 0B       		.uleb128 0xb
 1768 016d 3B       		.uleb128 0x3b
 1769 016e 05       		.uleb128 0x5
 1770 016f 49       		.uleb128 0x49
 1771 0170 13       		.uleb128 0x13
 1772 0171 02       		.uleb128 0x2
 1773 0172 17       		.uleb128 0x17
 1774 0173 00       		.byte	0
 1775 0174 00       		.byte	0
 1776 0175 1B       		.uleb128 0x1b
 1777 0176 898201   		.uleb128 0x4109
 1778 0179 01       		.byte	0x1
 1779 017a 11       		.uleb128 0x11
 1780 017b 01       		.uleb128 0x1
 1781 017c 31       		.uleb128 0x31
 1782 017d 13       		.uleb128 0x13
 1783 017e 00       		.byte	0
 1784 017f 00       		.byte	0
 1785 0180 1C       		.uleb128 0x1c
 1786 0181 8A8201   		.uleb128 0x410a
 1787 0184 00       		.byte	0
 1788 0185 02       		.uleb128 0x2
 1789 0186 18       		.uleb128 0x18
 1790 0187 9142     		.uleb128 0x2111
 1791 0189 18       		.uleb128 0x18
 1792 018a 00       		.byte	0
 1793 018b 00       		.byte	0
 1794 018c 1D       		.uleb128 0x1d
 1795 018d 34       		.uleb128 0x34
 1796 018e 00       		.byte	0
 1797 018f 03       		.uleb128 0x3
 1798 0190 0E       		.uleb128 0xe
 1799 0191 3A       		.uleb128 0x3a
 1800 0192 0B       		.uleb128 0xb
 1801 0193 3B       		.uleb128 0x3b
 1802 0194 0B       		.uleb128 0xb
 1803 0195 49       		.uleb128 0x49
 1804 0196 13       		.uleb128 0x13
 1805 0197 02       		.uleb128 0x2
 1806 0198 18       		.uleb128 0x18
 1807 0199 00       		.byte	0
 1808 019a 00       		.byte	0
 1809 019b 1E       		.uleb128 0x1e
 1810 019c 26       		.uleb128 0x26
 1811 019d 00       		.byte	0
 1812 019e 49       		.uleb128 0x49
 1813 019f 13       		.uleb128 0x13
ARM GAS  /tmp/cciOqgza.s 			page 33


 1814 01a0 00       		.byte	0
 1815 01a1 00       		.byte	0
 1816 01a2 1F       		.uleb128 0x1f
 1817 01a3 34       		.uleb128 0x34
 1818 01a4 00       		.byte	0
 1819 01a5 03       		.uleb128 0x3
 1820 01a6 08       		.uleb128 0x8
 1821 01a7 3A       		.uleb128 0x3a
 1822 01a8 0B       		.uleb128 0xb
 1823 01a9 3B       		.uleb128 0x3b
 1824 01aa 0B       		.uleb128 0xb
 1825 01ab 49       		.uleb128 0x49
 1826 01ac 13       		.uleb128 0x13
 1827 01ad 02       		.uleb128 0x2
 1828 01ae 18       		.uleb128 0x18
 1829 01af 00       		.byte	0
 1830 01b0 00       		.byte	0
 1831 01b1 20       		.uleb128 0x20
 1832 01b2 21       		.uleb128 0x21
 1833 01b3 00       		.byte	0
 1834 01b4 49       		.uleb128 0x49
 1835 01b5 13       		.uleb128 0x13
 1836 01b6 2F       		.uleb128 0x2f
 1837 01b7 05       		.uleb128 0x5
 1838 01b8 00       		.byte	0
 1839 01b9 00       		.byte	0
 1840 01ba 21       		.uleb128 0x21
 1841 01bb 34       		.uleb128 0x34
 1842 01bc 00       		.byte	0
 1843 01bd 03       		.uleb128 0x3
 1844 01be 0E       		.uleb128 0xe
 1845 01bf 3A       		.uleb128 0x3a
 1846 01c0 0B       		.uleb128 0xb
 1847 01c1 3B       		.uleb128 0x3b
 1848 01c2 05       		.uleb128 0x5
 1849 01c3 49       		.uleb128 0x49
 1850 01c4 13       		.uleb128 0x13
 1851 01c5 3F       		.uleb128 0x3f
 1852 01c6 19       		.uleb128 0x19
 1853 01c7 3C       		.uleb128 0x3c
 1854 01c8 19       		.uleb128 0x19
 1855 01c9 00       		.byte	0
 1856 01ca 00       		.byte	0
 1857 01cb 22       		.uleb128 0x22
 1858 01cc 34       		.uleb128 0x34
 1859 01cd 00       		.byte	0
 1860 01ce 03       		.uleb128 0x3
 1861 01cf 0E       		.uleb128 0xe
 1862 01d0 3A       		.uleb128 0x3a
 1863 01d1 0B       		.uleb128 0xb
 1864 01d2 3B       		.uleb128 0x3b
 1865 01d3 0B       		.uleb128 0xb
 1866 01d4 49       		.uleb128 0x49
 1867 01d5 13       		.uleb128 0x13
 1868 01d6 3F       		.uleb128 0x3f
 1869 01d7 19       		.uleb128 0x19
 1870 01d8 3C       		.uleb128 0x3c
ARM GAS  /tmp/cciOqgza.s 			page 34


 1871 01d9 19       		.uleb128 0x19
 1872 01da 00       		.byte	0
 1873 01db 00       		.byte	0
 1874 01dc 23       		.uleb128 0x23
 1875 01dd 2E       		.uleb128 0x2e
 1876 01de 01       		.byte	0x1
 1877 01df 3F       		.uleb128 0x3f
 1878 01e0 19       		.uleb128 0x19
 1879 01e1 03       		.uleb128 0x3
 1880 01e2 0E       		.uleb128 0xe
 1881 01e3 3A       		.uleb128 0x3a
 1882 01e4 0B       		.uleb128 0xb
 1883 01e5 3B       		.uleb128 0x3b
 1884 01e6 0B       		.uleb128 0xb
 1885 01e7 27       		.uleb128 0x27
 1886 01e8 19       		.uleb128 0x19
 1887 01e9 49       		.uleb128 0x49
 1888 01ea 13       		.uleb128 0x13
 1889 01eb 3C       		.uleb128 0x3c
 1890 01ec 19       		.uleb128 0x19
 1891 01ed 00       		.byte	0
 1892 01ee 00       		.byte	0
 1893 01ef 24       		.uleb128 0x24
 1894 01f0 05       		.uleb128 0x5
 1895 01f1 00       		.byte	0
 1896 01f2 49       		.uleb128 0x49
 1897 01f3 13       		.uleb128 0x13
 1898 01f4 00       		.byte	0
 1899 01f5 00       		.byte	0
 1900 01f6 00       		.byte	0
 1901              		.section	.debug_loc,"",%progbits
 1902              	.Ldebug_loc0:
 1903              	.LLST0:
 1904 0000 1A000000 		.4byte	.LVL1
 1905 0004 20000000 		.4byte	.LVL2
 1906 0008 0100     		.2byte	0x1
 1907 000a 53       		.byte	0x53
 1908 000b 20000000 		.4byte	.LVL2
 1909 000f 26000000 		.4byte	.LVL3
 1910 0013 0300     		.2byte	0x3
 1911 0015 73       		.byte	0x73
 1912 0016 74       		.sleb128 -12
 1913 0017 9F       		.byte	0x9f
 1914 0018 26000000 		.4byte	.LVL3
 1915 001c 52000000 		.4byte	.LVL6
 1916 0020 0100     		.2byte	0x1
 1917 0022 53       		.byte	0x53
 1918 0023 52000000 		.4byte	.LVL6
 1919 0027 54000000 		.4byte	.LVL7
 1920 002b 0300     		.2byte	0x3
 1921 002d 73       		.byte	0x73
 1922 002e 74       		.sleb128 -12
 1923 002f 9F       		.byte	0x9f
 1924 0030 5A000000 		.4byte	.LVL8
 1925 0034 5E000000 		.4byte	.LVL9
 1926 0038 0100     		.2byte	0x1
 1927 003a 54       		.byte	0x54
ARM GAS  /tmp/cciOqgza.s 			page 35


 1928 003b 5E000000 		.4byte	.LVL9
 1929 003f 74000000 		.4byte	.LVL10
 1930 0043 0100     		.2byte	0x1
 1931 0045 53       		.byte	0x53
 1932 0046 74000000 		.4byte	.LVL10
 1933 004a 9C000000 		.4byte	.LVL13
 1934 004e 0100     		.2byte	0x1
 1935 0050 54       		.byte	0x54
 1936 0051 A2000000 		.4byte	.LVL14
 1937 0055 B6000000 		.4byte	.LVL15
 1938 0059 0100     		.2byte	0x1
 1939 005b 54       		.byte	0x54
 1940 005c BA000000 		.4byte	.LVL16
 1941 0060 D0000000 		.4byte	.LVL17
 1942 0064 0100     		.2byte	0x1
 1943 0066 52       		.byte	0x52
 1944 0067 D0000000 		.4byte	.LVL17
 1945 006b E6000000 		.4byte	.LVL18
 1946 006f 0300     		.2byte	0x3
 1947 0071 72       		.byte	0x72
 1948 0072 74       		.sleb128 -12
 1949 0073 9F       		.byte	0x9f
 1950 0074 E6000000 		.4byte	.LVL18
 1951 0078 E8000000 		.4byte	.LVL19
 1952 007c 0100     		.2byte	0x1
 1953 007e 54       		.byte	0x54
 1954 007f E8000000 		.4byte	.LVL19
 1955 0083 EA000000 		.4byte	.LVL20
 1956 0087 0100     		.2byte	0x1
 1957 0089 53       		.byte	0x53
 1958 008a EA000000 		.4byte	.LVL20
 1959 008e 14010000 		.4byte	.LFE5
 1960 0092 0100     		.2byte	0x1
 1961 0094 54       		.byte	0x54
 1962 0095 00000000 		.4byte	0
 1963 0099 00000000 		.4byte	0
 1964              	.LLST1:
 1965 009d 40000000 		.4byte	.LVL4
 1966 00a1 48000000 		.4byte	.LVL5
 1967 00a5 0100     		.2byte	0x1
 1968 00a7 52       		.byte	0x52
 1969 00a8 00000000 		.4byte	0
 1970 00ac 00000000 		.4byte	0
 1971              	.LLST2:
 1972 00b0 84000000 		.4byte	.LVL11
 1973 00b4 8E000000 		.4byte	.LVL12
 1974 00b8 0100     		.2byte	0x1
 1975 00ba 51       		.byte	0x51
 1976 00bb 00000000 		.4byte	0
 1977 00bf 00000000 		.4byte	0
 1978              	.LLST3:
 1979 00c3 16000000 		.4byte	.LVL21
 1980 00c7 20000000 		.4byte	.LVL22
 1981 00cb 0100     		.2byte	0x1
 1982 00cd 53       		.byte	0x53
 1983 00ce 20000000 		.4byte	.LVL22
 1984 00d2 22000000 		.4byte	.LVL23
ARM GAS  /tmp/cciOqgza.s 			page 36


 1985 00d6 0300     		.2byte	0x3
 1986 00d8 73       		.byte	0x73
 1987 00d9 74       		.sleb128 -12
 1988 00da 9F       		.byte	0x9f
 1989 00db 22000000 		.4byte	.LVL23
 1990 00df 52000000 		.4byte	.LVL24
 1991 00e3 0100     		.2byte	0x1
 1992 00e5 53       		.byte	0x53
 1993 00e6 52000000 		.4byte	.LVL24
 1994 00ea 54000000 		.4byte	.LVL25
 1995 00ee 0300     		.2byte	0x3
 1996 00f0 73       		.byte	0x73
 1997 00f1 74       		.sleb128 -12
 1998 00f2 9F       		.byte	0x9f
 1999 00f3 00000000 		.4byte	0
 2000 00f7 00000000 		.4byte	0
 2001              	.LLST4:
 2002 00fb 42000000 		.4byte	.LVL28
 2003 00ff 4E000000 		.4byte	.LVL29
 2004 0103 0100     		.2byte	0x1
 2005 0105 50       		.byte	0x50
 2006 0106 4E000000 		.4byte	.LVL29
 2007 010a 66000000 		.4byte	.LVL30
 2008 010e 0100     		.2byte	0x1
 2009 0110 53       		.byte	0x53
 2010 0111 66000000 		.4byte	.LVL30
 2011 0115 74000000 		.4byte	.LVL31
 2012 0119 0100     		.2byte	0x1
 2013 011b 50       		.byte	0x50
 2014 011c 74000000 		.4byte	.LVL31
 2015 0120 76000000 		.4byte	.LVL32
 2016 0124 0300     		.2byte	0x3
 2017 0126 73       		.byte	0x73
 2018 0127 7C       		.sleb128 -4
 2019 0128 9F       		.byte	0x9f
 2020 0129 C4000000 		.4byte	.LVL33
 2021 012d CA000000 		.4byte	.LVL34
 2022 0131 0100     		.2byte	0x1
 2023 0133 50       		.byte	0x50
 2024 0134 CA000000 		.4byte	.LVL34
 2025 0138 CD000000 		.4byte	.LVL35-1
 2026 013c 0300     		.2byte	0x3
 2027 013e 73       		.byte	0x73
 2028 013f 74       		.sleb128 -12
 2029 0140 9F       		.byte	0x9f
 2030 0141 00000000 		.4byte	0
 2031 0145 00000000 		.4byte	0
 2032              		.section	.debug_aranges,"",%progbits
 2033 0000 3C000000 		.4byte	0x3c
 2034 0004 0200     		.2byte	0x2
 2035 0006 00000000 		.4byte	.Ldebug_info0
 2036 000a 04       		.byte	0x4
 2037 000b 00       		.byte	0
 2038 000c 0000     		.2byte	0
 2039 000e 0000     		.2byte	0
 2040 0010 00000000 		.4byte	.LFB5
 2041 0014 14010000 		.4byte	.LFE5-.LFB5
ARM GAS  /tmp/cciOqgza.s 			page 37


 2042 0018 00000000 		.4byte	.LFB0
 2043 001c 28000000 		.4byte	.LFE0-.LFB0
 2044 0020 00000000 		.4byte	.LFB1
 2045 0024 64000000 		.4byte	.LFE1-.LFB1
 2046 0028 00000000 		.4byte	.LFB3
 2047 002c D8000000 		.4byte	.LFE3-.LFB3
 2048 0030 00000000 		.4byte	.LFB4
 2049 0034 78010000 		.4byte	.LFE4-.LFB4
 2050 0038 00000000 		.4byte	0
 2051 003c 00000000 		.4byte	0
 2052              		.section	.debug_ranges,"",%progbits
 2053              	.Ldebug_ranges0:
 2054 0000 00000000 		.4byte	.LFB5
 2055 0004 14010000 		.4byte	.LFE5
 2056 0008 00000000 		.4byte	.LFB0
 2057 000c 28000000 		.4byte	.LFE0
 2058 0010 00000000 		.4byte	.LFB1
 2059 0014 64000000 		.4byte	.LFE1
 2060 0018 00000000 		.4byte	.LFB3
 2061 001c D8000000 		.4byte	.LFE3
 2062 0020 00000000 		.4byte	.LFB4
 2063 0024 78010000 		.4byte	.LFE4
 2064 0028 00000000 		.4byte	0
 2065 002c 00000000 		.4byte	0
 2066              		.section	.debug_line,"",%progbits
 2067              	.Ldebug_line0:
 2068 0000 38020000 		.section	.debug_str,"MS",%progbits,1
 2068      0200DC00 
 2068      00000201 
 2068      FB0E0D00 
 2068      01010101 
 2069              	.LASF60:
 2070 0000 7569705F 		.ascii	"uip_netmask\000"
 2070      6E65746D 
 2070      61736B00 
 2071              	.LASF24:
 2072 000c 73697A65 		.ascii	"size_t\000"
 2072      5F7400
 2073              	.LASF3:
 2074 0013 5F5F7569 		.ascii	"__uint8_t\000"
 2074      6E74385F 
 2074      7400
 2075              	.LASF36:
 2076 001d 65746869 		.ascii	"ethip_hdr\000"
 2076      705F6864 
 2076      7200
 2077              	.LASF23:
 2078 0027 74797065 		.ascii	"type\000"
 2078      00
 2079              	.LASF9:
 2080 002c 6C6F6E67 		.ascii	"long long unsigned int\000"
 2080      206C6F6E 
 2080      6720756E 
 2080      7369676E 
 2080      65642069 
 2081              	.LASF21:
 2082 0043 61646472 		.ascii	"addr\000"
ARM GAS  /tmp/cciOqgza.s 			page 38


 2082      00
 2083              	.LASF26:
 2084 0048 65746868 		.ascii	"ethhdr\000"
 2084      647200
 2085              	.LASF8:
 2086 004f 6C6F6E67 		.ascii	"long long int\000"
 2086      206C6F6E 
 2086      6720696E 
 2086      7400
 2087              	.LASF0:
 2088 005d 7369676E 		.ascii	"signed char\000"
 2088      65642063 
 2088      68617200 
 2089              	.LASF57:
 2090 0069 7569705F 		.ascii	"uip_appdata\000"
 2090      61707064 
 2090      61746100 
 2091              	.LASF34:
 2092 0075 64687761 		.ascii	"dhwaddr\000"
 2092      64647200 
 2093              	.LASF43:
 2094 007d 6172705F 		.ascii	"arp_entry\000"
 2094      656E7472 
 2094      7900
 2095              	.LASF20:
 2096 0087 7569705F 		.ascii	"uip_eth_hdr\000"
 2096      6574685F 
 2096      68647200 
 2097              	.LASF6:
 2098 0093 6C6F6E67 		.ascii	"long int\000"
 2098      20696E74 
 2098      00
 2099              	.LASF32:
 2100 009c 73687761 		.ascii	"shwaddr\000"
 2100      64647200 
 2101              	.LASF59:
 2102 00a4 7569705F 		.ascii	"uip_hostaddr\000"
 2102      686F7374 
 2102      61646472 
 2102      00
 2103              	.LASF12:
 2104 00b1 75696E74 		.ascii	"uint16_t\000"
 2104      31365F74 
 2104      00
 2105              	.LASF66:
 2106 00ba 7569705F 		.ascii	"uip_arp_update\000"
 2106      6172705F 
 2106      75706461 
 2106      746500
 2107              	.LASF10:
 2108 00c9 756E7369 		.ascii	"unsigned int\000"
 2108      676E6564 
 2108      20696E74 
 2108      00
 2109              	.LASF65:
 2110 00d6 2F686F6D 		.ascii	"/home/dltech-deb/gdrive/Projects/RFM_to_Modbus_TCP/"
 2110      652F646C 
ARM GAS  /tmp/cciOqgza.s 			page 39


 2110      74656368 
 2110      2D646562 
 2110      2F676472 
 2111 0109 43686962 		.ascii	"ChibiOS/F103_ChibiOS_ENC60J28/main\000"
 2111      694F532F 
 2111      46313033 
 2111      5F436869 
 2111      62694F53 
 2112              	.LASF7:
 2113 012c 6C6F6E67 		.ascii	"long unsigned int\000"
 2113      20756E73 
 2113      69676E65 
 2113      6420696E 
 2113      7400
 2114              	.LASF41:
 2115 013e 73726369 		.ascii	"srcipaddr\000"
 2115      70616464 
 2115      7200
 2116              	.LASF5:
 2117 0148 73686F72 		.ascii	"short unsigned int\000"
 2117      7420756E 
 2117      7369676E 
 2117      65642069 
 2117      6E7400
 2118              	.LASF51:
 2119 015b 62726F61 		.ascii	"broadcast_ethaddr\000"
 2119      64636173 
 2119      745F6574 
 2119      68616464 
 2119      7200
 2120              	.LASF38:
 2121 016d 69706F66 		.ascii	"ipoffset\000"
 2121      66736574 
 2121      00
 2122              	.LASF47:
 2123 0176 7569705F 		.ascii	"uip_arp_timer\000"
 2123      6172705F 
 2123      74696D65 
 2123      7200
 2124              	.LASF53:
 2125 0184 6172705F 		.ascii	"arp_table\000"
 2125      7461626C 
 2125      6500
 2126              	.LASF61:
 2127 018e 7569705F 		.ascii	"uip_draddr\000"
 2127      64726164 
 2127      647200
 2128              	.LASF48:
 2129 0199 7569705F 		.ascii	"uip_arp_arpin\000"
 2129      6172705F 
 2129      61727069 
 2129      6E00
 2130              	.LASF14:
 2131 01a7 75385F74 		.ascii	"u8_t\000"
 2131      00
 2132              	.LASF17:
 2133 01ac 73697A65 		.ascii	"sizetype\000"
ARM GAS  /tmp/cciOqgza.s 			page 40


 2133      74797065 
 2133      00
 2134              	.LASF16:
 2135 01b5 7569705F 		.ascii	"uip_ip4addr_t\000"
 2135      69703461 
 2135      6464725F 
 2135      7400
 2136              	.LASF55:
 2137 01c3 746D7061 		.ascii	"tmpage\000"
 2137      676500
 2138              	.LASF54:
 2139 01ca 61727074 		.ascii	"arptime\000"
 2139      696D6500 
 2140              	.LASF50:
 2141 01d2 74616270 		.ascii	"tabptr\000"
 2141      747200
 2142              	.LASF40:
 2143 01d9 69706368 		.ascii	"ipchksum\000"
 2143      6B73756D 
 2143      00
 2144              	.LASF22:
 2145 01e2 64657374 		.ascii	"dest\000"
 2145      00
 2146              	.LASF42:
 2147 01e7 64657374 		.ascii	"destipaddr\000"
 2147      69706164 
 2147      647200
 2148              	.LASF63:
 2149 01f2 474E5520 		.ascii	"GNU C 4.8.4 20141219 (release) -mcpu=cortex-m3 -mno"
 2149      4320342E 
 2149      382E3420 
 2149      32303134 
 2149      31323139 
 2150 0225 2D746875 		.ascii	"-thumb-interwork -mthumb -ggdb -O2 -fomit-frame-poi"
 2150      6D622D69 
 2150      6E746572 
 2150      776F726B 
 2150      202D6D74 
 2151 0258 6E746572 		.ascii	"nter -falign-functions=16 -ffunction-sections -fdat"
 2151      202D6661 
 2151      6C69676E 
 2151      2D66756E 
 2151      6374696F 
 2152 028b 612D7365 		.ascii	"a-sections -fno-common -fno-strict-aliasing\000"
 2152      6374696F 
 2152      6E73202D 
 2152      666E6F2D 
 2152      636F6D6D 
 2153              	.LASF28:
 2154 02b7 70726F74 		.ascii	"protocol\000"
 2154      6F636F6C 
 2154      00
 2155              	.LASF1:
 2156 02c0 756E7369 		.ascii	"unsigned char\000"
 2156      676E6564 
 2156      20636861 
 2156      7200
ARM GAS  /tmp/cciOqgza.s 			page 41


 2157              	.LASF67:
 2158 02ce 7569705F 		.ascii	"uip_arp_init\000"
 2158      6172705F 
 2158      696E6974 
 2158      00
 2159              	.LASF2:
 2160 02db 73686F72 		.ascii	"short int\000"
 2160      7420696E 
 2160      7400
 2161              	.LASF37:
 2162 02e5 69706964 		.ascii	"ipid\000"
 2162      00
 2163              	.LASF62:
 2164 02ea 7569705F 		.ascii	"uip_ethaddr\000"
 2164      65746861 
 2164      64647200 
 2165              	.LASF30:
 2166 02f6 70726F74 		.ascii	"protolen\000"
 2166      6F6C656E 
 2166      00
 2167              	.LASF29:
 2168 02ff 68776C65 		.ascii	"hwlen\000"
 2168      6E00
 2169              	.LASF39:
 2170 0305 70726F74 		.ascii	"proto\000"
 2170      6F00
 2171              	.LASF64:
 2172 030b 2E2E2F75 		.ascii	"../uip/uip_arp.c\000"
 2172      69702F75 
 2172      69705F61 
 2172      72702E63 
 2172      00
 2173              	.LASF56:
 2174 031c 7569705F 		.ascii	"uip_buf\000"
 2174      62756600 
 2175              	.LASF13:
 2176 0324 63686172 		.ascii	"char\000"
 2176      00
 2177              	.LASF52:
 2178 0329 62726F61 		.ascii	"broadcast_ipaddr\000"
 2178      64636173 
 2178      745F6970 
 2178      61646472 
 2178      00
 2179              	.LASF4:
 2180 033a 5F5F7569 		.ascii	"__uint16_t\000"
 2180      6E743136 
 2180      5F7400
 2181              	.LASF18:
 2182 0345 7569705F 		.ascii	"uip_ipaddr_t\000"
 2182      69706164 
 2182      64725F74 
 2182      00
 2183              	.LASF27:
 2184 0352 68777479 		.ascii	"hwtype\000"
 2184      706500
 2185              	.LASF46:
ARM GAS  /tmp/cciOqgza.s 			page 42


 2186 0359 74696D65 		.ascii	"time\000"
 2186      00
 2187              	.LASF58:
 2188 035e 7569705F 		.ascii	"uip_len\000"
 2188      6C656E00 
 2189              	.LASF25:
 2190 0366 6172705F 		.ascii	"arp_hdr\000"
 2190      68647200 
 2191              	.LASF15:
 2192 036e 7531365F 		.ascii	"u16_t\000"
 2192      7400
 2193              	.LASF68:
 2194 0374 6D656D73 		.ascii	"memset\000"
 2194      657400
 2195              	.LASF49:
 2196 037b 7569705F 		.ascii	"uip_arp_out\000"
 2196      6172705F 
 2196      6F757400 
 2197              	.LASF44:
 2198 0387 69706164 		.ascii	"ipaddr\000"
 2198      647200
 2199              	.LASF35:
 2200 038e 64697061 		.ascii	"dipaddr\000"
 2200      64647200 
 2201              	.LASF11:
 2202 0396 75696E74 		.ascii	"uint8_t\000"
 2202      385F7400 
 2203              	.LASF33:
 2204 039e 73697061 		.ascii	"sipaddr\000"
 2204      64647200 
 2205              	.LASF19:
 2206 03a6 7569705F 		.ascii	"uip_eth_addr\000"
 2206      6574685F 
 2206      61646472 
 2206      00
 2207              	.LASF45:
 2208 03b3 65746861 		.ascii	"ethaddr\000"
 2208      64647200 
 2209              	.LASF31:
 2210 03bb 6F70636F 		.ascii	"opcode\000"
 2210      646500
 2211              		.ident	"GCC: (4.8.4-1+11-1) 4.8.4 20141219 (release)"
ARM GAS  /tmp/cciOqgza.s 			page 43


DEFINED SYMBOLS
                            *ABS*:0000000000000000 uip_arp.c
     /tmp/cciOqgza.s:19     .text.uip_arp_update.constprop.0:0000000000000000 $t
     /tmp/cciOqgza.s:24     .text.uip_arp_update.constprop.0:0000000000000000 uip_arp_update.constprop.0
     /tmp/cciOqgza.s:214    .text.uip_arp_update.constprop.0:00000000000000f4 $d
     /tmp/cciOqgza.s:226    .text.uip_arp_init:0000000000000000 $t
     /tmp/cciOqgza.s:232    .text.uip_arp_init:0000000000000000 uip_arp_init
     /tmp/cciOqgza.s:264    .text.uip_arp_init:0000000000000020 $d
     /tmp/cciOqgza.s:270    .text.uip_arp_timer:0000000000000000 $t
     /tmp/cciOqgza.s:276    .text.uip_arp_timer:0000000000000000 uip_arp_timer
     /tmp/cciOqgza.s:354    .text.uip_arp_timer:0000000000000058 $d
     /tmp/cciOqgza.s:361    .text.uip_arp_arpin:0000000000000000 $t
     /tmp/cciOqgza.s:367    .text.uip_arp_arpin:0000000000000000 uip_arp_arpin
     /tmp/cciOqgza.s:508    .text.uip_arp_arpin:00000000000000c8 $d
     /tmp/cciOqgza.s:516    .text.uip_arp_out:0000000000000000 $t
     /tmp/cciOqgza.s:522    .text.uip_arp_out:0000000000000000 uip_arp_out
     /tmp/cciOqgza.s:751    .text.uip_arp_out:0000000000000148 $d
     /tmp/cciOqgza.s:770    .bss.i:0000000000000000 i
     /tmp/cciOqgza.s:771    .bss.i:0000000000000000 $d
     /tmp/cciOqgza.s:776    .bss.tmpage:0000000000000000 tmpage
     /tmp/cciOqgza.s:777    .bss.tmpage:0000000000000000 $d
     /tmp/cciOqgza.s:779    .bss.arp_table:0000000000000000 $d
     /tmp/cciOqgza.s:783    .bss.arp_table:0000000000000000 arp_table
     /tmp/cciOqgza.s:786    .rodata.broadcast_ethaddr:0000000000000000 $d
     /tmp/cciOqgza.s:790    .rodata.broadcast_ethaddr:0000000000000000 broadcast_ethaddr
     /tmp/cciOqgza.s:801    .bss.c:0000000000000000 c
     /tmp/cciOqgza.s:802    .bss.c:0000000000000000 $d
     /tmp/cciOqgza.s:807    .bss.arptime:0000000000000000 arptime
     /tmp/cciOqgza.s:808    .bss.arptime:0000000000000000 $d
     /tmp/cciOqgza.s:810    .bss.ipaddr:0000000000000000 $d
     /tmp/cciOqgza.s:814    .bss.ipaddr:0000000000000000 ipaddr
                     .debug_frame:0000000000000010 $d
     /tmp/cciOqgza.s:225    .text.uip_arp_update.constprop.0:0000000000000114 $t
     /tmp/cciOqgza.s:269    .text.uip_arp_init:0000000000000028 $t
     /tmp/cciOqgza.s:360    .text.uip_arp_timer:0000000000000064 $t
     /tmp/cciOqgza.s:515    .text.uip_arp_arpin:00000000000000d8 $t
     /tmp/cciOqgza.s:766    .text.uip_arp_out:0000000000000178 $t

UNDEFINED SYMBOLS
uip_buf
uip_len
uip_hostaddr
uip_ethaddr
memset
uip_netmask
uip_draddr
uip_appdata
