ARM GAS  /tmp/ccQwxtYg.s 			page 1


   1              		.syntax unified
   2              		.cpu cortex-m3
   3              		.fpu softvfp
   4              		.eabi_attribute 20, 1
   5              		.eabi_attribute 21, 1
   6              		.eabi_attribute 23, 3
   7              		.eabi_attribute 24, 1
   8              		.eabi_attribute 25, 1
   9              		.eabi_attribute 26, 1
  10              		.eabi_attribute 30, 2
  11              		.eabi_attribute 34, 1
  12              		.eabi_attribute 18, 4
  13              		.thumb
  14              		.file	"uiplib.c"
  15              		.text
  16              	.Ltext0:
  17              		.cfi_sections	.debug_frame
  18              		.section	.text.uiplib_ipaddrconv,"ax",%progbits
  19              		.align	2
  20              		.p2align 4,,15
  21              		.global	uiplib_ipaddrconv
  22              		.thumb
  23              		.thumb_func
  24              		.type	uiplib_ipaddrconv, %function
  25              	uiplib_ipaddrconv:
  26              	.LFB0:
  27              		.file 1 "../uip/uiplib.c"
  28              		.loc 1 44 0
  29              		.cfi_startproc
  30              		@ args = 0, pretend = 0, frame = 0
  31              		@ frame_needed = 0, uses_anonymous_args = 0
  32              		@ link register save eliminated.
  33              	.LVL0:
  34 0000 F0B4     		push	{r4, r5, r6, r7}
  35              		.cfi_def_cfa_offset 16
  36              		.cfi_offset 4, -16
  37              		.cfi_offset 5, -12
  38              		.cfi_offset 6, -8
  39              		.cfi_offset 7, -4
  40              		.loc 1 44 0
  41 0002 0427     		movs	r7, #4
  42              	.LVL1:
  43              	.L7:
  44              		.loc 1 54 0
  45 0004 0446     		mov	r4, r0
  46 0006 14F8013B 		ldrb	r3, [r4], #1	@ zero_extendqisi2
  47              	.LVL2:
  48 000a 0420     		movs	r0, #4
  49              	.LVL3:
  50 000c 0022     		movs	r2, #0
  51              	.LVL4:
  52              	.L2:
  53              		.loc 1 59 0
  54 000e 2E2B     		cmp	r3, #46
  55 0010 13D0     		beq	.L3
  56              		.loc 1 63 0 discriminator 1
  57 0012 A3F13005 		sub	r5, r3, #48
ARM GAS  /tmp/ccQwxtYg.s 			page 2


  58              		.loc 1 64 0 discriminator 1
  59 0016 02EB8206 		add	r6, r2, r2, lsl #2
  60              		.loc 1 63 0 discriminator 1
  61 001a EDB2     		uxtb	r5, r5
  62              		.loc 1 64 0 discriminator 1
  63 001c 05EB4606 		add	r6, r5, r6, lsl #1
  64 0020 0138     		subs	r0, r0, #1
  65              		.loc 1 59 0 discriminator 1
  66 0022 53B1     		cbz	r3, .L3
  67              		.loc 1 63 0
  68 0024 092D     		cmp	r5, #9
  69              		.loc 1 64 0
  70 0026 06F0FF02 		and	r2, r6, #255
  71              	.LVL5:
  72              		.loc 1 63 0
  73 002a 10D8     		bhi	.L9
  74              		.loc 1 56 0
  75 002c 10F0FF00 		ands	r0, r0, #255
  76              		.loc 1 54 0
  77 0030 14F8013B 		ldrb	r3, [r4], #1	@ zero_extendqisi2
  78              	.LVL6:
  79              		.loc 1 56 0
  80 0034 EBD1     		bne	.L2
  81              	.LVL7:
  82              	.L12:
  83              		.loc 1 72 0
  84 0036 F0BC     		pop	{r4, r5, r6, r7}
  85              	.LVL8:
  86 0038 7047     		bx	lr
  87              	.LVL9:
  88              	.L3:
  89 003a 013F     		subs	r7, r7, #1
  90              	.LVL10:
  91              		.loc 1 51 0
  92 003c 17F0FF07 		ands	r7, r7, #255
  93              	.LVL11:
  94              		.loc 1 60 0
  95 0040 01F8012B 		strb	r2, [r1], #1
  96              	.LVL12:
  97              		.loc 1 68 0
  98 0044 2046     		mov	r0, r4
  99              	.LVL13:
 100              		.loc 1 51 0
 101 0046 DDD1     		bne	.L7
 102              		.loc 1 72 0
 103 0048 F0BC     		pop	{r4, r5, r6, r7}
 104              		.loc 1 71 0
 105 004a 0120     		movs	r0, #1
 106              		.loc 1 72 0
 107 004c 7047     		bx	lr
 108              	.LVL14:
 109              	.L9:
 110              		.loc 1 57 0
 111 004e 0020     		movs	r0, #0
 112 0050 F1E7     		b	.L12
 113              		.cfi_endproc
 114              	.LFE0:
ARM GAS  /tmp/ccQwxtYg.s 			page 3


 115              		.size	uiplib_ipaddrconv, .-uiplib_ipaddrconv
 116 0052 00BFAFF3 		.text
 116      0080AFF3 
 116      0080AFF3 
 116      0080
 117              	.Letext0:
 118              		.section	.debug_info,"",%progbits
 119              	.Ldebug_info0:
 120 0000 F0000000 		.4byte	0xf0
 121 0004 0400     		.2byte	0x4
 122 0006 00000000 		.4byte	.Ldebug_abbrev0
 123 000a 04       		.byte	0x4
 124 000b 01       		.uleb128 0x1
 125 000c A3000000 		.4byte	.LASF13
 126 0010 01       		.byte	0x1
 127 0011 21000000 		.4byte	.LASF14
 128 0015 88010000 		.4byte	.LASF15
 129 0019 00000000 		.4byte	.Ldebug_ranges0+0
 130 001d 00000000 		.4byte	0
 131 0021 00000000 		.4byte	.Ldebug_line0
 132 0025 02       		.uleb128 0x2
 133 0026 01       		.byte	0x1
 134 0027 06       		.byte	0x6
 135 0028 97000000 		.4byte	.LASF0
 136 002c 02       		.uleb128 0x2
 137 002d 01       		.byte	0x1
 138 002e 08       		.byte	0x8
 139 002f 73000000 		.4byte	.LASF1
 140 0033 02       		.uleb128 0x2
 141 0034 02       		.byte	0x2
 142 0035 05       		.byte	0x5
 143 0036 68010000 		.4byte	.LASF2
 144 003a 02       		.uleb128 0x2
 145 003b 02       		.byte	0x2
 146 003c 07       		.byte	0x7
 147 003d 0E000000 		.4byte	.LASF3
 148 0041 02       		.uleb128 0x2
 149 0042 04       		.byte	0x4
 150 0043 05       		.byte	0x5
 151 0044 86000000 		.4byte	.LASF4
 152 0048 02       		.uleb128 0x2
 153 0049 04       		.byte	0x4
 154 004a 07       		.byte	0x7
 155 004b 4A000000 		.4byte	.LASF5
 156 004f 02       		.uleb128 0x2
 157 0050 08       		.byte	0x8
 158 0051 05       		.byte	0x5
 159 0052 00000000 		.4byte	.LASF6
 160 0056 02       		.uleb128 0x2
 161 0057 08       		.byte	0x8
 162 0058 07       		.byte	0x7
 163 0059 5C000000 		.4byte	.LASF7
 164 005d 03       		.uleb128 0x3
 165 005e 04       		.byte	0x4
 166 005f 05       		.byte	0x5
 167 0060 696E7400 		.ascii	"int\000"
 168 0064 02       		.uleb128 0x2
ARM GAS  /tmp/ccQwxtYg.s 			page 4


 169 0065 04       		.byte	0x4
 170 0066 07       		.byte	0x7
 171 0067 72010000 		.4byte	.LASF8
 172 006b 04       		.uleb128 0x4
 173 006c 04       		.byte	0x4
 174 006d 71000000 		.4byte	0x71
 175 0071 02       		.uleb128 0x2
 176 0072 01       		.byte	0x1
 177 0073 08       		.byte	0x8
 178 0074 81000000 		.4byte	.LASF9
 179 0078 02       		.uleb128 0x2
 180 0079 04       		.byte	0x4
 181 007a 07       		.byte	0x7
 182 007b 7F010000 		.4byte	.LASF10
 183 007f 05       		.uleb128 0x5
 184 0080 31000000 		.4byte	.LASF16
 185 0084 01       		.byte	0x1
 186 0085 2B       		.byte	0x2b
 187 0086 2C000000 		.4byte	0x2c
 188 008a 00000000 		.4byte	.LFB0
 189 008e 52000000 		.4byte	.LFE0-.LFB0
 190 0092 01       		.uleb128 0x1
 191 0093 9C       		.byte	0x9c
 192 0094 ED000000 		.4byte	0xed
 193 0098 06       		.uleb128 0x6
 194 0099 8F000000 		.4byte	.LASF11
 195 009d 01       		.byte	0x1
 196 009e 2B       		.byte	0x2b
 197 009f 6B000000 		.4byte	0x6b
 198 00a3 00000000 		.4byte	.LLST0
 199 00a7 06       		.uleb128 0x6
 200 00a8 43000000 		.4byte	.LASF12
 201 00ac 01       		.byte	0x1
 202 00ad 2B       		.byte	0x2b
 203 00ae ED000000 		.4byte	0xed
 204 00b2 50000000 		.4byte	.LLST1
 205 00b6 07       		.uleb128 0x7
 206 00b7 746D7000 		.ascii	"tmp\000"
 207 00bb 01       		.byte	0x1
 208 00bc 2D       		.byte	0x2d
 209 00bd 2C000000 		.4byte	0x2c
 210 00c1 6E000000 		.4byte	.LLST2
 211 00c5 07       		.uleb128 0x7
 212 00c6 6300     		.ascii	"c\000"
 213 00c8 01       		.byte	0x1
 214 00c9 2E       		.byte	0x2e
 215 00ca 71000000 		.4byte	0x71
 216 00ce A4000000 		.4byte	.LLST3
 217 00d2 07       		.uleb128 0x7
 218 00d3 6900     		.ascii	"i\000"
 219 00d5 01       		.byte	0x1
 220 00d6 2F       		.byte	0x2f
 221 00d7 2C000000 		.4byte	0x2c
 222 00db E6000000 		.4byte	.LLST4
 223 00df 07       		.uleb128 0x7
 224 00e0 6A00     		.ascii	"j\000"
 225 00e2 01       		.byte	0x1
ARM GAS  /tmp/ccQwxtYg.s 			page 5


 226 00e3 2F       		.byte	0x2f
 227 00e4 2C000000 		.4byte	0x2c
 228 00e8 36010000 		.4byte	.LLST5
 229 00ec 00       		.byte	0
 230 00ed 04       		.uleb128 0x4
 231 00ee 04       		.byte	0x4
 232 00ef 2C000000 		.4byte	0x2c
 233 00f3 00       		.byte	0
 234              		.section	.debug_abbrev,"",%progbits
 235              	.Ldebug_abbrev0:
 236 0000 01       		.uleb128 0x1
 237 0001 11       		.uleb128 0x11
 238 0002 01       		.byte	0x1
 239 0003 25       		.uleb128 0x25
 240 0004 0E       		.uleb128 0xe
 241 0005 13       		.uleb128 0x13
 242 0006 0B       		.uleb128 0xb
 243 0007 03       		.uleb128 0x3
 244 0008 0E       		.uleb128 0xe
 245 0009 1B       		.uleb128 0x1b
 246 000a 0E       		.uleb128 0xe
 247 000b 55       		.uleb128 0x55
 248 000c 17       		.uleb128 0x17
 249 000d 11       		.uleb128 0x11
 250 000e 01       		.uleb128 0x1
 251 000f 10       		.uleb128 0x10
 252 0010 17       		.uleb128 0x17
 253 0011 00       		.byte	0
 254 0012 00       		.byte	0
 255 0013 02       		.uleb128 0x2
 256 0014 24       		.uleb128 0x24
 257 0015 00       		.byte	0
 258 0016 0B       		.uleb128 0xb
 259 0017 0B       		.uleb128 0xb
 260 0018 3E       		.uleb128 0x3e
 261 0019 0B       		.uleb128 0xb
 262 001a 03       		.uleb128 0x3
 263 001b 0E       		.uleb128 0xe
 264 001c 00       		.byte	0
 265 001d 00       		.byte	0
 266 001e 03       		.uleb128 0x3
 267 001f 24       		.uleb128 0x24
 268 0020 00       		.byte	0
 269 0021 0B       		.uleb128 0xb
 270 0022 0B       		.uleb128 0xb
 271 0023 3E       		.uleb128 0x3e
 272 0024 0B       		.uleb128 0xb
 273 0025 03       		.uleb128 0x3
 274 0026 08       		.uleb128 0x8
 275 0027 00       		.byte	0
 276 0028 00       		.byte	0
 277 0029 04       		.uleb128 0x4
 278 002a 0F       		.uleb128 0xf
 279 002b 00       		.byte	0
 280 002c 0B       		.uleb128 0xb
 281 002d 0B       		.uleb128 0xb
 282 002e 49       		.uleb128 0x49
ARM GAS  /tmp/ccQwxtYg.s 			page 6


 283 002f 13       		.uleb128 0x13
 284 0030 00       		.byte	0
 285 0031 00       		.byte	0
 286 0032 05       		.uleb128 0x5
 287 0033 2E       		.uleb128 0x2e
 288 0034 01       		.byte	0x1
 289 0035 3F       		.uleb128 0x3f
 290 0036 19       		.uleb128 0x19
 291 0037 03       		.uleb128 0x3
 292 0038 0E       		.uleb128 0xe
 293 0039 3A       		.uleb128 0x3a
 294 003a 0B       		.uleb128 0xb
 295 003b 3B       		.uleb128 0x3b
 296 003c 0B       		.uleb128 0xb
 297 003d 27       		.uleb128 0x27
 298 003e 19       		.uleb128 0x19
 299 003f 49       		.uleb128 0x49
 300 0040 13       		.uleb128 0x13
 301 0041 11       		.uleb128 0x11
 302 0042 01       		.uleb128 0x1
 303 0043 12       		.uleb128 0x12
 304 0044 06       		.uleb128 0x6
 305 0045 40       		.uleb128 0x40
 306 0046 18       		.uleb128 0x18
 307 0047 9742     		.uleb128 0x2117
 308 0049 19       		.uleb128 0x19
 309 004a 01       		.uleb128 0x1
 310 004b 13       		.uleb128 0x13
 311 004c 00       		.byte	0
 312 004d 00       		.byte	0
 313 004e 06       		.uleb128 0x6
 314 004f 05       		.uleb128 0x5
 315 0050 00       		.byte	0
 316 0051 03       		.uleb128 0x3
 317 0052 0E       		.uleb128 0xe
 318 0053 3A       		.uleb128 0x3a
 319 0054 0B       		.uleb128 0xb
 320 0055 3B       		.uleb128 0x3b
 321 0056 0B       		.uleb128 0xb
 322 0057 49       		.uleb128 0x49
 323 0058 13       		.uleb128 0x13
 324 0059 02       		.uleb128 0x2
 325 005a 17       		.uleb128 0x17
 326 005b 00       		.byte	0
 327 005c 00       		.byte	0
 328 005d 07       		.uleb128 0x7
 329 005e 34       		.uleb128 0x34
 330 005f 00       		.byte	0
 331 0060 03       		.uleb128 0x3
 332 0061 08       		.uleb128 0x8
 333 0062 3A       		.uleb128 0x3a
 334 0063 0B       		.uleb128 0xb
 335 0064 3B       		.uleb128 0x3b
 336 0065 0B       		.uleb128 0xb
 337 0066 49       		.uleb128 0x49
 338 0067 13       		.uleb128 0x13
 339 0068 02       		.uleb128 0x2
ARM GAS  /tmp/ccQwxtYg.s 			page 7


 340 0069 17       		.uleb128 0x17
 341 006a 00       		.byte	0
 342 006b 00       		.byte	0
 343 006c 00       		.byte	0
 344              		.section	.debug_loc,"",%progbits
 345              	.Ldebug_loc0:
 346              	.LLST0:
 347 0000 00000000 		.4byte	.LVL0
 348 0004 04000000 		.4byte	.LVL1
 349 0008 0100     		.2byte	0x1
 350 000a 50       		.byte	0x50
 351 000b 0E000000 		.4byte	.LVL4
 352 000f 2A000000 		.4byte	.LVL5
 353 0013 0300     		.2byte	0x3
 354 0015 74       		.byte	0x74
 355 0016 7F       		.sleb128 -1
 356 0017 9F       		.byte	0x9f
 357 0018 2A000000 		.4byte	.LVL5
 358 001c 34000000 		.4byte	.LVL6
 359 0020 0100     		.2byte	0x1
 360 0022 54       		.byte	0x54
 361 0023 34000000 		.4byte	.LVL6
 362 0027 36000000 		.4byte	.LVL7
 363 002b 0300     		.2byte	0x3
 364 002d 74       		.byte	0x74
 365 002e 7F       		.sleb128 -1
 366 002f 9F       		.byte	0x9f
 367 0030 3A000000 		.4byte	.LVL9
 368 0034 46000000 		.4byte	.LVL13
 369 0038 0300     		.2byte	0x3
 370 003a 74       		.byte	0x74
 371 003b 7F       		.sleb128 -1
 372 003c 9F       		.byte	0x9f
 373 003d 4E000000 		.4byte	.LVL14
 374 0041 52000000 		.4byte	.LFE0
 375 0045 0100     		.2byte	0x1
 376 0047 54       		.byte	0x54
 377 0048 00000000 		.4byte	0
 378 004c 00000000 		.4byte	0
 379              	.LLST1:
 380 0050 00000000 		.4byte	.LVL0
 381 0054 0E000000 		.4byte	.LVL4
 382 0058 0100     		.2byte	0x1
 383 005a 51       		.byte	0x51
 384 005b 44000000 		.4byte	.LVL12
 385 005f 4E000000 		.4byte	.LVL14
 386 0063 0100     		.2byte	0x1
 387 0065 51       		.byte	0x51
 388 0066 00000000 		.4byte	0
 389 006a 00000000 		.4byte	0
 390              	.LLST2:
 391 006e 00000000 		.4byte	.LVL0
 392 0072 0E000000 		.4byte	.LVL4
 393 0076 0200     		.2byte	0x2
 394 0078 30       		.byte	0x30
 395 0079 9F       		.byte	0x9f
 396 007a 0E000000 		.4byte	.LVL4
ARM GAS  /tmp/ccQwxtYg.s 			page 8


 397 007e 44000000 		.4byte	.LVL12
 398 0082 0100     		.2byte	0x1
 399 0084 52       		.byte	0x52
 400 0085 44000000 		.4byte	.LVL12
 401 0089 4E000000 		.4byte	.LVL14
 402 008d 0200     		.2byte	0x2
 403 008f 30       		.byte	0x30
 404 0090 9F       		.byte	0x9f
 405 0091 4E000000 		.4byte	.LVL14
 406 0095 52000000 		.4byte	.LFE0
 407 0099 0100     		.2byte	0x1
 408 009b 52       		.byte	0x52
 409 009c 00000000 		.4byte	0
 410 00a0 00000000 		.4byte	0
 411              	.LLST3:
 412 00a4 0A000000 		.4byte	.LVL2
 413 00a8 0C000000 		.4byte	.LVL3
 414 00ac 0200     		.2byte	0x2
 415 00ae 70       		.byte	0x70
 416 00af 00       		.sleb128 0
 417 00b0 0C000000 		.4byte	.LVL3
 418 00b4 0E000000 		.4byte	.LVL4
 419 00b8 0200     		.2byte	0x2
 420 00ba 74       		.byte	0x74
 421 00bb 7F       		.sleb128 -1
 422 00bc 0E000000 		.4byte	.LVL4
 423 00c0 34000000 		.4byte	.LVL6
 424 00c4 0100     		.2byte	0x1
 425 00c6 53       		.byte	0x53
 426 00c7 34000000 		.4byte	.LVL6
 427 00cb 36000000 		.4byte	.LVL7
 428 00cf 0200     		.2byte	0x2
 429 00d1 74       		.byte	0x74
 430 00d2 7F       		.sleb128 -1
 431 00d3 3A000000 		.4byte	.LVL9
 432 00d7 52000000 		.4byte	.LFE0
 433 00db 0100     		.2byte	0x1
 434 00dd 53       		.byte	0x53
 435 00de 00000000 		.4byte	0
 436 00e2 00000000 		.4byte	0
 437              	.LLST4:
 438 00e6 00000000 		.4byte	.LVL0
 439 00ea 04000000 		.4byte	.LVL1
 440 00ee 0200     		.2byte	0x2
 441 00f0 30       		.byte	0x30
 442 00f1 9F       		.byte	0x9f
 443 00f2 04000000 		.4byte	.LVL1
 444 00f6 38000000 		.4byte	.LVL8
 445 00fa 0500     		.2byte	0x5
 446 00fc 34       		.byte	0x34
 447 00fd 77       		.byte	0x77
 448 00fe 00       		.sleb128 0
 449 00ff 1C       		.byte	0x1c
 450 0100 9F       		.byte	0x9f
 451 0101 3A000000 		.4byte	.LVL9
 452 0105 3C000000 		.4byte	.LVL10
 453 0109 0500     		.2byte	0x5
ARM GAS  /tmp/ccQwxtYg.s 			page 9


 454 010b 34       		.byte	0x34
 455 010c 77       		.byte	0x77
 456 010d 00       		.sleb128 0
 457 010e 1C       		.byte	0x1c
 458 010f 9F       		.byte	0x9f
 459 0110 3C000000 		.4byte	.LVL10
 460 0114 40000000 		.4byte	.LVL11
 461 0118 0500     		.2byte	0x5
 462 011a 34       		.byte	0x34
 463 011b 77       		.byte	0x77
 464 011c 01       		.sleb128 1
 465 011d 1C       		.byte	0x1c
 466 011e 9F       		.byte	0x9f
 467 011f 4E000000 		.4byte	.LVL14
 468 0123 52000000 		.4byte	.LFE0
 469 0127 0500     		.2byte	0x5
 470 0129 34       		.byte	0x34
 471 012a 77       		.byte	0x77
 472 012b 00       		.sleb128 0
 473 012c 1C       		.byte	0x1c
 474 012d 9F       		.byte	0x9f
 475 012e 00000000 		.4byte	0
 476 0132 00000000 		.4byte	0
 477              	.LLST5:
 478 0136 04000000 		.4byte	.LVL1
 479 013a 0A000000 		.4byte	.LVL2
 480 013e 0200     		.2byte	0x2
 481 0140 30       		.byte	0x30
 482 0141 9F       		.byte	0x9f
 483 0142 0A000000 		.4byte	.LVL2
 484 0146 0E000000 		.4byte	.LVL4
 485 014a 0200     		.2byte	0x2
 486 014c 31       		.byte	0x31
 487 014d 9F       		.byte	0x9f
 488 014e 00000000 		.4byte	0
 489 0152 00000000 		.4byte	0
 490              		.section	.debug_aranges,"",%progbits
 491 0000 1C000000 		.4byte	0x1c
 492 0004 0200     		.2byte	0x2
 493 0006 00000000 		.4byte	.Ldebug_info0
 494 000a 04       		.byte	0x4
 495 000b 00       		.byte	0
 496 000c 0000     		.2byte	0
 497 000e 0000     		.2byte	0
 498 0010 00000000 		.4byte	.LFB0
 499 0014 52000000 		.4byte	.LFE0-.LFB0
 500 0018 00000000 		.4byte	0
 501 001c 00000000 		.4byte	0
 502              		.section	.debug_ranges,"",%progbits
 503              	.Ldebug_ranges0:
 504 0000 00000000 		.4byte	.LFB0
 505 0004 52000000 		.4byte	.LFE0
 506 0008 00000000 		.4byte	0
 507 000c 00000000 		.4byte	0
 508              		.section	.debug_line,"",%progbits
 509              	.Ldebug_line0:
 510 0000 76000000 		.section	.debug_str,"MS",%progbits,1
ARM GAS  /tmp/ccQwxtYg.s 			page 10


 510      02002600 
 510      00000201 
 510      FB0E0D00 
 510      01010101 
 511              	.LASF6:
 512 0000 6C6F6E67 		.ascii	"long long int\000"
 512      206C6F6E 
 512      6720696E 
 512      7400
 513              	.LASF3:
 514 000e 73686F72 		.ascii	"short unsigned int\000"
 514      7420756E 
 514      7369676E 
 514      65642069 
 514      6E7400
 515              	.LASF14:
 516 0021 2E2E2F75 		.ascii	"../uip/uiplib.c\000"
 516      69702F75 
 516      69706C69 
 516      622E6300 
 517              	.LASF16:
 518 0031 7569706C 		.ascii	"uiplib_ipaddrconv\000"
 518      69625F69 
 518      70616464 
 518      72636F6E 
 518      7600
 519              	.LASF12:
 520 0043 69706164 		.ascii	"ipaddr\000"
 520      647200
 521              	.LASF5:
 522 004a 6C6F6E67 		.ascii	"long unsigned int\000"
 522      20756E73 
 522      69676E65 
 522      6420696E 
 522      7400
 523              	.LASF7:
 524 005c 6C6F6E67 		.ascii	"long long unsigned int\000"
 524      206C6F6E 
 524      6720756E 
 524      7369676E 
 524      65642069 
 525              	.LASF1:
 526 0073 756E7369 		.ascii	"unsigned char\000"
 526      676E6564 
 526      20636861 
 526      7200
 527              	.LASF9:
 528 0081 63686172 		.ascii	"char\000"
 528      00
 529              	.LASF4:
 530 0086 6C6F6E67 		.ascii	"long int\000"
 530      20696E74 
 530      00
 531              	.LASF11:
 532 008f 61646472 		.ascii	"addrstr\000"
 532      73747200 
 533              	.LASF0:
ARM GAS  /tmp/ccQwxtYg.s 			page 11


 534 0097 7369676E 		.ascii	"signed char\000"
 534      65642063 
 534      68617200 
 535              	.LASF13:
 536 00a3 474E5520 		.ascii	"GNU C 4.8.4 20141219 (release) -mcpu=cortex-m3 -mno"
 536      4320342E 
 536      382E3420 
 536      32303134 
 536      31323139 
 537 00d6 2D746875 		.ascii	"-thumb-interwork -mthumb -ggdb -O2 -fomit-frame-poi"
 537      6D622D69 
 537      6E746572 
 537      776F726B 
 537      202D6D74 
 538 0109 6E746572 		.ascii	"nter -falign-functions=16 -ffunction-sections -fdat"
 538      202D6661 
 538      6C69676E 
 538      2D66756E 
 538      6374696F 
 539 013c 612D7365 		.ascii	"a-sections -fno-common -fno-strict-aliasing\000"
 539      6374696F 
 539      6E73202D 
 539      666E6F2D 
 539      636F6D6D 
 540              	.LASF2:
 541 0168 73686F72 		.ascii	"short int\000"
 541      7420696E 
 541      7400
 542              	.LASF8:
 543 0172 756E7369 		.ascii	"unsigned int\000"
 543      676E6564 
 543      20696E74 
 543      00
 544              	.LASF10:
 545 017f 73697A65 		.ascii	"sizetype\000"
 545      74797065 
 545      00
 546              	.LASF15:
 547 0188 2F686F6D 		.ascii	"/home/dltech-deb/gdrive/Projects/RFM_to_Modbus_TCP/"
 547      652F646C 
 547      74656368 
 547      2D646562 
 547      2F676472 
 548 01bb 43686962 		.ascii	"ChibiOS/F103_ChibiOS_ENC60J28/main\000"
 548      694F532F 
 548      46313033 
 548      5F436869 
 548      62694F53 
 549              		.ident	"GCC: (4.8.4-1+11-1) 4.8.4 20141219 (release)"
ARM GAS  /tmp/ccQwxtYg.s 			page 12


DEFINED SYMBOLS
                            *ABS*:0000000000000000 uiplib.c
     /tmp/ccQwxtYg.s:19     .text.uiplib_ipaddrconv:0000000000000000 $t
     /tmp/ccQwxtYg.s:25     .text.uiplib_ipaddrconv:0000000000000000 uiplib_ipaddrconv
                     .debug_frame:0000000000000010 $d

NO UNDEFINED SYMBOLS
