ARM GAS  /tmp/ccQwxtYg.s 			page 1


   1              		.syntax unified
   2              		.cpu cortex-m3
   3              		.fpu softvfp
   4              		.eabi_attribute 20, 1
   5              		.eabi_attribute 21, 1
   6              		.eabi_attribute 23, 3
   7              		.eabi_attribute 24, 1
   8              		.eabi_attribute 25, 1
   9              		.eabi_attribute 26, 1
  10              		.eabi_attribute 30, 2
  11              		.eabi_attribute 34, 1
  12              		.eabi_attribute 18, 4
  13              		.thumb
  14              		.file	"uiplib.c"
  15              		.text
  16              	.Ltext0:
  17              		.cfi_sections	.debug_frame
  18              		.section	.text.uiplib_ipaddrconv,"ax",%progbits
  19              		.align	2
  20              		.p2align 4,,15
  21              		.global	uiplib_ipaddrconv
  22              		.thumb
  23              		.thumb_func
  24              		.type	uiplib_ipaddrconv, %function
  25              	uiplib_ipaddrconv:
  26              	.LFB0:
  27              		.file 1 "../uip/uiplib.c"
  28              		.loc 1 44 0
  29              		.cfi_startproc
  30              		@ args = 0, pretend = 0, frame = 0
  31              		@ frame_needed = 0, uses_anonymous_args = 0
  32              		@ link register save eliminated.
  33              	.LVL0:
  34 0000 F0B4     		push	{r4, r5, r6, r7}
  35              		.cfi_def_cfa_offset 16
  36              		.cfi_offset 4, -16
  37              		.cfi_offset 5, -12
  38              		.cfi_offset 6, -8
  39              		.cfi_offset 7, -4
  40              		.loc 1 44 0
  41 0002 0427     		movs	r7, #4
  42              	.LVL1:
  43              	.L7:
  44              		.loc 1 54 0
  45 0004 0446     		mov	r4, r0
  46 0006 14F8013B 		ldrb	r3, [r4], #1	@ zero_extendqisi2
  47              	.LVL2:
  48 000a 0420     		movs	r0, #4
  49              	.LVL3:
  50 000c 0022     		movs	r2, #0
  51              	.LVL4:
  52              	.L2:
  53              		.loc 1 59 0
  54 000e 2E2B     		cmp	r3, #46
  55 0010 13D0     		beq	.L3
  56              		.loc 1 63 0 discriminator 1
  57 0012 A3F13005 		sub	r5, r3, #48
ARM GAS  /tmp/ccQwxtYg.s 			page 2


  58              		.loc 1 64 0 discriminator 1
  59 0016 02EB8206 		add	r6, r2, r2, lsl #2
  60              		.loc 1 63 0 discriminator 1
  61 001a EDB2     		uxtb	r5, r5
  62              		.loc 1 64 0 discriminator 1
  63 001c 05EB4606 		add	r6, r5, r6, lsl #1
  64 0020 0138     		subs	r0, r0, #1
  65              		.loc 1 59 0 discriminator 1
  66 0022 53B1     		cbz	r3, .L3
  67              		.loc 1 63 0
  68 0024 092D     		cmp	r5, #9
  69              		.loc 1 64 0
  70 0026 06F0FF02 		and	r2, r6, #255
  71              	.LVL5:
  72              		.loc 1 63 0
  73 002a 10D8     		bhi	.L9
  74              		.loc 1 56 0
  75 002c 10F0FF00 		ands	r0, r0, #255
  76              		.loc 1 54 0
  77 0030 14F8013B 		ldrb	r3, [r4], #1	@ zero_extendqisi2
  78              	.LVL6:
  79              		.loc 1 56 0
  80 0034 EBD1     		bne	.L2
  81              	.LVL7:
  82              	.L12:
  83              		.loc 1 72 0
  84 0036 F0BC     		pop	{r4, r5, r6, r7}
  85              	.LVL8:
  86 0038 7047     		bx	lr
  87              	.LVL9:
  88              	.L3:
  89 003a 013F     		subs	r7, r7, #1
  90              	.LVL10:
  91              		.loc 1 51 0
  92 003c 17F0FF07 		ands	r7, r7, #255
  93              	.LVL11:
  94              		.loc 1 60 0
  95 0040 01F8012B 		strb	r2, [r1], #1
  96              	.LVL12:
  97              		.loc 1 68 0
  98 0044 2046     		mov	r0, r4
  99              	.LVL13:
 100              		.loc 1 51 0
 101 0046 DDD1     		bne	.L7
 102              		.loc 1 72 0
 103 0048 F0BC     		pop	{r4, r5, r6, r7}
 104              		.loc 1 71 0
 105 004a 0120     		movs	r0, #1
 106              		.loc 1 72 0
 107 004c 7047     		bx	lr
 108              	.LVL14:
 109              	.L9:
 110              		.loc 1 57 0
 111 004e 0020     		movs	r0, #0
 112 0050 F1E7     		b	.L12
 113              		.cfi_endproc
 114              	.LFE0:
ARM GAS  /tmp/ccQwxtYg.s 			page 3


 115              		.size	uiplib_ipaddrconv, .-uiplib_ipaddrconv
 116 0052 00BFAFF3 		.text
 116      0080AFF3 
 116      0080AFF3 
 116      0080
 117              	.Letext0: