ARM GAS  /tmp/cc1I4VzL.s 			page 1


   1              		.syntax unified
   2              		.cpu cortex-m3
   3              		.fpu softvfp
   4              		.eabi_attribute 20, 1
   5              		.eabi_attribute 21, 1
   6              		.eabi_attribute 23, 3
   7              		.eabi_attribute 24, 1
   8              		.eabi_attribute 25, 1
   9              		.eabi_attribute 26, 1
  10              		.eabi_attribute 30, 2
  11              		.eabi_attribute 34, 1
  12              		.eabi_attribute 18, 4
  13              		.thumb
  14              		.file	"util.c"
  15              		.text
  16              	.Ltext0:
  17              		.cfi_sections	.debug_frame
  18              		.section	.text.strrev,"ax",%progbits
  19              		.align	2
  20              		.p2align 4,,15
  21              		.global	strrev
  22              		.thumb
  23              		.thumb_func
  24              		.type	strrev, %function
  25              	strrev:
  26              	.LFB56:
  27              		.file 1 "util.c"
  28              		.loc 1 31 0
  29              		.cfi_startproc
  30              		@ args = 0, pretend = 0, frame = 0
  31              		@ frame_needed = 0, uses_anonymous_args = 0
  32              	.LVL0:
  33 0000 38B5     		push	{r3, r4, r5, lr}
  34              		.cfi_def_cfa_offset 16
  35              		.cfi_offset 3, -16
  36              		.cfi_offset 4, -12
  37              		.cfi_offset 5, -8
  38              		.cfi_offset 14, -4
  39              		.loc 1 31 0
  40 0002 0546     		mov	r5, r0
  41              		.loc 1 33 0
  42 0004 FFF7FEFF 		bl	strlen
  43              	.LVL1:
  44              		.loc 1 36 0
  45 0008 4408     		lsrs	r4, r0, #1
  46 000a 0BD0     		beq	.L1
  47 000c 2B46     		mov	r3, r5
  48 000e 2844     		add	r0, r0, r5
  49              	.LVL2:
  50 0010 2C44     		add	r4, r4, r5
  51              	.LVL3:
  52              	.L4:
  53              		.loc 1 38 0 discriminator 2
  54 0012 10F8011C 		ldrb	r1, [r0, #-1]	@ zero_extendqisi2
  55              		.loc 1 37 0 discriminator 2
  56 0016 1A78     		ldrb	r2, [r3]	@ zero_extendqisi2
  57              	.LVL4:
ARM GAS  /tmp/cc1I4VzL.s 			page 2


  58              		.loc 1 38 0 discriminator 2
  59 0018 03F8011B 		strb	r1, [r3], #1
  60              	.LVL5:
  61              		.loc 1 36 0 discriminator 2
  62 001c A342     		cmp	r3, r4
  63              		.loc 1 39 0 discriminator 2
  64 001e 00F8012D 		strb	r2, [r0, #-1]!
  65              	.LVL6:
  66              		.loc 1 36 0 discriminator 2
  67 0022 F6D1     		bne	.L4
  68              	.LVL7:
  69              	.L1:
  70 0024 38BD     		pop	{r3, r4, r5, pc}
  71              		.cfi_endproc
  72              	.LFE56:
  73              		.size	strrev, .-strrev
  74 0026 00BFAFF3 		.section	.text.nitoa,"ax",%progbits
  74      0080AFF3 
  74      0080
  75              		.align	2
  76              		.p2align 4,,15
  77              		.global	nitoa
  78              		.thumb
  79              		.thumb_func
  80              		.type	nitoa, %function
  81              	nitoa:
  82              	.LFB57:
  83              		.loc 1 44 0
  84              		.cfi_startproc
  85              		@ args = 0, pretend = 0, frame = 0
  86              		@ frame_needed = 0, uses_anonymous_args = 0
  87              	.LVL8:
  88              		.loc 1 47 0
  89 0000 0139     		subs	r1, r1, #1
  90              	.LVL9:
  91              		.loc 1 44 0
  92 0002 70B5     		push	{r4, r5, r6, lr}
  93              		.cfi_def_cfa_offset 16
  94              		.cfi_offset 4, -16
  95              		.cfi_offset 5, -12
  96              		.cfi_offset 6, -8
  97              		.cfi_offset 14, -4
  98              		.loc 1 47 0
  99 0004 19D0     		beq	.L13
 100 0006 C2B1     		cbz	r2, .L13
 101              		.loc 1 48 0
 102 0008 0D4E     		ldr	r6, .L15
 103              		.loc 1 47 0
 104 000a 0023     		movs	r3, #0
 105 000c 00E0     		b	.L11
 106              	.LVL10:
 107              	.L9:
 108              		.loc 1 47 0 is_stmt 0 discriminator 2
 109 000e 64B1     		cbz	r4, .L14
 110              	.LVL11:
 111              	.L11:
 112              		.loc 1 48 0 is_stmt 1 discriminator 1
ARM GAS  /tmp/cc1I4VzL.s 			page 3


 113 0010 A6FB0254 		umull	r5, r4, r6, r2
 114 0014 E408     		lsrs	r4, r4, #3
 115 0016 04EB8405 		add	r5, r4, r4, lsl #2
 116 001a A2EB4502 		sub	r2, r2, r5, lsl #1
 117              	.LVL12:
 118 001e 3032     		adds	r2, r2, #48
 119 0020 C254     		strb	r2, [r0, r3]
 120              		.loc 1 47 0 discriminator 1
 121 0022 0133     		adds	r3, r3, #1
 122              	.LVL13:
 123 0024 8B42     		cmp	r3, r1
 124              		.loc 1 49 0 discriminator 1
 125 0026 2246     		mov	r2, r4
 126              	.LVL14:
 127              		.loc 1 47 0 discriminator 1
 128 0028 F1D1     		bne	.L9
 129              	.L14:
 130 002a 0133     		adds	r3, r3, #1
 131              	.LVL15:
 132 002c 1C46     		mov	r4, r3
 133              	.LVL16:
 134              	.L8:
 135              		.loc 1 51 0
 136 002e 0022     		movs	r2, #0
 137              	.LVL17:
 138 0030 C254     		strb	r2, [r0, r3]
 139              		.loc 1 52 0
 140 0032 FFF7FEFF 		bl	strrev
 141              	.LVL18:
 142              		.loc 1 54 0
 143 0036 2046     		mov	r0, r4
 144 0038 70BD     		pop	{r4, r5, r6, pc}
 145              	.LVL19:
 146              	.L13:
 147              		.loc 1 47 0
 148 003a 0124     		movs	r4, #1
 149 003c 2346     		mov	r3, r4
 150 003e F6E7     		b	.L8
 151              	.L16:
 152              		.align	2
 153              	.L15:
 154 0040 CDCCCCCC 		.word	-858993459
 155              		.cfi_endproc
 156              	.LFE57:
 157              		.size	nitoa, .-nitoa
 158 0044 AFF30080 		.section	.text.senddbgmsg,"ax",%progbits
 158      AFF30080 
 158      AFF30080 
 159              		.align	2
 160              		.p2align 4,,15
 161              		.global	senddbgmsg
 162              		.thumb
 163              		.thumb_func
 164              		.type	senddbgmsg, %function
 165              	senddbgmsg:
 166              	.LFB58:
 167              		.loc 1 58 0
ARM GAS  /tmp/cc1I4VzL.s 			page 4


 168              		.cfi_startproc
 169              		@ args = 4, pretend = 16, frame = 104
 170              		@ frame_needed = 0, uses_anonymous_args = 1
 171              	.LVL20:
 172 0000 0FB4     		push	{r0, r1, r2, r3}
 173              		.cfi_def_cfa_offset 16
 174              		.cfi_offset 0, -16
 175              		.cfi_offset 1, -12
 176              		.cfi_offset 2, -8
 177              		.cfi_offset 3, -4
 178 0002 00B5     		push	{lr}
 179              		.cfi_def_cfa_offset 20
 180              		.cfi_offset 14, -20
 181 0004 9BB0     		sub	sp, sp, #108
 182              		.cfi_def_cfa_offset 128
 183              		.loc 1 58 0
 184 0006 1CAB     		add	r3, sp, #112
 185 0008 53F8041B 		ldr	r1, [r3], #4
 186              		.loc 1 63 0
 187 000c 01A8     		add	r0, sp, #4
 188 000e 1A46     		mov	r2, r3
 189              		.loc 1 62 0
 190 0010 0093     		str	r3, [sp]
 191              		.loc 1 63 0
 192 0012 FFF7FEFF 		bl	vsprintf
 193              	.LVL21:
 194              		.loc 1 65 0
 195 0016 0948     		ldr	r0, .L22
 196 0018 FFF7FEFF 		bl	chMtxTryLock
 197              	.LVL22:
 198 001c 48B1     		cbz	r0, .L17
 199              		.loc 1 70 0
 200 001e 01A8     		add	r0, sp, #4
 201 0020 FFF7FEFF 		bl	strlen
 202              	.LVL23:
 203 0024 01AA     		add	r2, sp, #4
 204 0026 0146     		mov	r1, r0
 205 0028 0548     		ldr	r0, .L22+4
 206 002a FFF7FEFF 		bl	uartStartSend
 207              	.LVL24:
 208              		.loc 1 72 0
 209 002e FFF7FEFF 		bl	chMtxUnlock
 210              	.LVL25:
 211              	.L17:
 212              		.loc 1 75 0
 213 0032 1BB0     		add	sp, sp, #108
 214              		@ sp needed
 215 0034 5DF804EB 		ldr	lr, [sp], #4
 216 0038 04B0     		add	sp, sp, #16
 217 003a 7047     		bx	lr
 218              	.L23:
 219              		.align	2
 220              	.L22:
 221 003c 00000000 		.word	uartMtx
 222 0040 00000000 		.word	UARTD2
 223              		.cfi_endproc
 224              	.LFE58:
ARM GAS  /tmp/cc1I4VzL.s 			page 5


 225              		.size	senddbgmsg, .-senddbgmsg
 226 0044 AFF30080 		.text
 226      AFF30080 
 226      AFF30080 
 227              	.Letext0:
 228              		.file 2 "/usr/lib/gcc/arm-none-eabi/4.8/include/stddef.h"
 229              		.file 3 "/usr/include/newlib/machine/_default_types.h"
 230              		.file 4 "/usr/lib/gcc/arm-none-eabi/4.8/include/stdarg.h"
 231              		.file 5 "/usr/include/newlib/stdint.h"
 232              		.file 6 "../os/ports/GCC/ARMCMx/chtypes.h"
 233              		.file 7 "../os/kernel/include/chlists.h"
 234              		.file 8 "<built-in>"
 235              		.file 9 "../os/kernel/include/chthreads.h"
 236              		.file 10 "../os/ports/GCC/ARMCMx/chcore_v7m.h"
 237              		.file 11 "../os/kernel/include/chmtx.h"
 238              		.file 12 "../os/hal/platforms/STM32F1xx/stm32f10x.h"
 239              		.file 13 "../os/hal/platforms/STM32F1xx/stm32_dma.h"
 240              		.file 14 "../os/hal/include/uart.h"
 241              		.file 15 "../os/hal/platforms/STM32/USARTv1/uart_lld.h"
 242              		.file 16 "../os/ports/common/ARMCMx/CMSIS/include/core_cm3.h"
 243              		.file 17 "/usr/include/newlib/string.h"
 244              		.file 18 "/usr/include/newlib/stdio.h"