ARM GAS  /tmp/cc1I4VzL.s 			page 1


   1              		.syntax unified
   2              		.cpu cortex-m3
   3              		.fpu softvfp
   4              		.eabi_attribute 20, 1
   5              		.eabi_attribute 21, 1
   6              		.eabi_attribute 23, 3
   7              		.eabi_attribute 24, 1
   8              		.eabi_attribute 25, 1
   9              		.eabi_attribute 26, 1
  10              		.eabi_attribute 30, 2
  11              		.eabi_attribute 34, 1
  12              		.eabi_attribute 18, 4
  13              		.thumb
  14              		.file	"util.c"
  15              		.text
  16              	.Ltext0:
  17              		.cfi_sections	.debug_frame
  18              		.section	.text.strrev,"ax",%progbits
  19              		.align	2
  20              		.p2align 4,,15
  21              		.global	strrev
  22              		.thumb
  23              		.thumb_func
  24              		.type	strrev, %function
  25              	strrev:
  26              	.LFB56:
  27              		.file 1 "util.c"
  28              		.loc 1 31 0
  29              		.cfi_startproc
  30              		@ args = 0, pretend = 0, frame = 0
  31              		@ frame_needed = 0, uses_anonymous_args = 0
  32              	.LVL0:
  33 0000 38B5     		push	{r3, r4, r5, lr}
  34              		.cfi_def_cfa_offset 16
  35              		.cfi_offset 3, -16
  36              		.cfi_offset 4, -12
  37              		.cfi_offset 5, -8
  38              		.cfi_offset 14, -4
  39              		.loc 1 31 0
  40 0002 0546     		mov	r5, r0
  41              		.loc 1 33 0
  42 0004 FFF7FEFF 		bl	strlen
  43              	.LVL1:
  44              		.loc 1 36 0
  45 0008 4408     		lsrs	r4, r0, #1
  46 000a 0BD0     		beq	.L1
  47 000c 2B46     		mov	r3, r5
  48 000e 2844     		add	r0, r0, r5
  49              	.LVL2:
  50 0010 2C44     		add	r4, r4, r5
  51              	.LVL3:
  52              	.L4:
  53              		.loc 1 38 0 discriminator 2
  54 0012 10F8011C 		ldrb	r1, [r0, #-1]	@ zero_extendqisi2
  55              		.loc 1 37 0 discriminator 2
  56 0016 1A78     		ldrb	r2, [r3]	@ zero_extendqisi2
  57              	.LVL4:
ARM GAS  /tmp/cc1I4VzL.s 			page 2


  58              		.loc 1 38 0 discriminator 2
  59 0018 03F8011B 		strb	r1, [r3], #1
  60              	.LVL5:
  61              		.loc 1 36 0 discriminator 2
  62 001c A342     		cmp	r3, r4
  63              		.loc 1 39 0 discriminator 2
  64 001e 00F8012D 		strb	r2, [r0, #-1]!
  65              	.LVL6:
  66              		.loc 1 36 0 discriminator 2
  67 0022 F6D1     		bne	.L4
  68              	.LVL7:
  69              	.L1:
  70 0024 38BD     		pop	{r3, r4, r5, pc}
  71              		.cfi_endproc
  72              	.LFE56:
  73              		.size	strrev, .-strrev
  74 0026 00BFAFF3 		.section	.text.nitoa,"ax",%progbits
  74      0080AFF3 
  74      0080
  75              		.align	2
  76              		.p2align 4,,15
  77              		.global	nitoa
  78              		.thumb
  79              		.thumb_func
  80              		.type	nitoa, %function
  81              	nitoa:
  82              	.LFB57:
  83              		.loc 1 44 0
  84              		.cfi_startproc
  85              		@ args = 0, pretend = 0, frame = 0
  86              		@ frame_needed = 0, uses_anonymous_args = 0
  87              	.LVL8:
  88              		.loc 1 47 0
  89 0000 0139     		subs	r1, r1, #1
  90              	.LVL9:
  91              		.loc 1 44 0
  92 0002 70B5     		push	{r4, r5, r6, lr}
  93              		.cfi_def_cfa_offset 16
  94              		.cfi_offset 4, -16
  95              		.cfi_offset 5, -12
  96              		.cfi_offset 6, -8
  97              		.cfi_offset 14, -4
  98              		.loc 1 47 0
  99 0004 19D0     		beq	.L13
 100 0006 C2B1     		cbz	r2, .L13
 101              		.loc 1 48 0
 102 0008 0D4E     		ldr	r6, .L15
 103              		.loc 1 47 0
 104 000a 0023     		movs	r3, #0
 105 000c 00E0     		b	.L11
 106              	.LVL10:
 107              	.L9:
 108              		.loc 1 47 0 is_stmt 0 discriminator 2
 109 000e 64B1     		cbz	r4, .L14
 110              	.LVL11:
 111              	.L11:
 112              		.loc 1 48 0 is_stmt 1 discriminator 1
ARM GAS  /tmp/cc1I4VzL.s 			page 3


 113 0010 A6FB0254 		umull	r5, r4, r6, r2
 114 0014 E408     		lsrs	r4, r4, #3
 115 0016 04EB8405 		add	r5, r4, r4, lsl #2
 116 001a A2EB4502 		sub	r2, r2, r5, lsl #1
 117              	.LVL12:
 118 001e 3032     		adds	r2, r2, #48
 119 0020 C254     		strb	r2, [r0, r3]
 120              		.loc 1 47 0 discriminator 1
 121 0022 0133     		adds	r3, r3, #1
 122              	.LVL13:
 123 0024 8B42     		cmp	r3, r1
 124              		.loc 1 49 0 discriminator 1
 125 0026 2246     		mov	r2, r4
 126              	.LVL14:
 127              		.loc 1 47 0 discriminator 1
 128 0028 F1D1     		bne	.L9
 129              	.L14:
 130 002a 0133     		adds	r3, r3, #1
 131              	.LVL15:
 132 002c 1C46     		mov	r4, r3
 133              	.LVL16:
 134              	.L8:
 135              		.loc 1 51 0
 136 002e 0022     		movs	r2, #0
 137              	.LVL17:
 138 0030 C254     		strb	r2, [r0, r3]
 139              		.loc 1 52 0
 140 0032 FFF7FEFF 		bl	strrev
 141              	.LVL18:
 142              		.loc 1 54 0
 143 0036 2046     		mov	r0, r4
 144 0038 70BD     		pop	{r4, r5, r6, pc}
 145              	.LVL19:
 146              	.L13:
 147              		.loc 1 47 0
 148 003a 0124     		movs	r4, #1
 149 003c 2346     		mov	r3, r4
 150 003e F6E7     		b	.L8
 151              	.L16:
 152              		.align	2
 153              	.L15:
 154 0040 CDCCCCCC 		.word	-858993459
 155              		.cfi_endproc
 156              	.LFE57:
 157              		.size	nitoa, .-nitoa
 158 0044 AFF30080 		.section	.text.senddbgmsg,"ax",%progbits
 158      AFF30080 
 158      AFF30080 
 159              		.align	2
 160              		.p2align 4,,15
 161              		.global	senddbgmsg
 162              		.thumb
 163              		.thumb_func
 164              		.type	senddbgmsg, %function
 165              	senddbgmsg:
 166              	.LFB58:
 167              		.loc 1 58 0
ARM GAS  /tmp/cc1I4VzL.s 			page 4


 168              		.cfi_startproc
 169              		@ args = 4, pretend = 16, frame = 104
 170              		@ frame_needed = 0, uses_anonymous_args = 1
 171              	.LVL20:
 172 0000 0FB4     		push	{r0, r1, r2, r3}
 173              		.cfi_def_cfa_offset 16
 174              		.cfi_offset 0, -16
 175              		.cfi_offset 1, -12
 176              		.cfi_offset 2, -8
 177              		.cfi_offset 3, -4
 178 0002 00B5     		push	{lr}
 179              		.cfi_def_cfa_offset 20
 180              		.cfi_offset 14, -20
 181 0004 9BB0     		sub	sp, sp, #108
 182              		.cfi_def_cfa_offset 128
 183              		.loc 1 58 0
 184 0006 1CAB     		add	r3, sp, #112
 185 0008 53F8041B 		ldr	r1, [r3], #4
 186              		.loc 1 63 0
 187 000c 01A8     		add	r0, sp, #4
 188 000e 1A46     		mov	r2, r3
 189              		.loc 1 62 0
 190 0010 0093     		str	r3, [sp]
 191              		.loc 1 63 0
 192 0012 FFF7FEFF 		bl	vsprintf
 193              	.LVL21:
 194              		.loc 1 65 0
 195 0016 0948     		ldr	r0, .L22
 196 0018 FFF7FEFF 		bl	chMtxTryLock
 197              	.LVL22:
 198 001c 48B1     		cbz	r0, .L17
 199              		.loc 1 70 0
 200 001e 01A8     		add	r0, sp, #4
 201 0020 FFF7FEFF 		bl	strlen
 202              	.LVL23:
 203 0024 01AA     		add	r2, sp, #4
 204 0026 0146     		mov	r1, r0
 205 0028 0548     		ldr	r0, .L22+4
 206 002a FFF7FEFF 		bl	uartStartSend
 207              	.LVL24:
 208              		.loc 1 72 0
 209 002e FFF7FEFF 		bl	chMtxUnlock
 210              	.LVL25:
 211              	.L17:
 212              		.loc 1 75 0
 213 0032 1BB0     		add	sp, sp, #108
 214              		@ sp needed
 215 0034 5DF804EB 		ldr	lr, [sp], #4
 216 0038 04B0     		add	sp, sp, #16
 217 003a 7047     		bx	lr
 218              	.L23:
 219              		.align	2
 220              	.L22:
 221 003c 00000000 		.word	uartMtx
 222 0040 00000000 		.word	UARTD2
 223              		.cfi_endproc
 224              	.LFE58:
ARM GAS  /tmp/cc1I4VzL.s 			page 5


 225              		.size	senddbgmsg, .-senddbgmsg
 226 0044 AFF30080 		.text
 226      AFF30080 
 226      AFF30080 
 227              	.Letext0:
 228              		.file 2 "/usr/lib/gcc/arm-none-eabi/4.8/include/stddef.h"
 229              		.file 3 "/usr/include/newlib/machine/_default_types.h"
 230              		.file 4 "/usr/lib/gcc/arm-none-eabi/4.8/include/stdarg.h"
 231              		.file 5 "/usr/include/newlib/stdint.h"
 232              		.file 6 "../os/ports/GCC/ARMCMx/chtypes.h"
 233              		.file 7 "../os/kernel/include/chlists.h"
 234              		.file 8 "<built-in>"
 235              		.file 9 "../os/kernel/include/chthreads.h"
 236              		.file 10 "../os/ports/GCC/ARMCMx/chcore_v7m.h"
 237              		.file 11 "../os/kernel/include/chmtx.h"
 238              		.file 12 "../os/hal/platforms/STM32F1xx/stm32f10x.h"
 239              		.file 13 "../os/hal/platforms/STM32F1xx/stm32_dma.h"
 240              		.file 14 "../os/hal/include/uart.h"
 241              		.file 15 "../os/hal/platforms/STM32/USARTv1/uart_lld.h"
 242              		.file 16 "../os/ports/common/ARMCMx/CMSIS/include/core_cm3.h"
 243              		.file 17 "/usr/include/newlib/string.h"
 244              		.file 18 "/usr/include/newlib/stdio.h"
 245              		.section	.debug_info,"",%progbits
 246              	.Ldebug_info0:
 247 0000 4D090000 		.4byte	0x94d
 248 0004 0400     		.2byte	0x4
 249 0006 00000000 		.4byte	.Ldebug_abbrev0
 250 000a 04       		.byte	0x4
 251 000b 01       		.uleb128 0x1
 252 000c 4B030000 		.4byte	.LASF121
 253 0010 01       		.byte	0x1
 254 0011 FA020000 		.4byte	.LASF122
 255 0015 73010000 		.4byte	.LASF123
 256 0019 00000000 		.4byte	.Ldebug_ranges0+0
 257 001d 00000000 		.4byte	0
 258 0021 00000000 		.4byte	.Ldebug_line0
 259 0025 02       		.uleb128 0x2
 260 0026 06000000 		.4byte	.LASF2
 261 002a 02       		.byte	0x2
 262 002b D4       		.byte	0xd4
 263 002c 30000000 		.4byte	0x30
 264 0030 03       		.uleb128 0x3
 265 0031 04       		.byte	0x4
 266 0032 07       		.byte	0x7
 267 0033 66010000 		.4byte	.LASF0
 268 0037 04       		.uleb128 0x4
 269 0038 04       		.byte	0x4
 270 0039 05       		.byte	0x5
 271 003a 696E7400 		.ascii	"int\000"
 272 003e 03       		.uleb128 0x3
 273 003f 01       		.byte	0x1
 274 0040 06       		.byte	0x6
 275 0041 88000000 		.4byte	.LASF1
 276 0045 02       		.uleb128 0x2
 277 0046 17000000 		.4byte	.LASF3
 278 004a 03       		.byte	0x3
 279 004b 1D       		.byte	0x1d
ARM GAS  /tmp/cc1I4VzL.s 			page 6


 280 004c 50000000 		.4byte	0x50
 281 0050 03       		.uleb128 0x3
 282 0051 01       		.byte	0x1
 283 0052 08       		.byte	0x8
 284 0053 1E040000 		.4byte	.LASF4
 285 0057 03       		.uleb128 0x3
 286 0058 02       		.byte	0x2
 287 0059 05       		.byte	0x5
 288 005a 36040000 		.4byte	.LASF5
 289 005e 02       		.uleb128 0x2
 290 005f F0040000 		.4byte	.LASF6
 291 0063 03       		.byte	0x3
 292 0064 2B       		.byte	0x2b
 293 0065 69000000 		.4byte	0x69
 294 0069 03       		.uleb128 0x3
 295 006a 02       		.byte	0x2
 296 006b 07       		.byte	0x7
 297 006c 05020000 		.4byte	.LASF7
 298 0070 02       		.uleb128 0x2
 299 0071 17050000 		.4byte	.LASF8
 300 0075 03       		.byte	0x3
 301 0076 3F       		.byte	0x3f
 302 0077 7B000000 		.4byte	0x7b
 303 007b 03       		.uleb128 0x3
 304 007c 04       		.byte	0x4
 305 007d 05       		.byte	0x5
 306 007e C1000000 		.4byte	.LASF9
 307 0082 02       		.uleb128 0x2
 308 0083 21010000 		.4byte	.LASF10
 309 0087 03       		.byte	0x3
 310 0088 41       		.byte	0x41
 311 0089 8D000000 		.4byte	0x8d
 312 008d 03       		.uleb128 0x3
 313 008e 04       		.byte	0x4
 314 008f 07       		.byte	0x7
 315 0090 C5040000 		.4byte	.LASF11
 316 0094 03       		.uleb128 0x3
 317 0095 08       		.byte	0x8
 318 0096 05       		.byte	0x5
 319 0097 DD000000 		.4byte	.LASF12
 320 009b 03       		.uleb128 0x3
 321 009c 08       		.byte	0x8
 322 009d 07       		.byte	0x7
 323 009e 2F000000 		.4byte	.LASF13
 324 00a2 03       		.uleb128 0x3
 325 00a3 04       		.byte	0x4
 326 00a4 07       		.byte	0x7
 327 00a5 76020000 		.4byte	.LASF14
 328 00a9 05       		.uleb128 0x5
 329 00aa 04       		.byte	0x4
 330 00ab 06       		.uleb128 0x6
 331 00ac 04       		.byte	0x4
 332 00ad B1000000 		.4byte	0xb1
 333 00b1 03       		.uleb128 0x3
 334 00b2 01       		.byte	0x1
 335 00b3 08       		.byte	0x8
 336 00b4 D7040000 		.4byte	.LASF15
ARM GAS  /tmp/cc1I4VzL.s 			page 7


 337 00b8 06       		.uleb128 0x6
 338 00b9 04       		.byte	0x4
 339 00ba BE000000 		.4byte	0xbe
 340 00be 07       		.uleb128 0x7
 341 00bf B1000000 		.4byte	0xb1
 342 00c3 06       		.uleb128 0x6
 343 00c4 04       		.byte	0x4
 344 00c5 C9000000 		.4byte	0xc9
 345 00c9 08       		.uleb128 0x8
 346 00ca 02       		.uleb128 0x2
 347 00cb 96020000 		.4byte	.LASF16
 348 00cf 04       		.byte	0x4
 349 00d0 28       		.byte	0x28
 350 00d1 D5000000 		.4byte	0xd5
 351 00d5 09       		.uleb128 0x9
 352 00d6 D3000000 		.4byte	.LASF31
 353 00da 04       		.byte	0x4
 354 00db 08       		.byte	0x8
 355 00dc 00       		.byte	0
 356 00dd EC000000 		.4byte	0xec
 357 00e1 0A       		.uleb128 0xa
 358 00e2 3F050000 		.4byte	.LASF54
 359 00e6 A9000000 		.4byte	0xa9
 360 00ea 00       		.byte	0
 361 00eb 00       		.byte	0
 362 00ec 02       		.uleb128 0x2
 363 00ed 21000000 		.4byte	.LASF17
 364 00f1 04       		.byte	0x4
 365 00f2 62       		.byte	0x62
 366 00f3 CA000000 		.4byte	0xca
 367 00f7 02       		.uleb128 0x2
 368 00f8 74050000 		.4byte	.LASF18
 369 00fc 05       		.byte	0x5
 370 00fd 2A       		.byte	0x2a
 371 00fe 45000000 		.4byte	0x45
 372 0102 02       		.uleb128 0x2
 373 0103 EB000000 		.4byte	.LASF19
 374 0107 05       		.byte	0x5
 375 0108 36       		.byte	0x36
 376 0109 5E000000 		.4byte	0x5e
 377 010d 02       		.uleb128 0x2
 378 010e 16040000 		.4byte	.LASF20
 379 0112 05       		.byte	0x5
 380 0113 41       		.byte	0x41
 381 0114 70000000 		.4byte	0x70
 382 0118 02       		.uleb128 0x2
 383 0119 B2040000 		.4byte	.LASF21
 384 011d 05       		.byte	0x5
 385 011e 42       		.byte	0x42
 386 011f 82000000 		.4byte	0x82
 387 0123 02       		.uleb128 0x2
 388 0124 6E000000 		.4byte	.LASF22
 389 0128 06       		.byte	0x6
 390 0129 2B       		.byte	0x2b
 391 012a 2E010000 		.4byte	0x12e
 392 012e 03       		.uleb128 0x3
 393 012f 01       		.byte	0x1
ARM GAS  /tmp/cc1I4VzL.s 			page 8


 394 0130 02       		.byte	0x2
 395 0131 10040000 		.4byte	.LASF23
 396 0135 02       		.uleb128 0x2
 397 0136 42020000 		.4byte	.LASF24
 398 013a 06       		.byte	0x6
 399 013b 2C       		.byte	0x2c
 400 013c F7000000 		.4byte	0xf7
 401 0140 02       		.uleb128 0x2
 402 0141 CA000000 		.4byte	.LASF25
 403 0145 06       		.byte	0x6
 404 0146 2D       		.byte	0x2d
 405 0147 F7000000 		.4byte	0xf7
 406 014b 02       		.uleb128 0x2
 407 014c A9000000 		.4byte	.LASF26
 408 0150 06       		.byte	0x6
 409 0151 2F       		.byte	0x2f
 410 0152 F7000000 		.4byte	0xf7
 411 0156 02       		.uleb128 0x2
 412 0157 43030000 		.4byte	.LASF27
 413 015b 06       		.byte	0x6
 414 015c 30       		.byte	0x30
 415 015d 18010000 		.4byte	0x118
 416 0161 02       		.uleb128 0x2
 417 0162 2E020000 		.4byte	.LASF28
 418 0166 06       		.byte	0x6
 419 0167 31       		.byte	0x31
 420 0168 0D010000 		.4byte	0x10d
 421 016c 02       		.uleb128 0x2
 422 016d 56020000 		.4byte	.LASF29
 423 0171 06       		.byte	0x6
 424 0172 33       		.byte	0x33
 425 0173 18010000 		.4byte	0x118
 426 0177 02       		.uleb128 0x2
 427 0178 3F010000 		.4byte	.LASF30
 428 017c 07       		.byte	0x7
 429 017d 2A       		.byte	0x2a
 430 017e 82010000 		.4byte	0x182
 431 0182 09       		.uleb128 0x9
 432 0183 3F010000 		.4byte	.LASF30
 433 0187 34       		.byte	0x34
 434 0188 09       		.byte	0x9
 435 0189 5E       		.byte	0x5e
 436 018a 37020000 		.4byte	0x237
 437 018e 0B       		.uleb128 0xb
 438 018f 64040000 		.4byte	.LASF32
 439 0193 09       		.byte	0x9
 440 0194 5F       		.byte	0x5f
 441 0195 58020000 		.4byte	0x258
 442 0199 00       		.byte	0
 443 019a 0B       		.uleb128 0xb
 444 019b 15030000 		.4byte	.LASF33
 445 019f 09       		.byte	0x9
 446 01a0 61       		.byte	0x61
 447 01a1 58020000 		.4byte	0x258
 448 01a5 04       		.byte	0x4
 449 01a6 0B       		.uleb128 0xb
 450 01a7 75000000 		.4byte	.LASF34
ARM GAS  /tmp/cc1I4VzL.s 			page 9


 451 01ab 09       		.byte	0x9
 452 01ac 63       		.byte	0x63
 453 01ad 56010000 		.4byte	0x156
 454 01b1 08       		.byte	0x8
 455 01b2 0B       		.uleb128 0xb
 456 01b3 AE050000 		.4byte	.LASF35
 457 01b7 09       		.byte	0x9
 458 01b8 64       		.byte	0x64
 459 01b9 10030000 		.4byte	0x310
 460 01bd 0C       		.byte	0xc
 461 01be 0B       		.uleb128 0xb
 462 01bf 40040000 		.4byte	.LASF36
 463 01c3 09       		.byte	0x9
 464 01c4 79       		.byte	0x79
 465 01c5 40010000 		.4byte	0x140
 466 01c9 10       		.byte	0x10
 467 01ca 0B       		.uleb128 0xb
 468 01cb 77040000 		.4byte	.LASF37
 469 01cf 09       		.byte	0x9
 470 01d0 7D       		.byte	0x7d
 471 01d1 35010000 		.4byte	0x135
 472 01d5 11       		.byte	0x11
 473 01d6 0B       		.uleb128 0xb
 474 01d7 53040000 		.4byte	.LASF38
 475 01db 09       		.byte	0x9
 476 01dc 88       		.byte	0x88
 477 01dd 4B010000 		.4byte	0x14b
 478 01e1 12       		.byte	0x12
 479 01e2 0C       		.uleb128 0xc
 480 01e3 705F7500 		.ascii	"p_u\000"
 481 01e7 09       		.byte	0x9
 482 01e8 B4       		.byte	0xb4
 483 01e9 78030000 		.4byte	0x378
 484 01ed 14       		.byte	0x14
 485 01ee 0B       		.uleb128 0xb
 486 01ef B4050000 		.4byte	.LASF39
 487 01f3 09       		.byte	0x9
 488 01f4 B9       		.byte	0xb9
 489 01f5 7E020000 		.4byte	0x27e
 490 01f9 18       		.byte	0x18
 491 01fa 0B       		.uleb128 0xb
 492 01fb D5010000 		.4byte	.LASF40
 493 01ff 09       		.byte	0x9
 494 0200 BF       		.byte	0xbf
 495 0201 5E020000 		.4byte	0x25e
 496 0205 1C       		.byte	0x1c
 497 0206 0B       		.uleb128 0xb
 498 0207 91050000 		.4byte	.LASF41
 499 020b 09       		.byte	0x9
 500 020c C3       		.byte	0xc3
 501 020d 61010000 		.4byte	0x161
 502 0211 24       		.byte	0x24
 503 0212 0B       		.uleb128 0xb
 504 0213 98040000 		.4byte	.LASF42
 505 0217 09       		.byte	0x9
 506 0218 C9       		.byte	0xc9
 507 0219 6C010000 		.4byte	0x16c
ARM GAS  /tmp/cc1I4VzL.s 			page 10


 508 021d 28       		.byte	0x28
 509 021e 0B       		.uleb128 0xb
 510 021f 2C040000 		.4byte	.LASF43
 511 0223 09       		.byte	0x9
 512 0224 D0       		.byte	0xd0
 513 0225 AD030000 		.4byte	0x3ad
 514 0229 2C       		.byte	0x2c
 515 022a 0B       		.uleb128 0xb
 516 022b 0C050000 		.4byte	.LASF44
 517 022f 09       		.byte	0x9
 518 0230 D4       		.byte	0xd4
 519 0231 56010000 		.4byte	0x156
 520 0235 30       		.byte	0x30
 521 0236 00       		.byte	0
 522 0237 0D       		.uleb128 0xd
 523 0238 08       		.byte	0x8
 524 0239 07       		.byte	0x7
 525 023a 61       		.byte	0x61
 526 023b 58020000 		.4byte	0x258
 527 023f 0B       		.uleb128 0xb
 528 0240 64040000 		.4byte	.LASF32
 529 0244 07       		.byte	0x7
 530 0245 62       		.byte	0x62
 531 0246 58020000 		.4byte	0x258
 532 024a 00       		.byte	0
 533 024b 0B       		.uleb128 0xb
 534 024c 15030000 		.4byte	.LASF33
 535 0250 07       		.byte	0x7
 536 0251 64       		.byte	0x64
 537 0252 58020000 		.4byte	0x258
 538 0256 04       		.byte	0x4
 539 0257 00       		.byte	0
 540 0258 06       		.uleb128 0x6
 541 0259 04       		.byte	0x4
 542 025a 77010000 		.4byte	0x177
 543 025e 02       		.uleb128 0x2
 544 025f BA020000 		.4byte	.LASF45
 545 0263 07       		.byte	0x7
 546 0264 66       		.byte	0x66
 547 0265 37020000 		.4byte	0x237
 548 0269 0D       		.uleb128 0xd
 549 026a 04       		.byte	0x4
 550 026b 07       		.byte	0x7
 551 026c 6B       		.byte	0x6b
 552 026d 7E020000 		.4byte	0x27e
 553 0271 0B       		.uleb128 0xb
 554 0272 64040000 		.4byte	.LASF32
 555 0276 07       		.byte	0x7
 556 0277 6D       		.byte	0x6d
 557 0278 58020000 		.4byte	0x258
 558 027c 00       		.byte	0
 559 027d 00       		.byte	0
 560 027e 02       		.uleb128 0x2
 561 027f 4A020000 		.4byte	.LASF46
 562 0283 07       		.byte	0x7
 563 0284 70       		.byte	0x70
 564 0285 69020000 		.4byte	0x269
ARM GAS  /tmp/cc1I4VzL.s 			page 11


 565 0289 02       		.uleb128 0x2
 566 028a 2C010000 		.4byte	.LASF47
 567 028e 0A       		.byte	0xa
 568 028f E5       		.byte	0xe5
 569 0290 A9000000 		.4byte	0xa9
 570 0294 0E       		.uleb128 0xe
 571 0295 55050000 		.4byte	.LASF48
 572 0299 24       		.byte	0x24
 573 029a 0A       		.byte	0xa
 574 029b 0C01     		.2byte	0x10c
 575 029d 10030000 		.4byte	0x310
 576 02a1 0F       		.uleb128 0xf
 577 02a2 723400   		.ascii	"r4\000"
 578 02a5 0A       		.byte	0xa
 579 02a6 1F01     		.2byte	0x11f
 580 02a8 89020000 		.4byte	0x289
 581 02ac 00       		.byte	0
 582 02ad 0F       		.uleb128 0xf
 583 02ae 723500   		.ascii	"r5\000"
 584 02b1 0A       		.byte	0xa
 585 02b2 2001     		.2byte	0x120
 586 02b4 89020000 		.4byte	0x289
 587 02b8 04       		.byte	0x4
 588 02b9 0F       		.uleb128 0xf
 589 02ba 723600   		.ascii	"r6\000"
 590 02bd 0A       		.byte	0xa
 591 02be 2101     		.2byte	0x121
 592 02c0 89020000 		.4byte	0x289
 593 02c4 08       		.byte	0x8
 594 02c5 0F       		.uleb128 0xf
 595 02c6 723700   		.ascii	"r7\000"
 596 02c9 0A       		.byte	0xa
 597 02ca 2201     		.2byte	0x122
 598 02cc 89020000 		.4byte	0x289
 599 02d0 0C       		.byte	0xc
 600 02d1 0F       		.uleb128 0xf
 601 02d2 723800   		.ascii	"r8\000"
 602 02d5 0A       		.byte	0xa
 603 02d6 2301     		.2byte	0x123
 604 02d8 89020000 		.4byte	0x289
 605 02dc 10       		.byte	0x10
 606 02dd 0F       		.uleb128 0xf
 607 02de 723900   		.ascii	"r9\000"
 608 02e1 0A       		.byte	0xa
 609 02e2 2401     		.2byte	0x124
 610 02e4 89020000 		.4byte	0x289
 611 02e8 14       		.byte	0x14
 612 02e9 0F       		.uleb128 0xf
 613 02ea 72313000 		.ascii	"r10\000"
 614 02ee 0A       		.byte	0xa
 615 02ef 2501     		.2byte	0x125
 616 02f1 89020000 		.4byte	0x289
 617 02f5 18       		.byte	0x18
 618 02f6 0F       		.uleb128 0xf
 619 02f7 72313100 		.ascii	"r11\000"
 620 02fb 0A       		.byte	0xa
 621 02fc 2601     		.2byte	0x126
ARM GAS  /tmp/cc1I4VzL.s 			page 12


 622 02fe 89020000 		.4byte	0x289
 623 0302 1C       		.byte	0x1c
 624 0303 0F       		.uleb128 0xf
 625 0304 6C7200   		.ascii	"lr\000"
 626 0307 0A       		.byte	0xa
 627 0308 2701     		.2byte	0x127
 628 030a 89020000 		.4byte	0x289
 629 030e 20       		.byte	0x20
 630 030f 00       		.byte	0
 631 0310 0E       		.uleb128 0xe
 632 0311 44050000 		.4byte	.LASF49
 633 0315 04       		.byte	0x4
 634 0316 0A       		.byte	0xa
 635 0317 3101     		.2byte	0x131
 636 0319 2B030000 		.4byte	0x32b
 637 031d 0F       		.uleb128 0xf
 638 031e 72313300 		.ascii	"r13\000"
 639 0322 0A       		.byte	0xa
 640 0323 3201     		.2byte	0x132
 641 0325 2B030000 		.4byte	0x32b
 642 0329 00       		.byte	0
 643 032a 00       		.byte	0
 644 032b 06       		.uleb128 0x6
 645 032c 04       		.byte	0x4
 646 032d 94020000 		.4byte	0x294
 647 0331 10       		.uleb128 0x10
 648 0332 18010000 		.4byte	0x118
 649 0336 09       		.uleb128 0x9
 650 0337 90020000 		.4byte	.LASF50
 651 033b 10       		.byte	0x10
 652 033c 0B       		.byte	0xb
 653 033d 2C       		.byte	0x2c
 654 033e 67030000 		.4byte	0x367
 655 0342 0B       		.uleb128 0xb
 656 0343 A1000000 		.4byte	.LASF51
 657 0347 0B       		.byte	0xb
 658 0348 2D       		.byte	0x2d
 659 0349 5E020000 		.4byte	0x25e
 660 034d 00       		.byte	0
 661 034e 0B       		.uleb128 0xb
 662 034f 97050000 		.4byte	.LASF52
 663 0353 0B       		.byte	0xb
 664 0354 2F       		.byte	0x2f
 665 0355 58020000 		.4byte	0x258
 666 0359 08       		.byte	0x8
 667 035a 0B       		.uleb128 0xb
 668 035b 05050000 		.4byte	.LASF53
 669 035f 0B       		.byte	0xb
 670 0360 31       		.byte	0x31
 671 0361 67030000 		.4byte	0x367
 672 0365 0C       		.byte	0xc
 673 0366 00       		.byte	0
 674 0367 06       		.uleb128 0x6
 675 0368 04       		.byte	0x4
 676 0369 36030000 		.4byte	0x336
 677 036d 02       		.uleb128 0x2
 678 036e 90020000 		.4byte	.LASF50
ARM GAS  /tmp/cc1I4VzL.s 			page 13


 679 0372 0B       		.byte	0xb
 680 0373 33       		.byte	0x33
 681 0374 36030000 		.4byte	0x336
 682 0378 11       		.uleb128 0x11
 683 0379 04       		.byte	0x4
 684 037a 09       		.byte	0x9
 685 037b 96       		.byte	0x96
 686 037c AD030000 		.4byte	0x3ad
 687 0380 12       		.uleb128 0x12
 688 0381 62050000 		.4byte	.LASF55
 689 0385 09       		.byte	0x9
 690 0386 9D       		.byte	0x9d
 691 0387 61010000 		.4byte	0x161
 692 038b 12       		.uleb128 0x12
 693 038c 46000000 		.4byte	.LASF56
 694 0390 09       		.byte	0x9
 695 0391 A4       		.byte	0xa4
 696 0392 61010000 		.4byte	0x161
 697 0396 12       		.uleb128 0x12
 698 0397 84050000 		.4byte	.LASF57
 699 039b 09       		.byte	0x9
 700 039c AB       		.byte	0xab
 701 039d A9000000 		.4byte	0xa9
 702 03a1 12       		.uleb128 0x12
 703 03a2 5D040000 		.4byte	.LASF58
 704 03a6 09       		.byte	0x9
 705 03a7 B2       		.byte	0xb2
 706 03a8 6C010000 		.4byte	0x16c
 707 03ac 00       		.byte	0
 708 03ad 06       		.uleb128 0x6
 709 03ae 04       		.byte	0x4
 710 03af 6D030000 		.4byte	0x36d
 711 03b3 10       		.uleb128 0x10
 712 03b4 02010000 		.4byte	0x102
 713 03b8 10       		.uleb128 0x10
 714 03b9 0D010000 		.4byte	0x10d
 715 03bd 13       		.uleb128 0x13
 716 03be 10       		.byte	0x10
 717 03bf 0C       		.byte	0xc
 718 03c0 2D03     		.2byte	0x32d
 719 03c2 FB030000 		.4byte	0x3fb
 720 03c6 0F       		.uleb128 0xf
 721 03c7 43435200 		.ascii	"CCR\000"
 722 03cb 0C       		.byte	0xc
 723 03cc 2F03     		.2byte	0x32f
 724 03ce 31030000 		.4byte	0x331
 725 03d2 00       		.byte	0
 726 03d3 14       		.uleb128 0x14
 727 03d4 69050000 		.4byte	.LASF59
 728 03d8 0C       		.byte	0xc
 729 03d9 3003     		.2byte	0x330
 730 03db 31030000 		.4byte	0x331
 731 03df 04       		.byte	0x4
 732 03e0 14       		.uleb128 0x14
 733 03e1 D0010000 		.4byte	.LASF60
 734 03e5 0C       		.byte	0xc
 735 03e6 3103     		.2byte	0x331
ARM GAS  /tmp/cc1I4VzL.s 			page 14


 736 03e8 31030000 		.4byte	0x331
 737 03ec 08       		.byte	0x8
 738 03ed 14       		.uleb128 0x14
 739 03ee 6F050000 		.4byte	.LASF61
 740 03f2 0C       		.byte	0xc
 741 03f3 3203     		.2byte	0x332
 742 03f5 31030000 		.4byte	0x331
 743 03f9 0C       		.byte	0xc
 744 03fa 00       		.byte	0
 745 03fb 15       		.uleb128 0x15
 746 03fc EA010000 		.4byte	.LASF62
 747 0400 0C       		.byte	0xc
 748 0401 3303     		.2byte	0x333
 749 0403 BD030000 		.4byte	0x3bd
 750 0407 13       		.uleb128 0x13
 751 0408 1C       		.byte	0x1c
 752 0409 0C       		.byte	0xc
 753 040a E104     		.2byte	0x4e1
 754 040c C5040000 		.4byte	0x4c5
 755 0410 0F       		.uleb128 0xf
 756 0411 535200   		.ascii	"SR\000"
 757 0414 0C       		.byte	0xc
 758 0415 E304     		.2byte	0x4e3
 759 0417 B3030000 		.4byte	0x3b3
 760 041b 00       		.byte	0
 761 041c 14       		.uleb128 0x14
 762 041d E6020000 		.4byte	.LASF63
 763 0421 0C       		.byte	0xc
 764 0422 E404     		.2byte	0x4e4
 765 0424 02010000 		.4byte	0x102
 766 0428 02       		.byte	0x2
 767 0429 0F       		.uleb128 0xf
 768 042a 445200   		.ascii	"DR\000"
 769 042d 0C       		.byte	0xc
 770 042e E504     		.2byte	0x4e5
 771 0430 B3030000 		.4byte	0x3b3
 772 0434 04       		.byte	0x4
 773 0435 14       		.uleb128 0x14
 774 0436 F0020000 		.4byte	.LASF64
 775 043a 0C       		.byte	0xc
 776 043b E604     		.2byte	0x4e6
 777 043d 02010000 		.4byte	0x102
 778 0441 06       		.byte	0x6
 779 0442 0F       		.uleb128 0xf
 780 0443 42525200 		.ascii	"BRR\000"
 781 0447 0C       		.byte	0xc
 782 0448 E704     		.2byte	0x4e7
 783 044a B3030000 		.4byte	0x3b3
 784 044e 08       		.byte	0x8
 785 044f 14       		.uleb128 0x14
 786 0450 8E040000 		.4byte	.LASF65
 787 0454 0C       		.byte	0xc
 788 0455 E804     		.2byte	0x4e8
 789 0457 02010000 		.4byte	0x102
 790 045b 0A       		.byte	0xa
 791 045c 0F       		.uleb128 0xf
 792 045d 43523100 		.ascii	"CR1\000"
ARM GAS  /tmp/cc1I4VzL.s 			page 15


 793 0461 0C       		.byte	0xc
 794 0462 E904     		.2byte	0x4e9
 795 0464 B3030000 		.4byte	0x3b3
 796 0468 0C       		.byte	0xc
 797 0469 14       		.uleb128 0x14
 798 046a 01030000 		.4byte	.LASF66
 799 046e 0C       		.byte	0xc
 800 046f EA04     		.2byte	0x4ea
 801 0471 02010000 		.4byte	0x102
 802 0475 0E       		.byte	0xe
 803 0476 0F       		.uleb128 0xf
 804 0477 43523200 		.ascii	"CR2\000"
 805 047b 0C       		.byte	0xc
 806 047c EB04     		.2byte	0x4eb
 807 047e B3030000 		.4byte	0x3b3
 808 0482 10       		.byte	0x10
 809 0483 14       		.uleb128 0x14
 810 0484 0B030000 		.4byte	.LASF67
 811 0488 0C       		.byte	0xc
 812 0489 EC04     		.2byte	0x4ec
 813 048b 02010000 		.4byte	0x102
 814 048f 12       		.byte	0x12
 815 0490 0F       		.uleb128 0xf
 816 0491 43523300 		.ascii	"CR3\000"
 817 0495 0C       		.byte	0xc
 818 0496 ED04     		.2byte	0x4ed
 819 0498 B3030000 		.4byte	0x3b3
 820 049c 14       		.byte	0x14
 821 049d 14       		.uleb128 0x14
 822 049e A8040000 		.4byte	.LASF68
 823 04a2 0C       		.byte	0xc
 824 04a3 EE04     		.2byte	0x4ee
 825 04a5 02010000 		.4byte	0x102
 826 04a9 16       		.byte	0x16
 827 04aa 14       		.uleb128 0x14
 828 04ab 94000000 		.4byte	.LASF69
 829 04af 0C       		.byte	0xc
 830 04b0 EF04     		.2byte	0x4ef
 831 04b2 B3030000 		.4byte	0x3b3
 832 04b6 18       		.byte	0x18
 833 04b7 14       		.uleb128 0x14
 834 04b8 1C030000 		.4byte	.LASF70
 835 04bc 0C       		.byte	0xc
 836 04bd F004     		.2byte	0x4f0
 837 04bf 02010000 		.4byte	0x102
 838 04c3 1A       		.byte	0x1a
 839 04c4 00       		.byte	0
 840 04c5 15       		.uleb128 0x15
 841 04c6 34020000 		.4byte	.LASF71
 842 04ca 0C       		.byte	0xc
 843 04cb F104     		.2byte	0x4f1
 844 04cd 07040000 		.4byte	0x407
 845 04d1 0D       		.uleb128 0xd
 846 04d2 0C       		.byte	0xc
 847 04d3 0D       		.byte	0xd
 848 04d4 C1       		.byte	0xc1
 849 04d5 16050000 		.4byte	0x516
ARM GAS  /tmp/cc1I4VzL.s 			page 16


 850 04d9 0B       		.uleb128 0xb
 851 04da 86040000 		.4byte	.LASF72
 852 04de 0D       		.byte	0xd
 853 04df C2       		.byte	0xc2
 854 04e0 16050000 		.4byte	0x516
 855 04e4 00       		.byte	0
 856 04e5 0B       		.uleb128 0xb
 857 04e6 A3040000 		.4byte	.LASF73
 858 04ea 0D       		.byte	0xd
 859 04eb C3       		.byte	0xc3
 860 04ec 1C050000 		.4byte	0x51c
 861 04f0 04       		.byte	0x4
 862 04f1 0B       		.uleb128 0xb
 863 04f2 FE010000 		.4byte	.LASF74
 864 04f6 0D       		.byte	0xd
 865 04f7 C4       		.byte	0xc4
 866 04f8 F7000000 		.4byte	0xf7
 867 04fc 08       		.byte	0x8
 868 04fd 0B       		.uleb128 0xb
 869 04fe 35010000 		.4byte	.LASF75
 870 0502 0D       		.byte	0xd
 871 0503 C6       		.byte	0xc6
 872 0504 F7000000 		.4byte	0xf7
 873 0508 09       		.byte	0x9
 874 0509 0B       		.uleb128 0xb
 875 050a 4F000000 		.4byte	.LASF76
 876 050e 0D       		.byte	0xd
 877 050f C7       		.byte	0xc7
 878 0510 F7000000 		.4byte	0xf7
 879 0514 0A       		.byte	0xa
 880 0515 00       		.byte	0
 881 0516 06       		.uleb128 0x6
 882 0517 04       		.byte	0x4
 883 0518 FB030000 		.4byte	0x3fb
 884 051c 06       		.uleb128 0x6
 885 051d 04       		.byte	0x4
 886 051e 31030000 		.4byte	0x331
 887 0522 02       		.uleb128 0x2
 888 0523 26030000 		.4byte	.LASF77
 889 0527 0D       		.byte	0xd
 890 0528 C8       		.byte	0xc8
 891 0529 D1040000 		.4byte	0x4d1
 892 052d 06       		.uleb128 0x6
 893 052e 04       		.byte	0x4
 894 052f 33050000 		.4byte	0x533
 895 0533 07       		.uleb128 0x7
 896 0534 22050000 		.4byte	0x522
 897 0538 16       		.uleb128 0x16
 898 0539 01       		.byte	0x1
 899 053a 0E       		.byte	0xe
 900 053b 48       		.byte	0x48
 901 053c 53050000 		.4byte	0x553
 902 0540 17       		.uleb128 0x17
 903 0541 18020000 		.4byte	.LASF78
 904 0545 00       		.sleb128 0
 905 0546 17       		.uleb128 0x17
 906 0547 24020000 		.4byte	.LASF79
ARM GAS  /tmp/cc1I4VzL.s 			page 17


 907 054b 01       		.sleb128 1
 908 054c 17       		.uleb128 0x17
 909 054d 46010000 		.4byte	.LASF80
 910 0551 02       		.sleb128 2
 911 0552 00       		.byte	0
 912 0553 02       		.uleb128 0x2
 913 0554 6B040000 		.4byte	.LASF81
 914 0558 0E       		.byte	0xe
 915 0559 4C       		.byte	0x4c
 916 055a 38050000 		.4byte	0x538
 917 055e 16       		.uleb128 0x16
 918 055f 01       		.byte	0x1
 919 0560 0E       		.byte	0xe
 920 0561 51       		.byte	0x51
 921 0562 79050000 		.4byte	0x579
 922 0566 17       		.uleb128 0x17
 923 0567 21050000 		.4byte	.LASF82
 924 056b 00       		.sleb128 0
 925 056c 17       		.uleb128 0x17
 926 056d 51010000 		.4byte	.LASF83
 927 0571 01       		.sleb128 1
 928 0572 17       		.uleb128 0x17
 929 0573 C5050000 		.4byte	.LASF84
 930 0577 02       		.sleb128 2
 931 0578 00       		.byte	0
 932 0579 02       		.uleb128 0x2
 933 057a D8020000 		.4byte	.LASF85
 934 057e 0E       		.byte	0xe
 935 057f 55       		.byte	0x55
 936 0580 5E050000 		.4byte	0x55e
 937 0584 16       		.uleb128 0x16
 938 0585 01       		.byte	0x1
 939 0586 0E       		.byte	0xe
 940 0587 5A       		.byte	0x5a
 941 0588 9F050000 		.4byte	0x59f
 942 058c 17       		.uleb128 0x17
 943 058d E3040000 		.4byte	.LASF86
 944 0591 00       		.sleb128 0
 945 0592 17       		.uleb128 0x17
 946 0593 9F050000 		.4byte	.LASF87
 947 0597 01       		.sleb128 1
 948 0598 17       		.uleb128 0x17
 949 0599 7F020000 		.4byte	.LASF88
 950 059d 02       		.sleb128 2
 951 059e 00       		.byte	0
 952 059f 02       		.uleb128 0x2
 953 05a0 02010000 		.4byte	.LASF89
 954 05a4 0E       		.byte	0xe
 955 05a5 5E       		.byte	0x5e
 956 05a6 84050000 		.4byte	0x584
 957 05aa 15       		.uleb128 0x15
 958 05ab AE020000 		.4byte	.LASF90
 959 05af 0F       		.byte	0xf
 960 05b0 FE01     		.2byte	0x1fe
 961 05b2 18010000 		.4byte	0x118
 962 05b6 15       		.uleb128 0x15
 963 05b7 16010000 		.4byte	.LASF91
ARM GAS  /tmp/cc1I4VzL.s 			page 18


 964 05bb 0F       		.byte	0xf
 965 05bc 0302     		.2byte	0x203
 966 05be C2050000 		.4byte	0x5c2
 967 05c2 0E       		.uleb128 0xe
 968 05c3 16010000 		.4byte	.LASF91
 969 05c7 1C       		.byte	0x1c
 970 05c8 0F       		.byte	0xf
 971 05c9 4B02     		.2byte	0x24b
 972 05cb 45060000 		.4byte	0x645
 973 05cf 14       		.uleb128 0x14
 974 05d0 B3000000 		.4byte	.LASF92
 975 05d4 0F       		.byte	0xf
 976 05d5 4F02     		.2byte	0x24f
 977 05d7 53050000 		.4byte	0x553
 978 05db 00       		.byte	0
 979 05dc 14       		.uleb128 0x14
 980 05dd B9000000 		.4byte	.LASF93
 981 05e1 0F       		.byte	0xf
 982 05e2 5302     		.2byte	0x253
 983 05e4 79050000 		.4byte	0x579
 984 05e8 01       		.byte	0x1
 985 05e9 14       		.uleb128 0x14
 986 05ea 99000000 		.4byte	.LASF94
 987 05ee 0F       		.byte	0xf
 988 05ef 5702     		.2byte	0x257
 989 05f1 9F050000 		.4byte	0x59f
 990 05f5 02       		.byte	0x2
 991 05f6 14       		.uleb128 0x14
 992 05f7 DC040000 		.4byte	.LASF95
 993 05fb 0F       		.byte	0xf
 994 05fc 5B02     		.2byte	0x25b
 995 05fe 37070000 		.4byte	0x737
 996 0602 04       		.byte	0x4
 997 0603 14       		.uleb128 0x14
 998 0604 60010000 		.4byte	.LASF96
 999 0608 0F       		.byte	0xf
 1000 0609 6302     		.2byte	0x263
 1001 060b 42070000 		.4byte	0x742
 1002 060f 08       		.byte	0x8
 1003 0610 14       		.uleb128 0x14
 1004 0611 7C050000 		.4byte	.LASF97
 1005 0615 0F       		.byte	0xf
 1006 0616 6702     		.2byte	0x267
 1007 0618 18010000 		.4byte	0x118
 1008 061c 0C       		.byte	0xc
 1009 061d 14       		.uleb128 0x14
 1010 061e 00000000 		.4byte	.LASF98
 1011 0622 0F       		.byte	0xf
 1012 0623 6B02     		.2byte	0x26b
 1013 0625 2D050000 		.4byte	0x52d
 1014 0629 10       		.byte	0x10
 1015 062a 14       		.uleb128 0x14
 1016 062b 10010000 		.4byte	.LASF99
 1017 062f 0F       		.byte	0xf
 1018 0630 6F02     		.2byte	0x26f
 1019 0632 2D050000 		.4byte	0x52d
 1020 0636 14       		.byte	0x14
ARM GAS  /tmp/cc1I4VzL.s 			page 19


 1021 0637 14       		.uleb128 0x14
 1022 0638 29000000 		.4byte	.LASF100
 1023 063c 0F       		.byte	0xf
 1024 063d 7302     		.2byte	0x273
 1025 063f B3030000 		.4byte	0x3b3
 1026 0643 18       		.byte	0x18
 1027 0644 00       		.byte	0
 1028 0645 15       		.uleb128 0x15
 1029 0646 4C050000 		.4byte	.LASF101
 1030 064a 0F       		.byte	0xf
 1031 064b 0A02     		.2byte	0x20a
 1032 064d 51060000 		.4byte	0x651
 1033 0651 06       		.uleb128 0x6
 1034 0652 04       		.byte	0x4
 1035 0653 57060000 		.4byte	0x657
 1036 0657 18       		.uleb128 0x18
 1037 0658 62060000 		.4byte	0x662
 1038 065c 19       		.uleb128 0x19
 1039 065d 62060000 		.4byte	0x662
 1040 0661 00       		.byte	0
 1041 0662 06       		.uleb128 0x6
 1042 0663 04       		.byte	0x4
 1043 0664 B6050000 		.4byte	0x5b6
 1044 0668 15       		.uleb128 0x15
 1045 0669 BB040000 		.4byte	.LASF102
 1046 066d 0F       		.byte	0xf
 1047 066e 1202     		.2byte	0x212
 1048 0670 74060000 		.4byte	0x674
 1049 0674 06       		.uleb128 0x6
 1050 0675 04       		.byte	0x4
 1051 0676 7A060000 		.4byte	0x67a
 1052 067a 18       		.uleb128 0x18
 1053 067b 8A060000 		.4byte	0x68a
 1054 067f 19       		.uleb128 0x19
 1055 0680 62060000 		.4byte	0x662
 1056 0684 19       		.uleb128 0x19
 1057 0685 02010000 		.4byte	0x102
 1058 0689 00       		.byte	0
 1059 068a 15       		.uleb128 0x15
 1060 068b E0010000 		.4byte	.LASF103
 1061 068f 0F       		.byte	0xf
 1062 0690 1A02     		.2byte	0x21a
 1063 0692 96060000 		.4byte	0x696
 1064 0696 06       		.uleb128 0x6
 1065 0697 04       		.byte	0x4
 1066 0698 9C060000 		.4byte	0x69c
 1067 069c 18       		.uleb128 0x18
 1068 069d AC060000 		.4byte	0x6ac
 1069 06a1 19       		.uleb128 0x19
 1070 06a2 62060000 		.4byte	0x662
 1071 06a6 19       		.uleb128 0x19
 1072 06a7 AA050000 		.4byte	0x5aa
 1073 06ab 00       		.byte	0
 1074 06ac 13       		.uleb128 0x13
 1075 06ad 20       		.byte	0x20
 1076 06ae 0F       		.byte	0xf
 1077 06af 2002     		.2byte	0x220
ARM GAS  /tmp/cc1I4VzL.s 			page 20


 1078 06b1 2B070000 		.4byte	0x72b
 1079 06b5 14       		.uleb128 0x14
 1080 06b6 FB040000 		.4byte	.LASF104
 1081 06ba 0F       		.byte	0xf
 1082 06bb 2402     		.2byte	0x224
 1083 06bd 45060000 		.4byte	0x645
 1084 06c1 00       		.byte	0
 1085 06c2 14       		.uleb128 0x14
 1086 06c3 39030000 		.4byte	.LASF105
 1087 06c7 0F       		.byte	0xf
 1088 06c8 2802     		.2byte	0x228
 1089 06ca 45060000 		.4byte	0x645
 1090 06ce 04       		.byte	0x4
 1091 06cf 14       		.uleb128 0x14
 1092 06d0 C7020000 		.4byte	.LASF106
 1093 06d4 0F       		.byte	0xf
 1094 06d5 2C02     		.2byte	0x22c
 1095 06d7 45060000 		.4byte	0x645
 1096 06db 08       		.byte	0x8
 1097 06dc 14       		.uleb128 0x14
 1098 06dd 0D000000 		.4byte	.LASF107
 1099 06e1 0F       		.byte	0xf
 1100 06e2 3002     		.2byte	0x230
 1101 06e4 68060000 		.4byte	0x668
 1102 06e8 0C       		.byte	0xc
 1103 06e9 14       		.uleb128 0x14
 1104 06ea A5020000 		.4byte	.LASF108
 1105 06ee 0F       		.byte	0xf
 1106 06ef 3402     		.2byte	0x234
 1107 06f1 8A060000 		.4byte	0x68a
 1108 06f5 10       		.byte	0x10
 1109 06f6 14       		.uleb128 0x14
 1110 06f7 8B050000 		.4byte	.LASF109
 1111 06fb 0F       		.byte	0xf
 1112 06fc 3902     		.2byte	0x239
 1113 06fe 18010000 		.4byte	0x118
 1114 0702 14       		.byte	0x14
 1115 0703 0F       		.uleb128 0xf
 1116 0704 63723100 		.ascii	"cr1\000"
 1117 0708 0F       		.byte	0xf
 1118 0709 3D02     		.2byte	0x23d
 1119 070b 02010000 		.4byte	0x102
 1120 070f 18       		.byte	0x18
 1121 0710 0F       		.uleb128 0xf
 1122 0711 63723200 		.ascii	"cr2\000"
 1123 0715 0F       		.byte	0xf
 1124 0716 4102     		.2byte	0x241
 1125 0718 02010000 		.4byte	0x102
 1126 071c 1A       		.byte	0x1a
 1127 071d 0F       		.uleb128 0xf
 1128 071e 63723300 		.ascii	"cr3\000"
 1129 0722 0F       		.byte	0xf
 1130 0723 4502     		.2byte	0x245
 1131 0725 02010000 		.4byte	0x102
 1132 0729 1C       		.byte	0x1c
 1133 072a 00       		.byte	0
 1134 072b 15       		.uleb128 0x15
ARM GAS  /tmp/cc1I4VzL.s 			page 21


 1135 072c 56000000 		.4byte	.LASF110
 1136 0730 0F       		.byte	0xf
 1137 0731 4602     		.2byte	0x246
 1138 0733 AC060000 		.4byte	0x6ac
 1139 0737 06       		.uleb128 0x6
 1140 0738 04       		.byte	0x4
 1141 0739 3D070000 		.4byte	0x73d
 1142 073d 07       		.uleb128 0x7
 1143 073e 2B070000 		.4byte	0x72b
 1144 0742 06       		.uleb128 0x6
 1145 0743 04       		.byte	0x4
 1146 0744 C5040000 		.4byte	0x4c5
 1147 0748 1A       		.uleb128 0x1a
 1148 0749 6F020000 		.4byte	.LASF111
 1149 074d 01       		.byte	0x1
 1150 074e 1E       		.byte	0x1e
 1151 074f 00000000 		.4byte	.LFB56
 1152 0753 26000000 		.4byte	.LFE56-.LFB56
 1153 0757 01       		.uleb128 0x1
 1154 0758 9C       		.byte	0x9c
 1155 0759 A8070000 		.4byte	0x7a8
 1156 075d 1B       		.uleb128 0x1b
 1157 075e 73747200 		.ascii	"str\000"
 1158 0762 01       		.byte	0x1
 1159 0763 1E       		.byte	0x1e
 1160 0764 AB000000 		.4byte	0xab
 1161 0768 00000000 		.4byte	.LLST0
 1162 076c 1C       		.uleb128 0x1c
 1163 076d 6900     		.ascii	"i\000"
 1164 076f 01       		.byte	0x1
 1165 0770 20       		.byte	0x20
 1166 0771 30000000 		.4byte	0x30
 1167 0775 1E000000 		.4byte	.LLST1
 1168 0779 1C       		.uleb128 0x1c
 1169 077a 6C656E00 		.ascii	"len\000"
 1170 077e 01       		.byte	0x1
 1171 077f 21       		.byte	0x21
 1172 0780 30000000 		.4byte	0x30
 1173 0784 63000000 		.4byte	.LLST2
 1174 0788 1C       		.uleb128 0x1c
 1175 0789 746D7000 		.ascii	"tmp\000"
 1176 078d 01       		.byte	0x1
 1177 078e 22       		.byte	0x22
 1178 078f B1000000 		.4byte	0xb1
 1179 0793 76000000 		.4byte	.LLST3
 1180 0797 1D       		.uleb128 0x1d
 1181 0798 08000000 		.4byte	.LVL1
 1182 079c E1080000 		.4byte	0x8e1
 1183 07a0 1E       		.uleb128 0x1e
 1184 07a1 01       		.uleb128 0x1
 1185 07a2 50       		.byte	0x50
 1186 07a3 02       		.uleb128 0x2
 1187 07a4 75       		.byte	0x75
 1188 07a5 00       		.sleb128 0
 1189 07a6 00       		.byte	0
 1190 07a7 00       		.byte	0
 1191 07a8 1F       		.uleb128 0x1f
ARM GAS  /tmp/cc1I4VzL.s 			page 22


 1192 07a9 5C050000 		.4byte	.LASF124
 1193 07ad 01       		.byte	0x1
 1194 07ae 2B       		.byte	0x2b
 1195 07af 37000000 		.4byte	0x37
 1196 07b3 00000000 		.4byte	.LFB57
 1197 07b7 44000000 		.4byte	.LFE57-.LFB57
 1198 07bb 01       		.uleb128 0x1
 1199 07bc 9C       		.byte	0x9c
 1200 07bd 0D080000 		.4byte	0x80d
 1201 07c1 1B       		.uleb128 0x1b
 1202 07c2 74677400 		.ascii	"tgt\000"
 1203 07c6 01       		.byte	0x1
 1204 07c7 2B       		.byte	0x2b
 1205 07c8 AB000000 		.4byte	0xab
 1206 07cc 95000000 		.4byte	.LLST4
 1207 07d0 1B       		.uleb128 0x1b
 1208 07d1 6D617800 		.ascii	"max\000"
 1209 07d5 01       		.byte	0x1
 1210 07d6 2B       		.byte	0x2b
 1211 07d7 25000000 		.4byte	0x25
 1212 07db C1000000 		.4byte	.LLST5
 1213 07df 1B       		.uleb128 0x1b
 1214 07e0 76616C00 		.ascii	"val\000"
 1215 07e4 01       		.byte	0x1
 1216 07e5 2B       		.byte	0x2b
 1217 07e6 30000000 		.4byte	0x30
 1218 07ea EF000000 		.4byte	.LLST6
 1219 07ee 1C       		.uleb128 0x1c
 1220 07ef 6900     		.ascii	"i\000"
 1221 07f1 01       		.byte	0x1
 1222 07f2 2D       		.byte	0x2d
 1223 07f3 30000000 		.4byte	0x30
 1224 07f7 18010000 		.4byte	.LLST7
 1225 07fb 1D       		.uleb128 0x1d
 1226 07fc 36000000 		.4byte	.LVL18
 1227 0800 48070000 		.4byte	0x748
 1228 0804 1E       		.uleb128 0x1e
 1229 0805 01       		.uleb128 0x1
 1230 0806 50       		.byte	0x50
 1231 0807 03       		.uleb128 0x3
 1232 0808 F3       		.byte	0xf3
 1233 0809 01       		.uleb128 0x1
 1234 080a 50       		.byte	0x50
 1235 080b 00       		.byte	0
 1236 080c 00       		.byte	0
 1237 080d 1A       		.uleb128 0x1a
 1238 080e 48040000 		.4byte	.LASF112
 1239 0812 01       		.byte	0x1
 1240 0813 39       		.byte	0x39
 1241 0814 00000000 		.4byte	.LFB58
 1242 0818 44000000 		.4byte	.LFE58-.LFB58
 1243 081c 01       		.uleb128 0x1
 1244 081d 9C       		.byte	0x9c
 1245 081e AE080000 		.4byte	0x8ae
 1246 0822 20       		.uleb128 0x20
 1247 0823 7F040000 		.4byte	.LASF113
 1248 0827 01       		.byte	0x1
ARM GAS  /tmp/cc1I4VzL.s 			page 23


 1249 0828 39       		.byte	0x39
 1250 0829 B8000000 		.4byte	0xb8
 1251 082d 02       		.uleb128 0x2
 1252 082e 91       		.byte	0x91
 1253 082f 70       		.sleb128 -16
 1254 0830 21       		.uleb128 0x21
 1255 0831 22       		.uleb128 0x22
 1256 0832 D0020000 		.4byte	.LASF114
 1257 0836 01       		.byte	0x1
 1258 0837 3B       		.byte	0x3b
 1259 0838 AE080000 		.4byte	0x8ae
 1260 083c 03       		.uleb128 0x3
 1261 083d 91       		.byte	0x91
 1262 083e 847F     		.sleb128 -124
 1263 0840 23       		.uleb128 0x23
 1264 0841 61726700 		.ascii	"arg\000"
 1265 0845 01       		.byte	0x1
 1266 0846 3C       		.byte	0x3c
 1267 0847 EC000000 		.4byte	0xec
 1268 084b 03       		.uleb128 0x3
 1269 084c 91       		.byte	0x91
 1270 084d 807F     		.sleb128 -128
 1271 084f 24       		.uleb128 0x24
 1272 0850 16000000 		.4byte	.LVL21
 1273 0854 F6080000 		.4byte	0x8f6
 1274 0858 71080000 		.4byte	0x871
 1275 085c 1E       		.uleb128 0x1e
 1276 085d 01       		.uleb128 0x1
 1277 085e 52       		.byte	0x52
 1278 085f 02       		.uleb128 0x2
 1279 0860 91       		.byte	0x91
 1280 0861 54       		.sleb128 -44
 1281 0862 1E       		.uleb128 0x1e
 1282 0863 01       		.uleb128 0x1
 1283 0864 51       		.byte	0x51
 1284 0865 03       		.uleb128 0x3
 1285 0866 91       		.byte	0x91
 1286 0867 50       		.sleb128 -48
 1287 0868 06       		.byte	0x6
 1288 0869 1E       		.uleb128 0x1e
 1289 086a 01       		.uleb128 0x1
 1290 086b 50       		.byte	0x50
 1291 086c 03       		.uleb128 0x3
 1292 086d 91       		.byte	0x91
 1293 086e E47E     		.sleb128 -156
 1294 0870 00       		.byte	0
 1295 0871 25       		.uleb128 0x25
 1296 0872 1C000000 		.4byte	.LVL22
 1297 0876 15090000 		.4byte	0x915
 1298 087a 24       		.uleb128 0x24
 1299 087b 24000000 		.4byte	.LVL23
 1300 087f E1080000 		.4byte	0x8e1
 1301 0883 8F080000 		.4byte	0x88f
 1302 0887 1E       		.uleb128 0x1e
 1303 0888 01       		.uleb128 0x1
 1304 0889 50       		.byte	0x50
 1305 088a 03       		.uleb128 0x3
ARM GAS  /tmp/cc1I4VzL.s 			page 24


 1306 088b 91       		.byte	0x91
 1307 088c E47E     		.sleb128 -156
 1308 088e 00       		.byte	0
 1309 088f 24       		.uleb128 0x24
 1310 0890 2E000000 		.4byte	.LVL24
 1311 0894 2A090000 		.4byte	0x92a
 1312 0898 A4080000 		.4byte	0x8a4
 1313 089c 1E       		.uleb128 0x1e
 1314 089d 01       		.uleb128 0x1
 1315 089e 52       		.byte	0x52
 1316 089f 03       		.uleb128 0x3
 1317 08a0 91       		.byte	0x91
 1318 08a1 E47E     		.sleb128 -156
 1319 08a3 00       		.byte	0
 1320 08a4 25       		.uleb128 0x25
 1321 08a5 32000000 		.4byte	.LVL25
 1322 08a9 45090000 		.4byte	0x945
 1323 08ad 00       		.byte	0
 1324 08ae 26       		.uleb128 0x26
 1325 08af B1000000 		.4byte	0xb1
 1326 08b3 BE080000 		.4byte	0x8be
 1327 08b7 27       		.uleb128 0x27
 1328 08b8 A2000000 		.4byte	0xa2
 1329 08bc 63       		.byte	0x63
 1330 08bd 00       		.byte	0
 1331 08be 28       		.uleb128 0x28
 1332 08bf 61000000 		.4byte	.LASF115
 1333 08c3 10       		.byte	0x10
 1334 08c4 0706     		.2byte	0x607
 1335 08c6 B8030000 		.4byte	0x3b8
 1336 08ca 28       		.uleb128 0x28
 1337 08cb BE050000 		.4byte	.LASF116
 1338 08cf 0F       		.byte	0xf
 1339 08d0 8302     		.2byte	0x283
 1340 08d2 B6050000 		.4byte	0x5b6
 1341 08d6 29       		.uleb128 0x29
 1342 08d7 2E050000 		.4byte	.LASF117
 1343 08db 01       		.byte	0x1
 1344 08dc 1B       		.byte	0x1b
 1345 08dd 6D030000 		.4byte	0x36d
 1346 08e1 2A       		.uleb128 0x2a
 1347 08e2 C9010000 		.4byte	.LASF118
 1348 08e6 11       		.byte	0x11
 1349 08e7 21       		.byte	0x21
 1350 08e8 25000000 		.4byte	0x25
 1351 08ec F6080000 		.4byte	0x8f6
 1352 08f0 19       		.uleb128 0x19
 1353 08f1 B8000000 		.4byte	0xb8
 1354 08f5 00       		.byte	0
 1355 08f6 2A       		.uleb128 0x2a
 1356 08f7 36050000 		.4byte	.LASF119
 1357 08fb 12       		.byte	0x12
 1358 08fc BB       		.byte	0xbb
 1359 08fd 37000000 		.4byte	0x37
 1360 0901 15090000 		.4byte	0x915
 1361 0905 19       		.uleb128 0x19
 1362 0906 AB000000 		.4byte	0xab
ARM GAS  /tmp/cc1I4VzL.s 			page 25


 1363 090a 19       		.uleb128 0x19
 1364 090b B8000000 		.4byte	0xb8
 1365 090f 19       		.uleb128 0x19
 1366 0910 CA000000 		.4byte	0xca
 1367 0914 00       		.byte	0
 1368 0915 2A       		.uleb128 0x2a
 1369 0916 62020000 		.4byte	.LASF120
 1370 091a 0B       		.byte	0xb
 1371 091b 3B       		.byte	0x3b
 1372 091c 23010000 		.4byte	0x123
 1373 0920 2A090000 		.4byte	0x92a
 1374 0924 19       		.uleb128 0x19
 1375 0925 AD030000 		.4byte	0x3ad
 1376 0929 00       		.byte	0
 1377 092a 2B       		.uleb128 0x2b
 1378 092b F4000000 		.4byte	.LASF125
 1379 092f 0E       		.byte	0xe
 1380 0930 71       		.byte	0x71
 1381 0931 45090000 		.4byte	0x945
 1382 0935 19       		.uleb128 0x19
 1383 0936 62060000 		.4byte	0x662
 1384 093a 19       		.uleb128 0x19
 1385 093b 25000000 		.4byte	0x25
 1386 093f 19       		.uleb128 0x19
 1387 0940 C3000000 		.4byte	0xc3
 1388 0944 00       		.byte	0
 1389 0945 2C       		.uleb128 0x2c
 1390 0946 7C000000 		.4byte	.LASF126
 1391 094a 0B       		.byte	0xb
 1392 094b 3D       		.byte	0x3d
 1393 094c AD030000 		.4byte	0x3ad
 1394 0950 00       		.byte	0
 1395              		.section	.debug_abbrev,"",%progbits
 1396              	.Ldebug_abbrev0:
 1397 0000 01       		.uleb128 0x1
 1398 0001 11       		.uleb128 0x11
 1399 0002 01       		.byte	0x1
 1400 0003 25       		.uleb128 0x25
 1401 0004 0E       		.uleb128 0xe
 1402 0005 13       		.uleb128 0x13
 1403 0006 0B       		.uleb128 0xb
 1404 0007 03       		.uleb128 0x3
 1405 0008 0E       		.uleb128 0xe
 1406 0009 1B       		.uleb128 0x1b
 1407 000a 0E       		.uleb128 0xe
 1408 000b 55       		.uleb128 0x55
 1409 000c 17       		.uleb128 0x17
 1410 000d 11       		.uleb128 0x11
 1411 000e 01       		.uleb128 0x1
 1412 000f 10       		.uleb128 0x10
 1413 0010 17       		.uleb128 0x17
 1414 0011 00       		.byte	0
 1415 0012 00       		.byte	0
 1416 0013 02       		.uleb128 0x2
 1417 0014 16       		.uleb128 0x16
 1418 0015 00       		.byte	0
 1419 0016 03       		.uleb128 0x3
ARM GAS  /tmp/cc1I4VzL.s 			page 26


 1420 0017 0E       		.uleb128 0xe
 1421 0018 3A       		.uleb128 0x3a
 1422 0019 0B       		.uleb128 0xb
 1423 001a 3B       		.uleb128 0x3b
 1424 001b 0B       		.uleb128 0xb
 1425 001c 49       		.uleb128 0x49
 1426 001d 13       		.uleb128 0x13
 1427 001e 00       		.byte	0
 1428 001f 00       		.byte	0
 1429 0020 03       		.uleb128 0x3
 1430 0021 24       		.uleb128 0x24
 1431 0022 00       		.byte	0
 1432 0023 0B       		.uleb128 0xb
 1433 0024 0B       		.uleb128 0xb
 1434 0025 3E       		.uleb128 0x3e
 1435 0026 0B       		.uleb128 0xb
 1436 0027 03       		.uleb128 0x3
 1437 0028 0E       		.uleb128 0xe
 1438 0029 00       		.byte	0
 1439 002a 00       		.byte	0
 1440 002b 04       		.uleb128 0x4
 1441 002c 24       		.uleb128 0x24
 1442 002d 00       		.byte	0
 1443 002e 0B       		.uleb128 0xb
 1444 002f 0B       		.uleb128 0xb
 1445 0030 3E       		.uleb128 0x3e
 1446 0031 0B       		.uleb128 0xb
 1447 0032 03       		.uleb128 0x3
 1448 0033 08       		.uleb128 0x8
 1449 0034 00       		.byte	0
 1450 0035 00       		.byte	0
 1451 0036 05       		.uleb128 0x5
 1452 0037 0F       		.uleb128 0xf
 1453 0038 00       		.byte	0
 1454 0039 0B       		.uleb128 0xb
 1455 003a 0B       		.uleb128 0xb
 1456 003b 00       		.byte	0
 1457 003c 00       		.byte	0
 1458 003d 06       		.uleb128 0x6
 1459 003e 0F       		.uleb128 0xf
 1460 003f 00       		.byte	0
 1461 0040 0B       		.uleb128 0xb
 1462 0041 0B       		.uleb128 0xb
 1463 0042 49       		.uleb128 0x49
 1464 0043 13       		.uleb128 0x13
 1465 0044 00       		.byte	0
 1466 0045 00       		.byte	0
 1467 0046 07       		.uleb128 0x7
 1468 0047 26       		.uleb128 0x26
 1469 0048 00       		.byte	0
 1470 0049 49       		.uleb128 0x49
 1471 004a 13       		.uleb128 0x13
 1472 004b 00       		.byte	0
 1473 004c 00       		.byte	0
 1474 004d 08       		.uleb128 0x8
 1475 004e 26       		.uleb128 0x26
 1476 004f 00       		.byte	0
ARM GAS  /tmp/cc1I4VzL.s 			page 27


 1477 0050 00       		.byte	0
 1478 0051 00       		.byte	0
 1479 0052 09       		.uleb128 0x9
 1480 0053 13       		.uleb128 0x13
 1481 0054 01       		.byte	0x1
 1482 0055 03       		.uleb128 0x3
 1483 0056 0E       		.uleb128 0xe
 1484 0057 0B       		.uleb128 0xb
 1485 0058 0B       		.uleb128 0xb
 1486 0059 3A       		.uleb128 0x3a
 1487 005a 0B       		.uleb128 0xb
 1488 005b 3B       		.uleb128 0x3b
 1489 005c 0B       		.uleb128 0xb
 1490 005d 01       		.uleb128 0x1
 1491 005e 13       		.uleb128 0x13
 1492 005f 00       		.byte	0
 1493 0060 00       		.byte	0
 1494 0061 0A       		.uleb128 0xa
 1495 0062 0D       		.uleb128 0xd
 1496 0063 00       		.byte	0
 1497 0064 03       		.uleb128 0x3
 1498 0065 0E       		.uleb128 0xe
 1499 0066 49       		.uleb128 0x49
 1500 0067 13       		.uleb128 0x13
 1501 0068 38       		.uleb128 0x38
 1502 0069 0B       		.uleb128 0xb
 1503 006a 34       		.uleb128 0x34
 1504 006b 19       		.uleb128 0x19
 1505 006c 00       		.byte	0
 1506 006d 00       		.byte	0
 1507 006e 0B       		.uleb128 0xb
 1508 006f 0D       		.uleb128 0xd
 1509 0070 00       		.byte	0
 1510 0071 03       		.uleb128 0x3
 1511 0072 0E       		.uleb128 0xe
 1512 0073 3A       		.uleb128 0x3a
 1513 0074 0B       		.uleb128 0xb
 1514 0075 3B       		.uleb128 0x3b
 1515 0076 0B       		.uleb128 0xb
 1516 0077 49       		.uleb128 0x49
 1517 0078 13       		.uleb128 0x13
 1518 0079 38       		.uleb128 0x38
 1519 007a 0B       		.uleb128 0xb
 1520 007b 00       		.byte	0
 1521 007c 00       		.byte	0
 1522 007d 0C       		.uleb128 0xc
 1523 007e 0D       		.uleb128 0xd
 1524 007f 00       		.byte	0
 1525 0080 03       		.uleb128 0x3
 1526 0081 08       		.uleb128 0x8
 1527 0082 3A       		.uleb128 0x3a
 1528 0083 0B       		.uleb128 0xb
 1529 0084 3B       		.uleb128 0x3b
 1530 0085 0B       		.uleb128 0xb
 1531 0086 49       		.uleb128 0x49
 1532 0087 13       		.uleb128 0x13
 1533 0088 38       		.uleb128 0x38
ARM GAS  /tmp/cc1I4VzL.s 			page 28


 1534 0089 0B       		.uleb128 0xb
 1535 008a 00       		.byte	0
 1536 008b 00       		.byte	0
 1537 008c 0D       		.uleb128 0xd
 1538 008d 13       		.uleb128 0x13
 1539 008e 01       		.byte	0x1
 1540 008f 0B       		.uleb128 0xb
 1541 0090 0B       		.uleb128 0xb
 1542 0091 3A       		.uleb128 0x3a
 1543 0092 0B       		.uleb128 0xb
 1544 0093 3B       		.uleb128 0x3b
 1545 0094 0B       		.uleb128 0xb
 1546 0095 01       		.uleb128 0x1
 1547 0096 13       		.uleb128 0x13
 1548 0097 00       		.byte	0
 1549 0098 00       		.byte	0
 1550 0099 0E       		.uleb128 0xe
 1551 009a 13       		.uleb128 0x13
 1552 009b 01       		.byte	0x1
 1553 009c 03       		.uleb128 0x3
 1554 009d 0E       		.uleb128 0xe
 1555 009e 0B       		.uleb128 0xb
 1556 009f 0B       		.uleb128 0xb
 1557 00a0 3A       		.uleb128 0x3a
 1558 00a1 0B       		.uleb128 0xb
 1559 00a2 3B       		.uleb128 0x3b
 1560 00a3 05       		.uleb128 0x5
 1561 00a4 01       		.uleb128 0x1
 1562 00a5 13       		.uleb128 0x13
 1563 00a6 00       		.byte	0
 1564 00a7 00       		.byte	0
 1565 00a8 0F       		.uleb128 0xf
 1566 00a9 0D       		.uleb128 0xd
 1567 00aa 00       		.byte	0
 1568 00ab 03       		.uleb128 0x3
 1569 00ac 08       		.uleb128 0x8
 1570 00ad 3A       		.uleb128 0x3a
 1571 00ae 0B       		.uleb128 0xb
 1572 00af 3B       		.uleb128 0x3b
 1573 00b0 05       		.uleb128 0x5
 1574 00b1 49       		.uleb128 0x49
 1575 00b2 13       		.uleb128 0x13
 1576 00b3 38       		.uleb128 0x38
 1577 00b4 0B       		.uleb128 0xb
 1578 00b5 00       		.byte	0
 1579 00b6 00       		.byte	0
 1580 00b7 10       		.uleb128 0x10
 1581 00b8 35       		.uleb128 0x35
 1582 00b9 00       		.byte	0
 1583 00ba 49       		.uleb128 0x49
 1584 00bb 13       		.uleb128 0x13
 1585 00bc 00       		.byte	0
 1586 00bd 00       		.byte	0
 1587 00be 11       		.uleb128 0x11
 1588 00bf 17       		.uleb128 0x17
 1589 00c0 01       		.byte	0x1
 1590 00c1 0B       		.uleb128 0xb
ARM GAS  /tmp/cc1I4VzL.s 			page 29


 1591 00c2 0B       		.uleb128 0xb
 1592 00c3 3A       		.uleb128 0x3a
 1593 00c4 0B       		.uleb128 0xb
 1594 00c5 3B       		.uleb128 0x3b
 1595 00c6 0B       		.uleb128 0xb
 1596 00c7 01       		.uleb128 0x1
 1597 00c8 13       		.uleb128 0x13
 1598 00c9 00       		.byte	0
 1599 00ca 00       		.byte	0
 1600 00cb 12       		.uleb128 0x12
 1601 00cc 0D       		.uleb128 0xd
 1602 00cd 00       		.byte	0
 1603 00ce 03       		.uleb128 0x3
 1604 00cf 0E       		.uleb128 0xe
 1605 00d0 3A       		.uleb128 0x3a
 1606 00d1 0B       		.uleb128 0xb
 1607 00d2 3B       		.uleb128 0x3b
 1608 00d3 0B       		.uleb128 0xb
 1609 00d4 49       		.uleb128 0x49
 1610 00d5 13       		.uleb128 0x13
 1611 00d6 00       		.byte	0
 1612 00d7 00       		.byte	0
 1613 00d8 13       		.uleb128 0x13
 1614 00d9 13       		.uleb128 0x13
 1615 00da 01       		.byte	0x1
 1616 00db 0B       		.uleb128 0xb
 1617 00dc 0B       		.uleb128 0xb
 1618 00dd 3A       		.uleb128 0x3a
 1619 00de 0B       		.uleb128 0xb
 1620 00df 3B       		.uleb128 0x3b
 1621 00e0 05       		.uleb128 0x5
 1622 00e1 01       		.uleb128 0x1
 1623 00e2 13       		.uleb128 0x13
 1624 00e3 00       		.byte	0
 1625 00e4 00       		.byte	0
 1626 00e5 14       		.uleb128 0x14
 1627 00e6 0D       		.uleb128 0xd
 1628 00e7 00       		.byte	0
 1629 00e8 03       		.uleb128 0x3
 1630 00e9 0E       		.uleb128 0xe
 1631 00ea 3A       		.uleb128 0x3a
 1632 00eb 0B       		.uleb128 0xb
 1633 00ec 3B       		.uleb128 0x3b
 1634 00ed 05       		.uleb128 0x5
 1635 00ee 49       		.uleb128 0x49
 1636 00ef 13       		.uleb128 0x13
 1637 00f0 38       		.uleb128 0x38
 1638 00f1 0B       		.uleb128 0xb
 1639 00f2 00       		.byte	0
 1640 00f3 00       		.byte	0
 1641 00f4 15       		.uleb128 0x15
 1642 00f5 16       		.uleb128 0x16
 1643 00f6 00       		.byte	0
 1644 00f7 03       		.uleb128 0x3
 1645 00f8 0E       		.uleb128 0xe
 1646 00f9 3A       		.uleb128 0x3a
 1647 00fa 0B       		.uleb128 0xb
ARM GAS  /tmp/cc1I4VzL.s 			page 30


 1648 00fb 3B       		.uleb128 0x3b
 1649 00fc 05       		.uleb128 0x5
 1650 00fd 49       		.uleb128 0x49
 1651 00fe 13       		.uleb128 0x13
 1652 00ff 00       		.byte	0
 1653 0100 00       		.byte	0
 1654 0101 16       		.uleb128 0x16
 1655 0102 04       		.uleb128 0x4
 1656 0103 01       		.byte	0x1
 1657 0104 0B       		.uleb128 0xb
 1658 0105 0B       		.uleb128 0xb
 1659 0106 3A       		.uleb128 0x3a
 1660 0107 0B       		.uleb128 0xb
 1661 0108 3B       		.uleb128 0x3b
 1662 0109 0B       		.uleb128 0xb
 1663 010a 01       		.uleb128 0x1
 1664 010b 13       		.uleb128 0x13
 1665 010c 00       		.byte	0
 1666 010d 00       		.byte	0
 1667 010e 17       		.uleb128 0x17
 1668 010f 28       		.uleb128 0x28
 1669 0110 00       		.byte	0
 1670 0111 03       		.uleb128 0x3
 1671 0112 0E       		.uleb128 0xe
 1672 0113 1C       		.uleb128 0x1c
 1673 0114 0D       		.uleb128 0xd
 1674 0115 00       		.byte	0
 1675 0116 00       		.byte	0
 1676 0117 18       		.uleb128 0x18
 1677 0118 15       		.uleb128 0x15
 1678 0119 01       		.byte	0x1
 1679 011a 27       		.uleb128 0x27
 1680 011b 19       		.uleb128 0x19
 1681 011c 01       		.uleb128 0x1
 1682 011d 13       		.uleb128 0x13
 1683 011e 00       		.byte	0
 1684 011f 00       		.byte	0
 1685 0120 19       		.uleb128 0x19
 1686 0121 05       		.uleb128 0x5
 1687 0122 00       		.byte	0
 1688 0123 49       		.uleb128 0x49
 1689 0124 13       		.uleb128 0x13
 1690 0125 00       		.byte	0
 1691 0126 00       		.byte	0
 1692 0127 1A       		.uleb128 0x1a
 1693 0128 2E       		.uleb128 0x2e
 1694 0129 01       		.byte	0x1
 1695 012a 3F       		.uleb128 0x3f
 1696 012b 19       		.uleb128 0x19
 1697 012c 03       		.uleb128 0x3
 1698 012d 0E       		.uleb128 0xe
 1699 012e 3A       		.uleb128 0x3a
 1700 012f 0B       		.uleb128 0xb
 1701 0130 3B       		.uleb128 0x3b
 1702 0131 0B       		.uleb128 0xb
 1703 0132 27       		.uleb128 0x27
 1704 0133 19       		.uleb128 0x19
ARM GAS  /tmp/cc1I4VzL.s 			page 31


 1705 0134 11       		.uleb128 0x11
 1706 0135 01       		.uleb128 0x1
 1707 0136 12       		.uleb128 0x12
 1708 0137 06       		.uleb128 0x6
 1709 0138 40       		.uleb128 0x40
 1710 0139 18       		.uleb128 0x18
 1711 013a 9742     		.uleb128 0x2117
 1712 013c 19       		.uleb128 0x19
 1713 013d 01       		.uleb128 0x1
 1714 013e 13       		.uleb128 0x13
 1715 013f 00       		.byte	0
 1716 0140 00       		.byte	0
 1717 0141 1B       		.uleb128 0x1b
 1718 0142 05       		.uleb128 0x5
 1719 0143 00       		.byte	0
 1720 0144 03       		.uleb128 0x3
 1721 0145 08       		.uleb128 0x8
 1722 0146 3A       		.uleb128 0x3a
 1723 0147 0B       		.uleb128 0xb
 1724 0148 3B       		.uleb128 0x3b
 1725 0149 0B       		.uleb128 0xb
 1726 014a 49       		.uleb128 0x49
 1727 014b 13       		.uleb128 0x13
 1728 014c 02       		.uleb128 0x2
 1729 014d 17       		.uleb128 0x17
 1730 014e 00       		.byte	0
 1731 014f 00       		.byte	0
 1732 0150 1C       		.uleb128 0x1c
 1733 0151 34       		.uleb128 0x34
 1734 0152 00       		.byte	0
 1735 0153 03       		.uleb128 0x3
 1736 0154 08       		.uleb128 0x8
 1737 0155 3A       		.uleb128 0x3a
 1738 0156 0B       		.uleb128 0xb
 1739 0157 3B       		.uleb128 0x3b
 1740 0158 0B       		.uleb128 0xb
 1741 0159 49       		.uleb128 0x49
 1742 015a 13       		.uleb128 0x13
 1743 015b 02       		.uleb128 0x2
 1744 015c 17       		.uleb128 0x17
 1745 015d 00       		.byte	0
 1746 015e 00       		.byte	0
 1747 015f 1D       		.uleb128 0x1d
 1748 0160 898201   		.uleb128 0x4109
 1749 0163 01       		.byte	0x1
 1750 0164 11       		.uleb128 0x11
 1751 0165 01       		.uleb128 0x1
 1752 0166 31       		.uleb128 0x31
 1753 0167 13       		.uleb128 0x13
 1754 0168 00       		.byte	0
 1755 0169 00       		.byte	0
 1756 016a 1E       		.uleb128 0x1e
 1757 016b 8A8201   		.uleb128 0x410a
 1758 016e 00       		.byte	0
 1759 016f 02       		.uleb128 0x2
 1760 0170 18       		.uleb128 0x18
 1761 0171 9142     		.uleb128 0x2111
ARM GAS  /tmp/cc1I4VzL.s 			page 32


 1762 0173 18       		.uleb128 0x18
 1763 0174 00       		.byte	0
 1764 0175 00       		.byte	0
 1765 0176 1F       		.uleb128 0x1f
 1766 0177 2E       		.uleb128 0x2e
 1767 0178 01       		.byte	0x1
 1768 0179 3F       		.uleb128 0x3f
 1769 017a 19       		.uleb128 0x19
 1770 017b 03       		.uleb128 0x3
 1771 017c 0E       		.uleb128 0xe
 1772 017d 3A       		.uleb128 0x3a
 1773 017e 0B       		.uleb128 0xb
 1774 017f 3B       		.uleb128 0x3b
 1775 0180 0B       		.uleb128 0xb
 1776 0181 27       		.uleb128 0x27
 1777 0182 19       		.uleb128 0x19
 1778 0183 49       		.uleb128 0x49
 1779 0184 13       		.uleb128 0x13
 1780 0185 11       		.uleb128 0x11
 1781 0186 01       		.uleb128 0x1
 1782 0187 12       		.uleb128 0x12
 1783 0188 06       		.uleb128 0x6
 1784 0189 40       		.uleb128 0x40
 1785 018a 18       		.uleb128 0x18
 1786 018b 9742     		.uleb128 0x2117
 1787 018d 19       		.uleb128 0x19
 1788 018e 01       		.uleb128 0x1
 1789 018f 13       		.uleb128 0x13
 1790 0190 00       		.byte	0
 1791 0191 00       		.byte	0
 1792 0192 20       		.uleb128 0x20
 1793 0193 05       		.uleb128 0x5
 1794 0194 00       		.byte	0
 1795 0195 03       		.uleb128 0x3
 1796 0196 0E       		.uleb128 0xe
 1797 0197 3A       		.uleb128 0x3a
 1798 0198 0B       		.uleb128 0xb
 1799 0199 3B       		.uleb128 0x3b
 1800 019a 0B       		.uleb128 0xb
 1801 019b 49       		.uleb128 0x49
 1802 019c 13       		.uleb128 0x13
 1803 019d 02       		.uleb128 0x2
 1804 019e 18       		.uleb128 0x18
 1805 019f 00       		.byte	0
 1806 01a0 00       		.byte	0
 1807 01a1 21       		.uleb128 0x21
 1808 01a2 18       		.uleb128 0x18
 1809 01a3 00       		.byte	0
 1810 01a4 00       		.byte	0
 1811 01a5 00       		.byte	0
 1812 01a6 22       		.uleb128 0x22
 1813 01a7 34       		.uleb128 0x34
 1814 01a8 00       		.byte	0
 1815 01a9 03       		.uleb128 0x3
 1816 01aa 0E       		.uleb128 0xe
 1817 01ab 3A       		.uleb128 0x3a
 1818 01ac 0B       		.uleb128 0xb
ARM GAS  /tmp/cc1I4VzL.s 			page 33


 1819 01ad 3B       		.uleb128 0x3b
 1820 01ae 0B       		.uleb128 0xb
 1821 01af 49       		.uleb128 0x49
 1822 01b0 13       		.uleb128 0x13
 1823 01b1 02       		.uleb128 0x2
 1824 01b2 18       		.uleb128 0x18
 1825 01b3 00       		.byte	0
 1826 01b4 00       		.byte	0
 1827 01b5 23       		.uleb128 0x23
 1828 01b6 34       		.uleb128 0x34
 1829 01b7 00       		.byte	0
 1830 01b8 03       		.uleb128 0x3
 1831 01b9 08       		.uleb128 0x8
 1832 01ba 3A       		.uleb128 0x3a
 1833 01bb 0B       		.uleb128 0xb
 1834 01bc 3B       		.uleb128 0x3b
 1835 01bd 0B       		.uleb128 0xb
 1836 01be 49       		.uleb128 0x49
 1837 01bf 13       		.uleb128 0x13
 1838 01c0 02       		.uleb128 0x2
 1839 01c1 18       		.uleb128 0x18
 1840 01c2 00       		.byte	0
 1841 01c3 00       		.byte	0
 1842 01c4 24       		.uleb128 0x24
 1843 01c5 898201   		.uleb128 0x4109
 1844 01c8 01       		.byte	0x1
 1845 01c9 11       		.uleb128 0x11
 1846 01ca 01       		.uleb128 0x1
 1847 01cb 31       		.uleb128 0x31
 1848 01cc 13       		.uleb128 0x13
 1849 01cd 01       		.uleb128 0x1
 1850 01ce 13       		.uleb128 0x13
 1851 01cf 00       		.byte	0
 1852 01d0 00       		.byte	0
 1853 01d1 25       		.uleb128 0x25
 1854 01d2 898201   		.uleb128 0x4109
 1855 01d5 00       		.byte	0
 1856 01d6 11       		.uleb128 0x11
 1857 01d7 01       		.uleb128 0x1
 1858 01d8 31       		.uleb128 0x31
 1859 01d9 13       		.uleb128 0x13
 1860 01da 00       		.byte	0
 1861 01db 00       		.byte	0
 1862 01dc 26       		.uleb128 0x26
 1863 01dd 01       		.uleb128 0x1
 1864 01de 01       		.byte	0x1
 1865 01df 49       		.uleb128 0x49
 1866 01e0 13       		.uleb128 0x13
 1867 01e1 01       		.uleb128 0x1
 1868 01e2 13       		.uleb128 0x13
 1869 01e3 00       		.byte	0
 1870 01e4 00       		.byte	0
 1871 01e5 27       		.uleb128 0x27
 1872 01e6 21       		.uleb128 0x21
 1873 01e7 00       		.byte	0
 1874 01e8 49       		.uleb128 0x49
 1875 01e9 13       		.uleb128 0x13
ARM GAS  /tmp/cc1I4VzL.s 			page 34


 1876 01ea 2F       		.uleb128 0x2f
 1877 01eb 0B       		.uleb128 0xb
 1878 01ec 00       		.byte	0
 1879 01ed 00       		.byte	0
 1880 01ee 28       		.uleb128 0x28
 1881 01ef 34       		.uleb128 0x34
 1882 01f0 00       		.byte	0
 1883 01f1 03       		.uleb128 0x3
 1884 01f2 0E       		.uleb128 0xe
 1885 01f3 3A       		.uleb128 0x3a
 1886 01f4 0B       		.uleb128 0xb
 1887 01f5 3B       		.uleb128 0x3b
 1888 01f6 05       		.uleb128 0x5
 1889 01f7 49       		.uleb128 0x49
 1890 01f8 13       		.uleb128 0x13
 1891 01f9 3F       		.uleb128 0x3f
 1892 01fa 19       		.uleb128 0x19
 1893 01fb 3C       		.uleb128 0x3c
 1894 01fc 19       		.uleb128 0x19
 1895 01fd 00       		.byte	0
 1896 01fe 00       		.byte	0
 1897 01ff 29       		.uleb128 0x29
 1898 0200 34       		.uleb128 0x34
 1899 0201 00       		.byte	0
 1900 0202 03       		.uleb128 0x3
 1901 0203 0E       		.uleb128 0xe
 1902 0204 3A       		.uleb128 0x3a
 1903 0205 0B       		.uleb128 0xb
 1904 0206 3B       		.uleb128 0x3b
 1905 0207 0B       		.uleb128 0xb
 1906 0208 49       		.uleb128 0x49
 1907 0209 13       		.uleb128 0x13
 1908 020a 3F       		.uleb128 0x3f
 1909 020b 19       		.uleb128 0x19
 1910 020c 3C       		.uleb128 0x3c
 1911 020d 19       		.uleb128 0x19
 1912 020e 00       		.byte	0
 1913 020f 00       		.byte	0
 1914 0210 2A       		.uleb128 0x2a
 1915 0211 2E       		.uleb128 0x2e
 1916 0212 01       		.byte	0x1
 1917 0213 3F       		.uleb128 0x3f
 1918 0214 19       		.uleb128 0x19
 1919 0215 03       		.uleb128 0x3
 1920 0216 0E       		.uleb128 0xe
 1921 0217 3A       		.uleb128 0x3a
 1922 0218 0B       		.uleb128 0xb
 1923 0219 3B       		.uleb128 0x3b
 1924 021a 0B       		.uleb128 0xb
 1925 021b 27       		.uleb128 0x27
 1926 021c 19       		.uleb128 0x19
 1927 021d 49       		.uleb128 0x49
 1928 021e 13       		.uleb128 0x13
 1929 021f 3C       		.uleb128 0x3c
 1930 0220 19       		.uleb128 0x19
 1931 0221 01       		.uleb128 0x1
 1932 0222 13       		.uleb128 0x13
ARM GAS  /tmp/cc1I4VzL.s 			page 35


 1933 0223 00       		.byte	0
 1934 0224 00       		.byte	0
 1935 0225 2B       		.uleb128 0x2b
 1936 0226 2E       		.uleb128 0x2e
 1937 0227 01       		.byte	0x1
 1938 0228 3F       		.uleb128 0x3f
 1939 0229 19       		.uleb128 0x19
 1940 022a 03       		.uleb128 0x3
 1941 022b 0E       		.uleb128 0xe
 1942 022c 3A       		.uleb128 0x3a
 1943 022d 0B       		.uleb128 0xb
 1944 022e 3B       		.uleb128 0x3b
 1945 022f 0B       		.uleb128 0xb
 1946 0230 27       		.uleb128 0x27
 1947 0231 19       		.uleb128 0x19
 1948 0232 3C       		.uleb128 0x3c
 1949 0233 19       		.uleb128 0x19
 1950 0234 01       		.uleb128 0x1
 1951 0235 13       		.uleb128 0x13
 1952 0236 00       		.byte	0
 1953 0237 00       		.byte	0
 1954 0238 2C       		.uleb128 0x2c
 1955 0239 2E       		.uleb128 0x2e
 1956 023a 00       		.byte	0
 1957 023b 3F       		.uleb128 0x3f
 1958 023c 19       		.uleb128 0x19
 1959 023d 03       		.uleb128 0x3
 1960 023e 0E       		.uleb128 0xe
 1961 023f 3A       		.uleb128 0x3a
 1962 0240 0B       		.uleb128 0xb
 1963 0241 3B       		.uleb128 0x3b
 1964 0242 0B       		.uleb128 0xb
 1965 0243 27       		.uleb128 0x27
 1966 0244 19       		.uleb128 0x19
 1967 0245 49       		.uleb128 0x49
 1968 0246 13       		.uleb128 0x13
 1969 0247 3C       		.uleb128 0x3c
 1970 0248 19       		.uleb128 0x19
 1971 0249 00       		.byte	0
 1972 024a 00       		.byte	0
 1973 024b 00       		.byte	0
 1974              		.section	.debug_loc,"",%progbits
 1975              	.Ldebug_loc0:
 1976              	.LLST0:
 1977 0000 00000000 		.4byte	.LVL0
 1978 0004 07000000 		.4byte	.LVL1-1
 1979 0008 0100     		.2byte	0x1
 1980 000a 50       		.byte	0x50
 1981 000b 07000000 		.4byte	.LVL1-1
 1982 000f 26000000 		.4byte	.LFE56
 1983 0013 0100     		.2byte	0x1
 1984 0015 55       		.byte	0x55
 1985 0016 00000000 		.4byte	0
 1986 001a 00000000 		.4byte	0
 1987              	.LLST1:
 1988 001e 08000000 		.4byte	.LVL1
 1989 0022 12000000 		.4byte	.LVL3
ARM GAS  /tmp/cc1I4VzL.s 			page 36


 1990 0026 0200     		.2byte	0x2
 1991 0028 30       		.byte	0x30
 1992 0029 9F       		.byte	0x9f
 1993 002a 12000000 		.4byte	.LVL3
 1994 002e 1C000000 		.4byte	.LVL5
 1995 0032 0600     		.2byte	0x6
 1996 0034 73       		.byte	0x73
 1997 0035 00       		.sleb128 0
 1998 0036 75       		.byte	0x75
 1999 0037 00       		.sleb128 0
 2000 0038 1C       		.byte	0x1c
 2001 0039 9F       		.byte	0x9f
 2002 003a 1C000000 		.4byte	.LVL5
 2003 003e 22000000 		.4byte	.LVL6
 2004 0042 0700     		.2byte	0x7
 2005 0044 75       		.byte	0x75
 2006 0045 00       		.sleb128 0
 2007 0046 20       		.byte	0x20
 2008 0047 73       		.byte	0x73
 2009 0048 00       		.sleb128 0
 2010 0049 22       		.byte	0x22
 2011 004a 9F       		.byte	0x9f
 2012 004b 22000000 		.4byte	.LVL6
 2013 004f 24000000 		.4byte	.LVL7
 2014 0053 0600     		.2byte	0x6
 2015 0055 73       		.byte	0x73
 2016 0056 00       		.sleb128 0
 2017 0057 75       		.byte	0x75
 2018 0058 00       		.sleb128 0
 2019 0059 1C       		.byte	0x1c
 2020 005a 9F       		.byte	0x9f
 2021 005b 00000000 		.4byte	0
 2022 005f 00000000 		.4byte	0
 2023              	.LLST2:
 2024 0063 08000000 		.4byte	.LVL1
 2025 0067 10000000 		.4byte	.LVL2
 2026 006b 0100     		.2byte	0x1
 2027 006d 50       		.byte	0x50
 2028 006e 00000000 		.4byte	0
 2029 0072 00000000 		.4byte	0
 2030              	.LLST3:
 2031 0076 18000000 		.4byte	.LVL4
 2032 007a 1C000000 		.4byte	.LVL5
 2033 007e 0200     		.2byte	0x2
 2034 0080 73       		.byte	0x73
 2035 0081 00       		.sleb128 0
 2036 0082 1C000000 		.4byte	.LVL5
 2037 0086 24000000 		.4byte	.LVL7
 2038 008a 0100     		.2byte	0x1
 2039 008c 52       		.byte	0x52
 2040 008d 00000000 		.4byte	0
 2041 0091 00000000 		.4byte	0
 2042              	.LLST4:
 2043 0095 00000000 		.4byte	.LVL8
 2044 0099 35000000 		.4byte	.LVL18-1
 2045 009d 0100     		.2byte	0x1
 2046 009f 50       		.byte	0x50
ARM GAS  /tmp/cc1I4VzL.s 			page 37


 2047 00a0 35000000 		.4byte	.LVL18-1
 2048 00a4 3A000000 		.4byte	.LVL19
 2049 00a8 0400     		.2byte	0x4
 2050 00aa F3       		.byte	0xf3
 2051 00ab 01       		.uleb128 0x1
 2052 00ac 50       		.byte	0x50
 2053 00ad 9F       		.byte	0x9f
 2054 00ae 3A000000 		.4byte	.LVL19
 2055 00b2 44000000 		.4byte	.LFE57
 2056 00b6 0100     		.2byte	0x1
 2057 00b8 50       		.byte	0x50
 2058 00b9 00000000 		.4byte	0
 2059 00bd 00000000 		.4byte	0
 2060              	.LLST5:
 2061 00c1 00000000 		.4byte	.LVL8
 2062 00c5 02000000 		.4byte	.LVL9
 2063 00c9 0100     		.2byte	0x1
 2064 00cb 51       		.byte	0x51
 2065 00cc 02000000 		.4byte	.LVL9
 2066 00d0 35000000 		.4byte	.LVL18-1
 2067 00d4 0300     		.2byte	0x3
 2068 00d6 71       		.byte	0x71
 2069 00d7 01       		.sleb128 1
 2070 00d8 9F       		.byte	0x9f
 2071 00d9 35000000 		.4byte	.LVL18-1
 2072 00dd 44000000 		.4byte	.LFE57
 2073 00e1 0400     		.2byte	0x4
 2074 00e3 F3       		.byte	0xf3
 2075 00e4 01       		.uleb128 0x1
 2076 00e5 51       		.byte	0x51
 2077 00e6 9F       		.byte	0x9f
 2078 00e7 00000000 		.4byte	0
 2079 00eb 00000000 		.4byte	0
 2080              	.LLST6:
 2081 00ef 00000000 		.4byte	.LVL8
 2082 00f3 1E000000 		.4byte	.LVL12
 2083 00f7 0100     		.2byte	0x1
 2084 00f9 52       		.byte	0x52
 2085 00fa 28000000 		.4byte	.LVL14
 2086 00fe 30000000 		.4byte	.LVL17
 2087 0102 0100     		.2byte	0x1
 2088 0104 52       		.byte	0x52
 2089 0105 3A000000 		.4byte	.LVL19
 2090 0109 44000000 		.4byte	.LFE57
 2091 010d 0100     		.2byte	0x1
 2092 010f 52       		.byte	0x52
 2093 0110 00000000 		.4byte	0
 2094 0114 00000000 		.4byte	0
 2095              	.LLST7:
 2096 0118 00000000 		.4byte	.LVL8
 2097 011c 0E000000 		.4byte	.LVL10
 2098 0120 0200     		.2byte	0x2
 2099 0122 30       		.byte	0x30
 2100 0123 9F       		.byte	0x9f
 2101 0124 0E000000 		.4byte	.LVL10
 2102 0128 24000000 		.4byte	.LVL13
 2103 012c 0100     		.2byte	0x1
ARM GAS  /tmp/cc1I4VzL.s 			page 38


 2104 012e 53       		.byte	0x53
 2105 012f 24000000 		.4byte	.LVL13
 2106 0133 28000000 		.4byte	.LVL14
 2107 0137 0300     		.2byte	0x3
 2108 0139 73       		.byte	0x73
 2109 013a 7F       		.sleb128 -1
 2110 013b 9F       		.byte	0x9f
 2111 013c 28000000 		.4byte	.LVL14
 2112 0140 2C000000 		.4byte	.LVL15
 2113 0144 0100     		.2byte	0x1
 2114 0146 53       		.byte	0x53
 2115 0147 2C000000 		.4byte	.LVL15
 2116 014b 2E000000 		.4byte	.LVL16
 2117 014f 0300     		.2byte	0x3
 2118 0151 73       		.byte	0x73
 2119 0152 7F       		.sleb128 -1
 2120 0153 9F       		.byte	0x9f
 2121 0154 3A000000 		.4byte	.LVL19
 2122 0158 44000000 		.4byte	.LFE57
 2123 015c 0200     		.2byte	0x2
 2124 015e 30       		.byte	0x30
 2125 015f 9F       		.byte	0x9f
 2126 0160 00000000 		.4byte	0
 2127 0164 00000000 		.4byte	0
 2128              		.section	.debug_aranges,"",%progbits
 2129 0000 2C000000 		.4byte	0x2c
 2130 0004 0200     		.2byte	0x2
 2131 0006 00000000 		.4byte	.Ldebug_info0
 2132 000a 04       		.byte	0x4
 2133 000b 00       		.byte	0
 2134 000c 0000     		.2byte	0
 2135 000e 0000     		.2byte	0
 2136 0010 00000000 		.4byte	.LFB56
 2137 0014 26000000 		.4byte	.LFE56-.LFB56
 2138 0018 00000000 		.4byte	.LFB57
 2139 001c 44000000 		.4byte	.LFE57-.LFB57
 2140 0020 00000000 		.4byte	.LFB58
 2141 0024 44000000 		.4byte	.LFE58-.LFB58
 2142 0028 00000000 		.4byte	0
 2143 002c 00000000 		.4byte	0
 2144              		.section	.debug_ranges,"",%progbits
 2145              	.Ldebug_ranges0:
 2146 0000 00000000 		.4byte	.LFB56
 2147 0004 26000000 		.4byte	.LFE56
 2148 0008 00000000 		.4byte	.LFB57
 2149 000c 44000000 		.4byte	.LFE57
 2150 0010 00000000 		.4byte	.LFB58
 2151 0014 44000000 		.4byte	.LFE58
 2152 0018 00000000 		.4byte	0
 2153 001c 00000000 		.4byte	0
 2154              		.section	.debug_line,"",%progbits
 2155              	.Ldebug_line0:
 2156 0000 81020000 		.section	.debug_str,"MS",%progbits,1
 2156      0200FF01 
 2156      00000201 
 2156      FB0E0D00 
 2156      01010101 
ARM GAS  /tmp/cc1I4VzL.s 			page 39


 2157              	.LASF98:
 2158 0000 646D6172 		.ascii	"dmarx\000"
 2158      7800
 2159              	.LASF2:
 2160 0006 73697A65 		.ascii	"size_t\000"
 2160      5F7400
 2161              	.LASF107:
 2162 000d 72786368 		.ascii	"rxchar_cb\000"
 2162      61725F63 
 2162      6200
 2163              	.LASF3:
 2164 0017 5F5F7569 		.ascii	"__uint8_t\000"
 2164      6E74385F 
 2164      7400
 2165              	.LASF17:
 2166 0021 76615F6C 		.ascii	"va_list\000"
 2166      69737400 
 2167              	.LASF100:
 2168 0029 72786275 		.ascii	"rxbuf\000"
 2168      6600
 2169              	.LASF13:
 2170 002f 6C6F6E67 		.ascii	"long long unsigned int\000"
 2170      206C6F6E 
 2170      6720756E 
 2170      7369676E 
 2170      65642069 
 2171              	.LASF56:
 2172 0046 65786974 		.ascii	"exitcode\000"
 2172      636F6465 
 2172      00
 2173              	.LASF76:
 2174 004f 76656374 		.ascii	"vector\000"
 2174      6F7200
 2175              	.LASF110:
 2176 0056 55415254 		.ascii	"UARTConfig\000"
 2176      436F6E66 
 2176      696700
 2177              	.LASF115:
 2178 0061 49544D5F 		.ascii	"ITM_RxBuffer\000"
 2178      52784275 
 2178      66666572 
 2178      00
 2179              	.LASF22:
 2180 006e 626F6F6C 		.ascii	"bool_t\000"
 2180      5F7400
 2181              	.LASF34:
 2182 0075 705F7072 		.ascii	"p_prio\000"
 2182      696F00
 2183              	.LASF126:
 2184 007c 63684D74 		.ascii	"chMtxUnlock\000"
 2184      78556E6C 
 2184      6F636B00 
 2185              	.LASF1:
 2186 0088 7369676E 		.ascii	"signed char\000"
 2186      65642063 
 2186      68617200 
 2187              	.LASF69:
ARM GAS  /tmp/cc1I4VzL.s 			page 40


 2188 0094 47545052 		.ascii	"GTPR\000"
 2188      00
 2189              	.LASF94:
 2190 0099 72787374 		.ascii	"rxstate\000"
 2190      61746500 
 2191              	.LASF51:
 2192 00a1 6D5F7175 		.ascii	"m_queue\000"
 2192      65756500 
 2193              	.LASF26:
 2194 00a9 74736C69 		.ascii	"tslices_t\000"
 2194      6365735F 
 2194      7400
 2195              	.LASF92:
 2196 00b3 73746174 		.ascii	"state\000"
 2196      6500
 2197              	.LASF93:
 2198 00b9 74787374 		.ascii	"txstate\000"
 2198      61746500 
 2199              	.LASF9:
 2200 00c1 6C6F6E67 		.ascii	"long int\000"
 2200      20696E74 
 2200      00
 2201              	.LASF25:
 2202 00ca 74737461 		.ascii	"tstate_t\000"
 2202      74655F74 
 2202      00
 2203              	.LASF31:
 2204 00d3 5F5F7661 		.ascii	"__va_list\000"
 2204      5F6C6973 
 2204      7400
 2205              	.LASF12:
 2206 00dd 6C6F6E67 		.ascii	"long long int\000"
 2206      206C6F6E 
 2206      6720696E 
 2206      7400
 2207              	.LASF19:
 2208 00eb 75696E74 		.ascii	"uint16_t\000"
 2208      31365F74 
 2208      00
 2209              	.LASF125:
 2210 00f4 75617274 		.ascii	"uartStartSend\000"
 2210      53746172 
 2210      7453656E 
 2210      6400
 2211              	.LASF89:
 2212 0102 75617274 		.ascii	"uartrxstate_t\000"
 2212      72787374 
 2212      6174655F 
 2212      7400
 2213              	.LASF99:
 2214 0110 646D6174 		.ascii	"dmatx\000"
 2214      7800
 2215              	.LASF91:
 2216 0116 55415254 		.ascii	"UARTDriver\000"
 2216      44726976 
 2216      657200
 2217              	.LASF10:
ARM GAS  /tmp/cc1I4VzL.s 			page 41


 2218 0121 5F5F7569 		.ascii	"__uint32_t\000"
 2218      6E743332 
 2218      5F7400
 2219              	.LASF47:
 2220 012c 72656761 		.ascii	"regarm_t\000"
 2220      726D5F74 
 2220      00
 2221              	.LASF75:
 2222 0135 73656C66 		.ascii	"selfindex\000"
 2222      696E6465 
 2222      7800
 2223              	.LASF30:
 2224 013f 54687265 		.ascii	"Thread\000"
 2224      616400
 2225              	.LASF80:
 2226 0146 55415254 		.ascii	"UART_READY\000"
 2226      5F524541 
 2226      445900
 2227              	.LASF83:
 2228 0151 55415254 		.ascii	"UART_TX_ACTIVE\000"
 2228      5F54585F 
 2228      41435449 
 2228      564500
 2229              	.LASF96:
 2230 0160 75736172 		.ascii	"usart\000"
 2230      7400
 2231              	.LASF0:
 2232 0166 756E7369 		.ascii	"unsigned int\000"
 2232      676E6564 
 2232      20696E74 
 2232      00
 2233              	.LASF123:
 2234 0173 2F686F6D 		.ascii	"/home/dltech-deb/gdrive/Projects/RFM_to_Modbus_TCP/"
 2234      652F646C 
 2234      74656368 
 2234      2D646562 
 2234      2F676472 
 2235 01a6 43686962 		.ascii	"ChibiOS/F103_ChibiOS_ENC60J28/main\000"
 2235      694F532F 
 2235      46313033 
 2235      5F436869 
 2235      62694F53 
 2236              	.LASF118:
 2237 01c9 7374726C 		.ascii	"strlen\000"
 2237      656E00
 2238              	.LASF60:
 2239 01d0 43504152 		.ascii	"CPAR\000"
 2239      00
 2240              	.LASF40:
 2241 01d5 705F6D73 		.ascii	"p_msgqueue\000"
 2241      67717565 
 2241      756500
 2242              	.LASF103:
 2243 01e0 75617274 		.ascii	"uartecb_t\000"
 2243      6563625F 
 2243      7400
 2244              	.LASF62:
ARM GAS  /tmp/cc1I4VzL.s 			page 42


 2245 01ea 444D415F 		.ascii	"DMA_Channel_TypeDef\000"
 2245      4368616E 
 2245      6E656C5F 
 2245      54797065 
 2245      44656600 
 2246              	.LASF74:
 2247 01fe 69736869 		.ascii	"ishift\000"
 2247      667400
 2248              	.LASF7:
 2249 0205 73686F72 		.ascii	"short unsigned int\000"
 2249      7420756E 
 2249      7369676E 
 2249      65642069 
 2249      6E7400
 2250              	.LASF78:
 2251 0218 55415254 		.ascii	"UART_UNINIT\000"
 2251      5F554E49 
 2251      4E495400 
 2252              	.LASF79:
 2253 0224 55415254 		.ascii	"UART_STOP\000"
 2253      5F53544F 
 2253      5000
 2254              	.LASF28:
 2255 022e 6D73675F 		.ascii	"msg_t\000"
 2255      7400
 2256              	.LASF71:
 2257 0234 55534152 		.ascii	"USART_TypeDef\000"
 2257      545F5479 
 2257      70654465 
 2257      6600
 2258              	.LASF24:
 2259 0242 746D6F64 		.ascii	"tmode_t\000"
 2259      655F7400 
 2260              	.LASF46:
 2261 024a 54687265 		.ascii	"ThreadsList\000"
 2261      6164734C 
 2261      69737400 
 2262              	.LASF29:
 2263 0256 6576656E 		.ascii	"eventmask_t\000"
 2263      746D6173 
 2263      6B5F7400 
 2264              	.LASF120:
 2265 0262 63684D74 		.ascii	"chMtxTryLock\000"
 2265      78547279 
 2265      4C6F636B 
 2265      00
 2266              	.LASF111:
 2267 026f 73747272 		.ascii	"strrev\000"
 2267      657600
 2268              	.LASF14:
 2269 0276 73697A65 		.ascii	"sizetype\000"
 2269      74797065 
 2269      00
 2270              	.LASF88:
 2271 027f 55415254 		.ascii	"UART_RX_COMPLETE\000"
 2271      5F52585F 
 2271      434F4D50 
ARM GAS  /tmp/cc1I4VzL.s 			page 43


 2271      4C455445 
 2271      00
 2272              	.LASF50:
 2273 0290 4D757465 		.ascii	"Mutex\000"
 2273      7800
 2274              	.LASF16:
 2275 0296 5F5F676E 		.ascii	"__gnuc_va_list\000"
 2275      75635F76 
 2275      615F6C69 
 2275      737400
 2276              	.LASF108:
 2277 02a5 72786572 		.ascii	"rxerr_cb\000"
 2277      725F6362 
 2277      00
 2278              	.LASF90:
 2279 02ae 75617274 		.ascii	"uartflags_t\000"
 2279      666C6167 
 2279      735F7400 
 2280              	.LASF45:
 2281 02ba 54687265 		.ascii	"ThreadsQueue\000"
 2281      61647351 
 2281      75657565 
 2281      00
 2282              	.LASF106:
 2283 02c7 7278656E 		.ascii	"rxend_cb\000"
 2283      645F6362 
 2283      00
 2284              	.LASF114:
 2285 02d0 6D657373 		.ascii	"message\000"
 2285      61676500 
 2286              	.LASF85:
 2287 02d8 75617274 		.ascii	"uarttxstate_t\000"
 2287      74787374 
 2287      6174655F 
 2287      7400
 2288              	.LASF63:
 2289 02e6 52455345 		.ascii	"RESERVED0\000"
 2289      52564544 
 2289      3000
 2290              	.LASF64:
 2291 02f0 52455345 		.ascii	"RESERVED1\000"
 2291      52564544 
 2291      3100
 2292              	.LASF122:
 2293 02fa 7574696C 		.ascii	"util.c\000"
 2293      2E6300
 2294              	.LASF66:
 2295 0301 52455345 		.ascii	"RESERVED3\000"
 2295      52564544 
 2295      3300
 2296              	.LASF67:
 2297 030b 52455345 		.ascii	"RESERVED4\000"
 2297      52564544 
 2297      3400
 2298              	.LASF33:
 2299 0315 705F7072 		.ascii	"p_prev\000"
 2299      657600
ARM GAS  /tmp/cc1I4VzL.s 			page 44


 2300              	.LASF70:
 2301 031c 52455345 		.ascii	"RESERVED6\000"
 2301      52564544 
 2301      3600
 2302              	.LASF77:
 2303 0326 73746D33 		.ascii	"stm32_dma_stream_t\000"
 2303      325F646D 
 2303      615F7374 
 2303      7265616D 
 2303      5F7400
 2304              	.LASF105:
 2305 0339 7478656E 		.ascii	"txend2_cb\000"
 2305      64325F63 
 2305      6200
 2306              	.LASF27:
 2307 0343 74707269 		.ascii	"tprio_t\000"
 2307      6F5F7400 
 2308              	.LASF121:
 2309 034b 474E5520 		.ascii	"GNU C 4.8.4 20141219 (release) -mcpu=cortex-m3 -mno"
 2309      4320342E 
 2309      382E3420 
 2309      32303134 
 2309      31323139 
 2310 037e 2D746875 		.ascii	"-thumb-interwork -mthumb -ggdb -O2 -fomit-frame-poi"
 2310      6D622D69 
 2310      6E746572 
 2310      776F726B 
 2310      202D6D74 
 2311 03b1 6E746572 		.ascii	"nter -falign-functions=16 -ffunction-sections -fdat"
 2311      202D6661 
 2311      6C69676E 
 2311      2D66756E 
 2311      6374696F 
 2312 03e4 612D7365 		.ascii	"a-sections -fno-common -fno-strict-aliasing\000"
 2312      6374696F 
 2312      6E73202D 
 2312      666E6F2D 
 2312      636F6D6D 
 2313              	.LASF23:
 2314 0410 5F426F6F 		.ascii	"_Bool\000"
 2314      6C00
 2315              	.LASF20:
 2316 0416 696E7433 		.ascii	"int32_t\000"
 2316      325F7400 
 2317              	.LASF4:
 2318 041e 756E7369 		.ascii	"unsigned char\000"
 2318      676E6564 
 2318      20636861 
 2318      7200
 2319              	.LASF43:
 2320 042c 705F6D74 		.ascii	"p_mtxlist\000"
 2320      786C6973 
 2320      7400
 2321              	.LASF5:
 2322 0436 73686F72 		.ascii	"short int\000"
 2322      7420696E 
 2322      7400
ARM GAS  /tmp/cc1I4VzL.s 			page 45


 2323              	.LASF36:
 2324 0440 705F7374 		.ascii	"p_state\000"
 2324      61746500 
 2325              	.LASF112:
 2326 0448 73656E64 		.ascii	"senddbgmsg\000"
 2326      6462676D 
 2326      736700
 2327              	.LASF38:
 2328 0453 705F7072 		.ascii	"p_preempt\000"
 2328      65656D70 
 2328      7400
 2329              	.LASF58:
 2330 045d 65776D61 		.ascii	"ewmask\000"
 2330      736B00
 2331              	.LASF32:
 2332 0464 705F6E65 		.ascii	"p_next\000"
 2332      787400
 2333              	.LASF81:
 2334 046b 75617274 		.ascii	"uartstate_t\000"
 2334      73746174 
 2334      655F7400 
 2335              	.LASF37:
 2336 0477 705F666C 		.ascii	"p_flags\000"
 2336      61677300 
 2337              	.LASF113:
 2338 047f 666F726D 		.ascii	"format\000"
 2338      617400
 2339              	.LASF72:
 2340 0486 6368616E 		.ascii	"channel\000"
 2340      6E656C00 
 2341              	.LASF65:
 2342 048e 52455345 		.ascii	"RESERVED2\000"
 2342      52564544 
 2342      3200
 2343              	.LASF42:
 2344 0498 705F6570 		.ascii	"p_epending\000"
 2344      656E6469 
 2344      6E6700
 2345              	.LASF73:
 2346 04a3 69666372 		.ascii	"ifcr\000"
 2346      00
 2347              	.LASF68:
 2348 04a8 52455345 		.ascii	"RESERVED5\000"
 2348      52564544 
 2348      3500
 2349              	.LASF21:
 2350 04b2 75696E74 		.ascii	"uint32_t\000"
 2350      33325F74 
 2350      00
 2351              	.LASF102:
 2352 04bb 75617274 		.ascii	"uartccb_t\000"
 2352      6363625F 
 2352      7400
 2353              	.LASF11:
 2354 04c5 6C6F6E67 		.ascii	"long unsigned int\000"
 2354      20756E73 
 2354      69676E65 
ARM GAS  /tmp/cc1I4VzL.s 			page 46


 2354      6420696E 
 2354      7400
 2355              	.LASF15:
 2356 04d7 63686172 		.ascii	"char\000"
 2356      00
 2357              	.LASF95:
 2358 04dc 636F6E66 		.ascii	"config\000"
 2358      696700
 2359              	.LASF86:
 2360 04e3 55415254 		.ascii	"UART_RX_IDLE\000"
 2360      5F52585F 
 2360      49444C45 
 2360      00
 2361              	.LASF6:
 2362 04f0 5F5F7569 		.ascii	"__uint16_t\000"
 2362      6E743136 
 2362      5F7400
 2363              	.LASF104:
 2364 04fb 7478656E 		.ascii	"txend1_cb\000"
 2364      64315F63 
 2364      6200
 2365              	.LASF53:
 2366 0505 6D5F6E65 		.ascii	"m_next\000"
 2366      787400
 2367              	.LASF44:
 2368 050c 705F7265 		.ascii	"p_realprio\000"
 2368      616C7072 
 2368      696F00
 2369              	.LASF8:
 2370 0517 5F5F696E 		.ascii	"__int32_t\000"
 2370      7433325F 
 2370      7400
 2371              	.LASF82:
 2372 0521 55415254 		.ascii	"UART_TX_IDLE\000"
 2372      5F54585F 
 2372      49444C45 
 2372      00
 2373              	.LASF117:
 2374 052e 75617274 		.ascii	"uartMtx\000"
 2374      4D747800 
 2375              	.LASF119:
 2376 0536 76737072 		.ascii	"vsprintf\000"
 2376      696E7466 
 2376      00
 2377              	.LASF54:
 2378 053f 5F5F6170 		.ascii	"__ap\000"
 2378      00
 2379              	.LASF49:
 2380 0544 636F6E74 		.ascii	"context\000"
 2380      65787400 
 2381              	.LASF101:
 2382 054c 75617274 		.ascii	"uartcb_t\000"
 2382      63625F74 
 2382      00
 2383              	.LASF48:
 2384 0555 696E7463 		.ascii	"intctx\000"
 2384      747800
ARM GAS  /tmp/cc1I4VzL.s 			page 47


 2385              	.LASF124:
 2386 055c 6E69746F 		.ascii	"nitoa\000"
 2386      6100
 2387              	.LASF55:
 2388 0562 7264796D 		.ascii	"rdymsg\000"
 2388      736700
 2389              	.LASF59:
 2390 0569 434E4454 		.ascii	"CNDTR\000"
 2390      5200
 2391              	.LASF61:
 2392 056f 434D4152 		.ascii	"CMAR\000"
 2392      00
 2393              	.LASF18:
 2394 0574 75696E74 		.ascii	"uint8_t\000"
 2394      385F7400 
 2395              	.LASF97:
 2396 057c 646D616D 		.ascii	"dmamode\000"
 2396      6F646500 
 2397              	.LASF57:
 2398 0584 77746F62 		.ascii	"wtobjp\000"
 2398      6A7000
 2399              	.LASF109:
 2400 058b 73706565 		.ascii	"speed\000"
 2400      6400
 2401              	.LASF41:
 2402 0591 705F6D73 		.ascii	"p_msg\000"
 2402      6700
 2403              	.LASF52:
 2404 0597 6D5F6F77 		.ascii	"m_owner\000"
 2404      6E657200 
 2405              	.LASF87:
 2406 059f 55415254 		.ascii	"UART_RX_ACTIVE\000"
 2406      5F52585F 
 2406      41435449 
 2406      564500
 2407              	.LASF35:
 2408 05ae 705F6374 		.ascii	"p_ctx\000"
 2408      7800
 2409              	.LASF39:
 2410 05b4 705F7761 		.ascii	"p_waiting\000"
 2410      6974696E 
 2410      6700
 2411              	.LASF116:
 2412 05be 55415254 		.ascii	"UARTD2\000"
 2412      443200
 2413              	.LASF84:
 2414 05c5 55415254 		.ascii	"UART_TX_COMPLETE\000"
 2414      5F54585F 
 2414      434F4D50 
 2414      4C455445 
 2414      00
 2415              		.ident	"GCC: (4.8.4-1+11-1) 4.8.4 20141219 (release)"
ARM GAS  /tmp/cc1I4VzL.s 			page 48


DEFINED SYMBOLS
                            *ABS*:0000000000000000 util.c
     /tmp/cc1I4VzL.s:19     .text.strrev:0000000000000000 $t
     /tmp/cc1I4VzL.s:25     .text.strrev:0000000000000000 strrev
     /tmp/cc1I4VzL.s:75     .text.nitoa:0000000000000000 $t
     /tmp/cc1I4VzL.s:81     .text.nitoa:0000000000000000 nitoa
     /tmp/cc1I4VzL.s:154    .text.nitoa:0000000000000040 $d
     /tmp/cc1I4VzL.s:159    .text.senddbgmsg:0000000000000000 $t
     /tmp/cc1I4VzL.s:165    .text.senddbgmsg:0000000000000000 senddbgmsg
     /tmp/cc1I4VzL.s:221    .text.senddbgmsg:000000000000003c $d
                     .debug_frame:0000000000000010 $d
     /tmp/cc1I4VzL.s:158    .text.nitoa:0000000000000044 $t
     /tmp/cc1I4VzL.s:226    .text.senddbgmsg:0000000000000044 $t

UNDEFINED SYMBOLS
strlen
vsprintf
chMtxTryLock
uartStartSend
chMtxUnlock
uartMtx
UARTD2
